L251 LINKER/LOCATER V4.66.93.0                                                          11/01/2024  21:35:45  PAGE 1


L251 LINKER/LOCATER V4.66.93.0, INVOKED BY:
C:\KEIL_V5\C251\BIN\L251.EXE .\Out_File\board.obj, .\Out_File\common.obj, ..\..\Libraries\libraries\STC32_FPMU_LARGE_V1.
>> 0.LIB (STC32F_FPMU), .\Out_File\zf_adc.obj, .\Out_File\zf_delay.obj, .\Out_File\zf_eeprom.obj, .\Out_File\zf_exti.obj
>> , .\Out_File\zf_gpio.obj, .\Out_File\zf_iic.obj, .\Out_File\zf_nvic.obj, .\Out_File\zf_pwm.obj, .\Out_File\zf_spi.obj
>> , .\Out_File\zf_tim.obj, .\Out_File\zf_uart.obj, .\Out_File\zf_fifo.obj, .\Out_File\SEEKFREE_18TFT.obj, .\Out_File\SE
>> EKFREE_BLUETOOTH_CH9141.obj, .\Out_File\SEEKFREE_BLE6A20.obj, ..\..\Libraries\seekfree_peripheral\SEEKFREE_CONFIG.LIB
>> , .\Out_File\SEEKFREE_DL1A.obj, .\Out_File\SEEKFREE_DL1B.obj, .\Out_File\SEEKFREE_FONT.obj, .\Out_File\SEEKFREE_FUNCT
>> ION.obj, .\Out_File\SEEKFREE_ICM20602.obj, .\Out_File\SEEKFREE_IMU660RA.obj, .\Out_File\SEEKFREE_IMU963RA.obj, .\Out_
>> File\SEEKFREE_IPS114_SPI.obj, .\Out_File\SEEKFREE_IPS200_SPI.obj, .\Out_File\SEEKFREE_MPU6050.obj, .\Out_File\SEEKFRE
>> E_OLED.obj, .\Out_File\SEEKFREE_TSL1401.obj, .\Out_File\SEEKFREE_VIRSCO.obj, .\Out_File\SEEKFREE_WIRELESS.obj, .\Out_
>> File\isr.obj, .\Out_File\main.obj, .\Out_File\seekfree_assistant.obj, .\Out_File\seekfree_assistant_inface.obj, .\Out
>> _File\drv8701_dual.obj, .\Out_File\servo.obj, .\Out_File\battery.obj TO .\Out_File\SEEKFREE PRINT (.\Out_File\SEEKFRE
>> E.map) CASE DISABLEWARNING (16, 57) REMOVEUNUSED CLASSES (EDATA (0X0-0X1FFF), HDATA (0X0-0X1FFF))


CPU MODE:     251 SOURCE MODE
INTR FRAME:   4 BYTES SAVED ON INTERRUPT
MEMORY MODEL: XSMALL WITH FLOATING POINT ARITHMETIC


INPUT MODULES INCLUDED:
  .\Out_File\board.obj (board)
         COMMENT TYPE 0: C251 V5.60.0
  .\Out_File\common.obj (common)
         COMMENT TYPE 0: C251 V5.60.0
  ..\..\Libraries\libraries\STC32_FPMU_LARGE_V1.0.LIB (STC32F_FPMU)
         COMMENT TYPE 0: A251 V4.69.13.0
  .\Out_File\zf_adc.obj (zf_adc)
         COMMENT TYPE 0: C251 V5.60.0
  .\Out_File\zf_delay.obj (zf_delay)
         COMMENT TYPE 0: C251 V5.60.0
  .\Out_File\zf_eeprom.obj (zf_eeprom)
         COMMENT TYPE 0: C251 V5.60.0
  .\Out_File\zf_exti.obj (zf_exti)
         COMMENT TYPE 0: C251 V5.60.0
  .\Out_File\zf_gpio.obj (zf_gpio)
         COMMENT TYPE 0: C251 V5.60.0
  .\Out_File\zf_iic.obj (zf_iic)
         COMMENT TYPE 0: C251 V5.60.0
  .\Out_File\zf_nvic.obj (zf_nvic)
         COMMENT TYPE 0: C251 V5.60.0
  .\Out_File\zf_pwm.obj (zf_pwm)
         COMMENT TYPE 0: C251 V5.60.0
  .\Out_File\zf_spi.obj (zf_spi)
         COMMENT TYPE 0: C251 V5.60.0
  .\Out_File\zf_tim.obj (zf_tim)
         COMMENT TYPE 0: C251 V5.60.0
  .\Out_File\zf_uart.obj (zf_uart)
         COMMENT TYPE 0: C251 V5.60.0
  .\Out_File\zf_fifo.obj (zf_fifo)
         COMMENT TYPE 0: C251 V5.60.0
  .\Out_File\SEEKFREE_18TFT.obj (SEEKFREE_18TFT)
         COMMENT TYPE 0: C251 V5.60.0
  .\Out_File\SEEKFREE_BLUETOOTH_CH9141.obj (SEEKFREE_BLUETOOTH_CH9141)
         COMMENT TYPE 0: C251 V5.60.0
  .\Out_File\SEEKFREE_BLE6A20.obj (SEEKFREE_BLE6A20)
         COMMENT TYPE 0: C251 V5.60.0
  .\Out_File\SEEKFREE_DL1A.obj (SEEKFREE_DL1A)
         COMMENT TYPE 0: C251 V5.60.0
  .\Out_File\SEEKFREE_DL1B.obj (SEEKFREE_DL1B)
         COMMENT TYPE 0: C251 V5.60.0
  .\Out_File\SEEKFREE_FONT.obj (SEEKFREE_FONT)
         COMMENT TYPE 0: C251 V5.60.0
  .\Out_File\SEEKFREE_FUNCTION.obj (SEEKFREE_FUNCTION)
         COMMENT TYPE 0: C251 V5.60.0
  .\Out_File\SEEKFREE_ICM20602.obj (SEEKFREE_ICM20602)
L251 LINKER/LOCATER V4.66.93.0                                                        11/01/2024  21:35:45  PAGE 2


         COMMENT TYPE 0: C251 V5.60.0
  .\Out_File\SEEKFREE_IMU660RA.obj (SEEKFREE_IMU660RA)
         COMMENT TYPE 0: C251 V5.60.0
  .\Out_File\SEEKFREE_IMU963RA.obj (SEEKFREE_IMU963RA)
         COMMENT TYPE 0: C251 V5.60.0
  .\Out_File\SEEKFREE_IPS114_SPI.obj (SEEKFREE_IPS114_SPI)
         COMMENT TYPE 0: C251 V5.60.0
  .\Out_File\SEEKFREE_IPS200_SPI.obj (SEEKFREE_IPS200_SPI)
         COMMENT TYPE 0: C251 V5.60.0
  .\Out_File\SEEKFREE_MPU6050.obj (SEEKFREE_MPU6050)
         COMMENT TYPE 0: C251 V5.60.0
  .\Out_File\SEEKFREE_OLED.obj (SEEKFREE_OLED)
         COMMENT TYPE 0: C251 V5.60.0
  .\Out_File\SEEKFREE_TSL1401.obj (SEEKFREE_TSL1401)
         COMMENT TYPE 0: C251 V5.60.0
  .\Out_File\SEEKFREE_VIRSCO.obj (SEEKFREE_VIRSCO)
         COMMENT TYPE 0: C251 V5.60.0
  .\Out_File\SEEKFREE_WIRELESS.obj (SEEKFREE_WIRELESS)
         COMMENT TYPE 0: C251 V5.60.0
  .\Out_File\isr.obj (isr)
         COMMENT TYPE 0: C251 V5.60.0
  .\Out_File\main.obj (main)
         COMMENT TYPE 0: C251 V5.60.0
  .\Out_File\seekfree_assistant.obj (seekfree_assistant)
         COMMENT TYPE 0: C251 V5.60.0
  .\Out_File\seekfree_assistant_inface.obj (seekfree_assistant_inface)
         COMMENT TYPE 0: C251 V5.60.0
  .\Out_File\drv8701_dual.obj (drv8701_dual)
         COMMENT TYPE 0: C251 V5.60.0
  .\Out_File\servo.obj (servo)
         COMMENT TYPE 0: C251 V5.60.0
  .\Out_File\battery.obj (battery)
         COMMENT TYPE 0: C251 V5.60.0
  ..\..\Libraries\seekfree_peripheral\SEEKFREE_CONFIG.LIB (SEEKFREE_CONFIG)
         COMMENT TYPE 0: C251 V5.60.0
  C:\KEIL_V5\C251\LIB\C2SFPXS.LIB (PRINTF)
         COMMENT TYPE 0: A251 V4.69.6.0
  C:\KEIL_V5\C251\LIB\C2SFPXS.LIB (?C?PRNFMT)
         COMMENT TYPE 0: A251 V4.69.6.0
  C:\KEIL_V5\C251\LIB\C2SFPXS.LIB (?C?FPCONVERT)
         COMMENT TYPE 0: A251 V4.69.6.0
  C:\KEIL_V5\C251\LIB\C2SFPXS.LIB (?C?FTNPWR)
         COMMENT TYPE 0: A251 V4.69.6.0
  C:\KEIL_V5\C251\LIB\C2SXS.LIB (?C_START)
         COMMENT TYPE 0: A251 V4.69.6.0
  C:\KEIL_V5\C251\LIB\C2SXS.LIB (?C?INITEDATA)
         COMMENT TYPE 0: A251 V4.69.6.0
  C:\KEIL_V5\C251\LIB\C2SXS.LIB (?C?SIDIV)
         COMMENT TYPE 0: A251 V4.69.6.0
  C:\KEIL_V5\C251\LIB\C2SXS.LIB (?C?LMUL)
         COMMENT TYPE 0: A251 V4.69.6.0
  C:\KEIL_V5\C251\LIB\C2SXS.LIB (?C?LIMUL)
         COMMENT TYPE 0: A251 V4.69.6.0
  C:\KEIL_V5\C251\LIB\C2SXS.LIB (?C?ULDIV)
         COMMENT TYPE 0: A251 V4.69.6.0
  C:\KEIL_V5\C251\LIB\C2SXS.LIB (?C?SLDIV)
         COMMENT TYPE 0: A251 V4.69.6.0
  C:\KEIL_V5\C251\LIB\C2SXS.LIB (?C?BMOVENP)
         COMMENT TYPE 0: A251 V4.69.6.0
  C:\KEIL_V5\C251\LIB\C2SXS.LIB (STRLEN)
         COMMENT TYPE 0: C251 V5.58.7
  C:\KEIL_V5\C251\LIB\C2SXS.LIB (memcpy)
         COMMENT TYPE 0: C251 V5.58.7
  C:\KEIL_V5\C251\LIB\C2SXS.LIB (memset)
         COMMENT TYPE 0: C251 V5.58.7
L251 LINKER/LOCATER V4.66.93.0                                                        11/01/2024  21:35:45  PAGE 3


  C:\KEIL_V5\C251\LIB\C2SXS.LIB (?C?INITEDATA_END)
         COMMENT TYPE 0: A251 V4.69.6.0


ACTIVE MEMORY CLASSES OF MODULE:  .\Out_File\SEEKFREE (board)

BASE        START       END         USED      MEMORY CLASS
==========================================================
000000H     000000H     001FFFH     0011E5H   EDATA
000000H     000000H     001FFFH               HDATA
FF0000H     FF0000H     FFFFFFH     007083H   CODE
000000H     FF0000H     FFFFFFH     00038FH   HCONST
FF0000H     FF0000H     FFFFFFH     000004H   CONST
000000H     000000H     00007FH     000008H   DATA


MEMORY MAP OF MODULE:  .\Out_File\SEEKFREE (board)


START     STOP      LENGTH    ALIGN  RELOC    MEMORY CLASS   SEGMENT NAME
=========================================================================
000000H   000007H   000008H   ---    AT..     DATA           "REG BANK 0"
000008H   000208H   000201H   BYTE   UNIT     EDATA          ?ED?SEEKFREE_TSL1401
000209H   000345H   00013DH   BYTE   UNIT     EDATA          ?ED?SEEKFREE_ASSISTANT
000346H   0003D2H   00008DH   BYTE   UNIT     EDATA          ?ED?SEEKFREE_ASSISTANT_DATA_ANALYSIS?SEEKFREE_ASSISTANT
0003D3H   00045EH   00008CH   BYTE   UNIT     EDATA          ?ED?DL1B_INIT?SEEKFREE_DL1B
00045FH   0004BDH   00005FH   BYTE   UNIT     EDATA          ?ED?ZF_SPRINTF?SEEKFREE_FUNCTION
0004BEH   000515H   000058H   BYTE   UNIT     EDATA          ?ED?SEEKFREE_BLUETOOTH_CH9141
000516H   00056DH   000058H   BYTE   UNIT     EDATA          ?ED?SEEKFREE_WIRELESS
00056EH   0005C4H   000057H   BYTE   UNIT     EDATA          ?ED?SEEKFREE_BLE6A20
0005C5H   0005FCH   000038H   BYTE   UNIT     EDATA          ?ED?FUNC_DOUBLE_TO_STR?SEEKFREE_FUNCTION
0005FDH   00062CH   000030H   BYTE   UNIT     EDATA          ?ED?LCD_SHOWFLOAT_SIMSPI?SEEKFREE_18TFT
00062DH   00065CH   000030H   BYTE   UNIT     EDATA          ?ED?LCD_SHOWFLOAT?SEEKFREE_18TFT
00065DH   00068CH   000030H   BYTE   UNIT     EDATA          ?ED?IPS114_SHOWFLOAT_SIMSPI?SEEKFREE_IPS114_SPI
00068DH   0006BCH   000030H   BYTE   UNIT     EDATA          ?ED?IPS114_SHOWFLOAT?SEEKFREE_IPS114_SPI
0006BDH   0006ECH   000030H   BYTE   UNIT     EDATA          ?ED?OLED_PRINTF_FLOAT?SEEKFREE_OLED
0006EDH   00071CH   000030H   BYTE   UNIT     EDATA          ?ED?OLED_PRINTF_FLOAT_SPI?SEEKFREE_OLED
00071DH   00074BH   00002FH   BYTE   UNIT     EDATA          ?ED?DL1A_SET_MEASUREMENT_TIMING_BUDGET?SEEKFREE_DL1A
00074CH   000777H   00002CH   BYTE   UNIT     EDATA          ?ED?LCD_SHOWINT32_SIMSPI?SEEKFREE_18TFT
000778H   0007A3H   00002CH   BYTE   UNIT     EDATA          ?ED?LCD_SHOWINT32?SEEKFREE_18TFT
0007A4H   0007CFH   00002CH   BYTE   UNIT     EDATA          ?ED?IPS114_SHOWINT32_SIMSPI?SEEKFREE_IPS114_SPI
0007D0H   0007FBH   00002CH   BYTE   UNIT     EDATA          ?ED?IPS114_SHOWINT32?SEEKFREE_IPS114_SPI
0007FCH   000827H   00002CH   BYTE   UNIT     EDATA          ?ED?OLED_PRINTF_INT32?SEEKFREE_OLED
000828H   000853H   00002CH   BYTE   UNIT     EDATA          ?ED?OLED_PRINTF_INT32_SPI?SEEKFREE_OLED
000854H   00087DH   00002AH   BYTE   UNIT     EDATA          ?ED?FUNC_FLOAT_TO_STR?SEEKFREE_FUNCTION
00087EH   0008A7H   00002AH   BYTE   UNIT     EDATA          ?ED?SEEKFREE_ASSISTANT_OSCILLOSCOPE_SEND?SEEKFREE_ASSISTAN
                                                             -T
0008A8H   0008CCH   000025H   BYTE   UNIT     EDATA          ?ED?FUNC_HEX_TO_STR?SEEKFREE_FUNCTION
0008CDH   0008EFH   000023H   BYTE   UNIT     EDATA          ?ED?IPS200_SHOW_FLOAT?SEEKFREE_IPS200_SPI
0008F0H   00090FH   000020H   BYTE   UNIT     EDATA          ?ED?IPS200_SHOW_WAVE?SEEKFREE_IPS200_SPI
000910H   00092EH   00001FH   BYTE   UNIT     EDATA          ?ED?DL1A_GET_MEASUREMENT_TIMING_BUDGET?SEEKFREE_DL1A
00092FH   00094DH   00001FH   BYTE   UNIT     EDATA          ?ED?SEEKFREE_ASSISTANT_CAMERA_BOUNDARY_CONFIG?SEEKFREE_ASS
                                                             -ISTANT
00094EH   00096AH   00001DH   BYTE   UNIT     EDATA          ?ED?FUNC_INT_TO_STR?SEEKFREE_FUNCTION
00096BH   000987H   00001DH   BYTE   UNIT     EDATA          ?ED?IPS200_SHOW_INT?SEEKFREE_IPS200_SPI
000988H   0009A4H   00001DH   BYTE   UNIT     EDATA          ?ED?IPS200_SHOW_UINT?SEEKFREE_IPS200_SPI
0009A5H   0009BDH   000019H   BYTE   UNIT     EDATA          ?ED?FUNC_UINT_TO_STR?SEEKFREE_FUNCTION
0009BEH   0009D6H   000019H   BYTE   UNIT     EDATA          ?ED?IPS200_SHOW_CHINESE?SEEKFREE_IPS200_SPI
0009D7H   0009EEH   000018H   BYTE   UNIT     EDATA          ?ED?FIFO_READ_BUFFER?ZF_FIFO
0009EFH   000A06H   000018H   BYTE   UNIT     EDATA          ?ED?FIFO_READ_TAIL_BUFFER?ZF_FIFO
000A07H   000A1CH   000016H   BYTE   UNIT     EDATA          ?ED?IPS200_DRAW_LINE?SEEKFREE_IPS200_SPI
000A1DH   000A31H   000015H   BYTE   UNIT     EDATA          ?ED?DL1A_INIT?SEEKFREE_DL1A
000A32H   000A45H   000014H   BYTE   UNIT     EDATA          ?ED?PWM_INIT?ZF_PWM
000A46H   000A59H   000014H   BYTE   UNIT     EDATA          ?ED?PWM_FREQ?ZF_PWM
000A5AH   000A6DH   000014H   BYTE   UNIT     EDATA          ?ED?NUMBER_CONVERSION_ASCII?SEEKFREE_FUNCTION
L251 LINKER/LOCATER V4.66.93.0                                                        11/01/2024  21:35:45  PAGE 4


000A6EH   000A7FH   000012H   BYTE   UNIT     EDATA          ?ED?FIFO_WRITE_BUFFER?ZF_FIFO
000A80H   000A91H   000012H   BYTE   UNIT     EDATA          ?ED?SEEKFREE_IMU963RA
000A92H   000AA3H   000012H   BYTE   UNIT     EDATA          ?ED?OLED_DIS_BMP?SEEKFREE_OLED
000AA4H   000AB5H   000012H   BYTE   UNIT     EDATA          ?ED?OLED_DIS_BMP_SPI?SEEKFREE_OLED
000AB6H   000AC6H   000011H   BYTE   UNIT     EDATA          ?ED?FUNC_STR_TO_FLOAT?SEEKFREE_FUNCTION
000AC7H   000AD7H   000011H   BYTE   UNIT     EDATA          ?ED?FUNC_STR_TO_DOUBLE?SEEKFREE_FUNCTION
000AD8H   000AE7H   000010H   BYTE   UNIT     EDATA          ?ED?FIFO_INIT?ZF_FIFO
000AE8H   000AF7H   000010H   BYTE   UNIT     EDATA          ?ED?DL1B_IIC_TRANSFER_8BIT_ARRAY?SEEKFREE_DL1B
000AF8H   000B06H   00000FH   BYTE   UNIT     EDATA          ?ED?SEEKFREE_ASSISTANT_CAMERA_DATA_SEND?SEEKFREE_ASSISTANT
000B07H   000B14H   00000EH   BYTE   UNIT     EDATA          ?ED?PWM_DUTY?ZF_PWM
000B15H   000B22H   00000EH   BYTE   UNIT     EDATA          ?ED?UART_INIT?ZF_UART
000B23H   000B30H   00000EH   BYTE   UNIT     EDATA          ?ED?FUNC_STR_TO_HEX?SEEKFREE_FUNCTION
000B31H   000B3EH   00000EH   BYTE   UNIT     EDATA          ?ED?SEEKFREE_IPS200_SPI
000B3FH   000B4CH   00000EH   BYTE   UNIT     EDATA          ?ED?OLED_PRINT_CHINESE?SEEKFREE_OLED
000B4DH   000B5AH   00000EH   BYTE   UNIT     EDATA          ?ED?OLED_PRINT_CHINESE_SPI?SEEKFREE_OLED
000B5BH   000B68H   00000EH   BYTE   UNIT     EDATA          ?ED?DATA_CONVERSION?SEEKFREE_VIRSCO
000B69H   000B75H   00000DH   BYTE   UNIT     EDATA          ?ED?SPI_INIT?ZF_SPI
000B76H   000B82H   00000DH   BYTE   UNIT     EDATA          ?ED?PRINTF_REVERSE_ORDER?SEEKFREE_FUNCTION
000B83H   000B8FH   00000DH   BYTE   UNIT     EDATA          ?ED?ICM20602_SIMSPI_R_REG_BYTES?SEEKFREE_ICM20602
000B90H   000B9BH   00000CH   BYTE   UNIT     EDATA          ?ED?FIFO_READ_ELEMENT?ZF_FIFO
000B9CH   000BA7H   00000CH   BYTE   UNIT     EDATA          ?ED?LCD_SHOWINT16_SIMSPI?SEEKFREE_18TFT
000BA8H   000BB3H   00000CH   BYTE   UNIT     EDATA          ?ED?LCD_SHOWUINT16_SIMSPI?SEEKFREE_18TFT
000BB4H   000BBFH   00000CH   BYTE   UNIT     EDATA          ?ED?LCD_SHOWINT16?SEEKFREE_18TFT
000BC0H   000BCBH   00000CH   BYTE   UNIT     EDATA          ?ED?LCD_SHOWUINT16?SEEKFREE_18TFT
000BCCH   000BD7H   00000CH   BYTE   UNIT     EDATA          ?ED?SHOWIMAGE?SEEKFREE_18TFT
000BD8H   000BE3H   00000CH   BYTE   UNIT     EDATA          ?ED?BLUETOOTH_CH9141_READ_BUFF?SEEKFREE_BLUETOOTH_CH9141
000BE4H   000BEFH   00000CH   BYTE   UNIT     EDATA          ?ED?BLE6A20_READ_BUFF?SEEKFREE_BLE6A20
000BF0H   000BFBH   00000CH   BYTE   UNIT     EDATA          ?ED?DL1A_GET_SPAD_INFO?SEEKFREE_DL1A
000BFCH   000C07H   00000CH   BYTE   UNIT     EDATA          ?ED?DL1A_GET_SEQUENCE_STEP_TIMEOUTS?SEEKFREE_DL1A
000C08H   000C13H   00000CH   BYTE   UNIT     EDATA          ?ED?SEEKFREE_ICM20602
000C14H   000C1FH   00000CH   BYTE   UNIT     EDATA          ?ED?SEEKFREE_IMU660RA
000C20H   000C2BH   00000CH   BYTE   UNIT     EDATA          ?ED?IPS114_SHOWINT16_SIMSPI?SEEKFREE_IPS114_SPI
000C2CH   000C37H   00000CH   BYTE   UNIT     EDATA          ?ED?IPS114_SHOWUINT16_SIMSPI?SEEKFREE_IPS114_SPI
000C38H   000C43H   00000CH   BYTE   UNIT     EDATA          ?ED?IPS114_SHOWINT16?SEEKFREE_IPS114_SPI
000C44H   000C4FH   00000CH   BYTE   UNIT     EDATA          ?ED?IPS114_SHOWUINT16?SEEKFREE_IPS114_SPI
000C50H   000C5BH   00000CH   BYTE   UNIT     EDATA          ?ED?SEEKFREE_MPU6050
000C5CH   000C67H   00000CH   BYTE   UNIT     EDATA          ?ED?WIRELESS_UART_READ_BUFF?SEEKFREE_WIRELESS
000C68H   000C72H   00000BH   BYTE   UNIT     EDATA          ?ED?OLED_UINT16?SEEKFREE_OLED
000C73H   000C7DH   00000BH   BYTE   UNIT     EDATA          ?ED?OLED_INT16?SEEKFREE_OLED
000C7EH   000C88H   00000BH   BYTE   UNIT     EDATA          ?ED?OLED_UINT16_SPI?SEEKFREE_OLED
000C89H   000C93H   00000BH   BYTE   UNIT     EDATA          ?ED?OLED_INT16_SPI?SEEKFREE_OLED
000C94H   000C9DH   00000AH   BYTE   UNIT     EDATA          ?ED?IAP_READ_BYTES?ZF_EEPROM
000C9EH   000CA7H   00000AH   BYTE   UNIT     EDATA          ?ED?IAP_WRITE_BYTES?ZF_EEPROM
000CA8H   000CB1H   00000AH   BYTE   UNIT     EDATA          ?ED?UART_PUTBUFF?ZF_UART
000CB2H   000CBBH   00000AH   BYTE   UNIT     EDATA          ?ED?FIFO_WRITE_ELEMENT?ZF_FIFO
000CBCH   000CC5H   00000AH   BYTE   UNIT     EDATA          ?ED?LCD_SHOWSTR_SIMSPI?SEEKFREE_18TFT
000CC6H   000CCFH   00000AH   BYTE   UNIT     EDATA          ?ED?LCD_SHOWSTR?SEEKFREE_18TFT
000CD0H   000CD9H   00000AH   BYTE   UNIT     EDATA          ?ED?BLUETOOTH_CH9141_SEND_BUFF?SEEKFREE_BLUETOOTH_CH9141
000CDAH   000CE3H   00000AH   BYTE   UNIT     EDATA          ?ED?DL1A_SIMIIC_READ_REGS?SEEKFREE_DL1A
000CE4H   000CEDH   00000AH   BYTE   UNIT     EDATA          ?ED?DL1A_SIMIIC_READ_REGS_1?SEEKFREE_DL1A
000CEEH   000CF7H   00000AH   BYTE   UNIT     EDATA          ?ED?DL1A_ENCODE_TIMEOUT?SEEKFREE_DL1A
000CF8H   000D01H   00000AH   BYTE   UNIT     EDATA          ?ED?IPS114_SHOWSTR_SIMSPI?SEEKFREE_IPS114_SPI
000D02H   000D0BH   00000AH   BYTE   UNIT     EDATA          ?ED?IPS114_SHOWSTR?SEEKFREE_IPS114_SPI
000D0CH   000D15H   00000AH   BYTE   UNIT     EDATA          ?ED?IPS200_SHOW_STRING?SEEKFREE_IPS200_SPI
000D16H   000D1FH   00000AH   BYTE   UNIT     EDATA          ?ED?SEEKFREE_VIRSCO
000D20H   000D29H   00000AH   BYTE   UNIT     EDATA          ?ED?SEEKFREE_ASSISTANT_CAMERA_INFORMATION_CONFIG?SEEKFREE_
                                                             -ASSISTANT
000D2AH   000D32H   000009H   BYTE   UNIT     EDATA          ?ED?LCD_SHOWINT8_SIMSPI?SEEKFREE_18TFT
000D33H   000D3BH   000009H   BYTE   UNIT     EDATA          ?ED?LCD_SHOWUINT8_SIMSPI?SEEKFREE_18TFT
000D3CH   000D44H   000009H   BYTE   UNIT     EDATA          ?ED?LCD_SHOWINT8?SEEKFREE_18TFT
000D45H   000D4DH   000009H   BYTE   UNIT     EDATA          ?ED?LCD_SHOWUINT8?SEEKFREE_18TFT
000D4EH   000D56H   000009H   BYTE   UNIT     EDATA          ?ED?DL1A_SIMIIC_WRITE_DATS?SEEKFREE_DL1A
000D57H   000D5FH   000009H   BYTE   UNIT     EDATA          ?ED?DL1A_TIMEOUT_MICROSECONDS_TO_MCLKS?SEEKFREE_DL1A
000D60H   000D68H   000009H   BYTE   UNIT     EDATA          ?ED?DL1A_SET_SIGNAL_RATE_LIMIT?SEEKFREE_DL1A
000D69H   000D71H   000009H   BYTE   UNIT     EDATA          ?ED?FUNC_STR_TO_INT?SEEKFREE_FUNCTION
L251 LINKER/LOCATER V4.66.93.0                                                        11/01/2024  21:35:45  PAGE 5


000D72H   000D7AH   000009H   BYTE   UNIT     EDATA          ?ED?ICM20602_READ_REGISTERS?SEEKFREE_ICM20602
000D7BH   000D83H   000009H   BYTE   UNIT     EDATA          ?ED?IMU660RA_SIMSPI_W_REG_BYTES?SEEKFREE_IMU660RA
000D84H   000D8CH   000009H   BYTE   UNIT     EDATA          ?ED?IMU660RA_SIMSPI_R_REG_BYTES?SEEKFREE_IMU660RA
000D8DH   000D95H   000009H   BYTE   UNIT     EDATA          ?ED?IMU660RA_WRITE_REGISTERS?SEEKFREE_IMU660RA
000D96H   000D9EH   000009H   BYTE   UNIT     EDATA          ?ED?IMU660RA_READ_REGISTERS?SEEKFREE_IMU660RA
000D9FH   000DA7H   000009H   BYTE   UNIT     EDATA          ?ED?IMU963RA_SIMSPI_R_REG_BYTES?SEEKFREE_IMU963RA
000DA8H   000DB0H   000009H   BYTE   UNIT     EDATA          ?ED?IMU963RA_READ_ACC_GYRO_REGISTERS?SEEKFREE_IMU963RA
000DB1H   000DB9H   000009H   BYTE   UNIT     EDATA          ?ED?IPS114_SHOWINT8_SIMSPI?SEEKFREE_IPS114_SPI
000DBAH   000DC2H   000009H   BYTE   UNIT     EDATA          ?ED?IPS114_SHOWUINT8_SIMSPI?SEEKFREE_IPS114_SPI
000DC3H   000DCBH   000009H   BYTE   UNIT     EDATA          ?ED?IPS114_SHOWINT8?SEEKFREE_IPS114_SPI
000DCCH   000DD4H   000009H   BYTE   UNIT     EDATA          ?ED?IPS114_SHOWUINT8?SEEKFREE_IPS114_SPI
000DD5H   000DDDH   000009H   BYTE   UNIT     EDATA          ?ED?IPS200_SHOW_CHAR?SEEKFREE_IPS200_SPI
000DDEH   000DE6H   000009H   BYTE   UNIT     EDATA          ?ED?OLED_P6X8STR?SEEKFREE_OLED
000DE7H   000DEFH   000009H   BYTE   UNIT     EDATA          ?ED?OLED_P8X16STR?SEEKFREE_OLED
000DF0H   000DF8H   000009H   BYTE   UNIT     EDATA          ?ED?OLED_P6X8STR_SPI?SEEKFREE_OLED
000DF9H   000E01H   000009H   BYTE   UNIT     EDATA          ?ED?OLED_P8X16STR_SPI?SEEKFREE_OLED
000E02H   000E0AH   000009H   BYTE   UNIT     EDATA          ?ED?CRC_CHECK?SEEKFREE_VIRSCO
000E0BH   000E13H   000009H   BYTE   UNIT     EDATA          ?ED?SEEKFREE_ASSISTANT_SUM?SEEKFREE_ASSISTANT
000E14H   000E1BH   000008H   BYTE   UNIT     EDATA          ?ED?SET_CLK?BOARD
000E1CH   000E23H   000008H   BYTE   UNIT     EDATA          ?ED?FIFO_HEAD_OFFSET?ZF_FIFO
000E24H   000E2BH   000008H   BYTE   UNIT     EDATA          ?ED?FIFO_END_OFFSET?ZF_FIFO
000E2CH   000E33H   000008H   BYTE   UNIT     EDATA          ?ED?LCD_SET_REGION_SIMSPI?SEEKFREE_18TFT
000E34H   000E3BH   000008H   BYTE   UNIT     EDATA          ?ED?LCD_SHOWCHAR_SIMSPI?SEEKFREE_18TFT
000E3CH   000E43H   000008H   BYTE   UNIT     EDATA          ?ED?LCD_SET_REGION?SEEKFREE_18TFT
000E44H   000E4BH   000008H   BYTE   UNIT     EDATA          ?ED?LCD_SHOWCHAR?SEEKFREE_18TFT
000E4CH   000E53H   000008H   BYTE   UNIT     EDATA          ?ED?BLE6A20_SEND_BUFF?SEEKFREE_BLE6A20
000E54H   000E5BH   000008H   BYTE   UNIT     EDATA          ?ED?FUNC_GET_GREATEST_COMMON_DIVISOR?SEEKFREE_FUNCTION
000E5CH   000E63H   000008H   BYTE   UNIT     EDATA          ?ED?FUNC_STR_TO_UINT?SEEKFREE_FUNCTION
000E64H   000E6BH   000008H   BYTE   UNIT     EDATA          ?ED?IPS114_SET_REGION_SIMSPI?SEEKFREE_IPS114_SPI
000E6CH   000E73H   000008H   BYTE   UNIT     EDATA          ?ED?IPS114_SHOWCHAR_SIMSPI?SEEKFREE_IPS114_SPI
000E74H   000E7BH   000008H   BYTE   UNIT     EDATA          ?ED?IPS114_SET_REGION?SEEKFREE_IPS114_SPI
000E7CH   000E83H   000008H   BYTE   UNIT     EDATA          ?ED?IPS114_SHOWCHAR?SEEKFREE_IPS114_SPI
000E84H   000E8BH   000008H   BYTE   UNIT     EDATA          ?ED?IPS200_SET_REGION?SEEKFREE_IPS200_SPI
000E8CH   000E93H   000008H   BYTE   UNIT     EDATA          ?ED?OLED_HEXASCII?SEEKFREE_OLED
000E94H   000E9BH   000008H   BYTE   UNIT     EDATA          ?ED?OLED_HEXASCII_SPI?SEEKFREE_OLED
000E9CH   000EA3H   000008H   BYTE   UNIT     EDATA          ?ED?WIRELESS_UART_SEND_BUFF?SEEKFREE_WIRELESS
000EA4H   000EABH   000008H   BYTE   UNIT     EDATA          ?ED?BATTERY
000EACH   000EB3H   000008H   BYTE   UNIT     EDATA          ?ED?GET_BATTERY_PERCENTAGE?BATTERY
000EB4H   000EBAH   000007H   BYTE   UNIT     EDATA          ?ED?IIC_READ_REG_BYTES?ZF_IIC
000EBBH   000EC1H   000007H   BYTE   UNIT     EDATA          ?ED?DL1A_TIMEOUT_MCLKS_TO_MICROSECONDS?SEEKFREE_DL1A
000EC2H   000EC8H   000007H   BYTE   UNIT     EDATA          ?ED?IMU660RA_GET_ACC?SEEKFREE_IMU660RA
000EC9H   000ECFH   000007H   BYTE   UNIT     EDATA          ?ED?IMU660RA_GET_GYRO?SEEKFREE_IMU660RA
000ED0H   000ED6H   000007H   BYTE   UNIT     EDATA          ?ED?IMU963RA_GET_MAG?SEEKFREE_IMU963RA
000ED7H   000EDDH   000007H   BYTE   UNIT     EDATA          ?ED?MPU6050_SIMIIC_READ_REGS?SEEKFREE_MPU6050
000EDEH   000EE4H   000007H   BYTE   UNIT     EDATA          ?ED?CCD_SEND_DATA?SEEKFREE_TSL1401
000EE5H   000EEBH   000007H   BYTE   UNIT     EDATA          ?ED?SEEKFREE_ASSISTANT_CAMERA_DOT_SEND?SEEKFREE_ASSISTANT
000EECH   000EF1H   000006H   BYTE   UNIT     EDATA          ?ED?ADC_ONCE?ZF_ADC
000EF2H   000EF7H   000006H   BYTE   UNIT     EDATA          ?ED?DELAY_US?ZF_DELAY
000EF8H   000EFDH   000006H   BYTE   UNIT     EDATA          ?ED?IIC_INIT?ZF_IIC
000EFEH   000F03H   000006H   BYTE   UNIT     EDATA          ?ED?IIC_READ_REG?ZF_IIC
000F04H   000F09H   000006H   BYTE   UNIT     EDATA          ?ED?PIT_TIMER_MS?ZF_TIM
000F0AH   000F0FH   000006H   BYTE   UNIT     EDATA          ?ED?UART_PUTSTR?ZF_UART
000F10H   000F15H   000006H   BYTE   UNIT     EDATA          ?ED?FIFO_CLEAR?ZF_FIFO
000F16H   000F1BH   000006H   BYTE   UNIT     EDATA          ?ED?LCD_DRAWPOINT_SIMSPI?SEEKFREE_18TFT
000F1CH   000F21H   000006H   BYTE   UNIT     EDATA          ?ED?LCD_DRAWPOINT?SEEKFREE_18TFT
000F22H   000F27H   000006H   BYTE   UNIT     EDATA          ?ED?ICM20602_GET_ACC?SEEKFREE_ICM20602
000F28H   000F2DH   000006H   BYTE   UNIT     EDATA          ?ED?ICM20602_GET_GYRO?SEEKFREE_ICM20602
000F2EH   000F33H   000006H   BYTE   UNIT     EDATA          ?ED?ICM20602_ACC_TRANSITION?SEEKFREE_ICM20602
000F34H   000F39H   000006H   BYTE   UNIT     EDATA          ?ED?ICM20602_GYRO_TRANSITION?SEEKFREE_ICM20602
000F3AH   000F3FH   000006H   BYTE   UNIT     EDATA          ?ED?IMU660RA_ACC_TRANSITION?SEEKFREE_IMU660RA
000F40H   000F45H   000006H   BYTE   UNIT     EDATA          ?ED?IMU660RA_GYRO_TRANSITION?SEEKFREE_IMU660RA
000F46H   000F4BH   000006H   BYTE   UNIT     EDATA          ?ED?IMU963RA_WRITE_MAG_REGISTER?SEEKFREE_IMU963RA
000F4CH   000F51H   000006H   BYTE   UNIT     EDATA          ?ED?IMU963RA_GET_ACC?SEEKFREE_IMU963RA
000F52H   000F57H   000006H   BYTE   UNIT     EDATA          ?ED?IMU963RA_GET_GYRO?SEEKFREE_IMU963RA
000F58H   000F5DH   000006H   BYTE   UNIT     EDATA          ?ED?IMU963RA_ACC_TRANSITION?SEEKFREE_IMU963RA
L251 LINKER/LOCATER V4.66.93.0                                                        11/01/2024  21:35:45  PAGE 6


000F5EH   000F63H   000006H   BYTE   UNIT     EDATA          ?ED?IMU963RA_GYRO_TRANSITION?SEEKFREE_IMU963RA
000F64H   000F69H   000006H   BYTE   UNIT     EDATA          ?ED?IMU963RA_MAG_TRANSITION?SEEKFREE_IMU963RA
000F6AH   000F6FH   000006H   BYTE   UNIT     EDATA          ?ED?IPS114_CLEAR_SIMSPI?SEEKFREE_IPS114_SPI
000F70H   000F75H   000006H   BYTE   UNIT     EDATA          ?ED?IPS114_DRAWPOINT_SIMSPI?SEEKFREE_IPS114_SPI
000F76H   000F7BH   000006H   BYTE   UNIT     EDATA          ?ED?IPS114_CLEAR?SEEKFREE_IPS114_SPI
000F7CH   000F81H   000006H   BYTE   UNIT     EDATA          ?ED?IPS114_DRAWPOINT?SEEKFREE_IPS114_SPI
000F82H   000F87H   000006H   BYTE   UNIT     EDATA          ?ED?IPS200_FULL?SEEKFREE_IPS200_SPI
000F88H   000F8DH   000006H   BYTE   UNIT     EDATA          ?ED?IPS200_DRAW_POINT?SEEKFREE_IPS200_SPI
000F8EH   000F93H   000006H   BYTE   UNIT     EDATA          ?ED?MPU6050_GET_ACCDATA?SEEKFREE_MPU6050
000F94H   000F99H   000006H   BYTE   UNIT     EDATA          ?ED?MPU6050_GET_GYRO?SEEKFREE_MPU6050
000F9AH   000F9FH   000006H   BYTE   UNIT     EDATA          ?ED?DRV8701_CONTROL?DRV8701_DUAL
000FA0H   000FA5H   000006H   BYTE   UNIT     EDATA          ?ED?SERVO_SET_POSITION?SERVO
000FA6H   000FAAH   000005H   BYTE   UNIT     EDATA          ?ED?ZF_UART
000FABH   000FAFH   000005H   BYTE   UNIT     EDATA          ?ED?DL1A_GET_SEQUENCE_STEP_ENABLES?SEEKFREE_DL1A
000FB0H   000FB4H   000005H   BYTE   UNIT     EDATA          ?ED?DL1A_PERFORM_SINGLE_REF_CALIBRATION?SEEKFREE_DL1A
000FB5H   000FB9H   000005H   BYTE   UNIT     EDATA          ?ED?DL1B_GET_DISTANCE?SEEKFREE_DL1B
000FBAH   000FBEH   000005H   BYTE   UNIT     EDATA          ?ED?ICM20602_SIMSPI_R_REG_BYTE?SEEKFREE_ICM20602
000FBFH   000FC3H   000005H   BYTE   UNIT     EDATA          ?ED?IMU963RA_SIMSPI_R_REG_BYTE?SEEKFREE_IMU963RA
000FC4H   000FC7H   000004H   BYTE   UNIT     EDATA          ?ED?BOARD
000FC8H   000FCBH   000004H   BYTE   UNIT     EDATA          ?ED?CLOCK_INIT?BOARD
000FCCH   000FCFH   000004H   BYTE   UNIT     EDATA          ?ED?COMMON
000FD0H   000FD3H   000004H   BYTE   UNIT     EDATA          ?ED?ADC_INIT?ZF_ADC
000FD4H   000FD7H   000004H   BYTE   UNIT     EDATA          ?ED?ZF_DELAY
000FD8H   000FDBH   000004H   BYTE   UNIT     EDATA          ?ED?DELAY_MS?ZF_DELAY
000FDCH   000FDFH   000004H   BYTE   UNIT     EDATA          ?ED?IAP_ERASE_PAGE?ZF_EEPROM
000FE0H   000FE3H   000004H   BYTE   UNIT     EDATA          ?ED?EXIT_INIT?ZF_EXTI
000FE4H   000FE7H   000004H   BYTE   UNIT     EDATA          ?ED?GPIO_PULL_SET?ZF_GPIO
000FE8H   000FEBH   000004H   BYTE   UNIT     EDATA          ?ED?GPIO_MODE?ZF_GPIO
000FECH   000FEFH   000004H   BYTE   UNIT     EDATA          ?ED?CTIMER_COUNT_READ?ZF_TIM
000FF0H   000FF3H   000004H   BYTE   UNIT     EDATA          ?ED?FIFO_USED?ZF_FIFO
000FF4H   000FF7H   000004H   BYTE   UNIT     EDATA          ?ED?LCD_CLEAR_SIMSPI?SEEKFREE_18TFT
000FF8H   000FFBH   000004H   BYTE   UNIT     EDATA          ?ED?LCD_WRITEDATA_16BIT?SEEKFREE_18TFT
000FFCH   000FFFH   000004H   BYTE   UNIT     EDATA          ?ED?LCD_CLEAR?SEEKFREE_18TFT
001000H   001003H   000004H   BYTE   UNIT     EDATA          ?ED?SEEKFREE_DL1B
001004H   001007H   000004H   BYTE   UNIT     EDATA          ?ED?FUNC_SOFT_DELAY?SEEKFREE_FUNCTION
001008H   00100BH   000004H   BYTE   UNIT     EDATA          ?ED?ICM20602_SELF_CHECK?SEEKFREE_ICM20602
00100CH   00100FH   000004H   BYTE   UNIT     EDATA          ?ED?ICM20602_INIT?SEEKFREE_ICM20602
001010H   001013H   000004H   BYTE   UNIT     EDATA          ?ED?IMU660RA_SELF_CHECK?SEEKFREE_IMU660RA
001014H   001017H   000004H   BYTE   UNIT     EDATA          ?ED?IMU963RA_READ_MAG_REGISTER?SEEKFREE_IMU963RA
001018H   00101BH   000004H   BYTE   UNIT     EDATA          ?ED?IMU963RA_ACC_GYRO_SELF_CHECK?SEEKFREE_IMU963RA
00101CH   00101FH   000004H   BYTE   UNIT     EDATA          ?ED?IMU963RA_MAG_SELF_CHECK?SEEKFREE_IMU963RA
001020H   001023H   000004H   BYTE   UNIT     EDATA          ?ED?IPS114_WRITEDATA_16BIT?SEEKFREE_IPS114_SPI
001024H   001027H   000004H   BYTE   UNIT     EDATA          ?ED?IPS200_WRITE_16BIT_DATA_SPI?SEEKFREE_IPS200_SPI
001028H   00102BH   000004H   BYTE   UNIT     EDATA          ?ED?IPS200_CLEAR?SEEKFREE_IPS200_SPI
00102CH   00102FH   000004H   BYTE   UNIT     EDATA          ?ED?IPS200_SET_COLOR?SEEKFREE_IPS200_SPI
001030H   001033H   000004H   BYTE   UNIT     EDATA          ?ED?SEEKFREE_ASSISTANT_INFACE
001034H   001037H   000004H   BYTE   UNIT     EDATA          ?ED?SET_MOTOR?DRV8701_DUAL
001038H   00103BH   000004H   BYTE   UNIT     EDATA          ?ED?SERVO_INIT?SERVO
00103CH   00103EH   000003H   BYTE   UNIT     EDATA          ?ED?IIC_DELAY_US?ZF_IIC
00103FH   001041H   000003H   BYTE   UNIT     EDATA          ?ED?WAIT?ZF_IIC
001042H   001044H   000003H   BYTE   UNIT     EDATA          ?ED?IIC_WRITE_REG?ZF_IIC
001045H   001047H   000003H   BYTE   UNIT     EDATA          ?ED?NVIC_SETPRIORITY?ZF_NVIC
001048H   00104AH   000003H   BYTE   UNIT     EDATA          ?ED?UART_PUTCHAR?ZF_UART
00104BH   00104DH   000003H   BYTE   UNIT     EDATA          ?ED?LCD_WRITEDATA_16BIT_SIMSPI?SEEKFREE_18TFT
00104EH   001050H   000003H   BYTE   UNIT     EDATA          ?ED?SEEKFREE_DL1A
001051H   001053H   000003H   BYTE   UNIT     EDATA          ?ED?DL1A_READ_CH?SEEKFREE_DL1A
001054H   001056H   000003H   BYTE   UNIT     EDATA          ?ED?DL1A_SIMIIC_WRITE_REG?SEEKFREE_DL1A
001057H   001059H   000003H   BYTE   UNIT     EDATA          ?ED?DL1A_SIMIIC_READ_REG?SEEKFREE_DL1A
00105AH   00105CH   000003H   BYTE   UNIT     EDATA          ?ED?DL1A_GET_VCSEL_PULSE_PERIOD?SEEKFREE_DL1A
00105DH   00105FH   000003H   BYTE   UNIT     EDATA          ?ED?DL1A_GET_DISTANCE?SEEKFREE_DL1A
001060H   001062H   000003H   BYTE   UNIT     EDATA          ?ED?DL1B_READ_CH?SEEKFREE_DL1B
001063H   001065H   000003H   BYTE   UNIT     EDATA          ?ED?IMU660RA_READ_REGISTER?SEEKFREE_IMU660RA
001066H   001068H   000003H   BYTE   UNIT     EDATA          ?ED?IPS114_WRITEDATAI_16BIT_SIMSPI?SEEKFREE_IPS114_SPI
001069H   00106BH   000003H   BYTE   UNIT     EDATA          ?ED?MPU6050_READ_CH?SEEKFREE_MPU6050
00106CH   00106EH   000003H   BYTE   UNIT     EDATA          ?ED?MPU6050_SIMIIC_WRITE_REG?SEEKFREE_MPU6050
L251 LINKER/LOCATER V4.66.93.0                                                        11/01/2024  21:35:45  PAGE 7


00106FH   001071H   000003H   BYTE   UNIT     EDATA          ?ED?MPU6050_SIMIIC_READ_REG?SEEKFREE_MPU6050
001072H   001074H   000003H   BYTE   UNIT     EDATA          ?ED?OLED_FILL?SEEKFREE_OLED
001075H   001077H   000003H   BYTE   UNIT     EDATA          ?ED?OLED_PUTPIXEL?SEEKFREE_OLED
001078H   00107AH   000003H   BYTE   UNIT     EDATA          ?ED?OLED_FILL_SPI?SEEKFREE_OLED
00107BH   00107DH   000003H   BYTE   UNIT     EDATA          ?ED?OLED_PUTPIXEL_SPI?SEEKFREE_OLED
00107EH   00107FH   000002H   BYTE   UNIT     EDATA          ?ED?SEND_DATA?ZF_IIC
001080H   001081H   000002H   BYTE   UNIT     EDATA          ?ED?IIC_CHANGE_PIN?ZF_IIC
001082H   001083H   000002H   BYTE   UNIT     EDATA          ?ED?PWM_SET_GPIO?ZF_PWM
001084H   001085H   000002H   BYTE   UNIT     EDATA          ?ED?SPI_CHANGE_PIN?ZF_SPI
001086H   001087H   000002H   BYTE   UNIT     EDATA          ?ED?CTIMER_COUNT_INIT?ZF_TIM
001088H   001089H   000002H   BYTE   UNIT     EDATA          ?ED?CTIMER_COUNT_CLEAN?ZF_TIM
00108AH   00108BH   000002H   BYTE   UNIT     EDATA          ?ED?LCD_WRITEINDEX_SIMSPI?SEEKFREE_18TFT
00108CH   00108DH   000002H   BYTE   UNIT     EDATA          ?ED?LCD_WRITEDATA_SIMSPI?SEEKFREE_18TFT
00108EH   00108FH   000002H   BYTE   UNIT     EDATA          ?ED?DL1A_SIMIIC_DELAY?SEEKFREE_DL1A
001090H   001091H   000002H   BYTE   UNIT     EDATA          ?ED?DL1A_SEND_CH?SEEKFREE_DL1A
001092H   001093H   000002H   BYTE   UNIT     EDATA          ?ED?DL1A_DECODE_TIMEOUT?SEEKFREE_DL1A
001094H   001095H   000002H   BYTE   UNIT     EDATA          ?ED?DL1B_SIMIIC_DELAY?SEEKFREE_DL1B
001096H   001097H   000002H   BYTE   UNIT     EDATA          ?ED?DL1B_SEND_CH?SEEKFREE_DL1B
001098H   001099H   000002H   BYTE   UNIT     EDATA          ?ED?ICM20602_SIMSPI_WR_BYTE?SEEKFREE_ICM20602
00109AH   00109BH   000002H   BYTE   UNIT     EDATA          ?ED?ICM20602_SIMSPI_W_REG_BYTE?SEEKFREE_ICM20602
00109CH   00109DH   000002H   BYTE   UNIT     EDATA          ?ED?ICM20602_WRITE_REGISTER?SEEKFREE_ICM20602
00109EH   00109FH   000002H   BYTE   UNIT     EDATA          ?ED?ICM20602_READ_REGISTER?SEEKFREE_ICM20602
0010A0H   0010A1H   000002H   BYTE   UNIT     EDATA          ?ED?IMU660RA_SIMSPI_WR_BYTE?SEEKFREE_IMU660RA
0010A2H   0010A3H   000002H   BYTE   UNIT     EDATA          ?ED?IMU660RA_SIMSPI_W_REG_BYTE?SEEKFREE_IMU660RA
0010A4H   0010A5H   000002H   BYTE   UNIT     EDATA          ?ED?IMU660RA_WRITE_REGISTER?SEEKFREE_IMU660RA
0010A6H   0010A7H   000002H   BYTE   UNIT     EDATA          ?ED?IMU963RA_SIMSPI_WR_BYTE?SEEKFREE_IMU963RA
0010A8H   0010A9H   000002H   BYTE   UNIT     EDATA          ?ED?IMU963RA_SIMSPI_W_REG_BYTE?SEEKFREE_IMU963RA
0010AAH   0010ABH   000002H   BYTE   UNIT     EDATA          ?ED?IMU963RA_WRITE_ACC_GYRO_REGISTER?SEEKFREE_IMU963RA
0010ACH   0010ADH   000002H   BYTE   UNIT     EDATA          ?ED?IMU963RA_READ_ACC_GYRO_REGISTER?SEEKFREE_IMU963RA
0010AEH   0010AFH   000002H   BYTE   UNIT     EDATA          ?ED?IMU963RA_CONNECT_MAG?SEEKFREE_IMU963RA
0010B0H   0010B1H   000002H   BYTE   UNIT     EDATA          ?ED?IPS114_WRITEINDEX_SIMSPI?SEEKFREE_IPS114_SPI
0010B2H   0010B3H   000002H   BYTE   UNIT     EDATA          ?ED?IPS114_WRITEDATA_SIMSPI?SEEKFREE_IPS114_SPI
0010B4H   0010B5H   000002H   BYTE   UNIT     EDATA          ?ED?IPS200_WRITE_16BIT_DATA?SEEKFREE_IPS200_SPI
0010B6H   0010B7H   000002H   BYTE   UNIT     EDATA          ?ED?IPS200_SET_DIR?SEEKFREE_IPS200_SPI
0010B8H   0010B9H   000002H   BYTE   UNIT     EDATA          ?ED?IPS200_SET_FONT?SEEKFREE_IPS200_SPI
0010BAH   0010BBH   000002H   BYTE   UNIT     EDATA          ?ED?MPU6050_SIMIIC_DELAY?SEEKFREE_MPU6050
0010BCH   0010BDH   000002H   BYTE   UNIT     EDATA          ?ED?MPU6050_SEND_CH?SEEKFREE_MPU6050
0010BEH   0010BFH   000002H   BYTE   UNIT     EDATA          ?ED?OLED_WRDAT?SEEKFREE_OLED
0010C0H   0010C1H   000002H   BYTE   UNIT     EDATA          ?ED?OLED_WRCMD?SEEKFREE_OLED
0010C2H   0010C3H   000002H   BYTE   UNIT     EDATA          ?ED?OLED_SET_POS?SEEKFREE_OLED
0010C4H   0010C5H   000002H   BYTE   UNIT     EDATA          ?ED?OLED_CLRPIXEL?SEEKFREE_OLED
0010C6H   0010C7H   000002H   BYTE   UNIT     EDATA          ?ED?OLED_SET_POS_SPI?SEEKFREE_OLED
0010C8H   0010C9H   000002H   BYTE   UNIT     EDATA          ?ED?OLED_CLRPIXEL_SPI?SEEKFREE_OLED
0010CAH   0010CBH   000002H   BYTE   UNIT     EDATA          ?ED?DRV8701_STOP?DRV8701_DUAL
0010CCH   0010CDH   000002H   BYTE   UNIT     EDATA          ?ED?SERVO
0010CEH   0010CEH   000001H   BYTE   UNIT     EDATA          ?ED?PUTCHAR?BOARD
0010CFH   0010CFH   000001H   BYTE   UNIT     EDATA          ?ED?IAP_SET_TPS?ZF_EEPROM
0010D0H   0010D0H   000001H   BYTE   UNIT     EDATA          ?ED?START?ZF_IIC
0010D1H   0010D1H   000001H   BYTE   UNIT     EDATA          ?ED?RECV_ACK?ZF_IIC
0010D2H   0010D2H   000001H   BYTE   UNIT     EDATA          ?ED?SEND_ACK?ZF_IIC
0010D3H   0010D3H   000001H   BYTE   UNIT     EDATA          ?ED?STOP?ZF_IIC
0010D4H   0010D4H   000001H   BYTE   UNIT     EDATA          ?ED?SPI_MOSI?ZF_SPI
0010D5H   0010D5H   000001H   BYTE   UNIT     EDATA          ?ED?SPI_CHANGE_MODE?ZF_SPI
0010D6H   0010D6H   000001H   BYTE   UNIT     EDATA          ?ED?LCD_WRITEINDEX?SEEKFREE_18TFT
0010D7H   0010D7H   000001H   BYTE   UNIT     EDATA          ?ED?LCD_WRITEDATA?SEEKFREE_18TFT
0010D8H   0010D8H   000001H   BYTE   UNIT     EDATA          ?ED?BLUETOOTH_CH9141_UART_CALLBACK?SEEKFREE_BLUETOOTH_CH91
                                                             -41
0010D9H   0010D9H   000001H   BYTE   UNIT     EDATA          ?ED?BLUETOOTH_CH9141SEND_BYTE?SEEKFREE_BLUETOOTH_CH9141
0010DAH   0010DAH   000001H   BYTE   UNIT     EDATA          ?ED?BLE6A20_CALLBACK?SEEKFREE_BLE6A20
0010DBH   0010DBH   000001H   BYTE   UNIT     EDATA          ?ED?BLE6A20_SEND_BYTE?SEEKFREE_BLE6A20
0010DCH   0010DCH   000001H   BYTE   UNIT     EDATA          ?ED?DL1A_SIMIIC_SENDACK?SEEKFREE_DL1A
0010DDH   0010DDH   000001H   BYTE   UNIT     EDATA          ?ED?DL1B_SIMIIC_SENDACK?SEEKFREE_DL1B
0010DEH   0010DEH   000001H   BYTE   UNIT     EDATA          ?ED?IMU660RA_INIT?SEEKFREE_IMU660RA
0010DFH   0010DFH   000001H   BYTE   UNIT     EDATA          ?ED?IMU963RA_INIT?SEEKFREE_IMU963RA
0010E0H   0010E0H   000001H   BYTE   UNIT     EDATA          ?ED?IPS114_WRITEINDEX?SEEKFREE_IPS114_SPI
L251 LINKER/LOCATER V4.66.93.0                                                        11/01/2024  21:35:45  PAGE 8


0010E1H   0010E1H   000001H   BYTE   UNIT     EDATA          ?ED?IPS114_WRITEDATA?SEEKFREE_IPS114_SPI
0010E2H   0010E2H   000001H   BYTE   UNIT     EDATA          ?ED?IPS200_WRITE_8BIT_DATA_SPI?SEEKFREE_IPS200_SPI
0010E3H   0010E3H   000001H   BYTE   UNIT     EDATA          ?ED?IPS200_WRITE_COMMAND?SEEKFREE_IPS200_SPI
0010E4H   0010E4H   000001H   BYTE   UNIT     EDATA          ?ED?IPS200_WRITE_8BIT_DATA?SEEKFREE_IPS200_SPI
0010E5H   0010E5H   000001H   BYTE   UNIT     EDATA          ?ED?MPU6050_SIMIIC_SENDACK?SEEKFREE_MPU6050
0010E6H   0010E6H   000001H   BYTE   UNIT     EDATA          ?ED?OLED_WRDAT_SPI?SEEKFREE_OLED
0010E7H   0010E7H   000001H   BYTE   UNIT     EDATA          ?ED?OLED_WRCMD_SPI?SEEKFREE_OLED
0010E8H   0010E8H   000001H   BYTE   UNIT     EDATA          ?ED?CCD_COLLECT?SEEKFREE_TSL1401
0010E9H   0010E9H   000001H   BYTE   UNIT     EDATA          ?ED?WIRELESS_UART_CALLBACK?SEEKFREE_WIRELESS
0010EAH   0010EAH   000001H   BYTE   UNIT     EDATA          ?ED?WIRELESS_UART_SEND_BYTE?SEEKFREE_WIRELESS
0010EBH   0010EBH   000001H   BYTE   UNIT     EDATA          ?ED?UART1_ISR?ISR
0010ECH   0010ECH   000001H   BYTE   UNIT     EDATA          ?ED?ISR
0010EDH   0011ECH   000100H   BYTE   UNIT     EDATA          ?STACK
0011EDH   FEFFFFH   FEEE13H   ---    ---      **GAP**
FF0000H   FF0002H   000003H   ---    OFFS..   CODE           ?CO?start251?4
FF0003H   FF0005H   000003H   ---    OFFS..   CODE           ?PR?IV?0
FF0006H   FF0009H   000004H   BYTE   INSEG    CODE           ?PR?ENABLEGLOBALIRQ?BOARD
FF000AH   FF000AH   000001H   BYTE   INSEG    CODE           ?PR?INT1_ISR?ISR
FF000BH   FF000DH   000003H   ---    OFFS..   CODE           ?PR?IV?1
FF000EH   FF0011H   000004H   BYTE   UNIT     CODE           ?PR?FPSUB?STC32F_FPMU
FF0012H   FF0012H   000001H   BYTE   INSEG    CODE           ?PR?TM0_ISR?ISR
FF0013H   FF0015H   000003H   ---    OFFS..   CODE           ?PR?IV?2
FF0016H   FF0019H   000004H   BYTE   UNIT     CODE           ?PR?FPMUL?STC32F_FPMU
FF001AH   FF001AH   000001H   BYTE   INSEG    CODE           ?PR?TM1_ISR?ISR
FF001BH   FF001DH   000003H   ---    OFFS..   CODE           ?PR?IV?3
FF001EH   FF0021H   000004H   BYTE   UNIT     CODE           ?PR?FPDIV?STC32F_FPMU
FF0022H   FF0022H   000001H   ---    ---      **GAP**
FF0023H   FF0025H   000003H   ---    OFFS..   CODE           ?PR?IV?4
FF0026H   FF0042H   00001DH   BYTE   INSEG    CODE           ?PR?DL1B_SIMIIC_DELAY?SEEKFREE_DL1B
FF0043H   FF0045H   000003H   ---    OFFS..   CODE           ?PR?IV?8
FF0046H   FF0051H   00000CH   BYTE   UNIT     CODE           ?PR?FPCMP?STC32F_FPMU
FF0052H   FF0052H   000001H   ---    ---      **GAP**
FF0053H   FF0055H   000003H   ---    OFFS..   CODE           ?PR?IV?10
FF0056H   FF0059H   000004H   BYTE   UNIT     CODE           ?PR?FCASTL?STC32F_FPMU
FF005AH   FF005AH   000001H   ---    ---      **GAP**
FF005BH   FF005DH   000003H   ---    OFFS..   CODE           ?PR?IV?11
FF005EH   FF0061H   000004H   BYTE   INSEG    CODE           ?PR?INT0_ISR?ISR
FF0062H   FF0062H   000001H   ---    ---      **GAP**
FF0063H   FF0065H   000003H   ---    OFFS..   CODE           ?PR?IV?12
FF0066H   FF0082H   00001DH   BYTE   INSEG    CODE           ?PR?MPU6050_SIMIIC_DELAY?SEEKFREE_MPU6050
FF0083H   FF0085H   000003H   ---    OFFS..   CODE           ?PR?IV?16
FF0086H   FF0089H   000004H   BYTE   INSEG    CODE           ?PR?INT2_ISR?ISR
FF008AH   FF008AH   000001H   ---    ---      **GAP**
FF008BH   FF008DH   000003H   ---    OFFS..   CODE           ?PR?IV?17
FF008EH   FF0091H   000004H   BYTE   INSEG    CODE           ?PR?INT3_ISR?ISR
FF0092H   FF0092H   000001H   ---    ---      **GAP**
FF0093H   FF0095H   000003H   ---    OFFS..   CODE           ?PR?IV?18
FF0096H   FF0099H   000004H   BYTE   INSEG    CODE           ?PR?INT4_ISR?ISR
FF009AH   FF009AH   000001H   ---    ---      **GAP**
FF009BH   FF009DH   000003H   ---    OFFS..   CODE           ?PR?IV?19
FF009EH   FF00A1H   000004H   BYTE   INSEG    CODE           ?PR?TM2_ISR?ISR
FF00A2H   FF00A2H   000001H   ---    ---      **GAP**
FF00A3H   FF00A5H   000003H   ---    OFFS..   CODE           ?PR?IV?20
FF00A6H   FF212CH   002087H   BYTE   UNIT     CODE           ?CO?SEEKFREE_CONFIG
FF212DH   FF374CH   001620H   BYTE   UNIT     CODE           ?CO?SEEKFREE_FONT
FF374DH   FF4059H   00090DH   BYTE   INSEG    CODE           ?PR?GPIO_MODE?ZF_GPIO
FF405AH   FF4729H   0006D0H   BYTE   UNIT     CODE           ?C?LIB_CODE
FF472AH   FF4D55H   00062CH   BYTE   INSEG    CODE           ?PR?SET_CLK?BOARD
FF4D56H   FF50E7H   000392H   BYTE   INSEG    CODE           ?PR?FIFO_WRITE_BUFFER?ZF_FIFO
FF50E8H   FF53F3H   00030CH   BYTE   INSEG    CODE           ?PR?PWM_SET_GPIO?ZF_PWM
FF53F4H   FF56A6H   0002B3H   BYTE   INSEG    CODE           ?PR?UART_INIT?ZF_UART
FF56A7H   FF586CH   0001C6H   BYTE   INSEG    CODE           ?PR?IPS200_INIT_SPI?SEEKFREE_IPS200_SPI
FF586DH   FF59D5H   000169H   BYTE   INSEG    CODE           ?PR?DL1A_GET_SEQUENCE_STEP_TIMEOUTS?SEEKFREE_DL1A
FF59D6H   FF5AEDH   000118H   BYTE   INSEG    CODE           ?PR?PWM_DUTY?ZF_PWM
FF5AEEH   FF5C04H   000117H   BYTE   INSEG    CODE           ?PR?NUMBER_CONVERSION_ASCII?SEEKFREE_FUNCTION
L251 LINKER/LOCATER V4.66.93.0                                                        11/01/2024  21:35:45  PAGE 9


FF5C05H   FF5CD2H   0000CEH   BYTE   INSEG    CODE           ?PR?SPI_INIT?ZF_SPI
FF5CD3H   FF5D60H   00008EH   BYTE   INSEG    CODE           ?PR?DL1A_GET_SEQUENCE_STEP_ENABLES?SEEKFREE_DL1A
FF5D61H   FF5DECH   00008CH   BYTE   INSEG    CODE           ?PR?DRV8701_CONTROL?DRV8701_DUAL
FF5DEDH   FF5E6BH   00007FH   BYTE   INSEG    CODE           ?PR?DL1A_ENCODE_TIMEOUT?SEEKFREE_DL1A
FF5E6CH   FF5EE7H   00007CH   BYTE   INSEG    CODE           ?PR?CCD_COLLECT?SEEKFREE_TSL1401
FF5EE8H   FF5F61H   00007AH   BYTE   INSEG    CODE           ?PR?DL1A_GET_VCSEL_PULSE_PERIOD?SEEKFREE_DL1A
FF5F62H   FF5FD8H   000077H   BYTE   INSEG    CODE           ?PR?BOARD_INIT?BOARD
FF5FD9H   FF604DH   000075H   BYTE   INSEG    CODE           ?PR?UART_PUTCHAR?ZF_UART
FF604EH   FF60BDH   000070H   BYTE   INSEG    CODE           ?PR?FIFO_HEAD_OFFSET?ZF_FIFO
FF60BEH   FF612AH   00006DH   BYTE   INSEG    CODE           ?PR?IPS200_CLEAR?SEEKFREE_IPS200_SPI
FF612BH   FF6196H   00006CH   BYTE   INSEG    CODE           ?PR?IMU963RA_READ_MAG_REGISTER?SEEKFREE_IMU963RA
FF6197H   FF6200H   00006AH   BYTE   INSEG    CODE           ?PR?DL1A_READ_CH?SEEKFREE_DL1A
FF6201H   FF626AH   00006AH   BYTE   INSEG    CODE           ?PR?DL1B_READ_CH?SEEKFREE_DL1B
FF626BH   FF62D2H   000068H   BYTE   INSEG    CODE           ?PR?DL1A_SIMIIC_READ_REGS?SEEKFREE_DL1A
FF62D3H   FF6336H   000064H   BYTE   INSEG    CODE           ?PR?LCD_SET_REGION_SIMSPI?SEEKFREE_18TFT
FF6337H   FF639AH   000064H   BYTE   INSEG    CODE           ?PR?LCD_SET_REGION?SEEKFREE_18TFT
FF639BH   FF63F3H   000059H   BYTE   INSEG    CODE           ?PR?ICM20602_SIMSPI_WR_BYTE?SEEKFREE_ICM20602
FF63F4H   FF644CH   000059H   BYTE   INSEG    CODE           ?PR?IMU660RA_SIMSPI_WR_BYTE?SEEKFREE_IMU660RA
FF644DH   FF64A5H   000059H   BYTE   INSEG    CODE           ?PR?IMU963RA_SIMSPI_WR_BYTE?SEEKFREE_IMU963RA
FF64A6H   FF64FCH   000057H   BYTE   INSEG    CODE           ?PR?WAIT?ZF_IIC
FF64FDH   FF6552H   000056H   BYTE   INSEG    CODE           ?PR?ADC_ONCE?ZF_ADC
FF6553H   FF65A7H   000055H   BYTE   INSEG    CODE           ?PR?LCD_WRITEDATA_16BIT_SIMSPI?SEEKFREE_18TFT
FF65A8H   FF65FCH   000055H   BYTE   INSEG    CODE           ?PR?IPS114_WRITEDATAI_16BIT_SIMSPI?SEEKFREE_IPS114_SPI
FF65FDH   FF664FH   000053H   BYTE   INSEG    CODE           ?PR?DL1A_TIMEOUT_MCLKS_TO_MICROSECONDS?SEEKFREE_DL1A
FF6650H   FF66A0H   000051H   BYTE   INSEG    CODE           ?PR?DL1A_TIMEOUT_MICROSECONDS_TO_MCLKS?SEEKFREE_DL1A
FF66A1H   FF66F1H   000051H   BYTE   INSEG    CODE           ?PR?ICM20602_SIMSPI_R_REG_BYTES?SEEKFREE_ICM20602
FF66F2H   FF6741H   000050H   BYTE   INSEG    CODE           ?PR?UART2_ISR?ISR
FF6742H   FF678DH   00004CH   BYTE   INSEG    CODE           ?PR?LCD_WRITEINDEX_SIMSPI?SEEKFREE_18TFT
FF678EH   FF67D9H   00004CH   BYTE   INSEG    CODE           ?PR?LCD_WRITEDATA_SIMSPI?SEEKFREE_18TFT
FF67DAH   FF6825H   00004CH   BYTE   INSEG    CODE           ?PR?IPS114_WRITEINDEX_SIMSPI?SEEKFREE_IPS114_SPI
FF6826H   FF6871H   00004CH   BYTE   INSEG    CODE           ?PR?OLED_WRCMD?SEEKFREE_OLED
FF6872H   FF68BDH   00004CH   BYTE   INSEG    CODE           ?PR?OLED_WRDAT?SEEKFREE_OLED
FF68BEH   FF6908H   00004BH   BYTE   INSEG    CODE           ?PR?IMU660RA_SIMSPI_R_REG_BYTES?SEEKFREE_IMU660RA
FF6909H   FF6951H   000049H   BYTE   INSEG    CODE           ?PR?DL1A_SEND_CH?SEEKFREE_DL1A
FF6952H   FF699AH   000049H   BYTE   INSEG    CODE           ?PR?DL1B_SEND_CH?SEEKFREE_DL1B
FF699BH   FF69DDH   000043H   BYTE   INSEG    CODE           ?PR?SET_MOTOR?DRV8701_DUAL
FF69DEH   FF6A1FH   000042H   BYTE   INSEG    CODE           ?PR?DL1A_SIMIIC_WRITE_DATS?SEEKFREE_DL1A
FF6A20H   FF6A61H   000042H   BYTE   INSEG    CODE           ?PR?UART1_ISR?ISR
FF6A62H   FF6A74H   000013H   BYTE   UNIT     CODE           ?C_C51STARTUP
FF6A75H   FF6A9DH   000029H   BYTE   UNIT     CODE           ?C_C51STARTUP?2
FF6A9EH   FF6AA0H   000003H   BYTE   UNIT     CODE           ?C_C51STARTUP?3
FF6AA1H   FF6ADCH   00003CH   BYTE   INSEG    CODE           ?PR?IPS200_SET_REGION?SEEKFREE_IPS200_SPI
FF6ADDH   FF6B13H   000037H   BYTE   INSEG    CODE           ?PR?IPS200_SET_DIR?SEEKFREE_IPS200_SPI
FF6B14H   FF6B49H   000036H   BYTE   INSEG    CODE           ?PR?OLED_SET_POS_SPI?SEEKFREE_OLED
FF6B4AH   FF6B7EH   000035H   BYTE   INSEG    CODE           ?PR?DELAY_MS?ZF_DELAY
FF6B7FH   FF6BB3H   000035H   BYTE   INSEG    CODE           ?PR?IIC_DELAY_US?ZF_IIC
FF6BB4H   FF6BE8H   000035H   BYTE   INSEG    CODE           ?PR?OLED_SET_POS?SEEKFREE_OLED
FF6BE9H   FF6C17H   00002FH   BYTE   INSEG    CODE           ?PR?TM4_ISR?ISR
FF6C18H   FF6C44H   00002DH   BYTE   INSEG    CODE           ?PR?IMU963RA_SIMSPI_R_REG_BYTE?SEEKFREE_IMU963RA
FF6C45H   FF6C6EH   00002AH   BYTE   INSEG    CODE           ?PR?LCD_WRITEDATA_16BIT?SEEKFREE_18TFT
FF6C6FH   FF6C98H   00002AH   BYTE   INSEG    CODE           ?PR?DL1A_DECODE_TIMEOUT?SEEKFREE_DL1A
FF6C99H   FF6CC2H   00002AH   BYTE   INSEG    CODE           ?PR?IPS114_WRITEDATA_16BIT?SEEKFREE_IPS114_SPI
FF6CC3H   FF6CEAH   000028H   BYTE   INSEG    CODE           ?PR?DL1A_SIMIIC_SENDACK?SEEKFREE_DL1A
FF6CEBH   FF6D12H   000028H   BYTE   INSEG    CODE           ?PR?DL1B_SIMIIC_SENDACK?SEEKFREE_DL1B
FF6D13H   FF6D3AH   000028H   BYTE   INSEG    CODE           ?PR?MPU6050_SIMIIC_SENDACK?SEEKFREE_MPU6050
FF6D3BH   FF6D61H   000027H   BYTE   INSEG    CODE           ?PR?ICM20602_SIMSPI_R_REG_BYTE?SEEKFREE_ICM20602
FF6D62H   FF6D86H   000025H   BYTE   INSEG    CODE           ?PR?MEMCPY?_?MEMCPY
FF6D87H   FF6DA9H   000023H   BYTE   INSEG    CODE           ?PR?DELAY_INIT?ZF_DELAY
FF6DAAH   FF6DCCH   000023H   BYTE   INSEG    CODE           ?PR?IMU963RA_READ_ACC_GYRO_REGISTER?SEEKFREE_IMU963RA
FF6DCDH   FF6DEEH   000022H   BYTE   INSEG    CODE           ?PR?IMU660RA_READ_REGISTER?SEEKFREE_IMU660RA
FF6DEFH   FF6E0FH   000021H   BYTE   INSEG    CODE           ?PR?DL1A_SCCB_WAITACK?SEEKFREE_DL1A
FF6E10H   FF6E30H   000021H   BYTE   INSEG    CODE           ?PR?DL1B_SCCB_WAITACK?SEEKFREE_DL1B
FF6E31H   FF6E51H   000021H   BYTE   INSEG    CODE           ?PR?IMU963RA_SIMSPI_W_REG_BYTE?SEEKFREE_IMU963RA
FF6E52H   FF6E72H   000021H   BYTE   INSEG    CODE           ?PR?IPS200_WRITE_16BIT_DATA_SPI?SEEKFREE_IPS200_SPI
FF6E73H   FF6E91H   00001FH   BYTE   INSEG    CODE           ?PR?DL1A_SIMIIC_DELAY?SEEKFREE_DL1A
L251 LINKER/LOCATER V4.66.93.0                                                        11/01/2024  21:35:45  PAGE 10


FF6E92H   FF6EAFH   00001EH   BYTE   INSEG    CODE           ?PR?ICM20602_READ_REGISTER?SEEKFREE_ICM20602
FF6EB0H   FF6ECDH   00001EH   BYTE   INSEG    CODE           ?PR?IPS200_WRITE_COMMAND?SEEKFREE_IPS200_SPI
FF6ECEH   FF6EE7H   00001AH   BYTE   INSEG    CODE           ?PR?IMU963RA_WRITE_ACC_GYRO_REGISTER?SEEKFREE_IMU963RA
FF6EE8H   FF6F01H   00001AH   BYTE   INSEG    CODE           ?PR?UART3_ISR?ISR
FF6F02H   FF6F1BH   00001AH   BYTE   INSEG    CODE           ?PR?UART4_ISR?ISR
FF6F1CH   FF6F31H   000016H   BYTE   INSEG    CODE           ?PR?DL1A_SIMIIC_STOP?SEEKFREE_DL1A
FF6F32H   FF6F47H   000016H   BYTE   INSEG    CODE           ?PR?MPU6050_SIMIIC_STOP?SEEKFREE_MPU6050
FF6F48H   FF6F5CH   000015H   BYTE   INSEG    CODE           ?PR?LCD_WRITEINDEX?SEEKFREE_18TFT
FF6F5DH   FF6F71H   000015H   BYTE   INSEG    CODE           ?PR?LCD_WRITEDATA?SEEKFREE_18TFT
FF6F72H   FF6F86H   000015H   BYTE   INSEG    CODE           ?PR?IPS114_WRITEINDEX?SEEKFREE_IPS114_SPI
FF6F87H   FF6F9BH   000015H   BYTE   INSEG    CODE           ?PR?IPS200_SET_COLOR?SEEKFREE_IPS200_SPI
FF6F9CH   FF6FB0H   000015H   BYTE   INSEG    CODE           ?PR?IPS200_WRITE_8BIT_DATA?SEEKFREE_IPS200_SPI
FF6FB1H   FF6FC5H   000015H   BYTE   INSEG    CODE           ?PR?IPS200_WRITE_16BIT_DATA?SEEKFREE_IPS200_SPI
FF6FC6H   FF6FDAH   000015H   BYTE   INSEG    CODE           ?PR?OLED_WRCMD_SPI?SEEKFREE_OLED
FF6FDBH   FF6FEFH   000015H   BYTE   INSEG    CODE           ?PR?OLED_WRDAT_SPI?SEEKFREE_OLED
FF6FF0H   FF7003H   000014H   BYTE   INSEG    CODE           ?PR?CLOCK_INIT?BOARD
FF7004H   FF7017H   000014H   BYTE   INSEG    CODE           ?PR?MAIN?MAIN
FF7018H   FF702AH   000013H   BYTE   INSEG    CODE           ?PR?DL1A_SIMIIC_START?SEEKFREE_DL1A
FF702BH   FF703DH   000013H   BYTE   INSEG    CODE           ?PR?MPU6050_SIMIIC_START?SEEKFREE_MPU6050
FF703EH   FF704FH   000012H   BYTE   INSEG    CODE           ?PR?PUTCHAR?BOARD
FF7050H   FF7061H   000012H   BYTE   INSEG    CODE           ?PR?SPI_MOSI?ZF_SPI
FF7062H   FF7072H   000011H   BYTE   INSEG    CODE           ?PR?ICACHEON?BOARD
FF7073H   FF707AH   000008H   BYTE   INSEG    CODE           ?PR?IPS200_WRITE_8BIT_DATA_SPI?SEEKFREE_IPS200_SPI
FF707BH   FF7080H   000006H   BYTE   UNIT     CODE           ?PR?CASTF?STC32F_FPMU
FF7081H   FF7086H   000006H   BYTE   UNIT     CODE           ?PR?FCASTI?STC32F_FPMU
FF7087H   FF708AH   000004H   BYTE   INSEG    CODE           ?PR?TM3_ISR?ISR
FF708BH   FF708EH   000004H   BYTE   UNIT     CONST          ?CO?PRINTF
FF708FH   FF72B6H   000228H   BYTE   UNIT     HCONST         ?C_INITEDATA
FF72B7H   FF730EH   000058H   BYTE   UNIT     HCONST         ?HC?ZF_PWM
FF730FH   FF7359H   00004BH   BYTE   UNIT     HCONST         ?HC?SEEKFREE_IMU963RA
FF735AH   FF738EH   000035H   BYTE   UNIT     HCONST         ?HC?SEEKFREE_ICM20602
FF738FH   FF73C2H   000034H   BYTE   UNIT     HCONST         ?HC?SEEKFREE_IMU660RA
FF73C3H   FF73D8H   000016H   BYTE   UNIT     HCONST         ?HC?SEEKFREE_MPU6050
FF73D9H   FF73EBH   000013H   BYTE   UNIT     HCONST         ?HC?SEEKFREE_DL1A
FF73ECH   FF73FBH   000010H   BYTE   UNIT     HCONST         ?HC?SEEKFREE_FUNCTION
FF73FCH   FF7407H   00000CH   BYTE   UNIT     HCONST         ?HC?BATTERY
FF7408H   FF7411H   00000AH   BYTE   UNIT     HCONST         ?HC?SEEKFREE_OLED
FF7412H   FF7417H   000006H   BYTE   UNIT     HCONST         ?HC?SEEKFREE_18TFT
FF7418H   FF741DH   000006H   BYTE   UNIT     HCONST         ?HC?SEEKFREE_IPS114_SPI

* * * * * * * * *   R E M O V E D     S E G M E N T S   * * * * * * * *
   *DEL*:           000016H   BYTE   INSEG    CODE           ?PR?DISALBE_ICACHE?BOARD
   *DEL*:           000017H   BYTE   INSEG    CODE           ?PR?ENALBE_ICACHE?BOARD
   *DEL*:           000004H   BYTE   INSEG    CODE           ?PR?DISABLEGLOBALIRQ?BOARD
   *DEL*:           000004H   BYTE   UNIT     CODE           ?PR?FPADD?STC32F_FPMU
   *DEL*:           000004H   BYTE   UNIT     CODE           ?PR?SQRT?STC32F_FPMU
   *DEL*:           000006H   BYTE   UNIT     CODE           ?PR?FXAM?STC32F_FPMU
   *DEL*:           000007H   BYTE   UNIT     CODE           ?PR?FCHS?STC32F_FPMU
   *DEL*:           000007H   BYTE   UNIT     CODE           ?PR?FABS?STC32F_FPMU
   *DEL*:           000004H   BYTE   UNIT     CODE           ?PR?SIN?STC32F_FPMU
   *DEL*:           000004H   BYTE   UNIT     CODE           ?PR?COS?STC32F_FPMU
   *DEL*:           000004H   BYTE   UNIT     CODE           ?PR?TAN?STC32F_FPMU
   *DEL*:           00000AH   BYTE   UNIT     CODE           ?PR?ATAN?STC32F_FPMU
   *DEL*:           000006H   BYTE   UNIT     CODE           ?PR?FCASTC?STC32F_FPMU
   *DEL*:           000004H   BYTE   UNIT     CODE           ?PR?FCLEX?STC32F_FPMU
   *DEL*:           000004H   BYTE   UNIT     CODE           ?PR?FINIT?STC32F_FPMU
   *DEL*:           000006H   BYTE   UNIT     CODE           ?PR?FPSRR?STC32F_FPMU
   *DEL*:           000006H   BYTE   UNIT     CODE           ?PR?FPSRW?STC32F_FPMU
   *DEL*:           000006H   BYTE   UNIT     CODE           ?PR?FPCRR?STC32F_FPMU
   *DEL*:           000006H   BYTE   UNIT     CODE           ?PR?FPCRW?STC32F_FPMU
   *DEL*:           0000B5H   BYTE   INSEG    CODE           ?PR?ADC_INIT?ZF_ADC
   *DEL*:           000033H   BYTE   INSEG    CODE           ?PR?DELAY_US?ZF_DELAY
   *DEL*:           00001AH   BYTE   INSEG    CODE           ?PR?IAP_SET_TPS?ZF_EEPROM
   *DEL*:           000015H   BYTE   INSEG    CODE           ?PR?EEPROM_TRIG?ZF_EEPROM
   *DEL*:           000029H   BYTE   INSEG    CODE           ?PR?IAP_ERASE_PAGE?ZF_EEPROM
L251 LINKER/LOCATER V4.66.93.0                                                        11/01/2024  21:35:45  PAGE 11


   *DEL*:           000004H   BYTE   INSEG    CODE           ?PR?IAP_IDLE?ZF_EEPROM
   *DEL*:           00005FH   BYTE   INSEG    CODE           ?PR?IAP_READ_BYTES?ZF_EEPROM
   *DEL*:           000008H   BYTE   INSEG    CODE           ?PR?IAP_INIT?ZF_EEPROM
   *DEL*:           00005BH   BYTE   INSEG    CODE           ?PR?IAP_WRITE_BYTES?ZF_EEPROM
   *DEL*:           000012H   BYTE   INSEG    CODE           ?PR?IAP_GET_CMD_STATE?ZF_EEPROM
   *DEL*:           000066H   BYTE   INSEG    CODE           ?PR?EXIT_INIT?ZF_EXTI
   *DEL*:           000095H   BYTE   INSEG    CODE           ?PR?GPIO_PULL_SET?ZF_GPIO
   *DEL*:           000028H   BYTE   INSEG    CODE           ?PR?SEND_DATA?ZF_IIC
   *DEL*:           000037H   BYTE   INSEG    CODE           ?PR?IIC_CHANGE_PIN?ZF_IIC
   *DEL*:           00001CH   BYTE   INSEG    CODE           ?PR?RECV_DATA?ZF_IIC
   *DEL*:           000015H   BYTE   INSEG    CODE           ?PR?START?ZF_IIC
   *DEL*:           000021H   BYTE   INSEG    CODE           ?PR?SEND_ACK?ZF_IIC
   *DEL*:           000015H   BYTE   INSEG    CODE           ?PR?RECV_ACK?ZF_IIC
   *DEL*:           000015H   BYTE   INSEG    CODE           ?PR?STOP?ZF_IIC
   *DEL*:           00001EH   BYTE   INSEG    CODE           ?PR?SEND_NAK?ZF_IIC
   *DEL*:           00007AH   BYTE   INSEG    CODE           ?PR?IIC_INIT?ZF_IIC
   *DEL*:           000099H   BYTE   INSEG    CODE           ?PR?IIC_READ_REG?ZF_IIC
   *DEL*:           0000D4H   BYTE   INSEG    CODE           ?PR?IIC_READ_REG_BYTES?ZF_IIC
   *DEL*:           00007CH   BYTE   INSEG    CODE           ?PR?IIC_WRITE_REG?ZF_IIC
   *DEL*:           0000B9H   BYTE   INSEG    CODE           ?PR?NVIC_SETPRIORITY?ZF_NVIC
   *DEL*:           0001ABH   BYTE   INSEG    CODE           ?PR?PWM_FREQ?ZF_PWM
   *DEL*:           0003DAH   BYTE   INSEG    CODE           ?PR?PWM_INIT?ZF_PWM
   *DEL*:           000026H   BYTE   INSEG    CODE           ?PR?SPI_CHANGE_MODE?ZF_SPI
   *DEL*:           0000CCH   BYTE   INSEG    CODE           ?PR?SPI_CHANGE_PIN?ZF_SPI
   *DEL*:           0000B4H   BYTE   INSEG    CODE           ?PR?CTIMER_COUNT_READ?ZF_TIM
   *DEL*:           0000E5H   BYTE   INSEG    CODE           ?PR?PIT_TIMER_MS?ZF_TIM
   *DEL*:           000054H   BYTE   INSEG    CODE           ?PR?CTIMER_COUNT_INIT?ZF_TIM
   *DEL*:           00005DH   BYTE   INSEG    CODE           ?PR?CTIMER_COUNT_CLEAN?ZF_TIM
   *DEL*:           000033H   BYTE   INSEG    CODE           ?PR?UART_PUTBUFF?ZF_UART
   *DEL*:           00002BH   BYTE   INSEG    CODE           ?PR?UART_PUTSTR?ZF_UART
   *DEL*:           0003ACH   BYTE   INSEG    CODE           ?PR?FIFO_READ_BUFFER?ZF_FIFO
   *DEL*:           00013BH   BYTE   INSEG    CODE           ?PR?FIFO_WRITE_ELEMENT?ZF_FIFO
   *DEL*:           000434H   BYTE   INSEG    CODE           ?PR?FIFO_READ_TAIL_BUFFER?ZF_FIFO
   *DEL*:           0000EAH   BYTE   INSEG    CODE           ?PR?FIFO_CLEAR?ZF_FIFO
   *DEL*:           000070H   BYTE   INSEG    CODE           ?PR?FIFO_END_OFFSET?ZF_FIFO
   *DEL*:           000025H   BYTE   INSEG    CODE           ?PR?FIFO_USED?ZF_FIFO
   *DEL*:           000083H   BYTE   INSEG    CODE           ?PR?FIFO_INIT?ZF_FIFO
   *DEL*:           00018BH   BYTE   INSEG    CODE           ?PR?FIFO_READ_ELEMENT?ZF_FIFO
   *DEL*:           0000CDH   BYTE   INSEG    CODE           ?PR?LCD_SHOWUINT16?SEEKFREE_18TFT
   *DEL*:           0000CEH   BYTE   INSEG    CODE           ?PR?LCD_SHOWINT32_SIMSPI?SEEKFREE_18TFT
   *DEL*:           000119H   BYTE   INSEG    CODE           ?PR?LCD_SHOWINT16_SIMSPI?SEEKFREE_18TFT
   *DEL*:           0000CEH   BYTE   INSEG    CODE           ?PR?LCD_SHOWINT32?SEEKFREE_18TFT
   *DEL*:           000119H   BYTE   INSEG    CODE           ?PR?LCD_SHOWINT16?SEEKFREE_18TFT
   *DEL*:           000057H   BYTE   INSEG    CODE           ?PR?LCD_CLEAR_SIMSPI?SEEKFREE_18TFT
   *DEL*:           000057H   BYTE   INSEG    CODE           ?PR?LCD_CLEAR?SEEKFREE_18TFT
   *DEL*:           00005DH   BYTE   INSEG    CODE           ?PR?LCD_SHOWSTR_SIMSPI?SEEKFREE_18TFT
   *DEL*:           00005DH   BYTE   INSEG    CODE           ?PR?LCD_SHOWSTR?SEEKFREE_18TFT
   *DEL*:           0001FDH   BYTE   INSEG    CODE           ?PR?LCD_INIT_SIMSPI?SEEKFREE_18TFT
   *DEL*:           0000ECH   BYTE   INSEG    CODE           ?PR?SHOWIMAGE?SEEKFREE_18TFT
   *DEL*:           0001F3H   BYTE   INSEG    CODE           ?PR?LCD_INIT?SEEKFREE_18TFT
   *DEL*:           0000A9H   BYTE   INSEG    CODE           ?PR?LCD_SHOWUINT8_SIMSPI?SEEKFREE_18TFT
   *DEL*:           0000A9H   BYTE   INSEG    CODE           ?PR?LCD_SHOWUINT8?SEEKFREE_18TFT
   *DEL*:           0000EBH   BYTE   INSEG    CODE           ?PR?LCD_SHOWINT8_SIMSPI?SEEKFREE_18TFT
   *DEL*:           0000EBH   BYTE   INSEG    CODE           ?PR?LCD_SHOWINT8?SEEKFREE_18TFT
   *DEL*:           000145H   BYTE   INSEG    CODE           ?PR?LCD_SHOWFLOAT_SIMSPI?SEEKFREE_18TFT
   *DEL*:           000023H   BYTE   INSEG    CODE           ?PR?LCD_DRAWPOINT_SIMSPI?SEEKFREE_18TFT
   *DEL*:           000145H   BYTE   INSEG    CODE           ?PR?LCD_SHOWFLOAT?SEEKFREE_18TFT
   *DEL*:           000023H   BYTE   INSEG    CODE           ?PR?LCD_DRAWPOINT?SEEKFREE_18TFT
   *DEL*:           0000BFH   BYTE   INSEG    CODE           ?PR?LCD_SHOWCHAR_SIMSPI?SEEKFREE_18TFT
   *DEL*:           0000BFH   BYTE   INSEG    CODE           ?PR?LCD_SHOWCHAR?SEEKFREE_18TFT
   *DEL*:           0000CDH   BYTE   INSEG    CODE           ?PR?LCD_SHOWUINT16_SIMSPI?SEEKFREE_18TFT
   *DEL*:           000018H   BYTE   INSEG    CODE           ?PR?BLUETOOTH_CH9141_UART_CALLBACK?SEEKFREE_BLUETOOTH_CH91
                                                             -41
   *DEL*:           00001EH   BYTE   INSEG    CODE           ?PR?BLUETOOTH_CH9141SEND_BYTE?SEEKFREE_BLUETOOTH_CH9141
   *DEL*:           00002EH   BYTE   INSEG    CODE           ?PR?BLUETOOTH_CH9141_READ_BUFF?SEEKFREE_BLUETOOTH_CH9141
L251 LINKER/LOCATER V4.66.93.0                                                        11/01/2024  21:35:45  PAGE 12


   *DEL*:           0000D4H   BYTE   INSEG    CODE           ?PR?BLUETOOTH_CH9141_SEND_BUFF?SEEKFREE_BLUETOOTH_CH9141
   *DEL*:           00004DH   BYTE   INSEG    CODE           ?PR?BLUETOOTH_CH9141_INIT?SEEKFREE_BLUETOOTH_CH9141
   *DEL*:           00002EH   BYTE   INSEG    CODE           ?PR?BLE6A20_READ_BUFF?SEEKFREE_BLE6A20
   *DEL*:           000075H   BYTE   INSEG    CODE           ?PR?BLE6A20_SEND_BUFF?SEEKFREE_BLE6A20
   *DEL*:           000018H   BYTE   INSEG    CODE           ?PR?BLE6A20_CALLBACK?SEEKFREE_BLE6A20
   *DEL*:           00004CH   BYTE   INSEG    CODE           ?PR?BLE6A20_INIT?SEEKFREE_BLE6A20
   *DEL*:           00001EH   BYTE   INSEG    CODE           ?PR?BLE6A20_SEND_BYTE?SEEKFREE_BLE6A20
   *DEL*:           00003EH   BYTE   INSEG    CODE           ?PR?DL1A_SET_SIGNAL_RATE_LIMIT?SEEKFREE_DL1A
   *DEL*:           000195H   BYTE   INSEG    CODE           ?PR?DL1A_GET_SPAD_INFO?SEEKFREE_DL1A
   *DEL*:           00006CH   BYTE   INSEG    CODE           ?PR?DL1A_GET_DISTANCE?SEEKFREE_DL1A
   *DEL*:           0000ABH   BYTE   INSEG    CODE           ?PR?DL1A_PERFORM_SINGLE_REF_CALIBRATION?SEEKFREE_DL1A
   *DEL*:           0000B6H   BYTE   INSEG    CODE           ?PR?DL1A_GET_MEASUREMENT_TIMING_BUDGET?SEEKFREE_DL1A
   *DEL*:           00003BH   BYTE   INSEG    CODE           ?PR?DL1A_SIMIIC_READ_REG?SEEKFREE_DL1A
   *DEL*:           000068H   BYTE   INSEG    CODE           ?PR?DL1A_SIMIIC_READ_REGS_1?SEEKFREE_DL1A
   *DEL*:           000149H   BYTE   INSEG    CODE           ?PR?DL1A_SET_MEASUREMENT_TIMING_BUDGET?SEEKFREE_DL1A
   *DEL*:           00002AH   BYTE   INSEG    CODE           ?PR?DL1A_SIMIIC_WRITE_REG?SEEKFREE_DL1A
   *DEL*:           0006AEH   BYTE   INSEG    CODE           ?PR?DL1A_INIT?SEEKFREE_DL1A
   *DEL*:           000079H   BYTE   INSEG    CODE           ?PR?DL1B_IIC_TRANSFER_8BIT_ARRAY?SEEKFREE_DL1B
   *DEL*:           000133H   BYTE   INSEG    CODE           ?PR?DL1B_GET_DISTANCE?SEEKFREE_DL1B
   *DEL*:           000013H   BYTE   INSEG    CODE           ?PR?DL1B_SIMIIC_START?SEEKFREE_DL1B
   *DEL*:           000016H   BYTE   INSEG    CODE           ?PR?DL1B_SIMIIC_STOP?SEEKFREE_DL1B
   *DEL*:           000112H   BYTE   INSEG    CODE           ?PR?DL1B_INIT?SEEKFREE_DL1B
   *DEL*:           000287H   BYTE   INSEG    CODE           ?PR?FUNC_DOUBLE_TO_STR?SEEKFREE_FUNCTION
   *DEL*:           000178H   BYTE   INSEG    CODE           ?PR?FUNC_STR_TO_DOUBLE?SEEKFREE_FUNCTION
   *DEL*:           000287H   BYTE   INSEG    CODE           ?PR?FUNC_FLOAT_TO_STR?SEEKFREE_FUNCTION
   *DEL*:           000178H   BYTE   INSEG    CODE           ?PR?FUNC_STR_TO_FLOAT?SEEKFREE_FUNCTION
   *DEL*:           000019H   BYTE   INSEG    CODE           ?PR?FUNC_SOFT_DELAY?SEEKFREE_FUNCTION
   *DEL*:           000661H   BYTE   INSEG    CODE           ?PR?ZF_SPRINTF?SEEKFREE_FUNCTION
   *DEL*:           0000A9H   BYTE   INSEG    CODE           ?PR?FUNC_UINT_TO_STR?SEEKFREE_FUNCTION
   *DEL*:           00005FH   BYTE   INSEG    CODE           ?PR?FUNC_STR_TO_UINT?SEEKFREE_FUNCTION
   *DEL*:           0000E3H   BYTE   INSEG    CODE           ?PR?FUNC_HEX_TO_STR?SEEKFREE_FUNCTION
   *DEL*:           000137H   BYTE   INSEG    CODE           ?PR?FUNC_STR_TO_HEX?SEEKFREE_FUNCTION
   *DEL*:           0000FFH   BYTE   INSEG    CODE           ?PR?FUNC_INT_TO_STR?SEEKFREE_FUNCTION
   *DEL*:           0000B6H   BYTE   INSEG    CODE           ?PR?FUNC_STR_TO_INT?SEEKFREE_FUNCTION
   *DEL*:           00004FH   BYTE   INSEG    CODE           ?PR?FUNC_GET_GREATEST_COMMON_DIVISOR?SEEKFREE_FUNCTION
   *DEL*:           000095H   BYTE   INSEG    CODE           ?PR?PRINTF_REVERSE_ORDER?SEEKFREE_FUNCTION
   *DEL*:           00008DH   BYTE   INSEG    CODE           ?PR?ICM20602_GYRO_TRANSITION?SEEKFREE_ICM20602
   *DEL*:           00001AH   BYTE   INSEG    CODE           ?PR?ICM20602_WRITE_REGISTER?SEEKFREE_ICM20602
   *DEL*:           00004EH   BYTE   INSEG    CODE           ?PR?ICM20602_SELF_CHECK?SEEKFREE_ICM20602
   *DEL*:           00001BH   BYTE   INSEG    CODE           ?PR?ICM20602_SIMSPI_W_REG_BYTE?SEEKFREE_ICM20602
   *DEL*:           0000C2H   BYTE   INSEG    CODE           ?PR?ICM20602_INIT?SEEKFREE_ICM20602
   *DEL*:           000050H   BYTE   INSEG    CODE           ?PR?ICM20602_GET_ACC?SEEKFREE_ICM20602
   *DEL*:           000089H   BYTE   INSEG    CODE           ?PR?ICM20602_ACC_TRANSITION?SEEKFREE_ICM20602
   *DEL*:           000026H   BYTE   INSEG    CODE           ?PR?ICM20602_READ_REGISTERS?SEEKFREE_ICM20602
   *DEL*:           000050H   BYTE   INSEG    CODE           ?PR?ICM20602_GET_GYRO?SEEKFREE_ICM20602
   *DEL*:           000050H   BYTE   INSEG    CODE           ?PR?IMU660RA_GET_GYRO?SEEKFREE_IMU660RA
   *DEL*:           000022H   BYTE   INSEG    CODE           ?PR?IMU660RA_WRITE_REGISTERS?SEEKFREE_IMU660RA
   *DEL*:           0000A8H   BYTE   INSEG    CODE           ?PR?IMU660RA_GYRO_TRANSITION?SEEKFREE_IMU660RA
   *DEL*:           00001AH   BYTE   INSEG    CODE           ?PR?IMU660RA_WRITE_REGISTER?SEEKFREE_IMU660RA
   *DEL*:           00004BH   BYTE   INSEG    CODE           ?PR?IMU660RA_SELF_CHECK?SEEKFREE_IMU660RA
   *DEL*:           00003EH   BYTE   INSEG    CODE           ?PR?IMU660RA_SIMSPI_W_REG_BYTES?SEEKFREE_IMU660RA
   *DEL*:           00001BH   BYTE   INSEG    CODE           ?PR?IMU660RA_SIMSPI_W_REG_BYTE?SEEKFREE_IMU660RA
   *DEL*:           0000AAH   BYTE   INSEG    CODE           ?PR?IMU660RA_INIT?SEEKFREE_IMU660RA
   *DEL*:           000050H   BYTE   INSEG    CODE           ?PR?IMU660RA_GET_ACC?SEEKFREE_IMU660RA
   *DEL*:           00007CH   BYTE   INSEG    CODE           ?PR?IMU660RA_ACC_TRANSITION?SEEKFREE_IMU660RA
   *DEL*:           000026H   BYTE   INSEG    CODE           ?PR?IMU660RA_READ_REGISTERS?SEEKFREE_IMU660RA
   *DEL*:           00008DH   BYTE   INSEG    CODE           ?PR?IMU963RA_ACC_TRANSITION?SEEKFREE_IMU963RA
   *DEL*:           000050H   BYTE   INSEG    CODE           ?PR?IMU963RA_GET_GYRO?SEEKFREE_IMU963RA
   *DEL*:           000051H   BYTE   INSEG    CODE           ?PR?IMU963RA_MAG_TRANSITION?SEEKFREE_IMU963RA
   *DEL*:           0000D2H   BYTE   INSEG    CODE           ?PR?IMU963RA_GYRO_TRANSITION?SEEKFREE_IMU963RA
   *DEL*:           00003AH   BYTE   INSEG    CODE           ?PR?IMU963RA_CONNECT_MAG?SEEKFREE_IMU963RA
   *DEL*:           000026H   BYTE   INSEG    CODE           ?PR?IMU963RA_READ_ACC_GYRO_REGISTERS?SEEKFREE_IMU963RA
   *DEL*:           00007FH   BYTE   INSEG    CODE           ?PR?IMU963RA_WRITE_MAG_REGISTER?SEEKFREE_IMU963RA
   *DEL*:           00004BH   BYTE   INSEG    CODE           ?PR?IMU963RA_SIMSPI_R_REG_BYTES?SEEKFREE_IMU963RA
   *DEL*:           000051H   BYTE   INSEG    CODE           ?PR?IMU963RA_MAG_SELF_CHECK?SEEKFREE_IMU963RA
L251 LINKER/LOCATER V4.66.93.0                                                        11/01/2024  21:35:45  PAGE 13


   *DEL*:           00011DH   BYTE   INSEG    CODE           ?PR?IMU963RA_INIT?SEEKFREE_IMU963RA
   *DEL*:           00004EH   BYTE   INSEG    CODE           ?PR?IMU963RA_ACC_GYRO_SELF_CHECK?SEEKFREE_IMU963RA
   *DEL*:           000050H   BYTE   INSEG    CODE           ?PR?IMU963RA_GET_ACC?SEEKFREE_IMU963RA
   *DEL*:           00006BH   BYTE   INSEG    CODE           ?PR?IMU963RA_GET_MAG?SEEKFREE_IMU963RA
   *DEL*:           0000A9H   BYTE   INSEG    CODE           ?PR?IPS114_SHOWUINT8_SIMSPI?SEEKFREE_IPS114_SPI
   *DEL*:           0000A5H   BYTE   INSEG    CODE           ?PR?IPS114_SHOWUINT8?SEEKFREE_IPS114_SPI
   *DEL*:           0000EBH   BYTE   INSEG    CODE           ?PR?IPS114_SHOWINT8_SIMSPI?SEEKFREE_IPS114_SPI
   *DEL*:           0000E7H   BYTE   INSEG    CODE           ?PR?IPS114_SHOWINT8?SEEKFREE_IPS114_SPI
   *DEL*:           000145H   BYTE   INSEG    CODE           ?PR?IPS114_SHOWFLOAT_SIMSPI?SEEKFREE_IPS114_SPI
   *DEL*:           000023H   BYTE   INSEG    CODE           ?PR?IPS114_DRAWPOINT_SIMSPI?SEEKFREE_IPS114_SPI
   *DEL*:           000145H   BYTE   INSEG    CODE           ?PR?IPS114_SHOWFLOAT?SEEKFREE_IPS114_SPI
   *DEL*:           000023H   BYTE   INSEG    CODE           ?PR?IPS114_DRAWPOINT?SEEKFREE_IPS114_SPI
   *DEL*:           0000BFH   BYTE   INSEG    CODE           ?PR?IPS114_SHOWCHAR_SIMSPI?SEEKFREE_IPS114_SPI
   *DEL*:           0000BFH   BYTE   INSEG    CODE           ?PR?IPS114_SHOWCHAR?SEEKFREE_IPS114_SPI
   *DEL*:           0000CDH   BYTE   INSEG    CODE           ?PR?IPS114_SHOWUINT16_SIMSPI?SEEKFREE_IPS114_SPI
   *DEL*:           0000CDH   BYTE   INSEG    CODE           ?PR?IPS114_SHOWUINT16?SEEKFREE_IPS114_SPI
   *DEL*:           0000CEH   BYTE   INSEG    CODE           ?PR?IPS114_SHOWINT32_SIMSPI?SEEKFREE_IPS114_SPI
   *DEL*:           000119H   BYTE   INSEG    CODE           ?PR?IPS114_SHOWINT16_SIMSPI?SEEKFREE_IPS114_SPI
   *DEL*:           0000CEH   BYTE   INSEG    CODE           ?PR?IPS114_SHOWINT32?SEEKFREE_IPS114_SPI
   *DEL*:           000115H   BYTE   INSEG    CODE           ?PR?IPS114_SHOWINT16?SEEKFREE_IPS114_SPI
   *DEL*:           00005FH   BYTE   INSEG    CODE           ?PR?IPS114_CLEAR_SIMSPI?SEEKFREE_IPS114_SPI
   *DEL*:           00005FH   BYTE   INSEG    CODE           ?PR?IPS114_CLEAR?SEEKFREE_IPS114_SPI
   *DEL*:           00005DH   BYTE   INSEG    CODE           ?PR?IPS114_SHOWSTR_SIMSPI?SEEKFREE_IPS114_SPI
   *DEL*:           00005DH   BYTE   INSEG    CODE           ?PR?IPS114_SHOWSTR?SEEKFREE_IPS114_SPI
   *DEL*:           00004CH   BYTE   INSEG    CODE           ?PR?IPS114_WRITEDATA_SIMSPI?SEEKFREE_IPS114_SPI
   *DEL*:           000015H   BYTE   INSEG    CODE           ?PR?IPS114_WRITEDATA?SEEKFREE_IPS114_SPI
   *DEL*:           000054H   BYTE   INSEG    CODE           ?PR?IPS114_SET_REGION_SIMSPI?SEEKFREE_IPS114_SPI
   *DEL*:           000154H   BYTE   INSEG    CODE           ?PR?IPS114_INIT_SIMSPI?SEEKFREE_IPS114_SPI
   *DEL*:           000054H   BYTE   INSEG    CODE           ?PR?IPS114_SET_REGION?SEEKFREE_IPS114_SPI
   *DEL*:           000176H   BYTE   INSEG    CODE           ?PR?IPS114_INIT?SEEKFREE_IPS114_SPI
   *DEL*:           0000CCH   BYTE   INSEG    CODE           ?PR?IPS200_SHOW_FLOAT?SEEKFREE_IPS200_SPI
   *DEL*:           00002DH   BYTE   INSEG    CODE           ?PR?IPS200_DRAW_POINT?SEEKFREE_IPS200_SPI
   *DEL*:           000093H   BYTE   INSEG    CODE           ?PR?IPS200_SHOW_STRING?SEEKFREE_IPS200_SPI
   *DEL*:           0001F1H   BYTE   INSEG    CODE           ?PR?IPS200_SHOW_CHAR?SEEKFREE_IPS200_SPI
   *DEL*:           000132H   BYTE   INSEG    CODE           ?PR?IPS200_SHOW_WAVE?SEEKFREE_IPS200_SPI
   *DEL*:           000095H   BYTE   INSEG    CODE           ?PR?IPS200_SHOW_UINT?SEEKFREE_IPS200_SPI
   *DEL*:           000009H   BYTE   INSEG    CODE           ?PR?IPS200_SET_FONT?SEEKFREE_IPS200_SPI
   *DEL*:           00009BH   BYTE   INSEG    CODE           ?PR?IPS200_SHOW_INT?SEEKFREE_IPS200_SPI
   *DEL*:           000163H   BYTE   INSEG    CODE           ?PR?IPS200_SHOW_CHINESE?SEEKFREE_IPS200_SPI
   *DEL*:           000071H   BYTE   INSEG    CODE           ?PR?IPS200_FULL?SEEKFREE_IPS200_SPI
   *DEL*:           0001BEH   BYTE   INSEG    CODE           ?PR?IPS200_DRAW_LINE?SEEKFREE_IPS200_SPI
   *DEL*:           00006CH   BYTE   INSEG    CODE           ?PR?MPU6050_SIMIIC_READ_REGS?SEEKFREE_MPU6050
   *DEL*:           00003BH   BYTE   INSEG    CODE           ?PR?MPU6050_SIMIIC_READ_REG?SEEKFREE_MPU6050
   *DEL*:           00002AH   BYTE   INSEG    CODE           ?PR?MPU6050_SIMIIC_WRITE_REG?SEEKFREE_MPU6050
   *DEL*:           000060H   BYTE   INSEG    CODE           ?PR?MPU6050_INIT?SEEKFREE_MPU6050
   *DEL*:           000033H   BYTE   INSEG    CODE           ?PR?MPU6050_SELF1_CHECK?SEEKFREE_MPU6050
   *DEL*:           00006AH   BYTE   INSEG    CODE           ?PR?MPU6050_READ_CH?SEEKFREE_MPU6050
   *DEL*:           000049H   BYTE   INSEG    CODE           ?PR?MPU6050_SEND_CH?SEEKFREE_MPU6050
   *DEL*:           000052H   BYTE   INSEG    CODE           ?PR?MPU6050_GET_GYRO?SEEKFREE_MPU6050
   *DEL*:           000021H   BYTE   INSEG    CODE           ?PR?MPU6050_SCCB_WAITACK?SEEKFREE_MPU6050
   *DEL*:           000052H   BYTE   INSEG    CODE           ?PR?MPU6050_GET_ACCDATA?SEEKFREE_MPU6050
   *DEL*:           000047H   BYTE   INSEG    CODE           ?PR?OLED_PUTPIXEL?SEEKFREE_OLED
   *DEL*:           00006FH   BYTE   INSEG    CODE           ?PR?OLED_HEXASCII_SPI?SEEKFREE_OLED
   *DEL*:           00044DH   BYTE   INSEG    CODE           ?PR?OLED_DIS_BMP_SPI?SEEKFREE_OLED
   *DEL*:           000145H   BYTE   INSEG    CODE           ?PR?OLED_PRINTF_FLOAT?SEEKFREE_OLED
   *DEL*:           000121H   BYTE   INSEG    CODE           ?PR?OLED_P8X16STR_SPI?SEEKFREE_OLED
   *DEL*:           000041H   BYTE   INSEG    CODE           ?PR?OLED_CLRPIXEL_SPI?SEEKFREE_OLED
   *DEL*:           0000C0H   BYTE   INSEG    CODE           ?PR?OLED_PRINT_CHINESE_SPI?SEEKFREE_OLED
   *DEL*:           00005DH   BYTE   INSEG    CODE           ?PR?OLED_FILL?SEEKFREE_OLED
   *DEL*:           0000CEH   BYTE   INSEG    CODE           ?PR?OLED_PRINTF_INT32?SEEKFREE_OLED
   *DEL*:           000027H   BYTE   INSEG    CODE           ?PR?OLED_UINT16?SEEKFREE_OLED
   *DEL*:           000048H   BYTE   INSEG    CODE           ?PR?OLED_PUTPIXEL_SPI?SEEKFREE_OLED
   *DEL*:           0000D1H   BYTE   INSEG    CODE           ?PR?OLED_P6X8STR?SEEKFREE_OLED
   *DEL*:           000073H   BYTE   INSEG    CODE           ?PR?OLED_INT16?SEEKFREE_OLED
   *DEL*:           0000A8H   BYTE   INSEG    CODE           ?PR?OLED_INIT?SEEKFREE_OLED
L251 LINKER/LOCATER V4.66.93.0                                                        11/01/2024  21:35:45  PAGE 14


   *DEL*:           000145H   BYTE   INSEG    CODE           ?PR?OLED_PRINTF_FLOAT_SPI?SEEKFREE_OLED
   *DEL*:           00006FH   BYTE   INSEG    CODE           ?PR?OLED_HEXASCII?SEEKFREE_OLED
   *DEL*:           00005DH   BYTE   INSEG    CODE           ?PR?OLED_FILL_SPI?SEEKFREE_OLED
   *DEL*:           0000CEH   BYTE   INSEG    CODE           ?PR?OLED_PRINTF_INT32_SPI?SEEKFREE_OLED
   *DEL*:           000027H   BYTE   INSEG    CODE           ?PR?OLED_UINT16_SPI?SEEKFREE_OLED
   *DEL*:           0000D1H   BYTE   INSEG    CODE           ?PR?OLED_P6X8STR_SPI?SEEKFREE_OLED
   *DEL*:           000073H   BYTE   INSEG    CODE           ?PR?OLED_INT16_SPI?SEEKFREE_OLED
   *DEL*:           00046AH   BYTE   INSEG    CODE           ?PR?OLED_DIS_BMP?SEEKFREE_OLED
   *DEL*:           0000C5H   BYTE   INSEG    CODE           ?PR?OLED_INIT_SPI?SEEKFREE_OLED
   *DEL*:           000121H   BYTE   INSEG    CODE           ?PR?OLED_P8X16STR?SEEKFREE_OLED
   *DEL*:           000040H   BYTE   INSEG    CODE           ?PR?OLED_CLRPIXEL?SEEKFREE_OLED
   *DEL*:           0000C0H   BYTE   INSEG    CODE           ?PR?OLED_PRINT_CHINESE?SEEKFREE_OLED
   *DEL*:           00008AH   BYTE   INSEG    CODE           ?PR?CCD_SEND_DATA?SEEKFREE_TSL1401
   *DEL*:           000022H   BYTE   INSEG    CODE           ?PR?CCD_INIT?SEEKFREE_TSL1401
   *DEL*:           00009AH   BYTE   INSEG    CODE           ?PR?CRC_CHECK?SEEKFREE_VIRSCO
   *DEL*:           0000DCH   BYTE   INSEG    CODE           ?PR?DATA_CONVERSION?SEEKFREE_VIRSCO
   *DEL*:           00002EH   BYTE   INSEG    CODE           ?PR?WIRELESS_UART_READ_BUFF?SEEKFREE_WIRELESS
   *DEL*:           000075H   BYTE   INSEG    CODE           ?PR?WIRELESS_UART_SEND_BUFF?SEEKFREE_WIRELESS
   *DEL*:           000018H   BYTE   INSEG    CODE           ?PR?WIRELESS_UART_CALLBACK?SEEKFREE_WIRELESS
   *DEL*:           00004CH   BYTE   INSEG    CODE           ?PR?WIRELESS_UART_INIT?SEEKFREE_WIRELESS
   *DEL*:           000026H   BYTE   INSEG    CODE           ?PR?WIRELESS_UART_SEND_BYTE?SEEKFREE_WIRELESS
   *DEL*:           0003F2H   BYTE   INSEG    CODE           ?PR?SEEKFREE_ASSISTANT_CAMERA_BOUNDARY_CONFIG?SEEKFREE_ASS
                                                             -ISTANT
   *DEL*:           000101H   BYTE   INSEG    CODE           ?PR?SEEKFREE_ASSISTANT_CAMERA_DOT_SEND?SEEKFREE_ASSISTANT
   *DEL*:           000138H   BYTE   INSEG    CODE           ?PR?SEEKFREE_ASSISTANT_OSCILLOSCOPE_SEND?SEEKFREE_ASSISTAN
                                                             -T
   *DEL*:           00001AH   BYTE   INSEG    CODE           ?PR?SEEKFREE_ASSISTANT_INIT?SEEKFREE_ASSISTANT
   *DEL*:           00003FH   BYTE   INSEG    CODE           ?PR?SEEKFREE_ASSISTANT_SUM?SEEKFREE_ASSISTANT
   *DEL*:           00003FH   BYTE   INSEG    CODE           ?PR?SEEKFREE_ASSISTANT_CAMERA_INFORMATION_CONFIG?SEEKFREE_
                                                             -ASSISTANT
   *DEL*:           000175H   BYTE   INSEG    CODE           ?PR?SEEKFREE_ASSISTANT_DATA_ANALYSIS?SEEKFREE_ASSISTANT
   *DEL*:           000101H   BYTE   INSEG    CODE           ?PR?SEEKFREE_ASSISTANT_CAMERA_DATA_SEND?SEEKFREE_ASSISTANT
   *DEL*:           000034H   BYTE   INSEG    CODE           ?PR?SEEKFREE_ASSISTANT_CAMERA_SEND?SEEKFREE_ASSISTANT
   *DEL*:           000039H   BYTE   INSEG    CODE           ?PR?DRV8701_INIT?DRV8701_DUAL
   *DEL*:           00000AH   BYTE   INSEG    CODE           ?PR?DRV8701_STOP?DRV8701_DUAL
   *DEL*:           00004CH   BYTE   INSEG    CODE           ?PR?SERVO_SET_POSITION?SERVO
   *DEL*:           000005H   BYTE   INSEG    CODE           ?PR?SERVO_GET_ANGLE?SERVO
   *DEL*:           000018H   BYTE   INSEG    CODE           ?PR?SERVO_INIT?SERVO
   *DEL*:           00000CH   BYTE   INSEG    CODE           ?PR?BATTERY_INIT?BATTERY
   *DEL*:           000061H   BYTE   INSEG    CODE           ?PR?GET_BATTERY_PERCENTAGE?BATTERY
   *DEL*:           000064H   BYTE   INSEG    CODE           ?PR?GET_BATTERY_VOLTAGE?BATTERY
   *DEL*:           000028H   BYTE   UNIT     EDATA          ?ED?PRINTF
   *DEL*:           00000EH   BYTE   INSEG    CODE           ?PR?STRLEN?_?STRLEN
   *DEL*:           00001AH   BYTE   INSEG    CODE           ?PR?MEMSET?_?MEMSET



OVERLAY MAP OF MODULE:   .\Out_File\SEEKFREE (board)


FUNCTION/MODULE                                BIT_GROUP   DATA_GROUP 
--> CALLED FUNCTION/MODULE                    START  STOP  START  STOP
======================================================================
UART1_Isr/isr                                 ----- -----  ----- -----

*** NEW ROOT ********************************

UART2_Isr/isr                                 ----- -----  ----- -----

*** NEW ROOT ********************************

UART3_Isr/isr                                 ----- -----  ----- -----

*** NEW ROOT ********************************

L251 LINKER/LOCATER V4.66.93.0                                                        11/01/2024  21:35:45  PAGE 15


UART4_Isr/isr                                 ----- -----  ----- -----

*** NEW ROOT ********************************

INT0_Isr/isr                                  ----- -----  ----- -----

*** NEW ROOT ********************************

INT1_Isr/isr                                  ----- -----  ----- -----

*** NEW ROOT ********************************

INT2_Isr/isr                                  ----- -----  ----- -----

*** NEW ROOT ********************************

INT3_Isr/isr                                  ----- -----  ----- -----

*** NEW ROOT ********************************

INT4_Isr/isr                                  ----- -----  ----- -----

*** NEW ROOT ********************************

TM0_Isr/isr                                   ----- -----  ----- -----

*** NEW ROOT ********************************

TM1_Isr/isr                                   ----- -----  ----- -----

*** NEW ROOT ********************************

TM2_Isr/isr                                   ----- -----  ----- -----

*** NEW ROOT ********************************

TM3_Isr/isr                                   ----- -----  ----- -----

*** NEW ROOT ********************************

TM4_Isr/isr                                   ----- -----  ----- -----
  +--> ccd_collect/SEEKFREE_TSL1401

ccd_collect/SEEKFREE_TSL1401                  ----- -----  ----- -----
  +--> adc_once/zf_adc

adc_once/zf_adc                               ----- -----  ----- -----

*** NEW ROOT ********************************

?C_C51STARTUP                                 ----- -----  ----- -----

*** NEW ROOT ********************************

?C_C51STARTUP?3                               ----- -----  ----- -----
  +--> main/main

main/main                                     ----- -----  ----- -----
  +--> clock_init/board
  +--> board_init/board
  +--> ips200_init_spi/SEEKFREE_IPS200_SPI

clock_init/board                              ----- -----  ----- -----
  +--> set_clk/board

L251 LINKER/LOCATER V4.66.93.0                                                        11/01/2024  21:35:45  PAGE 16


set_clk/board                                 ----- -----  ----- -----

board_init/board                              ----- -----  ----- -----
  +--> delay_init/zf_delay
  +--> ICacheOn/board
  +--> uart_init/zf_uart
  +--> EnableGlobalIRQ/board

delay_init/zf_delay                           ----- -----  ----- -----
  +--> ?C?SLDIV/?C?SLDIV

?C?SLDIV/?C?SLDIV                             ----- -----  ----- -----
  +--> ?C?ULIDIV/?C?ULDIV

?C?ULIDIV/?C?ULDIV                            ----- -----  ----- -----

ICacheOn/board                                ----- -----  ----- -----

uart_init/zf_uart                             ----- -----  ----- -----
  +--> ?C?ULIDIV/?C?ULDIV

EnableGlobalIRQ/board                         ----- -----  ----- -----

ips200_init_spi/SEEKFREE_IPS200_SPI           ----- -----  ----- -----
  +--> spi_init/zf_spi
  +--> ips200_set_dir/SEEKFREE_IPS200_SPI
  +--> ips200_set_color/SEEKFREE_IPS200_SPI
  +--> delay_ms/zf_delay
  +--> ips200_write_command/SEEKFREE_IPS200_SPI
  +--> ips200_write_8bit_data/SEEKFREE_IPS200_SPI
  +--> ips200_clear/SEEKFREE_IPS200_SPI

spi_init/zf_spi                               ----- -----  ----- -----
  +--> gpio_mode/zf_gpio

gpio_mode/zf_gpio                             ----- -----  ----- -----

ips200_set_dir/SEEKFREE_IPS200_SPI            ----- -----  ----- -----

ips200_set_color/SEEKFREE_IPS200_SPI          ----- -----  ----- -----

delay_ms/zf_delay                             ----- -----  ----- -----

ips200_write_command/SEEKFREE_IPS200_SPI      ----- -----  ----- -----
  +--> ips200_write_8bit_data_spi/SEEKFREE_IPS200_SPI

ips200_write_8bit_data_spi/SEEKFREE_IPS2+     ----- -----  ----- -----
... 00_SPI
  +--> spi_mosi/zf_spi

spi_mosi/zf_spi                               ----- -----  ----- -----

ips200_write_8bit_data/SEEKFREE_IPS200_S+     ----- -----  ----- -----
... PI
  +--> ips200_write_8bit_data_spi/SEEKFREE_IPS200_SPI

ips200_clear/SEEKFREE_IPS200_SPI              ----- -----  ----- -----
  +--> ips200_set_region/SEEKFREE_IPS200_SPI
  +--> ips200_write_16bit_data/SEEKFREE_IPS200_SPI

ips200_set_region/SEEKFREE_IPS200_SPI         ----- -----  ----- -----
  +--> ips200_write_command/SEEKFREE_IPS200_SPI
  +--> ips200_write_16bit_data/SEEKFREE_IPS200_SPI

ips200_write_16bit_data/SEEKFREE_IPS200_+     ----- -----  ----- -----
L251 LINKER/LOCATER V4.66.93.0                                                        11/01/2024  21:35:45  PAGE 17


... SPI
  +--> ips200_write_16bit_data_spi/SEEKFREE_IPS200_SPI

ips200_write_16bit_data_spi/SEEKFREE_IPS+     ----- -----  ----- -----
... 200_SPI
  +--> spi_mosi/zf_spi

*** NEW ROOT ********************************

?C_C51STARTUP?2                               ----- -----  ----- -----



PUBLIC SYMBOLS OF MODULE:  .\Out_File\SEEKFREE (board)


      VALUE       CLASS    TYPE      PUBLIC SYMBOL NAME
      =================================================
      00FF4707H   CODE     ---       ?C?BMOVENP
      00FF4705H   CODE     ---       ?C?BMOVENP8
      00FF707BH   CODE     ---       ?C?CASTF
      000000FFH   NUMBER   ---       ?C?CODESEG
*DEL*:00000000H   CODE     ---       ?C?FCASTC
      00FF7081H   CODE     ---       ?C?FCASTI
      00FF0056H   CODE     ---       ?C?FCASTL
*DEL*:00000000H   CODE     ---       ?C?FPADD
      00FF0046H   CODE     ---       ?C?FPCMP3
      00FF44D0H   CODE     ---       ?C?FPCONVERT
      00FF001EH   CODE     ---       ?C?FPDIV
      00FF0016H   CODE     ---       ?C?FPMUL
*DEL*:00000000H   CODE     ---       ?C?FPNEG
      00FF4588H   CODE     ---       ?C?FPROUND
      00FF000EH   CODE     ---       ?C?FPSUB
      00FF45FBH   CODE     ---       ?C?FTNPWR
      00FF6A75H   CODE     ---       ?C?INITEDATA
      00FF72B5H   HCONST   WORD      ?C?INITEDATA_END
      00FF4675H   CODE     ---       ?C?LIMUL
      00FF4664H   CODE     ---       ?C?LMUL
      00FF40B3H   CODE     ---       ?C?PRNFMT
      00FF4632H   CODE     ---       ?C?SIDIV
      00FF46D1H   CODE     NEAR LAB  ?C?SLDIV
      00FF0000H   CODE     ---       ?C?STARTUP
      00FF4680H   CODE     NEAR LAB  ?C?ULDIV
      00FF467EH   CODE     NEAR LAB  ?C?ULIDIV
      00000001H   NUMBER   ---       ?C?XDATASEG
      00FF0000H   CODE     ---       ?C_STARTUP
      00000B5BH   EDATA    BYTE      ?data_conversion?BYTE
      00000AE8H   EDATA    BYTE      ?dl1b_iic_transfer_8bit_array?BYTE
      00000AD8H   EDATA    BYTE      ?fifo_init?BYTE
      000009D7H   EDATA    BYTE      ?fifo_read_buffer?BYTE
      00000B90H   EDATA    BYTE      ?fifo_read_element?BYTE
      000009EFH   EDATA    BYTE      ?fifo_read_tail_buffer?BYTE
      00000A6EH   EDATA    BYTE      ?fifo_write_buffer?BYTE
      00000C94H   EDATA    BYTE      ?iap_read_bytes?BYTE
      00000C9EH   EDATA    BYTE      ?iap_write_bytes?BYTE
      00000EF4H   EDATA    BYTE      ?iic_init?BYTE
      0000068DH   EDATA    BYTE      ?ips114_showfloat?BYTE
      0000065DH   EDATA    BYTE      ?ips114_showfloat_simspi?BYTE
      00000A07H   EDATA    BYTE      ?ips200_draw_line?BYTE
      000009BEH   EDATA    BYTE      ?ips200_show_chinese?BYTE
      000008CDH   EDATA    BYTE      ?ips200_show_float?BYTE
      000008F0H   EDATA    BYTE      ?ips200_show_wave?BYTE
      0000062DH   EDATA    BYTE      ?lcd_showfloat?BYTE
      000005FDH   EDATA    BYTE      ?lcd_showfloat_simspi?BYTE
      000006BDH   EDATA    BYTE      ?oled_printf_float?BYTE
L251 LINKER/LOCATER V4.66.93.0                                                        11/01/2024  21:35:45  PAGE 18


      000006EDH   EDATA    BYTE      ?oled_printf_float_spi?BYTE
*DEL*:00000028H   EDATA    ---       ?printf?BYTE
      00000A46H   EDATA    BYTE      ?pwm_freq?BYTE
      00000A32H   EDATA    BYTE      ?pwm_init?BYTE
      0000092FH   EDATA    BYTE      ?seekfree_assistant_camera_boundary_config?BYTE
      00000AF8H   EDATA    BYTE      ?seekfree_assistant_camera_data_send?BYTE
      00000D20H   EDATA    BYTE      ?seekfree_assistant_camera_information_config?BYTE
      00000B69H   EDATA    BYTE      ?spi_init?BYTE
      00000B15H   EDATA    BYTE      ?uart_init?BYTE
      00000CA8H   EDATA    BYTE      ?uart_putbuff?BYTE
      00000487H   EDATA    BYTE      ?zf_sprintf?BYTE
*SFR* 000000E0H   DATA     BYTE      ACC
      00000EA8H   EDATA    WORD      ad_result
*SFR* 000000BCH   DATA     BYTE      ADC_CONTR
*DEL*:00000000H   CODE     ---       adc_init
      00FF64FDH   CODE     ---       adc_once
*SFR* 000000BDH   DATA     BYTE      ADC_RES
*SFR* 000000BEH   DATA     BYTE      ADC_RESL
*SFR* 000000DEH   DATA     BYTE      ADCCFG
      00FF32FDH   CODE     ---       ascii_font_6x8
      00FF212DH   CODE     ---       ascii_font_8x16
*DEL*:00000000H   CODE     ---       ATAN?_
*SFR* 000000EFH   DATA     BYTE      AUXINTIF
*SFR* 0000008EH   DATA     BYTE      AUXR
*SFR* 00000097H   DATA     BYTE      AUXR2
*DEL*:00000000H   CODE     ---       battery_init
      00000EAAH   EDATA    WORD      battery_voltage
*DEL*:00000000H   CODE     ---       ble6a20_callback
*DEL*:00000000H   CODE     ---       ble6a20_init
*DEL*:00000000H   CODE     ---       ble6a20_read_buff
*DEL*:00000000H   CODE     ---       ble6a20_send_buff
*DEL*:00000000H   CODE     ---       ble6a20_send_byte
*DEL*:00000000H   CODE     ---       bluetooth_ch9141_init
*DEL*:00000000H   CODE     ---       bluetooth_ch9141_read_buff
*DEL*:00000000H   CODE     ---       bluetooth_ch9141_send_buff
*DEL*:00000000H   CODE     ---       bluetooth_ch9141_uart_callback
*DEL*:00000000H   CODE     ---       bluetooth_ch9141send_byte
      00FF5F62H   CODE     ---       board_init
      00000FA6H   EDATA    ---       busy
*SFR* 000000F1H   DATA     BYTE      CANICR
      00FF5E6CH   CODE     ---       ccd_collect
      00000009H   EDATA    ---       ccd_data_ch1
      00000109H   EDATA    ---       ccd_data_ch2
*DEL*:00000000H   CODE     ---       ccd_init
*DEL*:00000000H   CODE     ---       ccd_send_data
      00FF6FF0H   CODE     ---       clock_init
*SFR* 000000E6H   DATA     BYTE      CMPCR1
*SFR* 000000E7H   DATA     BYTE      CMPCR2
*DEL*:00000000H   CODE     ---       COS?_
*DEL*:00000000H   CODE     ---       CRC_CHECK
*DEL*:00000000H   CODE     ---       ctimer_count_clean
*DEL*:00000000H   CODE     ---       ctimer_count_init
*DEL*:00000000H   CODE     ---       ctimer_count_read
*DEL*:00000000H   CODE     ---       data_conversion
      00FF6D87H   CODE     ---       delay_init
      00FF6B4AH   CODE     ---       delay_ms
*DEL*:00000000H   CODE     ---       delay_us
*DEL*:00000000H   CODE     ---       DisableGlobalIRQ
*DEL*:00000000H   CODE     ---       disalbe_icache
      0000104EH   EDATA    WORD      dl1a_distance_mm
      00001050H   EDATA    BYTE      dl1a_finsh_flag
*DEL*:00000000H   CODE     ---       dl1a_get_distance
*DEL*:00000000H   CODE     ---       dl1a_init
      00FF00A6H   CODE     ---       dl1b_default_configuration
      00001000H   EDATA    WORD      dl1b_distance_mm
L251 LINKER/LOCATER V4.66.93.0                                                        11/01/2024  21:35:45  PAGE 19


      00001002H   EDATA    BYTE      dl1b_finsh_flag
*DEL*:00000000H   CODE     ---       dl1b_get_distance
*DEL*:00000000H   CODE     ---       dl1b_iic_transfer_8bit_array
*DEL*:00000000H   CODE     ---       dl1b_init
      00001003H   EDATA    BYTE      dl1b_init_flag
*SFR* 000000EDH   DATA     BYTE      DMAIR
*SFR* 00000083H   DATA     BYTE      DPH
*SFR* 00000082H   DATA     BYTE      DPL
      00FF5D61H   CODE     ---       drv8701_control
*DEL*:00000000H   CODE     ---       drv8701_init
*DEL*:00000000H   CODE     ---       drv8701_stop
*SFR* 000000A8H.7 DATA     BIT       EA
*DEL*:00000000H   CODE     ---       eeprom_trig
      00FF0006H   CODE     ---       EnableGlobalIRQ
*DEL*:00000000H   CODE     ---       enalbe_icache
*SFR* 000000A8H.4 DATA     BIT       ES
*SFR* 000000A8H.1 DATA     BIT       ET0
*SFR* 000000A8H.3 DATA     BIT       ET1
*SFR* 000000A8H.0 DATA     BIT       EX0
*SFR* 000000A8H.2 DATA     BIT       EX1
*DEL*:00000000H   CODE     ---       exit_init
*SFR* 000000D0H.5 DATA     BIT       F0
*DEL*:00000000H   CODE     ---       FABS?_
*DEL*:00000000H   CODE     ---       FCLEX
*DEL*:00000000H   CODE     ---       fifo_clear
*DEL*:00000000H   CODE     ---       fifo_init
*DEL*:00000000H   CODE     ---       fifo_read_buffer
*DEL*:00000000H   CODE     ---       fifo_read_element
*DEL*:00000000H   CODE     ---       fifo_read_tail_buffer
*DEL*:00000000H   CODE     ---       fifo_used
      00FF4D56H   CODE     ---       fifo_write_buffer
*DEL*:00000000H   CODE     ---       fifo_write_element
*DEL*:00000000H   CODE     ---       FINIT
*DEL*:00000000H   CODE     ---       FPCRR
*DEL*:00000000H   CODE     ---       FPCRW
*DEL*:00000000H   CODE     ---       FPSRR
*DEL*:00000000H   CODE     ---       FPSRW
*DEL*:00000000H   CODE     ---       func_double_to_str
*DEL*:00000000H   CODE     ---       func_float_to_str
*DEL*:00000000H   CODE     ---       func_get_greatest_common_divisor
*DEL*:00000000H   CODE     ---       func_hex_to_str
*DEL*:00000000H   CODE     ---       func_int_to_str
*DEL*:00000000H   CODE     ---       func_soft_delay
*DEL*:00000000H   CODE     ---       func_str_to_double
*DEL*:00000000H   CODE     ---       func_str_to_float
*DEL*:00000000H   CODE     ---       func_str_to_hex
*DEL*:00000000H   CODE     ---       func_str_to_int
*DEL*:00000000H   CODE     ---       func_str_to_uint
*DEL*:00000000H   CODE     ---       func_uint_to_str
*DEL*:00000000H   CODE     ---       FXAM
*DEL*:00000000H   CODE     ---       get_battery_percentage
*DEL*:00000000H   CODE     ---       get_battery_voltage
      00FF374DH   CODE     ---       gpio_mode
*DEL*:00000000H   CODE     ---       gpio_pull_set
*SFR* 000000F6H   DATA     BYTE      IAP_ADDRE
*SFR* 000000C3H   DATA     BYTE      IAP_ADDRH
*SFR* 000000C4H   DATA     BYTE      IAP_ADDRL
*SFR* 000000C5H   DATA     BYTE      IAP_CMD
*SFR* 000000C7H   DATA     BYTE      IAP_CONTR
*SFR* 000000C2H   DATA     BYTE      IAP_DATA
*DEL*:00000000H   CODE     ---       iap_erase_page
*DEL*:00000000H   CODE     ---       iap_get_cmd_state
*DEL*:00000000H   CODE     ---       iap_idle
*DEL*:00000000H   CODE     ---       iap_init
*DEL*:00000000H   CODE     ---       iap_read_bytes
L251 LINKER/LOCATER V4.66.93.0                                                        11/01/2024  21:35:45  PAGE 20


*DEL*:00000000H   CODE     ---       iap_set_tps
*SFR* 000000F5H   DATA     BYTE      IAP_TPS
*SFR* 000000C6H   DATA     BYTE      IAP_TRIG
*DEL*:00000000H   CODE     ---       iap_write_bytes
      00FF7062H   CODE     ---       ICacheOn
*SFR* 000000F7H   DATA     BYTE      ICHECR
*DEL*:00000000H   CODE     ---       icm20602_acc_transition
      00000C08H   EDATA    INT       icm20602_acc_x
      00000C0AH   EDATA    INT       icm20602_acc_y
      00000C0CH   EDATA    INT       icm20602_acc_z
*DEL*:00000000H   CODE     ---       icm20602_get_acc
*DEL*:00000000H   CODE     ---       icm20602_get_gyro
*DEL*:00000000H   CODE     ---       icm20602_gyro_transition
      00000C0EH   EDATA    INT       icm20602_gyro_x
      00000C10H   EDATA    INT       icm20602_gyro_y
      00000C12H   EDATA    INT       icm20602_gyro_z
*DEL*:00000000H   CODE     ---       icm20602_init
*SFR* 000000A8H   DATA     BYTE      IE
*SFR* 000000AFH   DATA     BYTE      IE2
*DEL*:00000000H   CODE     ---       iic_change_pin
      00FF6B7FH   CODE     ---       iic_delay_us
*DEL*:00000000H   CODE     ---       iic_init
*DEL*:00000000H   CODE     ---       iic_read_reg
*DEL*:00000000H   CODE     ---       iic_read_reg_bytes
*DEL*:00000000H   CODE     ---       iic_write_reg
*DEL*:00000000H   CODE     ---       imu660ra_acc_transition
      00000C14H   EDATA    INT       imu660ra_acc_x
      00000C16H   EDATA    INT       imu660ra_acc_y
      00000C18H   EDATA    INT       imu660ra_acc_z
      00FF012DH   CODE     ---       imu660ra_config_file
*DEL*:00000000H   CODE     ---       imu660ra_get_acc
*DEL*:00000000H   CODE     ---       imu660ra_get_gyro
*DEL*:00000000H   CODE     ---       imu660ra_gyro_transition
      00000C1AH   EDATA    INT       imu660ra_gyro_x
      00000C1CH   EDATA    INT       imu660ra_gyro_y
      00000C1EH   EDATA    INT       imu660ra_gyro_z
*DEL*:00000000H   CODE     ---       imu660ra_init
*DEL*:00000000H   CODE     ---       imu963ra_acc_transition
      00000A80H   EDATA    INT       imu963ra_acc_x
      00000A82H   EDATA    INT       imu963ra_acc_y
      00000A84H   EDATA    INT       imu963ra_acc_z
*DEL*:00000000H   CODE     ---       imu963ra_get_acc
*DEL*:00000000H   CODE     ---       imu963ra_get_gyro
*DEL*:00000000H   CODE     ---       imu963ra_get_mag
*DEL*:00000000H   CODE     ---       imu963ra_gyro_transition
      00000A8CH   EDATA    INT       imu963ra_gyro_x
      00000A8EH   EDATA    INT       imu963ra_gyro_y
      00000A90H   EDATA    INT       imu963ra_gyro_z
*DEL*:00000000H   CODE     ---       imu963ra_init
*DEL*:00000000H   CODE     ---       imu963ra_mag_transition
      00000A86H   EDATA    INT       imu963ra_mag_x
      00000A88H   EDATA    INT       imu963ra_mag_y
      00000A8AH   EDATA    INT       imu963ra_mag_z
      00FF005EH   CODE     ---       INT0_Isr
      00FF000AH   CODE     ---       INT1_Isr
      00FF0086H   CODE     ---       INT2_Isr
      00FF008EH   CODE     ---       INT3_Isr
      00FF0096H   CODE     ---       INT4_Isr
*SFR* 0000008FH   DATA     BYTE      INTCLKO
*SFR* 000000B8H   DATA     BYTE      IP
*SFR* 000000B5H   DATA     BYTE      IP2
*SFR* 000000B6H   DATA     BYTE      IP2H
*SFR* 000000DFH   DATA     BYTE      IP3
*SFR* 000000EEH   DATA     BYTE      IP3H
*SFR* 000000B7H   DATA     BYTE      IPH
L251 LINKER/LOCATER V4.66.93.0                                                        11/01/2024  21:35:45  PAGE 21


*DEL*:00000000H   CODE     ---       ips114_clear
*DEL*:00000000H   CODE     ---       ips114_clear_simspi
*DEL*:00000000H   CODE     ---       ips114_drawpoint
*DEL*:00000000H   CODE     ---       ips114_drawpoint_simspi
*DEL*:00000000H   CODE     ---       ips114_init
*DEL*:00000000H   CODE     ---       ips114_init_simspi
*DEL*:00000000H   CODE     ---       ips114_set_region
*DEL*:00000000H   CODE     ---       ips114_set_region_simspi
*DEL*:00000000H   CODE     ---       ips114_showchar
*DEL*:00000000H   CODE     ---       ips114_showchar_simspi
*DEL*:00000000H   CODE     ---       ips114_showfloat
*DEL*:00000000H   CODE     ---       ips114_showfloat_simspi
*DEL*:00000000H   CODE     ---       ips114_showint16
*DEL*:00000000H   CODE     ---       ips114_showint16_simspi
*DEL*:00000000H   CODE     ---       ips114_showint32
*DEL*:00000000H   CODE     ---       ips114_showint32_simspi
*DEL*:00000000H   CODE     ---       ips114_showint8
*DEL*:00000000H   CODE     ---       ips114_showint8_simspi
*DEL*:00000000H   CODE     ---       ips114_showstr
*DEL*:00000000H   CODE     ---       ips114_showstr_simspi
*DEL*:00000000H   CODE     ---       ips114_showuint16
*DEL*:00000000H   CODE     ---       ips114_showuint16_simspi
*DEL*:00000000H   CODE     ---       ips114_showuint8
*DEL*:00000000H   CODE     ---       ips114_showuint8_simspi
*DEL*:00000000H   CODE     ---       ips114_writeData
      00FF6C99H   CODE     ---       ips114_writedata_16bit
*DEL*:00000000H   CODE     ---       ips114_writeData_simspi
      00FF65A8H   CODE     ---       ips114_writeDatai_16bit_simspi
      00FF6F72H   CODE     ---       ips114_writeIndex
      00FF67DAH   CODE     ---       ips114_writeIndex_simspi
      00FF60BEH   CODE     ---       ips200_clear
*DEL*:00000000H   CODE     ---       ips200_draw_line
*DEL*:00000000H   CODE     ---       ips200_draw_point
*DEL*:00000000H   CODE     ---       ips200_full
      00FF56A7H   CODE     ---       ips200_init_spi
      00FF6F87H   CODE     ---       ips200_set_color
      00FF6ADDH   CODE     ---       ips200_set_dir
*DEL*:00000000H   CODE     ---       ips200_set_font
*DEL*:00000000H   CODE     ---       ips200_show_char
*DEL*:00000000H   CODE     ---       ips200_show_chinese
*DEL*:00000000H   CODE     ---       ips200_show_float
*DEL*:00000000H   CODE     ---       ips200_show_int
*DEL*:00000000H   CODE     ---       ips200_show_string
*DEL*:00000000H   CODE     ---       ips200_show_uint
*DEL*:00000000H   CODE     ---       ips200_show_wave
      00FF6E52H   CODE     ---       ips200_write_16bit_data_spi
      00FF7073H   CODE     ---       ips200_write_8bit_data_spi
*SFR* 0000009DH   DATA     BYTE      IRCBAND
*SFR* 0000009FH   DATA     BYTE      IRTRIM
*SFR* 00000088H.0 DATA     BIT       IT0
*SFR* 00000088H.2 DATA     BIT       IT1
*DEL*:00000000H   CODE     ---       lcd_clear
*DEL*:00000000H   CODE     ---       lcd_clear_simspi
*DEL*:00000000H   CODE     ---       lcd_drawpoint
*DEL*:00000000H   CODE     ---       lcd_drawpoint_simspi
*DEL*:00000000H   CODE     ---       lcd_init
*DEL*:00000000H   CODE     ---       lcd_init_simspi
      00FF6337H   CODE     ---       lcd_set_region
      00FF62D3H   CODE     ---       lcd_set_region_simspi
*DEL*:00000000H   CODE     ---       lcd_showchar
*DEL*:00000000H   CODE     ---       lcd_showchar_simspi
*DEL*:00000000H   CODE     ---       lcd_showfloat
*DEL*:00000000H   CODE     ---       lcd_showfloat_simspi
*DEL*:00000000H   CODE     ---       lcd_showint16
*DEL*:00000000H   CODE     ---       lcd_showint16_simspi
L251 LINKER/LOCATER V4.66.93.0                                                        11/01/2024  21:35:45  PAGE 22


*DEL*:00000000H   CODE     ---       lcd_showint32
*DEL*:00000000H   CODE     ---       lcd_showint32_simspi
*DEL*:00000000H   CODE     ---       lcd_showint8
*DEL*:00000000H   CODE     ---       lcd_showint8_simspi
*DEL*:00000000H   CODE     ---       lcd_showstr
*DEL*:00000000H   CODE     ---       lcd_showstr_simspi
*DEL*:00000000H   CODE     ---       lcd_showuint16
*DEL*:00000000H   CODE     ---       lcd_showuint16_simspi
*DEL*:00000000H   CODE     ---       lcd_showuint8
*DEL*:00000000H   CODE     ---       lcd_showuint8_simspi
      00FF6F5DH   CODE     ---       lcd_writeData
      00FF6C45H   CODE     ---       lcd_writedata_16bit
      00FF6553H   CODE     ---       lcd_writeData_16bit_simspi
      00FF678EH   CODE     ---       lcd_writeData_simspi
      00FF6F48H   CODE     ---       lcd_writeIndex
      00FF6742H   CODE     ---       lcd_writeIndex_simspi
*SFR* 000000F9H   DATA     BYTE      LINICR
      00FF7004H   CODE     ---       main
      00FF6D62H   CODE     ---       memcpy?_
*DEL*:00000000H   CODE     ---       memset?_
      00000C50H   EDATA    INT       mpu6050_acc_x
      00000C52H   EDATA    INT       mpu6050_acc_y
      00000C54H   EDATA    INT       mpu6050_acc_z
*DEL*:00000000H   CODE     ---       mpu6050_get_accdata
*DEL*:00000000H   CODE     ---       mpu6050_get_gyro
      00000C56H   EDATA    INT       mpu6050_gyro_x
      00000C58H   EDATA    INT       mpu6050_gyro_y
      00000C5AH   EDATA    INT       mpu6050_gyro_z
*DEL*:00000000H   CODE     ---       mpu6050_init
*DEL*:00000000H   CODE     ---       mpu6050_simiic_read_reg
*DEL*:00000000H   CODE     ---       mpu6050_simiic_read_regs
*DEL*:00000000H   CODE     ---       NVIC_SetPriority
      00FF3525H   CODE     ---       oled_6x8
      00FF271DH   CODE     ---       oled_8x16
*DEL*:00000000H   CODE     ---       oled_clrpixel
*DEL*:00000000H   CODE     ---       oled_clrpixel_spi
*DEL*:00000000H   CODE     ---       oled_dis_bmp
*DEL*:00000000H   CODE     ---       oled_dis_bmp_spi
*DEL*:00000000H   CODE     ---       oled_fill
*DEL*:00000000H   CODE     ---       oled_fill_spi
*DEL*:00000000H   CODE     ---       oled_hexascii
*DEL*:00000000H   CODE     ---       oled_hexascii_spi
*DEL*:00000000H   CODE     ---       oled_init
*DEL*:00000000H   CODE     ---       oled_init_spi
*DEL*:00000000H   CODE     ---       oled_int16
*DEL*:00000000H   CODE     ---       oled_int16_spi
*DEL*:00000000H   CODE     ---       oled_p6x8str
*DEL*:00000000H   CODE     ---       oled_p6x8str_spi
*DEL*:00000000H   CODE     ---       oled_p8x16str
*DEL*:00000000H   CODE     ---       oled_p8x16str_spi
*DEL*:00000000H   CODE     ---       oled_print_chinese
*DEL*:00000000H   CODE     ---       oled_print_chinese_spi
*DEL*:00000000H   CODE     ---       oled_printf_float
*DEL*:00000000H   CODE     ---       oled_printf_float_spi
*DEL*:00000000H   CODE     ---       oled_printf_int32
*DEL*:00000000H   CODE     ---       oled_printf_int32_spi
*DEL*:00000000H   CODE     ---       oled_putpixel
*DEL*:00000000H   CODE     ---       oled_putpixel_spi
      00FF6BB4H   CODE     ---       oled_set_pos
      00FF6B14H   CODE     ---       oled_set_pos_spi
*DEL*:00000000H   CODE     ---       oled_uint16
*DEL*:00000000H   CODE     ---       oled_uint16_spi
      00FF6826H   CODE     ---       oled_wrcmd
      00FF6FC6H   CODE     ---       oled_wrcmd_spi
      00FF6872H   CODE     ---       oled_wrdat
L251 LINKER/LOCATER V4.66.93.0                                                        11/01/2024  21:35:45  PAGE 23


      00FF6FDBH   CODE     ---       oled_wrdat_spi
*SFR* 00000080H   DATA     BYTE      P0
*SFR* 00000080H.2 DATA     BIT       P02
*SFR* 00000080H.7 DATA     BIT       P07
*SFR* 00000094H   DATA     BYTE      P0M0
*SFR* 00000093H   DATA     BYTE      P0M1
*SFR* 00000090H   DATA     BYTE      P1
*SFR* 00000092H   DATA     BYTE      P1M0
*SFR* 00000091H   DATA     BYTE      P1M1
*SFR* 000000A0H   DATA     BYTE      P2
*SFR* 000000A0H.0 DATA     BIT       P20
*SFR* 000000A0H.1 DATA     BIT       P21
*SFR* 000000A0H.2 DATA     BIT       P22
*SFR* 000000A0H.3 DATA     BIT       P23
*SFR* 000000A0H.5 DATA     BIT       P25
*SFR* 000000A0H.7 DATA     BIT       P27
*SFR* 00000096H   DATA     BYTE      P2M0
*SFR* 00000095H   DATA     BYTE      P2M1
*SFR* 000000B0H   DATA     BYTE      P3
*SFR* 000000B0H.6 DATA     BIT       P36
*SFR* 000000B0H.7 DATA     BIT       P37
*SFR* 000000B2H   DATA     BYTE      P3M0
*SFR* 000000B1H   DATA     BYTE      P3M1
*SFR* 000000C0H   DATA     BYTE      P4
*SFR* 000000C0H.0 DATA     BIT       P40
*SFR* 000000C0H.1 DATA     BIT       P41
*SFR* 000000C0H.2 DATA     BIT       P42
*SFR* 000000C0H.3 DATA     BIT       P43
*SFR* 000000C0H.5 DATA     BIT       P45
*SFR* 000000B4H   DATA     BYTE      P4M0
*SFR* 000000B3H   DATA     BYTE      P4M1
*SFR* 000000C8H   DATA     BYTE      P5
*SFR* 000000C8H.2 DATA     BIT       P52
*SFR* 000000CAH   DATA     BYTE      P5M0
*SFR* 000000C9H   DATA     BYTE      P5M1
*SFR* 000000E8H   DATA     BYTE      P6
*SFR* 000000CCH   DATA     BYTE      P6M0
*SFR* 000000CBH   DATA     BYTE      P6M1
*SFR* 000000F8H   DATA     BYTE      P7
*SFR* 000000E2H   DATA     BYTE      P7M0
*SFR* 000000E1H   DATA     BYTE      P7M1
*SFR* 000000A2H   DATA     BYTE      P_SW1
*SFR* 000000BAH   DATA     BYTE      P_SW2
*SFR* 000000BBH   DATA     BYTE      P_SW3
*SFR* 00000087H   DATA     BYTE      PCON
*DEL*:00000000H   CODE     ---       pit_timer_ms
      00FF405AH   CODE     NEAR LAB  printf
*SFR* 000000D0H   DATA     BYTE      PSW
      00FF703EH   CODE     ---       putchar
      00FF72D7H   HCONST   ---       PWM_ARR_ADDR
      00FF72DFH   HCONST   ---       PWM_CCER_ADDR
      00FF72EFH   HCONST   ---       PWM_CCMR_ADDR
      00FF72B7H   HCONST   ---       PWM_CCR_ADDR
      00FF59D6H   CODE     ---       pwm_duty
*DEL*:00000000H   CODE     ---       pwm_freq
*DEL*:00000000H   CODE     ---       pwm_init
      00FF50E8H   CODE     ---       pwm_set_gpio
*DEL*:00000000H   CODE     ---       recv_ack
*DEL*:00000000H   CODE     ---       recv_data
*SFR* 000000FFH   DATA     BYTE      RSTCFG
*SFR* 0000009BH   DATA     BYTE      S2BUF
*SFR* 0000009AH   DATA     BYTE      S2CON
*SFR* 000000ADH   DATA     BYTE      S3BUF
*SFR* 000000ACH   DATA     BYTE      S3CON
*SFR* 000000FEH   DATA     BYTE      S4BUF
L251 LINKER/LOCATER V4.66.93.0                                                        11/01/2024  21:35:45  PAGE 24


*SFR* 000000FDH   DATA     BYTE      S4CON
*SFR* 00000099H   DATA     BYTE      SBUF
*SFR* 00000098H   DATA     BYTE      SCON
*DEL*:00000000H   CODE     ---       seekfree_assistant_camera_boundary_config
*DEL*:00000000H   CODE     ---       seekfree_assistant_camera_data_send
*DEL*:00000000H   CODE     ---       seekfree_assistant_camera_dot_send
*DEL*:00000000H   CODE     ---       seekfree_assistant_camera_information_config
*DEL*:00000000H   CODE     ---       seekfree_assistant_camera_send
*DEL*:00000000H   CODE     ---       seekfree_assistant_data_analysis
*DEL*:00000000H   CODE     ---       seekfree_assistant_init
      00000211H   EDATA    ---       seekfree_assistant_oscilloscope_data
*DEL*:00000000H   CODE     ---       seekfree_assistant_oscilloscope_send
      00000254H   EDATA    ---       seekfree_assistant_parameter
      0000024CH   EDATA    ---       seekfree_assistant_parameter_update_flag
      00001030H   EDATA    ---       seekfree_assistant_receive
      00001032H   EDATA    ---       seekfree_assistant_transfer
*DEL*:00000000H   CODE     ---       send_ack
*DEL*:00000000H   CODE     ---       send_data
*DEL*:00000000H   CODE     ---       send_nak
*DEL*:00000000H   CODE     ---       servo_get_angle
*DEL*:00000000H   CODE     ---       servo_init
*DEL*:00000000H   CODE     ---       servo_set_position
      000010CCH   EDATA    WORD      ServoAngle
      00FF472AH   CODE     ---       set_clk
*DEL*:00000000H   CODE     ---       showimage
*DEL*:00000000H   CODE     ---       SIN?_
*SFR* 000000CEH   DATA     BYTE      SPCTL
*SFR* 000000CFH   DATA     BYTE      SPDAT
*DEL*:00000000H   CODE     ---       spi_change_mode
*DEL*:00000000H   CODE     ---       spi_change_pin
      00FF5C05H   CODE     ---       spi_init
      00FF7050H   CODE     ---       spi_mosi
*SFR* 000000CDH   DATA     BYTE      SPSTAT
*DEL*:00000000H   CODE     ---       SQRT?_
*DEL*:00000000H   CODE     ---       start
*DEL*:00000000H   CODE     ---       stop
*DEL*:00000000H   CODE     ---       strlen?_
      00000FC4H   EDATA    LONG      sys_clk
*SFR* 000000D6H   DATA     BYTE      T2H
*SFR* 000000D7H   DATA     BYTE      T2L
*SFR* 000000D4H   DATA     BYTE      T3H
*SFR* 000000D5H   DATA     BYTE      T3L
*SFR* 000000D2H   DATA     BYTE      T4H
*SFR* 000000D3H   DATA     BYTE      T4L
*SFR* 000000DDH   DATA     BYTE      T4T3M
*SFR* 000000AEH   DATA     BYTE      TA
*DEL*:00000000H   CODE     ---       TAN?_
*SFR* 00000088H   DATA     BYTE      TCON
      00000EA4H   EDATA    DWORD     temp
      00FF2D0DH   CODE     ---       tft_ascii
*SFR* 0000008CH   DATA     BYTE      TH0
*SFR* 0000008DH   DATA     BYTE      TH1
*SFR* 0000008AH   DATA     BYTE      TL0
*SFR* 0000008BH   DATA     BYTE      TL1
      00FF0012H   CODE     ---       TM0_Isr
      00FF001AH   CODE     ---       TM1_Isr
      00FF009EH   CODE     ---       TM2_Isr
      00FF7087H   CODE     ---       TM3_Isr
      00FF6BE9H   CODE     ---       TM4_Isr
*SFR* 00000089H   DATA     BYTE      TMOD
*SFR* 00000088H.4 DATA     BIT       TR0
*SFR* 00000088H.6 DATA     BIT       TR1
      00000008H   EDATA    BYTE      tsl1401_finish_flag
      00FF6A20H   CODE     ---       UART1_Isr
      00FF66F2H   CODE     ---       UART2_Isr
L251 LINKER/LOCATER V4.66.93.0                                                        11/01/2024  21:35:45  PAGE 25


      00FF6EE8H   CODE     ---       UART3_Isr
      00FF6F02H   CODE     ---       UART4_Isr
      00FF53F4H   CODE     ---       uart_init
*DEL*:00000000H   CODE     ---       uart_putbuff
      00FF5FD9H   CODE     ---       uart_putchar
*DEL*:00000000H   CODE     ---       uart_putstr
*SFR* 000000F4H   DATA     BYTE      USBCON
      00000D16H   EDATA    ---       virtual_scope_data
*SFR* 000000A6H   DATA     BYTE      VRTRIM
      00FF64A6H   CODE     ---       wait
*SFR* 000000C1H   DATA     BYTE      WDT_CONTR
      00000FCEH   EDATA    ---       wireless_module_uart_handler
      00000FCCH   EDATA    INT       wireless_type
*DEL*:00000000H   CODE     ---       wireless_uart_callback
*DEL*:00000000H   CODE     ---       wireless_uart_init
*DEL*:00000000H   CODE     ---       wireless_uart_read_buff
*DEL*:00000000H   CODE     ---       wireless_uart_send_buff
*DEL*:00000000H   CODE     ---       wireless_uart_send_byte
*SFR* 000000E9H   DATA     BYTE      WTST
      00000FD4H   EDATA    WORD      zf_delay_ms
      00000FD6H   EDATA    WORD      zf_delay_us
*DEL*:00000000H   CODE     ---       zf_sprintf



SYMBOL TABLE OF MODULE:  .\Out_File\SEEKFREE (board)

      VALUE       REP       CLASS    TYPE      SYMBOL NAME
      ====================================================
      ---         MODULE    ---      ---       board
      00FF0006H   PUBLIC    CODE     ---       EnableGlobalIRQ
      00FF5F62H   PUBLIC    CODE     ---       board_init
      00FF6FF0H   PUBLIC    CODE     ---       clock_init
      00FF7062H   PUBLIC    CODE     ---       ICacheOn
      00FF472AH   PUBLIC    CODE     ---       set_clk
      00FF703EH   PUBLIC    CODE     ---       putchar
      00000FC4H   PUBLIC    EDATA    LONG      sys_clk
      00000094H   SFRSYM    DATA     BYTE      P0M0
      000000D0H   SFRSYM    DATA     BYTE      PSW
      0000009DH   SFRSYM    DATA     BYTE      IRCBAND
      00000097H   SFRSYM    DATA     BYTE      AUXR2
      000000EFH   SFRSYM    DATA     BYTE      AUXINTIF
      000000FDH   SFRSYM    DATA     BYTE      S4CON
      000000ACH   SFRSYM    DATA     BYTE      S3CON
      0000009AH   SFRSYM    DATA     BYTE      S2CON
      000000A6H   SFRSYM    DATA     BYTE      VRTRIM
      000000B7H   SFRSYM    DATA     BYTE      IPH
      000000CDH   SFRSYM    DATA     BYTE      SPSTAT
      000000DDH   SFRSYM    DATA     BYTE      T4T3M
      0000009FH   SFRSYM    DATA     BYTE      IRTRIM
      000000C1H   SFRSYM    DATA     BYTE      WDT_CONTR
      000000E9H   SFRSYM    DATA     BYTE      WTST
      000000DFH   SFRSYM    DATA     BYTE      IP3
      000000F4H   SFRSYM    DATA     BYTE      USBCON
      000000B5H   SFRSYM    DATA     BYTE      IP2
      000000FFH   SFRSYM    DATA     BYTE      RSTCFG
      000000C7H   SFRSYM    DATA     BYTE      IAP_CONTR
      000000F9H   SFRSYM    DATA     BYTE      LINICR
      0000008EH   SFRSYM    DATA     BYTE      AUXR
      000000AFH   SFRSYM    DATA     BYTE      IE2
      00000088H   SFRSYM    DATA     BYTE      TCON
      00000089H   SFRSYM    DATA     BYTE      TMOD
      00000098H   SFRSYM    DATA     BYTE      SCON
      000000F1H   SFRSYM    DATA     BYTE      CANICR
      00000087H   SFRSYM    DATA     BYTE      PCON
L251 LINKER/LOCATER V4.66.93.0                                                        11/01/2024  21:35:45  PAGE 26


      000000BCH   SFRSYM    DATA     BYTE      ADC_CONTR
      000000F7H   SFRSYM    DATA     BYTE      ICHECR
      000000E7H   SFRSYM    DATA     BYTE      CMPCR2
      000000E6H   SFRSYM    DATA     BYTE      CMPCR1
      000000DEH   SFRSYM    DATA     BYTE      ADCCFG
      000000B8H   SFRSYM    DATA     BYTE      IP
      0000008FH   SFRSYM    DATA     BYTE      INTCLKO
      000000AEH   SFRSYM    DATA     BYTE      TA
      000000EEH   SFRSYM    DATA     BYTE      IP3H
      000000B6H   SFRSYM    DATA     BYTE      IP2H
      000000A8H   SFRSYM    DATA     BYTE      IE
      000000BBH   SFRSYM    DATA     BYTE      P_SW3
      000000BAH   SFRSYM    DATA     BYTE      P_SW2
      000000A2H   SFRSYM    DATA     BYTE      P_SW1
      000000CEH   SFRSYM    DATA     BYTE      SPCTL
      000000F8H   SFRSYM    DATA     BYTE      P7
      000000A8H.7 SFRSYM    DATA     BIT       EA
      000000E8H   SFRSYM    DATA     BYTE      P6
      000000C8H   SFRSYM    DATA     BYTE      P5
      000000C0H   SFRSYM    DATA     BYTE      P4
      000000C9H   SFRSYM    DATA     BYTE      P5M1
      000000B0H   SFRSYM    DATA     BYTE      P3
      000000B3H   SFRSYM    DATA     BYTE      P4M1
      000000CAH   SFRSYM    DATA     BYTE      P5M0
      000000A0H   SFRSYM    DATA     BYTE      P2
      000000B1H   SFRSYM    DATA     BYTE      P3M1
      000000B4H   SFRSYM    DATA     BYTE      P4M0
      00000090H   SFRSYM    DATA     BYTE      P1
      00000095H   SFRSYM    DATA     BYTE      P2M1
      000000B2H   SFRSYM    DATA     BYTE      P3M0
      00000080H   SFRSYM    DATA     BYTE      P0
      00000091H   SFRSYM    DATA     BYTE      P1M1
      00000096H   SFRSYM    DATA     BYTE      P2M0
      00000092H   SFRSYM    DATA     BYTE      P1M0
      00000093H   SFRSYM    DATA     BYTE      P0M1

      00FF472AH   BLOCK     CODE     ---       LVL=0
      00000E14H   SYMBOL    EDATA    DWORD     clock
      00FF472EH   BLOCK     CODE     NEAR LAB  LVL=1
      00000E18H   SYMBOL    EDATA    DWORD     temp_sys_clk
      ---         BLOCKEND  ---      ---       LVL=1
      00FF472AH   LINE      CODE     ---       #35
      00FF472EH   LINE      CODE     ---       #36
      00FF472EH   LINE      CODE     ---       #37
      00FF4734H   LINE      CODE     ---       #40
      00FF4815H   LINE      CODE     ---       #42
      00FF4815H   LINE      CODE     ---       #44
      00FF4822H   LINE      CODE     ---       #45
      00FF482FH   LINE      CODE     ---       #46
      00FF483CH   LINE      CODE     ---       #47
      00FF4840H   LINE      CODE     ---       #48
      00FF4843H   LINE      CODE     ---       #49
      00FF4844H   LINE      CODE     ---       #50
      00FF4845H   LINE      CODE     ---       #51
      00FF4846H   LINE      CODE     ---       #52
      00FF4847H   LINE      CODE     ---       #53
      00FF4854H   LINE      CODE     ---       #54
      00FF485CH   LINE      CODE     ---       #55
      00FF485FH   LINE      CODE     ---       #57
      00FF485FH   LINE      CODE     ---       #59
      00FF486CH   LINE      CODE     ---       #60
      00FF4879H   LINE      CODE     ---       #61
      00FF4886H   LINE      CODE     ---       #62
      00FF488AH   LINE      CODE     ---       #63
      00FF488DH   LINE      CODE     ---       #64
L251 LINKER/LOCATER V4.66.93.0                                                        11/01/2024  21:35:45  PAGE 27


      00FF488EH   LINE      CODE     ---       #65
      00FF488FH   LINE      CODE     ---       #66
      00FF4890H   LINE      CODE     ---       #67
      00FF4891H   LINE      CODE     ---       #68
      00FF489EH   LINE      CODE     ---       #69
      00FF48A6H   LINE      CODE     ---       #70
      00FF48A9H   LINE      CODE     ---       #72
      00FF48A9H   LINE      CODE     ---       #74
      00FF48B6H   LINE      CODE     ---       #75
      00FF48C3H   LINE      CODE     ---       #76
      00FF48D0H   LINE      CODE     ---       #77
      00FF48D4H   LINE      CODE     ---       #78
      00FF48D7H   LINE      CODE     ---       #79
      00FF48D8H   LINE      CODE     ---       #80
      00FF48D9H   LINE      CODE     ---       #81
      00FF48DAH   LINE      CODE     ---       #82
      00FF48DBH   LINE      CODE     ---       #83
      00FF48E8H   LINE      CODE     ---       #84
      00FF48F0H   LINE      CODE     ---       #85
      00FF48F3H   LINE      CODE     ---       #87
      00FF48F3H   LINE      CODE     ---       #89
      00FF4900H   LINE      CODE     ---       #90
      00FF490DH   LINE      CODE     ---       #91
      00FF491AH   LINE      CODE     ---       #92
      00FF491EH   LINE      CODE     ---       #93
      00FF491FH   LINE      CODE     ---       #94
      00FF4920H   LINE      CODE     ---       #95
      00FF4921H   LINE      CODE     ---       #96
      00FF4922H   LINE      CODE     ---       #97
      00FF4925H   LINE      CODE     ---       #98
      00FF4932H   LINE      CODE     ---       #99
      00FF493AH   LINE      CODE     ---       #100
      00FF493DH   LINE      CODE     ---       #102
      00FF493DH   LINE      CODE     ---       #104
      00FF494AH   LINE      CODE     ---       #105
      00FF4957H   LINE      CODE     ---       #106
      00FF4964H   LINE      CODE     ---       #107
      00FF4968H   LINE      CODE     ---       #108
      00FF496BH   LINE      CODE     ---       #109
      00FF496CH   LINE      CODE     ---       #110
      00FF496DH   LINE      CODE     ---       #111
      00FF496EH   LINE      CODE     ---       #112
      00FF496FH   LINE      CODE     ---       #113
      00FF497CH   LINE      CODE     ---       #114
      00FF4984H   LINE      CODE     ---       #115
      00FF4987H   LINE      CODE     ---       #117
      00FF4987H   LINE      CODE     ---       #119
      00FF4994H   LINE      CODE     ---       #120
      00FF49A1H   LINE      CODE     ---       #121
      00FF49AEH   LINE      CODE     ---       #122
      00FF49B2H   LINE      CODE     ---       #123
      00FF49B5H   LINE      CODE     ---       #124
      00FF49B6H   LINE      CODE     ---       #125
      00FF49B7H   LINE      CODE     ---       #126
      00FF49B8H   LINE      CODE     ---       #127
      00FF49B9H   LINE      CODE     ---       #128
      00FF49C6H   LINE      CODE     ---       #129
      00FF49CEH   LINE      CODE     ---       #130
      00FF49D1H   LINE      CODE     ---       #132
      00FF49D1H   LINE      CODE     ---       #134
      00FF49DEH   LINE      CODE     ---       #135
      00FF49EBH   LINE      CODE     ---       #136
      00FF49F8H   LINE      CODE     ---       #137
      00FF49FCH   LINE      CODE     ---       #138
      00FF49FFH   LINE      CODE     ---       #139
L251 LINKER/LOCATER V4.66.93.0                                                        11/01/2024  21:35:45  PAGE 28


      00FF4A00H   LINE      CODE     ---       #140
      00FF4A01H   LINE      CODE     ---       #141
      00FF4A02H   LINE      CODE     ---       #142
      00FF4A03H   LINE      CODE     ---       #143
      00FF4A10H   LINE      CODE     ---       #144
      00FF4A18H   LINE      CODE     ---       #145
      00FF4A1BH   LINE      CODE     ---       #147
      00FF4A1BH   LINE      CODE     ---       #149
      00FF4A28H   LINE      CODE     ---       #150
      00FF4A35H   LINE      CODE     ---       #151
      00FF4A42H   LINE      CODE     ---       #152
      00FF4A46H   LINE      CODE     ---       #153
      00FF4A49H   LINE      CODE     ---       #154
      00FF4A4AH   LINE      CODE     ---       #155
      00FF4A4BH   LINE      CODE     ---       #156
      00FF4A4CH   LINE      CODE     ---       #157
      00FF4A4DH   LINE      CODE     ---       #158
      00FF4A5AH   LINE      CODE     ---       #159
      00FF4A62H   LINE      CODE     ---       #160
      00FF4A65H   LINE      CODE     ---       #162
      00FF4A65H   LINE      CODE     ---       #164
      00FF4A72H   LINE      CODE     ---       #165
      00FF4A7FH   LINE      CODE     ---       #166
      00FF4A8CH   LINE      CODE     ---       #167
      00FF4A90H   LINE      CODE     ---       #168
      00FF4A93H   LINE      CODE     ---       #169
      00FF4A94H   LINE      CODE     ---       #170
      00FF4A95H   LINE      CODE     ---       #171
      00FF4A96H   LINE      CODE     ---       #172
      00FF4A97H   LINE      CODE     ---       #173
      00FF4AA4H   LINE      CODE     ---       #174
      00FF4AACH   LINE      CODE     ---       #175
      00FF4AAFH   LINE      CODE     ---       #177
      00FF4AAFH   LINE      CODE     ---       #179
      00FF4ABCH   LINE      CODE     ---       #180
      00FF4AC9H   LINE      CODE     ---       #181
      00FF4AD6H   LINE      CODE     ---       #182
      00FF4ADAH   LINE      CODE     ---       #183
      00FF4ADDH   LINE      CODE     ---       #184
      00FF4ADEH   LINE      CODE     ---       #185
      00FF4ADFH   LINE      CODE     ---       #186
      00FF4AE0H   LINE      CODE     ---       #187
      00FF4AE1H   LINE      CODE     ---       #188
      00FF4AEEH   LINE      CODE     ---       #189
      00FF4AF6H   LINE      CODE     ---       #190
      00FF4AF9H   LINE      CODE     ---       #192
      00FF4AF9H   LINE      CODE     ---       #194
      00FF4B06H   LINE      CODE     ---       #195
      00FF4B13H   LINE      CODE     ---       #196
      00FF4B20H   LINE      CODE     ---       #197
      00FF4B24H   LINE      CODE     ---       #198
      00FF4B28H   LINE      CODE     ---       #199
      00FF4B29H   LINE      CODE     ---       #200
      00FF4B2AH   LINE      CODE     ---       #201
      00FF4B2BH   LINE      CODE     ---       #202
      00FF4B2CH   LINE      CODE     ---       #203
      00FF4B39H   LINE      CODE     ---       #204
      00FF4B41H   LINE      CODE     ---       #205
      00FF4B44H   LINE      CODE     ---       #207
      00FF4B44H   LINE      CODE     ---       #209
      00FF4B51H   LINE      CODE     ---       #210
      00FF4B5EH   LINE      CODE     ---       #211
      00FF4B6BH   LINE      CODE     ---       #212
      00FF4B6FH   LINE      CODE     ---       #213
      00FF4B73H   LINE      CODE     ---       #214
L251 LINKER/LOCATER V4.66.93.0                                                        11/01/2024  21:35:45  PAGE 29


      00FF4B74H   LINE      CODE     ---       #215
      00FF4B75H   LINE      CODE     ---       #216
      00FF4B76H   LINE      CODE     ---       #217
      00FF4B77H   LINE      CODE     ---       #218
      00FF4B84H   LINE      CODE     ---       #219
      00FF4B8CH   LINE      CODE     ---       #220
      00FF4B8FH   LINE      CODE     ---       #222
      00FF4B8FH   LINE      CODE     ---       #224
      00FF4B9CH   LINE      CODE     ---       #225
      00FF4BA9H   LINE      CODE     ---       #226
      00FF4BB6H   LINE      CODE     ---       #227
      00FF4BBAH   LINE      CODE     ---       #228
      00FF4BBEH   LINE      CODE     ---       #229
      00FF4BBFH   LINE      CODE     ---       #230
      00FF4BC0H   LINE      CODE     ---       #231
      00FF4BC1H   LINE      CODE     ---       #232
      00FF4BC2H   LINE      CODE     ---       #233
      00FF4BCFH   LINE      CODE     ---       #234
      00FF4BD7H   LINE      CODE     ---       #235
      00FF4BDAH   LINE      CODE     ---       #237
      00FF4BDAH   LINE      CODE     ---       #239
      00FF4BE7H   LINE      CODE     ---       #240
      00FF4BF4H   LINE      CODE     ---       #241
      00FF4C01H   LINE      CODE     ---       #242
      00FF4C05H   LINE      CODE     ---       #243
      00FF4C09H   LINE      CODE     ---       #244
      00FF4C0AH   LINE      CODE     ---       #245
      00FF4C0BH   LINE      CODE     ---       #246
      00FF4C0CH   LINE      CODE     ---       #247
      00FF4C0DH   LINE      CODE     ---       #248
      00FF4C1AH   LINE      CODE     ---       #249
      00FF4C22H   LINE      CODE     ---       #250
      00FF4C25H   LINE      CODE     ---       #252
      00FF4C25H   LINE      CODE     ---       #254
      00FF4C32H   LINE      CODE     ---       #255
      00FF4C3FH   LINE      CODE     ---       #256
      00FF4C4CH   LINE      CODE     ---       #257
      00FF4C50H   LINE      CODE     ---       #258
      00FF4C54H   LINE      CODE     ---       #259
      00FF4C55H   LINE      CODE     ---       #260
      00FF4C56H   LINE      CODE     ---       #261
      00FF4C57H   LINE      CODE     ---       #262
      00FF4C58H   LINE      CODE     ---       #263
      00FF4C65H   LINE      CODE     ---       #264
      00FF4C6DH   LINE      CODE     ---       #265
      00FF4C70H   LINE      CODE     ---       #267
      00FF4C70H   LINE      CODE     ---       #269
      00FF4C7DH   LINE      CODE     ---       #270
      00FF4C8AH   LINE      CODE     ---       #271
      00FF4C97H   LINE      CODE     ---       #272
      00FF4C9BH   LINE      CODE     ---       #273
      00FF4C9FH   LINE      CODE     ---       #274
      00FF4CA0H   LINE      CODE     ---       #275
      00FF4CA1H   LINE      CODE     ---       #276
      00FF4CA2H   LINE      CODE     ---       #277
      00FF4CA3H   LINE      CODE     ---       #278
      00FF4CB0H   LINE      CODE     ---       #279
      00FF4CB8H   LINE      CODE     ---       #280
      00FF4CBBH   LINE      CODE     ---       #282
      00FF4CBBH   LINE      CODE     ---       #284
      00FF4CC8H   LINE      CODE     ---       #285
      00FF4CD5H   LINE      CODE     ---       #286
      00FF4CE2H   LINE      CODE     ---       #287
      00FF4CE6H   LINE      CODE     ---       #288
      00FF4CEAH   LINE      CODE     ---       #289
L251 LINKER/LOCATER V4.66.93.0                                                        11/01/2024  21:35:45  PAGE 30


      00FF4CEBH   LINE      CODE     ---       #290
      00FF4CECH   LINE      CODE     ---       #291
      00FF4CEDH   LINE      CODE     ---       #292
      00FF4CEEH   LINE      CODE     ---       #293
      00FF4CFBH   LINE      CODE     ---       #294
      00FF4D03H   LINE      CODE     ---       #295
      00FF4D05H   LINE      CODE     ---       #307
      00FF4D05H   LINE      CODE     ---       #309
      00FF4D12H   LINE      CODE     ---       #310
      00FF4D1FH   LINE      CODE     ---       #311
      00FF4D2CH   LINE      CODE     ---       #312
      00FF4D30H   LINE      CODE     ---       #313
      00FF4D34H   LINE      CODE     ---       #314
      00FF4D35H   LINE      CODE     ---       #315
      00FF4D36H   LINE      CODE     ---       #316
      00FF4D37H   LINE      CODE     ---       #317
      00FF4D38H   LINE      CODE     ---       #318
      00FF4D45H   LINE      CODE     ---       #319
      00FF4D51H   LINE      CODE     ---       #320
      00FF4D51H   LINE      CODE     ---       #321
      00FF4D51H   LINE      CODE     ---       #323
      00FF4D55H   LINE      CODE     ---       #324
      ---         BLOCKEND  ---      ---       LVL=0

      00FF703EH   BLOCK     CODE     ---       LVL=0
      000010CEH   SYMBOL    EDATA    CHAR      c
      00FF703EH   LINE      CODE     ---       #333
      00FF7042H   LINE      CODE     ---       #335
      00FF704BH   LINE      CODE     ---       #337
      00FF704FH   LINE      CODE     ---       #338
      ---         BLOCKEND  ---      ---       LVL=0

      00FF0006H   BLOCK     CODE     ---       LVL=0
      00FF0006H   LINE      CODE     ---       #347
      00FF0006H   LINE      CODE     ---       #349
      00FF0009H   LINE      CODE     ---       #350
      ---         BLOCKEND  ---      ---       LVL=0

      00FF7062H   BLOCK     CODE     ---       LVL=0
      00FF7062H   LINE      CODE     ---       #385
      00FF7062H   LINE      CODE     ---       #387
      00FF7063H   LINE      CODE     ---       #388
      00FF7064H   LINE      CODE     ---       #389
      00FF7068H   LINE      CODE     ---       #391
      00FF706CH   LINE      CODE     ---       #393
      00FF7070H   LINE      CODE     ---       #395
      00FF7071H   LINE      CODE     ---       #396
      00FF7072H   LINE      CODE     ---       #397
      ---         BLOCKEND  ---      ---       LVL=0

      00FF6FF0H   BLOCK     CODE     ---       LVL=0
      00000FC8H   SYMBOL    EDATA    DWORD     clock
      00FF6FF0H   LINE      CODE     ---       #399
      00FF6FF4H   LINE      CODE     ---       #401
      00FF6FF8H   LINE      CODE     ---       #409
      00FF7003H   LINE      CODE     ---       #413
      ---         BLOCKEND  ---      ---       LVL=0

      00FF5F62H   BLOCK     CODE     ---       LVL=0
      00FF5F62H   LINE      CODE     ---       #416
      00FF5F62H   LINE      CODE     ---       #419
      00FF5F65H   LINE      CODE     ---       #422
      00FF5F68H   LINE      CODE     ---       #423
      00FF5F6BH   LINE      CODE     ---       #424
      00FF5F6EH   LINE      CODE     ---       #425
L251 LINKER/LOCATER V4.66.93.0                                                        11/01/2024  21:35:45  PAGE 31


      00FF5F71H   LINE      CODE     ---       #426
      00FF5F74H   LINE      CODE     ---       #427
      00FF5F77H   LINE      CODE     ---       #428
      00FF5F7AH   LINE      CODE     ---       #429
      00FF5F7DH   LINE      CODE     ---       #430
      00FF5F80H   LINE      CODE     ---       #431
      00FF5F83H   LINE      CODE     ---       #432
      00FF5F86H   LINE      CODE     ---       #433
      00FF5F89H   LINE      CODE     ---       #452
      00FF5F8CH   LINE      CODE     ---       #454
      00FF5F9CH   LINE      CODE     ---       #459
      00FF5F9FH   LINE      CODE     ---       #460
      00FF5F9FH   LINE      CODE     ---       #464
      00FF5FA2H   LINE      CODE     ---       #465
      00FF5FA5H   LINE      CODE     ---       #466
      00FF5FA8H   LINE      CODE     ---       #467
      00FF5FABH   LINE      CODE     ---       #468
      00FF5FAEH   LINE      CODE     ---       #469
      00FF5FB1H   LINE      CODE     ---       #470
      00FF5FB4H   LINE      CODE     ---       #471
      00FF5FB7H   LINE      CODE     ---       #472
      00FF5FBAH   LINE      CODE     ---       #474
      00FF5FD5H   LINE      CODE     ---       #475
      00FF5FD8H   LINE      CODE     ---       #476
      ---         BLOCKEND  ---      ---       LVL=0

      ---         MODULE    ---      ---       common
      00000FCCH   PUBLIC    EDATA    INT       wireless_type
      00000FCEH   PUBLIC    EDATA    ---       wireless_module_uart_handler
      000000D0H   SFRSYM    DATA     BYTE      PSW
      0000009DH   SFRSYM    DATA     BYTE      IRCBAND
      00000097H   SFRSYM    DATA     BYTE      AUXR2
      000000EFH   SFRSYM    DATA     BYTE      AUXINTIF
      000000FDH   SFRSYM    DATA     BYTE      S4CON
      000000ACH   SFRSYM    DATA     BYTE      S3CON
      0000009AH   SFRSYM    DATA     BYTE      S2CON
      000000B7H   SFRSYM    DATA     BYTE      IPH
      000000CDH   SFRSYM    DATA     BYTE      SPSTAT
      000000DDH   SFRSYM    DATA     BYTE      T4T3M
      000000C1H   SFRSYM    DATA     BYTE      WDT_CONTR
      000000DFH   SFRSYM    DATA     BYTE      IP3
      000000F4H   SFRSYM    DATA     BYTE      USBCON
      000000B5H   SFRSYM    DATA     BYTE      IP2
      000000FFH   SFRSYM    DATA     BYTE      RSTCFG
      000000C7H   SFRSYM    DATA     BYTE      IAP_CONTR
      000000F9H   SFRSYM    DATA     BYTE      LINICR
      0000008EH   SFRSYM    DATA     BYTE      AUXR
      000000AFH   SFRSYM    DATA     BYTE      IE2
      00000088H   SFRSYM    DATA     BYTE      TCON
      00000089H   SFRSYM    DATA     BYTE      TMOD
      00000098H   SFRSYM    DATA     BYTE      SCON
      000000F1H   SFRSYM    DATA     BYTE      CANICR
      00000087H   SFRSYM    DATA     BYTE      PCON
      000000BCH   SFRSYM    DATA     BYTE      ADC_CONTR
      000000E7H   SFRSYM    DATA     BYTE      CMPCR2
      000000E6H   SFRSYM    DATA     BYTE      CMPCR1
      000000DEH   SFRSYM    DATA     BYTE      ADCCFG
      000000B8H   SFRSYM    DATA     BYTE      IP
      0000008FH   SFRSYM    DATA     BYTE      INTCLKO
      000000EEH   SFRSYM    DATA     BYTE      IP3H
      000000B6H   SFRSYM    DATA     BYTE      IP2H
      000000A8H   SFRSYM    DATA     BYTE      IE
      000000BBH   SFRSYM    DATA     BYTE      P_SW3
      000000BAH   SFRSYM    DATA     BYTE      P_SW2
      000000A2H   SFRSYM    DATA     BYTE      P_SW1
L251 LINKER/LOCATER V4.66.93.0                                                        11/01/2024  21:35:45  PAGE 32


      000000CEH   SFRSYM    DATA     BYTE      SPCTL
      000000F8H   SFRSYM    DATA     BYTE      P7
      000000E8H   SFRSYM    DATA     BYTE      P6
      000000C8H   SFRSYM    DATA     BYTE      P5
      000000C0H   SFRSYM    DATA     BYTE      P4
      000000B0H   SFRSYM    DATA     BYTE      P3
      000000A0H   SFRSYM    DATA     BYTE      P2
      00000090H   SFRSYM    DATA     BYTE      P1
      00000080H   SFRSYM    DATA     BYTE      P0

      ---         MODULE    ---      ---       STC32F_FPMU
      00FF707BH   PUBLIC    CODE     ---       ?C?CASTF
      00FF7081H   PUBLIC    CODE     ---       ?C?FCASTI
      00FF0056H   PUBLIC    CODE     ---       ?C?FCASTL
      00FF0046H   PUBLIC    CODE     ---       ?C?FPCMP3
      00FF001EH   PUBLIC    CODE     ---       ?C?FPDIV
      00FF0016H   PUBLIC    CODE     ---       ?C?FPMUL
      00FF000EH   PUBLIC    CODE     ---       ?C?FPSUB
      000000E0H   SFRSYM    DATA     BYTE      ACC
      000000EDH   SFRSYM    DATA     BYTE      DMAIR
      00000083H   SFRSYM    DATA     BYTE      DPH
      00000082H   SFRSYM    DATA     BYTE      DPL
      0000001CH   SYMBOL    NUMBER   ---       DMA_FPADD
      00000030H   SYMBOL    NUMBER   ---       DMA_FPATAN
      00000027H   SYMBOL    NUMBER   ---       DMA_FPCLD
      00000032H   SYMBOL    NUMBER   ---       DMA_FPCLEX
      00000021H   SYMBOL    NUMBER   ---       DMA_FPCMP
      0000002EH   SYMBOL    NUMBER   ---       DMA_FPCOS
      00000035H   SYMBOL    NUMBER   ---       DMA_FPCRR
      00000036H   SYMBOL    NUMBER   ---       DMA_FPCRW
      00000023H   SYMBOL    NUMBER   ---       DMA_FPCST
      0000001FH   SYMBOL    NUMBER   ---       DMA_FPDIV
      00000028H   SYMBOL    NUMBER   ---       DMA_FPILD
      00000031H   SYMBOL    NUMBER   ---       DMA_FPINIT
      00000024H   SYMBOL    NUMBER   ---       DMA_FPIST
      00000029H   SYMBOL    NUMBER   ---       DMA_FPLLD
      00000025H   SYMBOL    NUMBER   ---       DMA_FPLST
      0000001EH   SYMBOL    NUMBER   ---       DMA_FPMUL
      0000002DH   SYMBOL    NUMBER   ---       DMA_FPSIN
      00000020H   SYMBOL    NUMBER   ---       DMA_FPSQRT
      00000033H   SYMBOL    NUMBER   ---       DMA_FPSRR
      00000034H   SYMBOL    NUMBER   ---       DMA_FPSRW
      0000001DH   SYMBOL    NUMBER   ---       DMA_FPSUB
      0000002FH   SYMBOL    NUMBER   ---       DMA_FPTAN
      00000022H   SYMBOL    NUMBER   ---       DMA_FPXAM
      00000001H   SYMBOL    NUMBER   ---       FP_CONV_EN
      00000001H   SYMBOL    NUMBER   ---       FP_REGS_EN
      00000001H   SYMBOL    NUMBER   ---       FP_TRIG_EN

      00FF000EH   BLOCK     CODE     NEAR LAB  LVL=0
      00FF000EH   LINE      CODE     ---       #72
      00FF0011H   LINE      CODE     ---       #73
      ---         BLOCKEND  ---      ---       LVL=0

      00FF0016H   BLOCK     CODE     NEAR LAB  LVL=0
      00FF0016H   LINE      CODE     ---       #82
      00FF0019H   LINE      CODE     ---       #83
      ---         BLOCKEND  ---      ---       LVL=0

      00FF001EH   BLOCK     CODE     NEAR LAB  LVL=0
      00FF001EH   LINE      CODE     ---       #92
      00FF0021H   LINE      CODE     ---       #93
      ---         BLOCKEND  ---      ---       LVL=0

      00FF0046H   BLOCK     CODE     NEAR LAB  LVL=0
L251 LINKER/LOCATER V4.66.93.0                                                        11/01/2024  21:35:45  PAGE 33


      00FF0046H   LINE      CODE     ---       #113
      00FF0049H   LINE      CODE     ---       #114
      00FF004BH   LINE      CODE     ---       #115
      00FF004DH   LINE      CODE     ---       #116
      00FF004FH   LINE      CODE     ---       #117
      00FF0051H   LINE      CODE     ---       #118
      ---         BLOCKEND  ---      ---       LVL=0

      00FF707BH   BLOCK     CODE     NEAR LAB  LVL=0
      00FF707BH   LINE      CODE     ---       #213
      00FF707EH   LINE      CODE     ---       #214
      00FF7080H   LINE      CODE     ---       #215
      ---         BLOCKEND  ---      ---       LVL=0

      00FF7081H   BLOCK     CODE     NEAR LAB  LVL=0
      00FF7081H   LINE      CODE     ---       #235
      00FF7083H   LINE      CODE     ---       #236
      00FF7086H   LINE      CODE     ---       #237
      ---         BLOCKEND  ---      ---       LVL=0

      00FF0056H   BLOCK     CODE     NEAR LAB  LVL=0
      00FF0056H   LINE      CODE     ---       #246
      00FF0059H   LINE      CODE     ---       #247
      ---         BLOCKEND  ---      ---       LVL=0

      ---         MODULE    ---      ---       zf_adc
      00FF64FDH   PUBLIC    CODE     ---       adc_once
      00000094H   SFRSYM    DATA     BYTE      P0M0
      000000D0H   SFRSYM    DATA     BYTE      PSW
      0000009DH   SFRSYM    DATA     BYTE      IRCBAND
      00000097H   SFRSYM    DATA     BYTE      AUXR2
      000000EFH   SFRSYM    DATA     BYTE      AUXINTIF
      000000FDH   SFRSYM    DATA     BYTE      S4CON
      000000ACH   SFRSYM    DATA     BYTE      S3CON
      0000009AH   SFRSYM    DATA     BYTE      S2CON
      000000B7H   SFRSYM    DATA     BYTE      IPH
      000000CDH   SFRSYM    DATA     BYTE      SPSTAT
      000000BEH   SFRSYM    DATA     BYTE      ADC_RESL
      000000DDH   SFRSYM    DATA     BYTE      T4T3M
      000000C1H   SFRSYM    DATA     BYTE      WDT_CONTR
      000000DFH   SFRSYM    DATA     BYTE      IP3
      000000F4H   SFRSYM    DATA     BYTE      USBCON
      000000B5H   SFRSYM    DATA     BYTE      IP2
      000000FFH   SFRSYM    DATA     BYTE      RSTCFG
      000000C7H   SFRSYM    DATA     BYTE      IAP_CONTR
      000000F9H   SFRSYM    DATA     BYTE      LINICR
      0000008EH   SFRSYM    DATA     BYTE      AUXR
      000000AFH   SFRSYM    DATA     BYTE      IE2
      00000088H   SFRSYM    DATA     BYTE      TCON
      00000089H   SFRSYM    DATA     BYTE      TMOD
      00000098H   SFRSYM    DATA     BYTE      SCON
      000000F1H   SFRSYM    DATA     BYTE      CANICR
      00000087H   SFRSYM    DATA     BYTE      PCON
      000000BCH   SFRSYM    DATA     BYTE      ADC_CONTR
      000000E7H   SFRSYM    DATA     BYTE      CMPCR2
      000000E6H   SFRSYM    DATA     BYTE      CMPCR1
      000000DEH   SFRSYM    DATA     BYTE      ADCCFG
      000000B8H   SFRSYM    DATA     BYTE      IP
      0000008FH   SFRSYM    DATA     BYTE      INTCLKO
      000000EEH   SFRSYM    DATA     BYTE      IP3H
      000000B6H   SFRSYM    DATA     BYTE      IP2H
      000000BDH   SFRSYM    DATA     BYTE      ADC_RES
      000000A8H   SFRSYM    DATA     BYTE      IE
      000000BBH   SFRSYM    DATA     BYTE      P_SW3
      000000BAH   SFRSYM    DATA     BYTE      P_SW2
L251 LINKER/LOCATER V4.66.93.0                                                        11/01/2024  21:35:45  PAGE 34


      000000A2H   SFRSYM    DATA     BYTE      P_SW1
      000000CEH   SFRSYM    DATA     BYTE      SPCTL
      000000F8H   SFRSYM    DATA     BYTE      P7
      000000E8H   SFRSYM    DATA     BYTE      P6
      000000C8H   SFRSYM    DATA     BYTE      P5
      000000C0H   SFRSYM    DATA     BYTE      P4
      000000B0H   SFRSYM    DATA     BYTE      P3
      000000A0H   SFRSYM    DATA     BYTE      P2
      00000090H   SFRSYM    DATA     BYTE      P1
      00000080H   SFRSYM    DATA     BYTE      P0
      00000091H   SFRSYM    DATA     BYTE      P1M1
      00000092H   SFRSYM    DATA     BYTE      P1M0
      00000093H   SFRSYM    DATA     BYTE      P0M1
      00000FD0H   SYMBOL    EDATA    INT       adcn
      00000FD2H   SYMBOL    EDATA    INT       speed

      00FF64FDH   BLOCK     CODE     ---       LVL=0
      00000EECH   SYMBOL    EDATA    INT       adcn
      00000EEEH   SYMBOL    EDATA    INT       resolution
      00FF6505H   BLOCK     CODE     NEAR LAB  LVL=1
      00000EF0H   SYMBOL    EDATA    WORD      adc_value
      ---         BLOCKEND  ---      ---       LVL=1
      00FF64FDH   LINE      CODE     ---       #66
      00FF6505H   LINE      CODE     ---       #67
      00FF6505H   LINE      CODE     ---       #70
      00FF6508H   LINE      CODE     ---       #71
      00FF6510H   LINE      CODE     ---       #73
      00FF6513H   LINE      CODE     ---       #74
      00FF6518H   LINE      CODE     ---       #75
      00FF651BH   LINE      CODE     ---       #77
      00FF6523H   LINE      CODE     ---       #78
      00FF652BH   LINE      CODE     ---       #79
      00FF6539H   LINE      CODE     ---       #81
      00FF653CH   LINE      CODE     ---       #82
      00FF653FH   LINE      CODE     ---       #84
      00FF6552H   LINE      CODE     ---       #87
      00FF6552H   LINE      CODE     ---       #88
      ---         BLOCKEND  ---      ---       LVL=0

      ---         MODULE    ---      ---       zf_delay
      00FF6D87H   PUBLIC    CODE     ---       delay_init
      00FF6B4AH   PUBLIC    CODE     ---       delay_ms
      00000FD4H   PUBLIC    EDATA    WORD      zf_delay_ms
      00000FD6H   PUBLIC    EDATA    WORD      zf_delay_us
      000000D0H   SFRSYM    DATA     BYTE      PSW
      0000009DH   SFRSYM    DATA     BYTE      IRCBAND
      00000097H   SFRSYM    DATA     BYTE      AUXR2
      000000EFH   SFRSYM    DATA     BYTE      AUXINTIF
      000000FDH   SFRSYM    DATA     BYTE      S4CON
      000000ACH   SFRSYM    DATA     BYTE      S3CON
      0000009AH   SFRSYM    DATA     BYTE      S2CON
      000000B7H   SFRSYM    DATA     BYTE      IPH
      000000CDH   SFRSYM    DATA     BYTE      SPSTAT
      000000DDH   SFRSYM    DATA     BYTE      T4T3M
      000000C1H   SFRSYM    DATA     BYTE      WDT_CONTR
      000000DFH   SFRSYM    DATA     BYTE      IP3
      000000F4H   SFRSYM    DATA     BYTE      USBCON
      000000B5H   SFRSYM    DATA     BYTE      IP2
      000000FFH   SFRSYM    DATA     BYTE      RSTCFG
      000000C7H   SFRSYM    DATA     BYTE      IAP_CONTR
      000000F9H   SFRSYM    DATA     BYTE      LINICR
      0000008EH   SFRSYM    DATA     BYTE      AUXR
      000000AFH   SFRSYM    DATA     BYTE      IE2
      00000088H   SFRSYM    DATA     BYTE      TCON
      00000089H   SFRSYM    DATA     BYTE      TMOD
L251 LINKER/LOCATER V4.66.93.0                                                        11/01/2024  21:35:45  PAGE 35


      00000098H   SFRSYM    DATA     BYTE      SCON
      000000F1H   SFRSYM    DATA     BYTE      CANICR
      00000087H   SFRSYM    DATA     BYTE      PCON
      000000BCH   SFRSYM    DATA     BYTE      ADC_CONTR
      000000E7H   SFRSYM    DATA     BYTE      CMPCR2
      000000E6H   SFRSYM    DATA     BYTE      CMPCR1
      000000DEH   SFRSYM    DATA     BYTE      ADCCFG
      000000B8H   SFRSYM    DATA     BYTE      IP
      0000008FH   SFRSYM    DATA     BYTE      INTCLKO
      000000EEH   SFRSYM    DATA     BYTE      IP3H
      000000B6H   SFRSYM    DATA     BYTE      IP2H
      000000A8H   SFRSYM    DATA     BYTE      IE
      000000BBH   SFRSYM    DATA     BYTE      P_SW3
      000000BAH   SFRSYM    DATA     BYTE      P_SW2
      000000A2H   SFRSYM    DATA     BYTE      P_SW1
      000000CEH   SFRSYM    DATA     BYTE      SPCTL
      000000F8H   SFRSYM    DATA     BYTE      P7
      000000E8H   SFRSYM    DATA     BYTE      P6
      000000C8H   SFRSYM    DATA     BYTE      P5
      000000C0H   SFRSYM    DATA     BYTE      P4
      000000B0H   SFRSYM    DATA     BYTE      P3
      000000A0H   SFRSYM    DATA     BYTE      P2
      00000090H   SFRSYM    DATA     BYTE      P1
      00000080H   SFRSYM    DATA     BYTE      P0

      00FF6D87H   BLOCK     CODE     ---       LVL=0
      00FF6D87H   LINE      CODE     ---       #34
      00FF6D87H   LINE      CODE     ---       #36
      00FF6D96H   LINE      CODE     ---       #37
      00FF6DA9H   LINE      CODE     ---       #38
      ---         BLOCKEND  ---      ---       LVL=0

      00FF6B4AH   BLOCK     CODE     ---       LVL=0
      00000FD8H   SYMBOL    EDATA    WORD      ms
      00FF6B4EH   BLOCK     CODE     NEAR LAB  LVL=1
      00000FDAH   SYMBOL    EDATA    WORD      i
      ---         BLOCKEND  ---      ---       LVL=1
      00FF6B4AH   LINE      CODE     ---       #46
      00FF6B4EH   LINE      CODE     ---       #47
      00FF6B4EH   LINE      CODE     ---       #49
      00FF6B4EH   LINE      CODE     ---       #50
      00FF6B56H   LINE      CODE     ---       #51
      00FF6B6AH   LINE      CODE     ---       #52
      00FF6B7EH   LINE      CODE     ---       #53
      ---         BLOCKEND  ---      ---       LVL=0
      00000EF2H   SYMBOL    EDATA    DWORD     us
      00000EF6H   SYMBOL    EDATA    WORD      i

      ---         MODULE    ---      ---       zf_eeprom
      00000C94H   PUBLIC    EDATA    BYTE      ?iap_read_bytes?BYTE
      00000C9EH   PUBLIC    EDATA    BYTE      ?iap_write_bytes?BYTE
      000000D0H   SFRSYM    DATA     BYTE      PSW
      0000009DH   SFRSYM    DATA     BYTE      IRCBAND
      000000D0H.5 SFRSYM    DATA     BIT       F0
      00000097H   SFRSYM    DATA     BYTE      AUXR2
      000000C6H   SFRSYM    DATA     BYTE      IAP_TRIG
      000000EFH   SFRSYM    DATA     BYTE      AUXINTIF
      000000FDH   SFRSYM    DATA     BYTE      S4CON
      000000ACH   SFRSYM    DATA     BYTE      S3CON
      0000009AH   SFRSYM    DATA     BYTE      S2CON
      000000B7H   SFRSYM    DATA     BYTE      IPH
      000000CDH   SFRSYM    DATA     BYTE      SPSTAT
      000000DDH   SFRSYM    DATA     BYTE      T4T3M
      000000C1H   SFRSYM    DATA     BYTE      WDT_CONTR
      000000C2H   SFRSYM    DATA     BYTE      IAP_DATA
L251 LINKER/LOCATER V4.66.93.0                                                        11/01/2024  21:35:45  PAGE 36


      000000DFH   SFRSYM    DATA     BYTE      IP3
      000000F4H   SFRSYM    DATA     BYTE      USBCON
      000000B5H   SFRSYM    DATA     BYTE      IP2
      000000FFH   SFRSYM    DATA     BYTE      RSTCFG
      000000C7H   SFRSYM    DATA     BYTE      IAP_CONTR
      000000F9H   SFRSYM    DATA     BYTE      LINICR
      0000008EH   SFRSYM    DATA     BYTE      AUXR
      000000AFH   SFRSYM    DATA     BYTE      IE2
      00000088H   SFRSYM    DATA     BYTE      TCON
      00000089H   SFRSYM    DATA     BYTE      TMOD
      00000098H   SFRSYM    DATA     BYTE      SCON
      000000F5H   SFRSYM    DATA     BYTE      IAP_TPS
      000000F1H   SFRSYM    DATA     BYTE      CANICR
      00000087H   SFRSYM    DATA     BYTE      PCON
      000000BCH   SFRSYM    DATA     BYTE      ADC_CONTR
      000000E7H   SFRSYM    DATA     BYTE      CMPCR2
      000000E6H   SFRSYM    DATA     BYTE      CMPCR1
      000000C4H   SFRSYM    DATA     BYTE      IAP_ADDRL
      000000C3H   SFRSYM    DATA     BYTE      IAP_ADDRH
      000000F6H   SFRSYM    DATA     BYTE      IAP_ADDRE
      000000DEH   SFRSYM    DATA     BYTE      ADCCFG
      000000B8H   SFRSYM    DATA     BYTE      IP
      0000008FH   SFRSYM    DATA     BYTE      INTCLKO
      000000EEH   SFRSYM    DATA     BYTE      IP3H
      000000B6H   SFRSYM    DATA     BYTE      IP2H
      000000C5H   SFRSYM    DATA     BYTE      IAP_CMD
      000000A8H   SFRSYM    DATA     BYTE      IE
      000000BBH   SFRSYM    DATA     BYTE      P_SW3
      000000BAH   SFRSYM    DATA     BYTE      P_SW2
      000000A2H   SFRSYM    DATA     BYTE      P_SW1
      000000CEH   SFRSYM    DATA     BYTE      SPCTL
      000000F8H   SFRSYM    DATA     BYTE      P7
      000000A8H.7 SFRSYM    DATA     BIT       EA
      000000E8H   SFRSYM    DATA     BYTE      P6
      000000C8H   SFRSYM    DATA     BYTE      P5
      000000C0H   SFRSYM    DATA     BYTE      P4
      000000B0H   SFRSYM    DATA     BYTE      P3
      000000A0H   SFRSYM    DATA     BYTE      P2
      00000090H   SFRSYM    DATA     BYTE      P1
      00000080H   SFRSYM    DATA     BYTE      P0
      000010CFH   SYMBOL    EDATA    BYTE      write_time
      00000C94H   SYMBOL    EDATA    DWORD     addr
      00000C98H   SYMBOL    EDATA    ---       buf
      00000C9CH   SYMBOL    EDATA    WORD      len
      00000C9EH   SYMBOL    EDATA    DWORD     addr
      00000CA2H   SYMBOL    EDATA    ---       buf
      00000CA6H   SYMBOL    EDATA    WORD      len
      00000FDCH   SYMBOL    EDATA    DWORD     addr

      ---         MODULE    ---      ---       zf_exti
      000000D0H   SFRSYM    DATA     BYTE      PSW
      0000009DH   SFRSYM    DATA     BYTE      IRCBAND
      00000097H   SFRSYM    DATA     BYTE      AUXR2
      000000EFH   SFRSYM    DATA     BYTE      AUXINTIF
      000000FDH   SFRSYM    DATA     BYTE      S4CON
      000000ACH   SFRSYM    DATA     BYTE      S3CON
      0000009AH   SFRSYM    DATA     BYTE      S2CON
      000000B7H   SFRSYM    DATA     BYTE      IPH
      000000CDH   SFRSYM    DATA     BYTE      SPSTAT
      000000DDH   SFRSYM    DATA     BYTE      T4T3M
      000000C1H   SFRSYM    DATA     BYTE      WDT_CONTR
      00000088H.2 SFRSYM    DATA     BIT       IT1
      000000A8H.2 SFRSYM    DATA     BIT       EX1
      00000088H.0 SFRSYM    DATA     BIT       IT0
      000000A8H.0 SFRSYM    DATA     BIT       EX0
L251 LINKER/LOCATER V4.66.93.0                                                        11/01/2024  21:35:45  PAGE 37


      000000DFH   SFRSYM    DATA     BYTE      IP3
      000000F4H   SFRSYM    DATA     BYTE      USBCON
      000000B5H   SFRSYM    DATA     BYTE      IP2
      000000FFH   SFRSYM    DATA     BYTE      RSTCFG
      000000C7H   SFRSYM    DATA     BYTE      IAP_CONTR
      000000F9H   SFRSYM    DATA     BYTE      LINICR
      0000008EH   SFRSYM    DATA     BYTE      AUXR
      000000AFH   SFRSYM    DATA     BYTE      IE2
      00000088H   SFRSYM    DATA     BYTE      TCON
      00000089H   SFRSYM    DATA     BYTE      TMOD
      00000098H   SFRSYM    DATA     BYTE      SCON
      000000F1H   SFRSYM    DATA     BYTE      CANICR
      00000087H   SFRSYM    DATA     BYTE      PCON
      000000BCH   SFRSYM    DATA     BYTE      ADC_CONTR
      000000E7H   SFRSYM    DATA     BYTE      CMPCR2
      000000E6H   SFRSYM    DATA     BYTE      CMPCR1
      000000DEH   SFRSYM    DATA     BYTE      ADCCFG
      000000B8H   SFRSYM    DATA     BYTE      IP
      0000008FH   SFRSYM    DATA     BYTE      INTCLKO
      000000EEH   SFRSYM    DATA     BYTE      IP3H
      000000B6H   SFRSYM    DATA     BYTE      IP2H
      000000A8H   SFRSYM    DATA     BYTE      IE
      000000BBH   SFRSYM    DATA     BYTE      P_SW3
      000000BAH   SFRSYM    DATA     BYTE      P_SW2
      000000A2H   SFRSYM    DATA     BYTE      P_SW1
      000000CEH   SFRSYM    DATA     BYTE      SPCTL
      000000F8H   SFRSYM    DATA     BYTE      P7
      000000E8H   SFRSYM    DATA     BYTE      P6
      000000C8H   SFRSYM    DATA     BYTE      P5
      000000C0H   SFRSYM    DATA     BYTE      P4
      000000B0H   SFRSYM    DATA     BYTE      P3
      000000A0H   SFRSYM    DATA     BYTE      P2
      00000090H   SFRSYM    DATA     BYTE      P1
      00000080H   SFRSYM    DATA     BYTE      P0
      00000FE0H   SYMBOL    EDATA    INT       int_n
      00000FE2H   SYMBOL    EDATA    INT       mode

      ---         MODULE    ---      ---       zf_gpio
      00FF374DH   PUBLIC    CODE     ---       gpio_mode
      00000094H   SFRSYM    DATA     BYTE      P0M0
      000000D0H   SFRSYM    DATA     BYTE      PSW
      0000009DH   SFRSYM    DATA     BYTE      IRCBAND
      00000097H   SFRSYM    DATA     BYTE      AUXR2
      000000EFH   SFRSYM    DATA     BYTE      AUXINTIF
      000000FDH   SFRSYM    DATA     BYTE      S4CON
      000000ACH   SFRSYM    DATA     BYTE      S3CON
      0000009AH   SFRSYM    DATA     BYTE      S2CON
      000000B7H   SFRSYM    DATA     BYTE      IPH
      000000CDH   SFRSYM    DATA     BYTE      SPSTAT
      000000DDH   SFRSYM    DATA     BYTE      T4T3M
      000000C1H   SFRSYM    DATA     BYTE      WDT_CONTR
      000000DFH   SFRSYM    DATA     BYTE      IP3
      000000F4H   SFRSYM    DATA     BYTE      USBCON
      000000B5H   SFRSYM    DATA     BYTE      IP2
      000000FFH   SFRSYM    DATA     BYTE      RSTCFG
      000000C7H   SFRSYM    DATA     BYTE      IAP_CONTR
      000000F9H   SFRSYM    DATA     BYTE      LINICR
      0000008EH   SFRSYM    DATA     BYTE      AUXR
      000000AFH   SFRSYM    DATA     BYTE      IE2
      00000088H   SFRSYM    DATA     BYTE      TCON
      00000089H   SFRSYM    DATA     BYTE      TMOD
      00000098H   SFRSYM    DATA     BYTE      SCON
      000000F1H   SFRSYM    DATA     BYTE      CANICR
      00000087H   SFRSYM    DATA     BYTE      PCON
      000000BCH   SFRSYM    DATA     BYTE      ADC_CONTR
L251 LINKER/LOCATER V4.66.93.0                                                        11/01/2024  21:35:45  PAGE 38


      000000E7H   SFRSYM    DATA     BYTE      CMPCR2
      000000E6H   SFRSYM    DATA     BYTE      CMPCR1
      000000DEH   SFRSYM    DATA     BYTE      ADCCFG
      000000B8H   SFRSYM    DATA     BYTE      IP
      0000008FH   SFRSYM    DATA     BYTE      INTCLKO
      000000EEH   SFRSYM    DATA     BYTE      IP3H
      000000B6H   SFRSYM    DATA     BYTE      IP2H
      000000A8H   SFRSYM    DATA     BYTE      IE
      000000BBH   SFRSYM    DATA     BYTE      P_SW3
      000000BAH   SFRSYM    DATA     BYTE      P_SW2
      000000A2H   SFRSYM    DATA     BYTE      P_SW1
      000000CEH   SFRSYM    DATA     BYTE      SPCTL
      000000F8H   SFRSYM    DATA     BYTE      P7
      000000E1H   SFRSYM    DATA     BYTE      P7M1
      000000E8H   SFRSYM    DATA     BYTE      P6
      000000C8H   SFRSYM    DATA     BYTE      P5
      000000CBH   SFRSYM    DATA     BYTE      P6M1
      000000E2H   SFRSYM    DATA     BYTE      P7M0
      000000C0H   SFRSYM    DATA     BYTE      P4
      000000C9H   SFRSYM    DATA     BYTE      P5M1
      000000CCH   SFRSYM    DATA     BYTE      P6M0
      000000B0H   SFRSYM    DATA     BYTE      P3
      000000B3H   SFRSYM    DATA     BYTE      P4M1
      000000CAH   SFRSYM    DATA     BYTE      P5M0
      000000A0H   SFRSYM    DATA     BYTE      P2
      000000B1H   SFRSYM    DATA     BYTE      P3M1
      000000B4H   SFRSYM    DATA     BYTE      P4M0
      00000090H   SFRSYM    DATA     BYTE      P1
      00000095H   SFRSYM    DATA     BYTE      P2M1
      000000B2H   SFRSYM    DATA     BYTE      P3M0
      00000080H   SFRSYM    DATA     BYTE      P0
      00000091H   SFRSYM    DATA     BYTE      P1M1
      00000096H   SFRSYM    DATA     BYTE      P2M0
      00000092H   SFRSYM    DATA     BYTE      P1M0
      00000093H   SFRSYM    DATA     BYTE      P0M1
      00000FE4H   SYMBOL    EDATA    INT       pin
      00000FE6H   SYMBOL    EDATA    INT       pull

      00FF374DH   BLOCK     CODE     ---       LVL=0
      00000FE8H   SYMBOL    EDATA    INT       pin
      00000FEAH   SYMBOL    EDATA    INT       mode
      00FF374DH   LINE      CODE     ---       #54
      00FF3755H   LINE      CODE     ---       #56
      00FF3762H   LINE      CODE     ---       #58
      00FF3772H   LINE      CODE     ---       #60
      00FF378DH   LINE      CODE     ---       #61
      00FF37A8H   LINE      CODE     ---       #62
      00FF37A8H   LINE      CODE     ---       #63
      00FF37BAH   LINE      CODE     ---       #65
      00FF37D5H   LINE      CODE     ---       #66
      00FF37F0H   LINE      CODE     ---       #67
      00FF37F0H   LINE      CODE     ---       #68
      00FF3802H   LINE      CODE     ---       #70
      00FF381DH   LINE      CODE     ---       #71
      00FF3838H   LINE      CODE     ---       #72
      00FF3838H   LINE      CODE     ---       #74
      00FF384AH   LINE      CODE     ---       #76
      00FF3865H   LINE      CODE     ---       #77
      00FF3880H   LINE      CODE     ---       #78
      00FF3880H   LINE      CODE     ---       #79
      00FF3892H   LINE      CODE     ---       #81
      00FF38ADH   LINE      CODE     ---       #82
      00FF38C8H   LINE      CODE     ---       #83
      00FF38C8H   LINE      CODE     ---       #84
      00FF38DAH   LINE      CODE     ---       #86
L251 LINKER/LOCATER V4.66.93.0                                                        11/01/2024  21:35:45  PAGE 39


      00FF38F5H   LINE      CODE     ---       #87
      00FF3910H   LINE      CODE     ---       #88
      00FF3910H   LINE      CODE     ---       #89
      00FF3922H   LINE      CODE     ---       #91
      00FF393DH   LINE      CODE     ---       #92
      00FF3958H   LINE      CODE     ---       #93
      00FF3958H   LINE      CODE     ---       #94
      00FF396DH   LINE      CODE     ---       #96
      00FF3988H   LINE      CODE     ---       #97
      00FF39A3H   LINE      CODE     ---       #98
      00FF39A6H   LINE      CODE     ---       #100
      00FF39B5H   LINE      CODE     ---       #102
      00FF39C5H   LINE      CODE     ---       #104
      00FF39E0H   LINE      CODE     ---       #105
      00FF39F9H   LINE      CODE     ---       #106
      00FF39F9H   LINE      CODE     ---       #107
      00FF3A0BH   LINE      CODE     ---       #109
      00FF3A26H   LINE      CODE     ---       #110
      00FF3A3FH   LINE      CODE     ---       #111
      00FF3A3FH   LINE      CODE     ---       #112
      00FF3A51H   LINE      CODE     ---       #114
      00FF3A6CH   LINE      CODE     ---       #115
      00FF3A85H   LINE      CODE     ---       #116
      00FF3A85H   LINE      CODE     ---       #118
      00FF3A97H   LINE      CODE     ---       #120
      00FF3AB2H   LINE      CODE     ---       #121
      00FF3ACBH   LINE      CODE     ---       #122
      00FF3ACBH   LINE      CODE     ---       #123
      00FF3ADDH   LINE      CODE     ---       #125
      00FF3AF8H   LINE      CODE     ---       #126
      00FF3B11H   LINE      CODE     ---       #127
      00FF3B11H   LINE      CODE     ---       #128
      00FF3B23H   LINE      CODE     ---       #130
      00FF3B3EH   LINE      CODE     ---       #131
      00FF3B57H   LINE      CODE     ---       #132
      00FF3B57H   LINE      CODE     ---       #133
      00FF3B69H   LINE      CODE     ---       #135
      00FF3B84H   LINE      CODE     ---       #136
      00FF3B9DH   LINE      CODE     ---       #137
      00FF3B9DH   LINE      CODE     ---       #138
      00FF3BB2H   LINE      CODE     ---       #140
      00FF3BCDH   LINE      CODE     ---       #141
      00FF3BE6H   LINE      CODE     ---       #142
      00FF3BE9H   LINE      CODE     ---       #145
      00FF3BF8H   LINE      CODE     ---       #147
      00FF3C08H   LINE      CODE     ---       #149
      00FF3C21H   LINE      CODE     ---       #150
      00FF3C3CH   LINE      CODE     ---       #151
      00FF3C3CH   LINE      CODE     ---       #152
      00FF3C4EH   LINE      CODE     ---       #154
      00FF3C67H   LINE      CODE     ---       #155
      00FF3C82H   LINE      CODE     ---       #156
      00FF3C82H   LINE      CODE     ---       #157
      00FF3C94H   LINE      CODE     ---       #159
      00FF3CADH   LINE      CODE     ---       #160
      00FF3CC8H   LINE      CODE     ---       #161
      00FF3CC8H   LINE      CODE     ---       #163
      00FF3CDAH   LINE      CODE     ---       #165
      00FF3CF3H   LINE      CODE     ---       #166
      00FF3D0EH   LINE      CODE     ---       #167
      00FF3D0EH   LINE      CODE     ---       #168
      00FF3D20H   LINE      CODE     ---       #170
      00FF3D39H   LINE      CODE     ---       #171
      00FF3D54H   LINE      CODE     ---       #172
      00FF3D54H   LINE      CODE     ---       #173
L251 LINKER/LOCATER V4.66.93.0                                                        11/01/2024  21:35:45  PAGE 40


      00FF3D66H   LINE      CODE     ---       #175
      00FF3D7FH   LINE      CODE     ---       #176
      00FF3D9AH   LINE      CODE     ---       #177
      00FF3D9AH   LINE      CODE     ---       #178
      00FF3DACH   LINE      CODE     ---       #180
      00FF3DC5H   LINE      CODE     ---       #181
      00FF3DE0H   LINE      CODE     ---       #182
      00FF3DE0H   LINE      CODE     ---       #183
      00FF3DF5H   LINE      CODE     ---       #185
      00FF3E0EH   LINE      CODE     ---       #186
      00FF3E29H   LINE      CODE     ---       #187
      00FF3E2CH   LINE      CODE     ---       #189
      00FF3E3BH   LINE      CODE     ---       #191
      00FF3E4BH   LINE      CODE     ---       #193
      00FF3E64H   LINE      CODE     ---       #194
      00FF3E7DH   LINE      CODE     ---       #195
      00FF3E7DH   LINE      CODE     ---       #196
      00FF3E8FH   LINE      CODE     ---       #198
      00FF3EA8H   LINE      CODE     ---       #199
      00FF3EC1H   LINE      CODE     ---       #200
      00FF3EC1H   LINE      CODE     ---       #201
      00FF3ED3H   LINE      CODE     ---       #203
      00FF3EECH   LINE      CODE     ---       #204
      00FF3F05H   LINE      CODE     ---       #205
      00FF3F05H   LINE      CODE     ---       #207
      00FF3F17H   LINE      CODE     ---       #209
      00FF3F30H   LINE      CODE     ---       #210
      00FF3F49H   LINE      CODE     ---       #211
      00FF3F49H   LINE      CODE     ---       #212
      00FF3F5BH   LINE      CODE     ---       #214
      00FF3F74H   LINE      CODE     ---       #215
      00FF3F8DH   LINE      CODE     ---       #216
      00FF3F8DH   LINE      CODE     ---       #217
      00FF3F9FH   LINE      CODE     ---       #219
      00FF3FB8H   LINE      CODE     ---       #220
      00FF3FD1H   LINE      CODE     ---       #221
      00FF3FD1H   LINE      CODE     ---       #222
      00FF3FE3H   LINE      CODE     ---       #224
      00FF3FFCH   LINE      CODE     ---       #225
      00FF4015H   LINE      CODE     ---       #226
      00FF4015H   LINE      CODE     ---       #227
      00FF4027H   LINE      CODE     ---       #229
      00FF4040H   LINE      CODE     ---       #230
      00FF4059H   LINE      CODE     ---       #231
      00FF4059H   LINE      CODE     ---       #233
      ---         BLOCKEND  ---      ---       LVL=0

      ---         MODULE    ---      ---       zf_iic
      00FF64A6H   PUBLIC    CODE     ---       wait
      00FF6B7FH   PUBLIC    CODE     ---       iic_delay_us
      00000EF4H   PUBLIC    EDATA    BYTE      ?iic_init?BYTE
      000000D0H   SFRSYM    DATA     BYTE      PSW
      0000009DH   SFRSYM    DATA     BYTE      IRCBAND
      00000097H   SFRSYM    DATA     BYTE      AUXR2
      000000EFH   SFRSYM    DATA     BYTE      AUXINTIF
      000000FDH   SFRSYM    DATA     BYTE      S4CON
      000000ACH   SFRSYM    DATA     BYTE      S3CON
      0000009AH   SFRSYM    DATA     BYTE      S2CON
      000000B7H   SFRSYM    DATA     BYTE      IPH
      000000CDH   SFRSYM    DATA     BYTE      SPSTAT
      000000DDH   SFRSYM    DATA     BYTE      T4T3M
      000000C1H   SFRSYM    DATA     BYTE      WDT_CONTR
      000000DFH   SFRSYM    DATA     BYTE      IP3
      000000F4H   SFRSYM    DATA     BYTE      USBCON
      000000B5H   SFRSYM    DATA     BYTE      IP2
L251 LINKER/LOCATER V4.66.93.0                                                        11/01/2024  21:35:45  PAGE 41


      000000FFH   SFRSYM    DATA     BYTE      RSTCFG
      000000C7H   SFRSYM    DATA     BYTE      IAP_CONTR
      000000F9H   SFRSYM    DATA     BYTE      LINICR
      0000008EH   SFRSYM    DATA     BYTE      AUXR
      000000AFH   SFRSYM    DATA     BYTE      IE2
      00000088H   SFRSYM    DATA     BYTE      TCON
      00000089H   SFRSYM    DATA     BYTE      TMOD
      00000098H   SFRSYM    DATA     BYTE      SCON
      000000F1H   SFRSYM    DATA     BYTE      CANICR
      00000087H   SFRSYM    DATA     BYTE      PCON
      000000BCH   SFRSYM    DATA     BYTE      ADC_CONTR
      000000E7H   SFRSYM    DATA     BYTE      CMPCR2
      000000E6H   SFRSYM    DATA     BYTE      CMPCR1
      000000DEH   SFRSYM    DATA     BYTE      ADCCFG
      000000B8H   SFRSYM    DATA     BYTE      IP
      0000008FH   SFRSYM    DATA     BYTE      INTCLKO
      000000EEH   SFRSYM    DATA     BYTE      IP3H
      000000B6H   SFRSYM    DATA     BYTE      IP2H
      000000A8H   SFRSYM    DATA     BYTE      IE
      000000BBH   SFRSYM    DATA     BYTE      P_SW3
      000000BAH   SFRSYM    DATA     BYTE      P_SW2
      000000A2H   SFRSYM    DATA     BYTE      P_SW1
      000000CEH   SFRSYM    DATA     BYTE      SPCTL
      000000F8H   SFRSYM    DATA     BYTE      P7
      000000E8H   SFRSYM    DATA     BYTE      P6
      000000C8H   SFRSYM    DATA     BYTE      P5
      000000C0H   SFRSYM    DATA     BYTE      P4
      000000B0H   SFRSYM    DATA     BYTE      P3
      000000A0H   SFRSYM    DATA     BYTE      P2
      00000090H   SFRSYM    DATA     BYTE      P1
      00000080H   SFRSYM    DATA     BYTE      P0

      00FF6B7FH   BLOCK     CODE     ---       LVL=0
      0000103CH   SYMBOL    EDATA    WORD      x
      00FF6B83H   BLOCK     CODE     NEAR LAB  LVL=1
      0000103EH   SYMBOL    EDATA    BYTE      i
      ---         BLOCKEND  ---      ---       LVL=1
      00FF6B7FH   LINE      CODE     ---       #30
      00FF6B83H   LINE      CODE     ---       #31
      00FF6B83H   LINE      CODE     ---       #33
      00FF6B85H   LINE      CODE     ---       #35
      00FF6B8BH   LINE      CODE     ---       #36
      00FF6B9DH   LINE      CODE     ---       #37
      00FF6BB3H   LINE      CODE     ---       #38
      ---         BLOCKEND  ---      ---       LVL=0

      00FF64A6H   BLOCK     CODE     ---       LVL=0
      0000103FH   SYMBOL    EDATA    WORD      count
      00001041H   SYMBOL    EDATA    BYTE      ret
      00FF64A6H   LINE      CODE     ---       #47
      00FF64A6H   LINE      CODE     ---       #48
      00FF64A6H   LINE      CODE     ---       #49
      00FF64ACH   LINE      CODE     ---       #50
      00FF64B1H   LINE      CODE     ---       #51
      00FF64B3H   LINE      CODE     ---       #53
      00FF64BAH   LINE      CODE     ---       #54
      00FF64D0H   LINE      CODE     ---       #56
      00FF64D6H   LINE      CODE     ---       #57
      00FF64D8H   LINE      CODE     ---       #58
      00FF64E6H   LINE      CODE     ---       #60
      00FF64F8H   LINE      CODE     ---       #61
      00FF64FCH   LINE      CODE     ---       #62
      ---         BLOCKEND  ---      ---       LVL=0
      000010D0H   SYMBOL    EDATA    BYTE      ret
      0000107EH   SYMBOL    EDATA    CHAR      dat
L251 LINKER/LOCATER V4.66.93.0                                                        11/01/2024  21:35:45  PAGE 42


      0000107FH   SYMBOL    EDATA    BYTE      ret
      000010D1H   SYMBOL    EDATA    BYTE      ret
      000010D2H   SYMBOL    EDATA    BYTE      ret
      000010D3H   SYMBOL    EDATA    BYTE      ret
      00000EF8H   SYMBOL    EDATA    INT       iic_n
      00000EFAH   SYMBOL    EDATA    DWORD     wait_time
      00001042H   SYMBOL    EDATA    BYTE      dev_add
      00001043H   SYMBOL    EDATA    BYTE      reg
      00001044H   SYMBOL    EDATA    BYTE      dat
      00000EFEH   SYMBOL    EDATA    BYTE      dev_add
      00000EFFH   SYMBOL    EDATA    BYTE      reg
      00000F00H   SYMBOL    EDATA    ---       dat
      00000EB4H   SYMBOL    EDATA    BYTE      dev_add
      00000EB5H   SYMBOL    EDATA    BYTE      reg
      00000EB6H   SYMBOL    EDATA    ---       dat
      00000EBAH   SYMBOL    EDATA    BYTE      num
      00001080H   SYMBOL    EDATA    INT       iic_n

      ---         MODULE    ---      ---       zf_nvic
      000000D0H   SFRSYM    DATA     BYTE      PSW
      0000009DH   SFRSYM    DATA     BYTE      IRCBAND
      00000097H   SFRSYM    DATA     BYTE      AUXR2
      000000EFH   SFRSYM    DATA     BYTE      AUXINTIF
      000000FDH   SFRSYM    DATA     BYTE      S4CON
      000000ACH   SFRSYM    DATA     BYTE      S3CON
      0000009AH   SFRSYM    DATA     BYTE      S2CON
      000000B7H   SFRSYM    DATA     BYTE      IPH
      000000CDH   SFRSYM    DATA     BYTE      SPSTAT
      000000DDH   SFRSYM    DATA     BYTE      T4T3M
      000000C1H   SFRSYM    DATA     BYTE      WDT_CONTR
      000000DFH   SFRSYM    DATA     BYTE      IP3
      000000F4H   SFRSYM    DATA     BYTE      USBCON
      000000B5H   SFRSYM    DATA     BYTE      IP2
      000000FFH   SFRSYM    DATA     BYTE      RSTCFG
      000000C7H   SFRSYM    DATA     BYTE      IAP_CONTR
      000000F9H   SFRSYM    DATA     BYTE      LINICR
      0000008EH   SFRSYM    DATA     BYTE      AUXR
      000000AFH   SFRSYM    DATA     BYTE      IE2
      00000088H   SFRSYM    DATA     BYTE      TCON
      00000089H   SFRSYM    DATA     BYTE      TMOD
      00000098H   SFRSYM    DATA     BYTE      SCON
      000000F1H   SFRSYM    DATA     BYTE      CANICR
      00000087H   SFRSYM    DATA     BYTE      PCON
      000000BCH   SFRSYM    DATA     BYTE      ADC_CONTR
      000000E7H   SFRSYM    DATA     BYTE      CMPCR2
      000000E6H   SFRSYM    DATA     BYTE      CMPCR1
      000000DEH   SFRSYM    DATA     BYTE      ADCCFG
      000000B8H   SFRSYM    DATA     BYTE      IP
      0000008FH   SFRSYM    DATA     BYTE      INTCLKO
      000000EEH   SFRSYM    DATA     BYTE      IP3H
      000000B6H   SFRSYM    DATA     BYTE      IP2H
      000000A8H   SFRSYM    DATA     BYTE      IE
      000000BBH   SFRSYM    DATA     BYTE      P_SW3
      000000BAH   SFRSYM    DATA     BYTE      P_SW2
      000000A2H   SFRSYM    DATA     BYTE      P_SW1
      000000CEH   SFRSYM    DATA     BYTE      SPCTL
      000000F8H   SFRSYM    DATA     BYTE      P7
      000000E8H   SFRSYM    DATA     BYTE      P6
      000000C8H   SFRSYM    DATA     BYTE      P5
      000000C0H   SFRSYM    DATA     BYTE      P4
      000000B0H   SFRSYM    DATA     BYTE      P3
      000000A0H   SFRSYM    DATA     BYTE      P2
      00000090H   SFRSYM    DATA     BYTE      P1
      00000080H   SFRSYM    DATA     BYTE      P0
      00001045H   SYMBOL    EDATA    INT       irqn
L251 LINKER/LOCATER V4.66.93.0                                                        11/01/2024  21:35:45  PAGE 43


      00001047H   SYMBOL    EDATA    BYTE      priority

      ---         MODULE    ---      ---       zf_pwm
      00FF59D6H   PUBLIC    CODE     ---       pwm_duty
      00FF50E8H   PUBLIC    CODE     ---       pwm_set_gpio
      00FF72B7H   PUBLIC    HCONST   ---       PWM_CCR_ADDR
      00FF72D7H   PUBLIC    HCONST   ---       PWM_ARR_ADDR
      00FF72DFH   PUBLIC    HCONST   ---       PWM_CCER_ADDR
      00FF72EFH   PUBLIC    HCONST   ---       PWM_CCMR_ADDR
      00000A32H   PUBLIC    EDATA    BYTE      ?pwm_init?BYTE
      00000A46H   PUBLIC    EDATA    BYTE      ?pwm_freq?BYTE
      000000D0H   SFRSYM    DATA     BYTE      PSW
      0000009DH   SFRSYM    DATA     BYTE      IRCBAND
      00000097H   SFRSYM    DATA     BYTE      AUXR2
      000000EFH   SFRSYM    DATA     BYTE      AUXINTIF
      000000FDH   SFRSYM    DATA     BYTE      S4CON
      000000ACH   SFRSYM    DATA     BYTE      S3CON
      0000009AH   SFRSYM    DATA     BYTE      S2CON
      000000B7H   SFRSYM    DATA     BYTE      IPH
      000000CDH   SFRSYM    DATA     BYTE      SPSTAT
      000000DDH   SFRSYM    DATA     BYTE      T4T3M
      000000C1H   SFRSYM    DATA     BYTE      WDT_CONTR
      000000DFH   SFRSYM    DATA     BYTE      IP3
      000000F4H   SFRSYM    DATA     BYTE      USBCON
      000000B5H   SFRSYM    DATA     BYTE      IP2
      000000FFH   SFRSYM    DATA     BYTE      RSTCFG
      000000C7H   SFRSYM    DATA     BYTE      IAP_CONTR
      000000F9H   SFRSYM    DATA     BYTE      LINICR
      0000008EH   SFRSYM    DATA     BYTE      AUXR
      000000AFH   SFRSYM    DATA     BYTE      IE2
      00000088H   SFRSYM    DATA     BYTE      TCON
      00000089H   SFRSYM    DATA     BYTE      TMOD
      00000098H   SFRSYM    DATA     BYTE      SCON
      000000F1H   SFRSYM    DATA     BYTE      CANICR
      00000087H   SFRSYM    DATA     BYTE      PCON
      000000BCH   SFRSYM    DATA     BYTE      ADC_CONTR
      000000E7H   SFRSYM    DATA     BYTE      CMPCR2
      000000E6H   SFRSYM    DATA     BYTE      CMPCR1
      000000DEH   SFRSYM    DATA     BYTE      ADCCFG
      000000B8H   SFRSYM    DATA     BYTE      IP
      0000008FH   SFRSYM    DATA     BYTE      INTCLKO
      000000EEH   SFRSYM    DATA     BYTE      IP3H
      000000B6H   SFRSYM    DATA     BYTE      IP2H
      000000A8H   SFRSYM    DATA     BYTE      IE
      000000BBH   SFRSYM    DATA     BYTE      P_SW3
      000000BAH   SFRSYM    DATA     BYTE      P_SW2
      000000A2H   SFRSYM    DATA     BYTE      P_SW1
      000000CEH   SFRSYM    DATA     BYTE      SPCTL
      000000F8H   SFRSYM    DATA     BYTE      P7
      000000E8H   SFRSYM    DATA     BYTE      P6
      000000C8H   SFRSYM    DATA     BYTE      P5
      000000C0H   SFRSYM    DATA     BYTE      P4
      000000B0H   SFRSYM    DATA     BYTE      P3
      000000A0H   SFRSYM    DATA     BYTE      P2
      00000090H   SFRSYM    DATA     BYTE      P1
      00000080H   SFRSYM    DATA     BYTE      P0

      00FF50E8H   BLOCK     CODE     ---       LVL=0
      00001082H   SYMBOL    EDATA    INT       pwmch
      00FF50E8H   LINE      CODE     ---       #49
      00FF50ECH   LINE      CODE     ---       #51
      00FF525EH   LINE      CODE     ---       #53
      00FF525EH   LINE      CODE     ---       #55
      00FF5269H   LINE      CODE     ---       #56
      00FF526CH   LINE      CODE     ---       #58
L251 LINKER/LOCATER V4.66.93.0                                                        11/01/2024  21:35:45  PAGE 44


      00FF526CH   LINE      CODE     ---       #60
      00FF5277H   LINE      CODE     ---       #61
      00FF527AH   LINE      CODE     ---       #63
      00FF527AH   LINE      CODE     ---       #65
      00FF5285H   LINE      CODE     ---       #66
      00FF5288H   LINE      CODE     ---       #68
      00FF5288H   LINE      CODE     ---       #70
      00FF5293H   LINE      CODE     ---       #71
      00FF5296H   LINE      CODE     ---       #84
      00FF5296H   LINE      CODE     ---       #86
      00FF52A1H   LINE      CODE     ---       #87
      00FF52A4H   LINE      CODE     ---       #89
      00FF52A4H   LINE      CODE     ---       #91
      00FF52AFH   LINE      CODE     ---       #92
      00FF52B2H   LINE      CODE     ---       #94
      00FF52B2H   LINE      CODE     ---       #96
      00FF52BDH   LINE      CODE     ---       #97
      00FF52C0H   LINE      CODE     ---       #99
      00FF52C0H   LINE      CODE     ---       #101
      00FF52CBH   LINE      CODE     ---       #102
      00FF52CEH   LINE      CODE     ---       #115
      00FF52CEH   LINE      CODE     ---       #117
      00FF52D9H   LINE      CODE     ---       #118
      00FF52DCH   LINE      CODE     ---       #120
      00FF52DCH   LINE      CODE     ---       #122
      00FF52E7H   LINE      CODE     ---       #123
      00FF52EAH   LINE      CODE     ---       #125
      00FF52EAH   LINE      CODE     ---       #127
      00FF52F5H   LINE      CODE     ---       #128
      00FF52F8H   LINE      CODE     ---       #130
      00FF52F8H   LINE      CODE     ---       #132
      00FF5303H   LINE      CODE     ---       #133
      00FF5306H   LINE      CODE     ---       #147
      00FF5306H   LINE      CODE     ---       #149
      00FF5311H   LINE      CODE     ---       #150
      00FF5314H   LINE      CODE     ---       #152
      00FF5314H   LINE      CODE     ---       #154
      00FF531FH   LINE      CODE     ---       #155
      00FF5322H   LINE      CODE     ---       #157
      00FF5322H   LINE      CODE     ---       #159
      00FF532DH   LINE      CODE     ---       #160
      00FF5330H   LINE      CODE     ---       #162
      00FF5330H   LINE      CODE     ---       #164
      00FF533BH   LINE      CODE     ---       #165
      00FF533EH   LINE      CODE     ---       #177
      00FF533EH   LINE      CODE     ---       #179
      00FF5349H   LINE      CODE     ---       #180
      00FF534CH   LINE      CODE     ---       #182
      00FF534CH   LINE      CODE     ---       #184
      00FF5357H   LINE      CODE     ---       #185
      00FF535AH   LINE      CODE     ---       #189
      00FF535AH   LINE      CODE     ---       #191
      00FF5365H   LINE      CODE     ---       #192
      00FF5368H   LINE      CODE     ---       #194
      00FF5368H   LINE      CODE     ---       #196
      00FF5373H   LINE      CODE     ---       #197
      00FF5375H   LINE      CODE     ---       #199
      00FF5375H   LINE      CODE     ---       #201
      00FF537EH   LINE      CODE     ---       #202
      00FF5380H   LINE      CODE     ---       #210
      00FF5380H   LINE      CODE     ---       #212
      00FF538BH   LINE      CODE     ---       #213
      00FF538DH   LINE      CODE     ---       #215
      00FF538DH   LINE      CODE     ---       #217
      00FF5398H   LINE      CODE     ---       #218
L251 LINKER/LOCATER V4.66.93.0                                                        11/01/2024  21:35:45  PAGE 45


      00FF539AH   LINE      CODE     ---       #220
      00FF539AH   LINE      CODE     ---       #222
      00FF53A5H   LINE      CODE     ---       #223
      00FF53A7H   LINE      CODE     ---       #232
      00FF53A7H   LINE      CODE     ---       #234
      00FF53B2H   LINE      CODE     ---       #235
      00FF53B4H   LINE      CODE     ---       #237
      00FF53B4H   LINE      CODE     ---       #239
      00FF53BFH   LINE      CODE     ---       #240
      00FF53C1H   LINE      CODE     ---       #242
      00FF53C1H   LINE      CODE     ---       #244
      00FF53CCH   LINE      CODE     ---       #245
      00FF53CEH   LINE      CODE     ---       #254
      00FF53CEH   LINE      CODE     ---       #256
      00FF53D9H   LINE      CODE     ---       #257
      00FF53DBH   LINE      CODE     ---       #259
      00FF53DBH   LINE      CODE     ---       #261
      00FF53E6H   LINE      CODE     ---       #262
      00FF53E8H   LINE      CODE     ---       #264
      00FF53E8H   LINE      CODE     ---       #266
      00FF53F3H   LINE      CODE     ---       #267
      00FF53F3H   LINE      CODE     ---       #275
      00FF53F3H   LINE      CODE     ---       #277
      ---         BLOCKEND  ---      ---       LVL=0
      00000A32H   SYMBOL    EDATA    INT       pwmch
      00000A34H   SYMBOL    EDATA    DWORD     freq
      00000A38H   SYMBOL    EDATA    DWORD     duty
      00000A3CH   SYMBOL    EDATA    DWORD     match_temp
      00000A40H   SYMBOL    EDATA    DWORD     period_temp
      00000A44H   SYMBOL    EDATA    WORD      freq_div

      00FF59D6H   BLOCK     CODE     ---       LVL=0
      00000B07H   SYMBOL    EDATA    INT       pwmch
      00000B09H   SYMBOL    EDATA    DWORD     duty
      00FF59DEH   BLOCK     CODE     NEAR LAB  LVL=1
      00000B0DH   SYMBOL    EDATA    DWORD     match_temp
      00000B11H   SYMBOL    EDATA    DWORD     arr
      ---         BLOCKEND  ---      ---       LVL=1
      00FF59D6H   LINE      CODE     ---       #377
      00FF59DEH   LINE      CODE     ---       #378
      00FF59DEH   LINE      CODE     ---       #380
      00FF5A4AH   LINE      CODE     ---       #384
      00FF5A54H   LINE      CODE     ---       #386
      00FF5A7BH   LINE      CODE     ---       #387
      00FF5A7DH   LINE      CODE     ---       #390
      00FF5A8BH   LINE      CODE     ---       #391
      00FF5A8BH   LINE      CODE     ---       #396
      00FF5AB9H   LINE      CODE     ---       #397
      00FF5AEDH   LINE      CODE     ---       #401
      ---         BLOCKEND  ---      ---       LVL=0
      00000A46H   SYMBOL    EDATA    INT       pwmch
      00000A48H   SYMBOL    EDATA    DWORD     freq
      00000A4CH   SYMBOL    EDATA    DWORD     duty
      00000A50H   SYMBOL    EDATA    DWORD     match_temp
      00000A54H   SYMBOL    EDATA    DWORD     period_temp
      00000A58H   SYMBOL    EDATA    WORD      freq_div

      ---         MODULE    ---      ---       zf_spi
      00FF5C05H   PUBLIC    CODE     ---       spi_init
      00FF7050H   PUBLIC    CODE     ---       spi_mosi
      00000B69H   PUBLIC    EDATA    BYTE      ?spi_init?BYTE
      000000CFH   SFRSYM    DATA     BYTE      SPDAT
      000000D0H   SFRSYM    DATA     BYTE      PSW
      0000009DH   SFRSYM    DATA     BYTE      IRCBAND
      00000097H   SFRSYM    DATA     BYTE      AUXR2
L251 LINKER/LOCATER V4.66.93.0                                                        11/01/2024  21:35:45  PAGE 46


      000000EFH   SFRSYM    DATA     BYTE      AUXINTIF
      000000FDH   SFRSYM    DATA     BYTE      S4CON
      000000ACH   SFRSYM    DATA     BYTE      S3CON
      0000009AH   SFRSYM    DATA     BYTE      S2CON
      000000B7H   SFRSYM    DATA     BYTE      IPH
      000000CDH   SFRSYM    DATA     BYTE      SPSTAT
      000000DDH   SFRSYM    DATA     BYTE      T4T3M
      000000C1H   SFRSYM    DATA     BYTE      WDT_CONTR
      000000DFH   SFRSYM    DATA     BYTE      IP3
      000000F4H   SFRSYM    DATA     BYTE      USBCON
      000000B5H   SFRSYM    DATA     BYTE      IP2
      000000FFH   SFRSYM    DATA     BYTE      RSTCFG
      000000C7H   SFRSYM    DATA     BYTE      IAP_CONTR
      000000F9H   SFRSYM    DATA     BYTE      LINICR
      0000008EH   SFRSYM    DATA     BYTE      AUXR
      000000AFH   SFRSYM    DATA     BYTE      IE2
      00000088H   SFRSYM    DATA     BYTE      TCON
      00000089H   SFRSYM    DATA     BYTE      TMOD
      00000098H   SFRSYM    DATA     BYTE      SCON
      000000F1H   SFRSYM    DATA     BYTE      CANICR
      00000087H   SFRSYM    DATA     BYTE      PCON
      000000BCH   SFRSYM    DATA     BYTE      ADC_CONTR
      000000E7H   SFRSYM    DATA     BYTE      CMPCR2
      000000E6H   SFRSYM    DATA     BYTE      CMPCR1
      000000DEH   SFRSYM    DATA     BYTE      ADCCFG
      000000B8H   SFRSYM    DATA     BYTE      IP
      0000008FH   SFRSYM    DATA     BYTE      INTCLKO
      000000EEH   SFRSYM    DATA     BYTE      IP3H
      000000B6H   SFRSYM    DATA     BYTE      IP2H
      000000A8H   SFRSYM    DATA     BYTE      IE
      000000BBH   SFRSYM    DATA     BYTE      P_SW3
      000000BAH   SFRSYM    DATA     BYTE      P_SW2
      000000A2H   SFRSYM    DATA     BYTE      P_SW1
      000000CEH   SFRSYM    DATA     BYTE      SPCTL
      000000F8H   SFRSYM    DATA     BYTE      P7
      000000E8H   SFRSYM    DATA     BYTE      P6
      000000C8H   SFRSYM    DATA     BYTE      P5
      000000C0H   SFRSYM    DATA     BYTE      P4
      000000B0H   SFRSYM    DATA     BYTE      P3
      000000A0H   SFRSYM    DATA     BYTE      P2
      00000090H   SFRSYM    DATA     BYTE      P1
      00000080H   SFRSYM    DATA     BYTE      P0

      00FF5C05H   BLOCK     CODE     ---       LVL=0
      00000B69H   SYMBOL    EDATA    INT       spi_n
      00000B6BH   SYMBOL    EDATA    INT       sck_pin
      00000B6DH   SYMBOL    EDATA    INT       mosi_pin
      00000B6FH   SYMBOL    EDATA    INT       miso_pin
      00000B71H   SYMBOL    EDATA    BYTE      mode
      00000B72H   SYMBOL    EDATA    INT       mstr
      00000B74H   SYMBOL    EDATA    INT       baud
      00FF5C05H   LINE      CODE     ---       #39
      00FF5C19H   LINE      CODE     ---       #48
      00FF5C25H   LINE      CODE     ---       #50
      00FF5C34H   LINE      CODE     ---       #51
      00FF5C34H   LINE      CODE     ---       #53
      00FF5C40H   LINE      CODE     ---       #55
      00FF5C4FH   LINE      CODE     ---       #56
      00FF5C4FH   LINE      CODE     ---       #58
      00FF5C5BH   LINE      CODE     ---       #60
      00FF5C6AH   LINE      CODE     ---       #61
      00FF5C6AH   LINE      CODE     ---       #64
      00FF5C6DH   LINE      CODE     ---       #65
      00FF5C83H   LINE      CODE     ---       #67
      00FF5C83H   LINE      CODE     ---       #68
L251 LINKER/LOCATER V4.66.93.0                                                        11/01/2024  21:35:45  PAGE 47


      00FF5C87H   LINE      CODE     ---       #69
      00FF5C89H   LINE      CODE     ---       #70
      00FF5C89H   LINE      CODE     ---       #71
      00FF5C8CH   LINE      CODE     ---       #72
      00FF5C8EH   LINE      CODE     ---       #73
      00FF5C8EH   LINE      CODE     ---       #74
      00FF5C91H   LINE      CODE     ---       #75
      00FF5C93H   LINE      CODE     ---       #76
      00FF5C93H   LINE      CODE     ---       #77
      00FF5C96H   LINE      CODE     ---       #78
      00FF5C96H   LINE      CODE     ---       #79
      00FF5C96H   LINE      CODE     ---       #81
      00FF5C99H   LINE      CODE     ---       #82
      00FF5CA8H   LINE      CODE     ---       #84
      00FF5CA8H   LINE      CODE     ---       #86
      00FF5CAAH   LINE      CODE     ---       #87
      00FF5CAAH   LINE      CODE     ---       #88
      00FF5CADH   LINE      CODE     ---       #89
      00FF5CAFH   LINE      CODE     ---       #90
      00FF5CAFH   LINE      CODE     ---       #91
      00FF5CB2H   LINE      CODE     ---       #92
      00FF5CB4H   LINE      CODE     ---       #93
      00FF5CB4H   LINE      CODE     ---       #94
      00FF5CB7H   LINE      CODE     ---       #95
      00FF5CB7H   LINE      CODE     ---       #96
      00FF5CB7H   LINE      CODE     ---       #99
      00FF5CBFH   LINE      CODE     ---       #101
      00FF5CC9H   LINE      CODE     ---       #103
      00FF5CCCH   LINE      CODE     ---       #104
      00FF5CCFH   LINE      CODE     ---       #105
      00FF5CCFH   LINE      CODE     ---       #109
      00FF5CCFH   LINE      CODE     ---       #110
      00FF5CD2H   LINE      CODE     ---       #111
      ---         BLOCKEND  ---      ---       LVL=0

      00FF7050H   BLOCK     CODE     ---       LVL=0
      000010D4H   SYMBOL    EDATA    BYTE      dat
      00FF7050H   LINE      CODE     ---       #121
      00FF7054H   LINE      CODE     ---       #123
      00FF7056H   LINE      CODE     ---       #124
      00FF705BH   LINE      CODE     ---       #125
      00FF705FH   LINE      CODE     ---       #126
      00FF7061H   LINE      CODE     ---       #127
      ---         BLOCKEND  ---      ---       LVL=0
      00001084H   SYMBOL    EDATA    INT       spi_n
      000010D5H   SYMBOL    EDATA    BYTE      mode

      ---         MODULE    ---      ---       zf_tim
      000000D0H   SFRSYM    DATA     BYTE      PSW
      0000009DH   SFRSYM    DATA     BYTE      IRCBAND
      00000097H   SFRSYM    DATA     BYTE      AUXR2
      000000EFH   SFRSYM    DATA     BYTE      AUXINTIF
      000000FDH   SFRSYM    DATA     BYTE      S4CON
      000000ACH   SFRSYM    DATA     BYTE      S3CON
      0000009AH   SFRSYM    DATA     BYTE      S2CON
      000000B7H   SFRSYM    DATA     BYTE      IPH
      000000CDH   SFRSYM    DATA     BYTE      SPSTAT
      000000DDH   SFRSYM    DATA     BYTE      T4T3M
      000000C1H   SFRSYM    DATA     BYTE      WDT_CONTR
      00000088H.6 SFRSYM    DATA     BIT       TR1
      00000088H.4 SFRSYM    DATA     BIT       TR0
      000000D3H   SFRSYM    DATA     BYTE      T4L
      000000D5H   SFRSYM    DATA     BYTE      T3L
      000000D7H   SFRSYM    DATA     BYTE      T2L
      0000008BH   SFRSYM    DATA     BYTE      TL1
L251 LINKER/LOCATER V4.66.93.0                                                        11/01/2024  21:35:45  PAGE 48


      0000008AH   SFRSYM    DATA     BYTE      TL0
      000000D2H   SFRSYM    DATA     BYTE      T4H
      000000D4H   SFRSYM    DATA     BYTE      T3H
      000000D6H   SFRSYM    DATA     BYTE      T2H
      0000008DH   SFRSYM    DATA     BYTE      TH1
      0000008CH   SFRSYM    DATA     BYTE      TH0
      000000DFH   SFRSYM    DATA     BYTE      IP3
      000000F4H   SFRSYM    DATA     BYTE      USBCON
      000000B5H   SFRSYM    DATA     BYTE      IP2
      000000FFH   SFRSYM    DATA     BYTE      RSTCFG
      000000A8H.3 SFRSYM    DATA     BIT       ET1
      000000A8H.1 SFRSYM    DATA     BIT       ET0
      000000C7H   SFRSYM    DATA     BYTE      IAP_CONTR
      000000F9H   SFRSYM    DATA     BYTE      LINICR
      0000008EH   SFRSYM    DATA     BYTE      AUXR
      000000AFH   SFRSYM    DATA     BYTE      IE2
      00000088H   SFRSYM    DATA     BYTE      TCON
      00000089H   SFRSYM    DATA     BYTE      TMOD
      00000098H   SFRSYM    DATA     BYTE      SCON
      000000F1H   SFRSYM    DATA     BYTE      CANICR
      00000087H   SFRSYM    DATA     BYTE      PCON
      000000BCH   SFRSYM    DATA     BYTE      ADC_CONTR
      000000E7H   SFRSYM    DATA     BYTE      CMPCR2
      000000E6H   SFRSYM    DATA     BYTE      CMPCR1
      000000DEH   SFRSYM    DATA     BYTE      ADCCFG
      000000B8H   SFRSYM    DATA     BYTE      IP
      0000008FH   SFRSYM    DATA     BYTE      INTCLKO
      000000EEH   SFRSYM    DATA     BYTE      IP3H
      000000B6H   SFRSYM    DATA     BYTE      IP2H
      000000A8H   SFRSYM    DATA     BYTE      IE
      000000BBH   SFRSYM    DATA     BYTE      P_SW3
      000000BAH   SFRSYM    DATA     BYTE      P_SW2
      000000A2H   SFRSYM    DATA     BYTE      P_SW1
      000000CEH   SFRSYM    DATA     BYTE      SPCTL
      000000F8H   SFRSYM    DATA     BYTE      P7
      000000E8H   SFRSYM    DATA     BYTE      P6
      000000C8H   SFRSYM    DATA     BYTE      P5
      000000C0H   SFRSYM    DATA     BYTE      P4
      000000B0H   SFRSYM    DATA     BYTE      P3
      000000A0H   SFRSYM    DATA     BYTE      P2
      00000090H   SFRSYM    DATA     BYTE      P1
      00000080H   SFRSYM    DATA     BYTE      P0
      00001086H   SYMBOL    EDATA    INT       tim_n
      00000FECH   SYMBOL    EDATA    INT       tim_n
      00000FEEH   SYMBOL    EDATA    WORD      dat
      00001088H   SYMBOL    EDATA    INT       tim_n
      00000F04H   SYMBOL    EDATA    INT       tim_n
      00000F06H   SYMBOL    EDATA    WORD      time_ms
      00000F08H   SYMBOL    EDATA    WORD      temp

      ---         MODULE    ---      ---       zf_uart
      00FF5FD9H   PUBLIC    CODE     ---       uart_putchar
      00FF53F4H   PUBLIC    CODE     ---       uart_init
      00000FA6H   PUBLIC    EDATA    ---       busy
      00000B15H   PUBLIC    EDATA    BYTE      ?uart_init?BYTE
      00000CA8H   PUBLIC    EDATA    BYTE      ?uart_putbuff?BYTE
      000000D0H   SFRSYM    DATA     BYTE      PSW
      0000009DH   SFRSYM    DATA     BYTE      IRCBAND
      00000097H   SFRSYM    DATA     BYTE      AUXR2
      000000EFH   SFRSYM    DATA     BYTE      AUXINTIF
      000000FDH   SFRSYM    DATA     BYTE      S4CON
      000000ACH   SFRSYM    DATA     BYTE      S3CON
      0000009AH   SFRSYM    DATA     BYTE      S2CON
      000000FEH   SFRSYM    DATA     BYTE      S4BUF
      000000ADH   SFRSYM    DATA     BYTE      S3BUF
L251 LINKER/LOCATER V4.66.93.0                                                        11/01/2024  21:35:45  PAGE 49


      0000009BH   SFRSYM    DATA     BYTE      S2BUF
      000000B7H   SFRSYM    DATA     BYTE      IPH
      000000CDH   SFRSYM    DATA     BYTE      SPSTAT
      000000DDH   SFRSYM    DATA     BYTE      T4T3M
      000000C1H   SFRSYM    DATA     BYTE      WDT_CONTR
      00000088H.6 SFRSYM    DATA     BIT       TR1
      000000D3H   SFRSYM    DATA     BYTE      T4L
      000000D5H   SFRSYM    DATA     BYTE      T3L
      000000D7H   SFRSYM    DATA     BYTE      T2L
      0000008BH   SFRSYM    DATA     BYTE      TL1
      000000D2H   SFRSYM    DATA     BYTE      T4H
      000000D4H   SFRSYM    DATA     BYTE      T3H
      000000D6H   SFRSYM    DATA     BYTE      T2H
      0000008DH   SFRSYM    DATA     BYTE      TH1
      000000DFH   SFRSYM    DATA     BYTE      IP3
      000000F4H   SFRSYM    DATA     BYTE      USBCON
      000000B5H   SFRSYM    DATA     BYTE      IP2
      000000FFH   SFRSYM    DATA     BYTE      RSTCFG
      000000C7H   SFRSYM    DATA     BYTE      IAP_CONTR
      000000F9H   SFRSYM    DATA     BYTE      LINICR
      0000008EH   SFRSYM    DATA     BYTE      AUXR
      000000AFH   SFRSYM    DATA     BYTE      IE2
      00000088H   SFRSYM    DATA     BYTE      TCON
      00000089H   SFRSYM    DATA     BYTE      TMOD
      00000098H   SFRSYM    DATA     BYTE      SCON
      000000F1H   SFRSYM    DATA     BYTE      CANICR
      00000087H   SFRSYM    DATA     BYTE      PCON
      00000099H   SFRSYM    DATA     BYTE      SBUF
      000000BCH   SFRSYM    DATA     BYTE      ADC_CONTR
      000000E7H   SFRSYM    DATA     BYTE      CMPCR2
      000000E6H   SFRSYM    DATA     BYTE      CMPCR1
      000000DEH   SFRSYM    DATA     BYTE      ADCCFG
      000000B8H   SFRSYM    DATA     BYTE      IP
      000000A8H.4 SFRSYM    DATA     BIT       ES
      0000008FH   SFRSYM    DATA     BYTE      INTCLKO
      000000EEH   SFRSYM    DATA     BYTE      IP3H
      000000B6H   SFRSYM    DATA     BYTE      IP2H
      000000A8H   SFRSYM    DATA     BYTE      IE
      000000BBH   SFRSYM    DATA     BYTE      P_SW3
      000000BAH   SFRSYM    DATA     BYTE      P_SW2
      000000A2H   SFRSYM    DATA     BYTE      P_SW1
      000000CEH   SFRSYM    DATA     BYTE      SPCTL
      000000F8H   SFRSYM    DATA     BYTE      P7
      000000E8H   SFRSYM    DATA     BYTE      P6
      000000C8H   SFRSYM    DATA     BYTE      P5
      000000C0H   SFRSYM    DATA     BYTE      P4
      000000C9H   SFRSYM    DATA     BYTE      P5M1
      000000B0H   SFRSYM    DATA     BYTE      P3
      000000CAH   SFRSYM    DATA     BYTE      P5M0
      000000A0H   SFRSYM    DATA     BYTE      P2
      00000090H   SFRSYM    DATA     BYTE      P1
      00000080H   SFRSYM    DATA     BYTE      P0

      00FF53F4H   BLOCK     CODE     ---       LVL=0
      00000B15H   SYMBOL    EDATA    INT       uart_n
      00000B17H   SYMBOL    EDATA    INT       uart_rx_pin
      00000B19H   SYMBOL    EDATA    INT       uart_tx_pin
      00000B1BH   SYMBOL    EDATA    DWORD     baud
      00000B1FH   SYMBOL    EDATA    INT       tim_n
      00FF5404H   BLOCK     CODE     NEAR LAB  LVL=1
      00000B21H   SYMBOL    EDATA    WORD      brt
      ---         BLOCKEND  ---      ---       LVL=1
      00FF53F4H   LINE      CODE     ---       #45
      00FF5404H   LINE      CODE     ---       #46
      00FF5404H   LINE      CODE     ---       #49
L251 LINKER/LOCATER V4.66.93.0                                                        11/01/2024  21:35:45  PAGE 50


      00FF542BH   LINE      CODE     ---       #52
      00FF544DH   LINE      CODE     ---       #54
      00FF544DH   LINE      CODE     ---       #56
      00FF5459H   LINE      CODE     ---       #58
      00FF545CH   LINE      CODE     ---       #59
      00FF5460H   LINE      CODE     ---       #60
      00FF5466H   LINE      CODE     ---       #61
      00FF5470H   LINE      CODE     ---       #62
      00FF5473H   LINE      CODE     ---       #63
      00FF5476H   LINE      CODE     ---       #64
      00FF547BH   LINE      CODE     ---       #65
      00FF547DH   LINE      CODE     ---       #66
      00FF5489H   LINE      CODE     ---       #68
      00FF548CH   LINE      CODE     ---       #69
      00FF5492H   LINE      CODE     ---       #70
      00FF549CH   LINE      CODE     ---       #71
      00FF549FH   LINE      CODE     ---       #72
      00FF549FH   LINE      CODE     ---       #73
      00FF54A2H   LINE      CODE     ---       #74
      00FF54B8H   LINE      CODE     ---       #76
      00FF54BCH   LINE      CODE     ---       #77
      00FF54BEH   LINE      CODE     ---       #78
      00FF54D6H   LINE      CODE     ---       #80
      00FF54D9H   LINE      CODE     ---       #81
      00FF54DBH   LINE      CODE     ---       #82
      00FF54F3H   LINE      CODE     ---       #84
      00FF54F6H   LINE      CODE     ---       #85
      00FF54F8H   LINE      CODE     ---       #86
      00FF5510H   LINE      CODE     ---       #88
      00FF5513H   LINE      CODE     ---       #89
      00FF5513H   LINE      CODE     ---       #90
      00FF5518H   LINE      CODE     ---       #91
      00FF551BH   LINE      CODE     ---       #92
      00FF551EH   LINE      CODE     ---       #95
      00FF551EH   LINE      CODE     ---       #97
      00FF552AH   LINE      CODE     ---       #99
      00FF552DH   LINE      CODE     ---       #100
      00FF5533H   LINE      CODE     ---       #101
      00FF553DH   LINE      CODE     ---       #102
      00FF5540H   LINE      CODE     ---       #103
      00FF5540H   LINE      CODE     ---       #105
      00FF5543H   LINE      CODE     ---       #106
      00FF555BH   LINE      CODE     ---       #108
      00FF555FH   LINE      CODE     ---       #109
      00FF5561H   LINE      CODE     ---       #110
      00FF5579H   LINE      CODE     ---       #112
      00FF557CH   LINE      CODE     ---       #113
      00FF557CH   LINE      CODE     ---       #115
      00FF557FH   LINE      CODE     ---       #116
      00FF5584H   LINE      CODE     ---       #117
      00FF5587H   LINE      CODE     ---       #120
      00FF5587H   LINE      CODE     ---       #122
      00FF5593H   LINE      CODE     ---       #124
      00FF5596H   LINE      CODE     ---       #125
      00FF559CH   LINE      CODE     ---       #126
      00FF55A6H   LINE      CODE     ---       #127
      00FF55A9H   LINE      CODE     ---       #128
      00FF55ABH   LINE      CODE     ---       #129
      00FF55B7H   LINE      CODE     ---       #131
      00FF55BAH   LINE      CODE     ---       #132
      00FF55C0H   LINE      CODE     ---       #133
      00FF55CAH   LINE      CODE     ---       #134
      00FF55CDH   LINE      CODE     ---       #135
      00FF55CDH   LINE      CODE     ---       #137
      00FF55D0H   LINE      CODE     ---       #138
L251 LINKER/LOCATER V4.66.93.0                                                        11/01/2024  21:35:45  PAGE 51


      00FF55E8H   LINE      CODE     ---       #140
      00FF55ECH   LINE      CODE     ---       #141
      00FF55EEH   LINE      CODE     ---       #142
      00FF5606H   LINE      CODE     ---       #144
      00FF5609H   LINE      CODE     ---       #145
      00FF5609H   LINE      CODE     ---       #147
      00FF560CH   LINE      CODE     ---       #148
      00FF5611H   LINE      CODE     ---       #149
      00FF5614H   LINE      CODE     ---       #152
      00FF5614H   LINE      CODE     ---       #154
      00FF5620H   LINE      CODE     ---       #156
      00FF5623H   LINE      CODE     ---       #157
      00FF5629H   LINE      CODE     ---       #158
      00FF5633H   LINE      CODE     ---       #159
      00FF5637H   LINE      CODE     ---       #160
      00FF5639H   LINE      CODE     ---       #161
      00FF5645H   LINE      CODE     ---       #163
      00FF5648H   LINE      CODE     ---       #164
      00FF564EH   LINE      CODE     ---       #165
      00FF5658H   LINE      CODE     ---       #166
      00FF565BH   LINE      CODE     ---       #167
      00FF565BH   LINE      CODE     ---       #169
      00FF565EH   LINE      CODE     ---       #170
      00FF5676H   LINE      CODE     ---       #172
      00FF567AH   LINE      CODE     ---       #173
      00FF567CH   LINE      CODE     ---       #174
      00FF5694H   LINE      CODE     ---       #176
      00FF5697H   LINE      CODE     ---       #177
      00FF569BH   LINE      CODE     ---       #178
      00FF569EH   LINE      CODE     ---       #179
      00FF569EH   LINE      CODE     ---       #180
      00FF56A1H   LINE      CODE     ---       #181
      00FF56A6H   LINE      CODE     ---       #182
      00FF56A6H   LINE      CODE     ---       #185
      00FF56A6H   LINE      CODE     ---       #187
      ---         BLOCKEND  ---      ---       LVL=0

      00FF5FD9H   BLOCK     CODE     ---       LVL=0
      00001048H   SYMBOL    EDATA    INT       uart_n
      0000104AH   SYMBOL    EDATA    BYTE      dat
      00FF5FD9H   LINE      CODE     ---       #196
      00FF5FE1H   LINE      CODE     ---       #198
      00FF5FF3H   LINE      CODE     ---       #200
      00FF5FF3H   LINE      CODE     ---       #201
      00FF5FFCH   LINE      CODE     ---       #202
      00FF6002H   LINE      CODE     ---       #203
      00FF6008H   LINE      CODE     ---       #204
      00FF600AH   LINE      CODE     ---       #205
      00FF600AH   LINE      CODE     ---       #206
      00FF6013H   LINE      CODE     ---       #207
      00FF6019H   LINE      CODE     ---       #208
      00FF601FH   LINE      CODE     ---       #209
      00FF6021H   LINE      CODE     ---       #210
      00FF6021H   LINE      CODE     ---       #211
      00FF602AH   LINE      CODE     ---       #212
      00FF6030H   LINE      CODE     ---       #213
      00FF6036H   LINE      CODE     ---       #214
      00FF6038H   LINE      CODE     ---       #215
      00FF6038H   LINE      CODE     ---       #216
      00FF6041H   LINE      CODE     ---       #217
      00FF6047H   LINE      CODE     ---       #218
      00FF604DH   LINE      CODE     ---       #219
      00FF604DH   LINE      CODE     ---       #220
      00FF604DH   LINE      CODE     ---       #221
      ---         BLOCKEND  ---      ---       LVL=0
L251 LINKER/LOCATER V4.66.93.0                                                        11/01/2024  21:35:45  PAGE 52


      00000CA8H   SYMBOL    EDATA    INT       uart_n
      00000CAAH   SYMBOL    EDATA    ---       p
      00000CAEH   SYMBOL    EDATA    DWORD     len
      00000F0AH   SYMBOL    EDATA    INT       uart_n
      00000F0CH   SYMBOL    EDATA    ---       str

      ---         MODULE    ---      ---       zf_fifo
      00FF4D56H   PUBLIC    CODE     ---       fifo_write_buffer
      00000A6EH   PUBLIC    EDATA    BYTE      ?fifo_write_buffer?BYTE
      00000B90H   PUBLIC    EDATA    BYTE      ?fifo_read_element?BYTE
      000009D7H   PUBLIC    EDATA    BYTE      ?fifo_read_buffer?BYTE
      000009EFH   PUBLIC    EDATA    BYTE      ?fifo_read_tail_buffer?BYTE
      00000AD8H   PUBLIC    EDATA    BYTE      ?fifo_init?BYTE
      000000D0H   SFRSYM    DATA     BYTE      PSW
      0000009DH   SFRSYM    DATA     BYTE      IRCBAND
      00000097H   SFRSYM    DATA     BYTE      AUXR2
      000000EFH   SFRSYM    DATA     BYTE      AUXINTIF
      000000FDH   SFRSYM    DATA     BYTE      S4CON
      000000ACH   SFRSYM    DATA     BYTE      S3CON
      0000009AH   SFRSYM    DATA     BYTE      S2CON
      000000B7H   SFRSYM    DATA     BYTE      IPH
      000000CDH   SFRSYM    DATA     BYTE      SPSTAT
      000000DDH   SFRSYM    DATA     BYTE      T4T3M
      000000C1H   SFRSYM    DATA     BYTE      WDT_CONTR
      000000DFH   SFRSYM    DATA     BYTE      IP3
      000000F4H   SFRSYM    DATA     BYTE      USBCON
      000000B5H   SFRSYM    DATA     BYTE      IP2
      000000FFH   SFRSYM    DATA     BYTE      RSTCFG
      000000C7H   SFRSYM    DATA     BYTE      IAP_CONTR
      000000F9H   SFRSYM    DATA     BYTE      LINICR
      0000008EH   SFRSYM    DATA     BYTE      AUXR
      000000AFH   SFRSYM    DATA     BYTE      IE2
      00000088H   SFRSYM    DATA     BYTE      TCON
      00000089H   SFRSYM    DATA     BYTE      TMOD
      00000098H   SFRSYM    DATA     BYTE      SCON
      000000F1H   SFRSYM    DATA     BYTE      CANICR
      00000087H   SFRSYM    DATA     BYTE      PCON
      000000BCH   SFRSYM    DATA     BYTE      ADC_CONTR
      000000E7H   SFRSYM    DATA     BYTE      CMPCR2
      000000E6H   SFRSYM    DATA     BYTE      CMPCR1
      000000DEH   SFRSYM    DATA     BYTE      ADCCFG
      000000B8H   SFRSYM    DATA     BYTE      IP
      0000008FH   SFRSYM    DATA     BYTE      INTCLKO
      000000EEH   SFRSYM    DATA     BYTE      IP3H
      000000B6H   SFRSYM    DATA     BYTE      IP2H
      000000A8H   SFRSYM    DATA     BYTE      IE
      000000BBH   SFRSYM    DATA     BYTE      P_SW3
      000000BAH   SFRSYM    DATA     BYTE      P_SW2
      000000A2H   SFRSYM    DATA     BYTE      P_SW1
      000000CEH   SFRSYM    DATA     BYTE      SPCTL
      000000F8H   SFRSYM    DATA     BYTE      P7
      000000E8H   SFRSYM    DATA     BYTE      P6
      000000C8H   SFRSYM    DATA     BYTE      P5
      000000C0H   SFRSYM    DATA     BYTE      P4
      000000B0H   SFRSYM    DATA     BYTE      P3
      000000A0H   SFRSYM    DATA     BYTE      P2
      00000090H   SFRSYM    DATA     BYTE      P1
      00000080H   SFRSYM    DATA     BYTE      P0
      00FF604EH   SYMBOL    CODE     ---       fifo_head_offset

      00FF604EH   BLOCK     CODE     ---       LVL=0
      00000E1CH   SYMBOL    EDATA    ---       fifo
      00000E20H   SYMBOL    EDATA    DWORD     offset
      00FF604EH   LINE      CODE     ---       #42
      00FF6056H   LINE      CODE     ---       #44
L251 LINKER/LOCATER V4.66.93.0                                                        11/01/2024  21:35:45  PAGE 53


      00FF6072H   LINE      CODE     ---       #46
      00FF6074H   LINE      CODE     ---       #48
      00FF609BH   LINE      CODE     ---       #49
      00FF60BDH   LINE      CODE     ---       #50
      ---         BLOCKEND  ---      ---       LVL=0
      00000E24H   SYMBOL    EDATA    ---       fifo
      00000E28H   SYMBOL    EDATA    DWORD     offset
      00000F10H   SYMBOL    EDATA    ---       fifo
      00000F14H   SYMBOL    EDATA    INT       return_state
      00000FF0H   SYMBOL    EDATA    ---       fifo
      00000CB2H   SYMBOL    EDATA    ---       fifo
      00000CB6H   SYMBOL    EDATA    DWORD     dat
      00000CBAH   SYMBOL    EDATA    INT       return_state

      00FF4D56H   BLOCK     CODE     ---       LVL=0
      00000A6EH   SYMBOL    EDATA    ---       fifo
      00000A72H   SYMBOL    EDATA    ---       dat
      00000A76H   SYMBOL    EDATA    DWORD     length
      00FF4D5EH   BLOCK     CODE     NEAR LAB  LVL=1
      00000A7AH   SYMBOL    EDATA    INT       return_state
      00000A7CH   SYMBOL    EDATA    DWORD     temp_length
      ---         BLOCKEND  ---      ---       LVL=1
      00FF4D56H   LINE      CODE     ---       #168
      00FF4D5EH   LINE      CODE     ---       #169
      00FF4D5EH   LINE      CODE     ---       #171
      00FF4D64H   LINE      CODE     ---       #172
      00FF4D6AH   LINE      CODE     ---       #174
      00FF4D6AH   LINE      CODE     ---       #176
      00FF4D72H   LINE      CODE     ---       #178
      00FF4D7AH   LINE      CODE     ---       #179
      00FF4D7DH   LINE      CODE     ---       #180
      00FF4D7DH   LINE      CODE     ---       #181
      00FF4D92H   LINE      CODE     ---       #183
      00FF4D9AH   LINE      CODE     ---       #184
      00FF4D9DH   LINE      CODE     ---       #185
      00FF4D9DH   LINE      CODE     ---       #186
      00FF4DABH   LINE      CODE     ---       #188
      00FF4DC5H   LINE      CODE     ---       #190
      00FF4DE9H   LINE      CODE     ---       #192
      00FF4DF8H   LINE      CODE     ---       #194
      00FF4E16H   LINE      CODE     ---       #196
      00FF4E16H   LINE      CODE     ---       #198
      00FF4E45H   LINE      CODE     ---       #201
      00FF4E50H   LINE      CODE     ---       #202
      00FF4E8DH   LINE      CODE     ---       #206
      00FF4E9EH   LINE      CODE     ---       #207
      00FF4EA1H   LINE      CODE     ---       #208
      00FF4EA1H   LINE      CODE     ---       #210
      00FF4ED4H   LINE      CODE     ---       #213
      00FF4EDFH   LINE      CODE     ---       #214
      00FF4F22H   LINE      CODE     ---       #218
      00FF4F33H   LINE      CODE     ---       #219
      00FF4F36H   LINE      CODE     ---       #220
      00FF4F36H   LINE      CODE     ---       #222
      00FF4F6DH   LINE      CODE     ---       #225
      00FF4F78H   LINE      CODE     ---       #226
      00FF4FC1H   LINE      CODE     ---       #230
      00FF4FD2H   LINE      CODE     ---       #231
      00FF4FD2H   LINE      CODE     ---       #232
      00FF4FD2H   LINE      CODE     ---       #233
      00FF4FD5H   LINE      CODE     ---       #236
      00FF4FF0H   LINE      CODE     ---       #238
      00FF4FF0H   LINE      CODE     ---       #240
      00FF501FH   LINE      CODE     ---       #243
      00FF502AH   LINE      CODE     ---       #244
L251 LINKER/LOCATER V4.66.93.0                                                        11/01/2024  21:35:45  PAGE 54


      00FF502DH   LINE      CODE     ---       #245
      00FF502DH   LINE      CODE     ---       #247
      00FF5060H   LINE      CODE     ---       #250
      00FF506BH   LINE      CODE     ---       #251
      00FF506DH   LINE      CODE     ---       #252
      00FF506DH   LINE      CODE     ---       #254
      00FF50A4H   LINE      CODE     ---       #257
      00FF50AFH   LINE      CODE     ---       #258
      00FF50AFH   LINE      CODE     ---       #259
      00FF50AFH   LINE      CODE     ---       #260
      00FF50AFH   LINE      CODE     ---       #262
      00FF50CBH   LINE      CODE     ---       #263
      00FF50CDH   LINE      CODE     ---       #266
      00FF50D5H   LINE      CODE     ---       #267
      00FF50D5H   LINE      CODE     ---       #268
      00FF50E3H   LINE      CODE     ---       #269
      00FF50E3H   LINE      CODE     ---       #271
      00FF50E7H   LINE      CODE     ---       #272
      ---         BLOCKEND  ---      ---       LVL=0
      00000B90H   SYMBOL    EDATA    ---       fifo
      00000B94H   SYMBOL    EDATA    ---       dat
      00000B98H   SYMBOL    EDATA    INT       flag
      00000B9AH   SYMBOL    EDATA    INT       return_state
      000009D7H   SYMBOL    EDATA    ---       fifo
      000009DBH   SYMBOL    EDATA    ---       dat
      000009DFH   SYMBOL    EDATA    ---       length
      000009E3H   SYMBOL    EDATA    INT       flag
      000009E5H   SYMBOL    EDATA    INT       return_state
      000009E7H   SYMBOL    EDATA    DWORD     temp_length
      000009EBH   SYMBOL    EDATA    DWORD     fifo_data_length
      000009EFH   SYMBOL    EDATA    ---       fifo
      000009F3H   SYMBOL    EDATA    ---       dat
      000009F7H   SYMBOL    EDATA    ---       length
      000009FBH   SYMBOL    EDATA    INT       flag
      000009FDH   SYMBOL    EDATA    INT       return_state
      000009FFH   SYMBOL    EDATA    DWORD     temp_length
      00000A03H   SYMBOL    EDATA    DWORD     fifo_data_length
      00000AD8H   SYMBOL    EDATA    ---       fifo
      00000ADCH   SYMBOL    EDATA    INT       type
      00000ADEH   SYMBOL    EDATA    ---       buffer_addr
      00000AE2H   SYMBOL    EDATA    DWORD     len
      00000AE6H   SYMBOL    EDATA    INT       return_state

      ---         MODULE    ---      ---       SEEKFREE_18TFT
      00FF6742H   PUBLIC    CODE     ---       lcd_writeIndex_simspi
      00FF678EH   PUBLIC    CODE     ---       lcd_writeData_simspi
      00FF6F48H   PUBLIC    CODE     ---       lcd_writeIndex
      00FF6F5DH   PUBLIC    CODE     ---       lcd_writeData
      00FF6553H   PUBLIC    CODE     ---       lcd_writeData_16bit_simspi
      00FF62D3H   PUBLIC    CODE     ---       lcd_set_region_simspi
      00FF6337H   PUBLIC    CODE     ---       lcd_set_region
      00FF6C45H   PUBLIC    CODE     ---       lcd_writedata_16bit
      000005FDH   PUBLIC    EDATA    BYTE      ?lcd_showfloat_simspi?BYTE
      0000062DH   PUBLIC    EDATA    BYTE      ?lcd_showfloat?BYTE
      000000D0H   SFRSYM    DATA     BYTE      PSW
      0000009DH   SFRSYM    DATA     BYTE      IRCBAND
      00000097H   SFRSYM    DATA     BYTE      AUXR2
      000000EFH   SFRSYM    DATA     BYTE      AUXINTIF
      000000FDH   SFRSYM    DATA     BYTE      S4CON
      000000ACH   SFRSYM    DATA     BYTE      S3CON
      0000009AH   SFRSYM    DATA     BYTE      S2CON
      000000B7H   SFRSYM    DATA     BYTE      IPH
      000000CDH   SFRSYM    DATA     BYTE      SPSTAT
      000000DDH   SFRSYM    DATA     BYTE      T4T3M
      000000C1H   SFRSYM    DATA     BYTE      WDT_CONTR
L251 LINKER/LOCATER V4.66.93.0                                                        11/01/2024  21:35:45  PAGE 55


      000000DFH   SFRSYM    DATA     BYTE      IP3
      000000F4H   SFRSYM    DATA     BYTE      USBCON
      000000B5H   SFRSYM    DATA     BYTE      IP2
      000000FFH   SFRSYM    DATA     BYTE      RSTCFG
      000000C7H   SFRSYM    DATA     BYTE      IAP_CONTR
      000000F9H   SFRSYM    DATA     BYTE      LINICR
      0000008EH   SFRSYM    DATA     BYTE      AUXR
      000000AFH   SFRSYM    DATA     BYTE      IE2
      000000A0H.5 SFRSYM    DATA     BIT       P25
      00000088H   SFRSYM    DATA     BYTE      TCON
      00000089H   SFRSYM    DATA     BYTE      TMOD
      000000A0H.3 SFRSYM    DATA     BIT       P23
      00000098H   SFRSYM    DATA     BYTE      SCON
      000000A0H.2 SFRSYM    DATA     BIT       P22
      000000A0H.1 SFRSYM    DATA     BIT       P21
      000000A0H.0 SFRSYM    DATA     BIT       P20
      000000F1H   SFRSYM    DATA     BYTE      CANICR
      00000087H   SFRSYM    DATA     BYTE      PCON
      000000BCH   SFRSYM    DATA     BYTE      ADC_CONTR
      000000E7H   SFRSYM    DATA     BYTE      CMPCR2
      000000E6H   SFRSYM    DATA     BYTE      CMPCR1
      000000DEH   SFRSYM    DATA     BYTE      ADCCFG
      000000B8H   SFRSYM    DATA     BYTE      IP
      0000008FH   SFRSYM    DATA     BYTE      INTCLKO
      000000EEH   SFRSYM    DATA     BYTE      IP3H
      000000B6H   SFRSYM    DATA     BYTE      IP2H
      000000A8H   SFRSYM    DATA     BYTE      IE
      000000BBH   SFRSYM    DATA     BYTE      P_SW3
      000000BAH   SFRSYM    DATA     BYTE      P_SW2
      000000A2H   SFRSYM    DATA     BYTE      P_SW1
      000000CEH   SFRSYM    DATA     BYTE      SPCTL
      000000F8H   SFRSYM    DATA     BYTE      P7
      000000E8H   SFRSYM    DATA     BYTE      P6
      000000C8H   SFRSYM    DATA     BYTE      P5
      000000C0H   SFRSYM    DATA     BYTE      P4
      000000B0H   SFRSYM    DATA     BYTE      P3
      000000A0H   SFRSYM    DATA     BYTE      P2
      00000090H   SFRSYM    DATA     BYTE      P1
      00000080H   SFRSYM    DATA     BYTE      P0

      00FF6742H   BLOCK     CODE     ---       LVL=0
      0000108AH   SYMBOL    EDATA    BYTE      dat
      00FF6746H   BLOCK     CODE     NEAR LAB  LVL=1
      0000108BH   SYMBOL    EDATA    BYTE      i
      ---         BLOCKEND  ---      ---       LVL=1
      00FF6742H   LINE      CODE     ---       #60
      00FF6746H   LINE      CODE     ---       #61
      00FF6746H   LINE      CODE     ---       #62
      00FF674CH   LINE      CODE     ---       #64
      00FF674FH   LINE      CODE     ---       #65
      00FF6752H   LINE      CODE     ---       #66
      00FF6755H   LINE      CODE     ---       #68
      00FF6757H   LINE      CODE     ---       #70
      00FF6763H   LINE      CODE     ---       #71
      00FF6766H   LINE      CODE     ---       #72
      00FF6769H   LINE      CODE     ---       #74
      00FF676CH   LINE      CODE     ---       #75
      00FF6776H   LINE      CODE     ---       #76
      00FF678AH   LINE      CODE     ---       #77
      00FF678DH   LINE      CODE     ---       #78
      ---         BLOCKEND  ---      ---       LVL=0

      00FF678EH   BLOCK     CODE     ---       LVL=0
      0000108CH   SYMBOL    EDATA    BYTE      dat
      00FF6792H   BLOCK     CODE     NEAR LAB  LVL=1
L251 LINKER/LOCATER V4.66.93.0                                                        11/01/2024  21:35:45  PAGE 56


      0000108DH   SYMBOL    EDATA    BYTE      i
      ---         BLOCKEND  ---      ---       LVL=1
      00FF678EH   LINE      CODE     ---       #87
      00FF6792H   LINE      CODE     ---       #88
      00FF6792H   LINE      CODE     ---       #89
      00FF6798H   LINE      CODE     ---       #91
      00FF679BH   LINE      CODE     ---       #92
      00FF679EH   LINE      CODE     ---       #93
      00FF67A1H   LINE      CODE     ---       #94
      00FF67A3H   LINE      CODE     ---       #96
      00FF67AFH   LINE      CODE     ---       #97
      00FF67B2H   LINE      CODE     ---       #98
      00FF67B5H   LINE      CODE     ---       #100
      00FF67B8H   LINE      CODE     ---       #101
      00FF67C2H   LINE      CODE     ---       #102
      00FF67D6H   LINE      CODE     ---       #103
      00FF67D9H   LINE      CODE     ---       #104
      ---         BLOCKEND  ---      ---       LVL=0

      00FF6553H   BLOCK     CODE     ---       LVL=0
      0000104BH   SYMBOL    EDATA    WORD      dat
      00FF6557H   BLOCK     CODE     NEAR LAB  LVL=1
      0000104DH   SYMBOL    EDATA    BYTE      i
      ---         BLOCKEND  ---      ---       LVL=1
      00FF6553H   LINE      CODE     ---       #113
      00FF6557H   LINE      CODE     ---       #114
      00FF6557H   LINE      CODE     ---       #115
      00FF655DH   LINE      CODE     ---       #117
      00FF6560H   LINE      CODE     ---       #118
      00FF6563H   LINE      CODE     ---       #119
      00FF6566H   LINE      CODE     ---       #121
      00FF6568H   LINE      CODE     ---       #123
      00FF657DH   LINE      CODE     ---       #124
      00FF6580H   LINE      CODE     ---       #125
      00FF6583H   LINE      CODE     ---       #127
      00FF6586H   LINE      CODE     ---       #128
      00FF6590H   LINE      CODE     ---       #129
      00FF65A4H   LINE      CODE     ---       #131
      00FF65A7H   LINE      CODE     ---       #133
      ---         BLOCKEND  ---      ---       LVL=0

      00FF62D3H   BLOCK     CODE     ---       LVL=0
      00000E2CH   SYMBOL    EDATA    WORD      x_start
      00000E2EH   SYMBOL    EDATA    WORD      y_start
      00000E30H   SYMBOL    EDATA    WORD      x_end
      00000E32H   SYMBOL    EDATA    WORD      y_end
      00FF62D3H   LINE      CODE     ---       #145
      00FF62E3H   LINE      CODE     ---       #163
      00FF62E8H   LINE      CODE     ---       #164
      00FF62ECH   LINE      CODE     ---       #165
      00FF62F9H   LINE      CODE     ---       #166
      00FF62FDH   LINE      CODE     ---       #167
      00FF630AH   LINE      CODE     ---       #169
      00FF630FH   LINE      CODE     ---       #170
      00FF6313H   LINE      CODE     ---       #171
      00FF6320H   LINE      CODE     ---       #172
      00FF6324H   LINE      CODE     ---       #173
      00FF6331H   LINE      CODE     ---       #177
      00FF6336H   LINE      CODE     ---       #178
      ---         BLOCKEND  ---      ---       LVL=0
      00000FF4H   SYMBOL    EDATA    INT       color
      00000FF6H   SYMBOL    EDATA    BYTE      i
      00000FF7H   SYMBOL    EDATA    BYTE      j
      00000F16H   SYMBOL    EDATA    WORD      x
      00000F18H   SYMBOL    EDATA    WORD      y
L251 LINKER/LOCATER V4.66.93.0                                                        11/01/2024  21:35:45  PAGE 57


      00000F1AH   SYMBOL    EDATA    WORD      color
      00000E34H   SYMBOL    EDATA    WORD      x
      00000E36H   SYMBOL    EDATA    WORD      y
      00000E38H   SYMBOL    EDATA    CHAR      dat
      00000E39H   SYMBOL    EDATA    BYTE      i
      00000E3AH   SYMBOL    EDATA    BYTE      j
      00000E3BH   SYMBOL    EDATA    BYTE      temp
      00000CBCH   SYMBOL    EDATA    WORD      x
      00000CBEH   SYMBOL    EDATA    WORD      y
      00000CC0H   SYMBOL    EDATA    ---       dat
      00000CC4H   SYMBOL    EDATA    WORD      j
      00000D2AH   SYMBOL    EDATA    WORD      x
      00000D2CH   SYMBOL    EDATA    WORD      y
      00000D2EH   SYMBOL    EDATA    CHAR      dat
      00000D2FH   SYMBOL    EDATA    ---       a
      00000D32H   SYMBOL    EDATA    BYTE      i
      00000D33H   SYMBOL    EDATA    WORD      x
      00000D35H   SYMBOL    EDATA    WORD      y
      00000D37H   SYMBOL    EDATA    BYTE      dat
      00000D38H   SYMBOL    EDATA    ---       a
      00000D3BH   SYMBOL    EDATA    BYTE      i
      00000B9CH   SYMBOL    EDATA    WORD      x
      00000B9EH   SYMBOL    EDATA    WORD      y
      00000BA0H   SYMBOL    EDATA    INT       dat
      00000BA2H   SYMBOL    EDATA    ---       a
      00000BA7H   SYMBOL    EDATA    BYTE      i
      00000BA8H   SYMBOL    EDATA    WORD      x
      00000BAAH   SYMBOL    EDATA    WORD      y
      00000BACH   SYMBOL    EDATA    WORD      dat
      00000BAEH   SYMBOL    EDATA    ---       a
      00000BB3H   SYMBOL    EDATA    BYTE      i
      0000074CH   SYMBOL    EDATA    WORD      x
      0000074EH   SYMBOL    EDATA    WORD      y
      00000750H   SYMBOL    EDATA    LONG      dat
      00000754H   SYMBOL    EDATA    BYTE      num
      00000755H   SYMBOL    EDATA    ---       buff
      00000777H   SYMBOL    EDATA    BYTE      length
      000005FDH   SYMBOL    EDATA    WORD      x
      000005FFH   SYMBOL    EDATA    WORD      y
      00000601H   SYMBOL    EDATA    FLOAT     dat
      00000605H   SYMBOL    EDATA    BYTE      num
      00000606H   SYMBOL    EDATA    BYTE      pointnum
      00000607H   SYMBOL    EDATA    BYTE      length
      00000608H   SYMBOL    EDATA    ---       buff
      0000062AH   SYMBOL    EDATA    CHAR      start
      0000062BH   SYMBOL    EDATA    CHAR      end
      0000062CH   SYMBOL    EDATA    CHAR      point

      00FF6F48H   BLOCK     CODE     ---       LVL=0
      000010D6H   SYMBOL    EDATA    BYTE      dat
      00FF6F48H   LINE      CODE     ---       #607
      00FF6F4CH   LINE      CODE     ---       #610
      00FF6F4FH   LINE      CODE     ---       #611
      00FF6F52H   LINE      CODE     ---       #612
      00FF6F59H   LINE      CODE     ---       #613
      00FF6F5CH   LINE      CODE     ---       #614
      ---         BLOCKEND  ---      ---       LVL=0

      00FF6F5DH   BLOCK     CODE     ---       LVL=0
      000010D7H   SYMBOL    EDATA    BYTE      dat
      00FF6F5DH   LINE      CODE     ---       #623
      00FF6F61H   LINE      CODE     ---       #625
      00FF6F64H   LINE      CODE     ---       #626
      00FF6F67H   LINE      CODE     ---       #627
      00FF6F6EH   LINE      CODE     ---       #628
L251 LINKER/LOCATER V4.66.93.0                                                        11/01/2024  21:35:45  PAGE 58


      00FF6F71H   LINE      CODE     ---       #629
      ---         BLOCKEND  ---      ---       LVL=0

      00FF6C45H   BLOCK     CODE     ---       LVL=0
      00000FF8H   SYMBOL    EDATA    WORD      dat
      00FF6C49H   BLOCK     CODE     NEAR LAB  LVL=1
      00000FFAH   SYMBOL    EDATA    ---       dat1
      ---         BLOCKEND  ---      ---       LVL=1
      00FF6C45H   LINE      CODE     ---       #638
      00FF6C49H   LINE      CODE     ---       #639
      00FF6C49H   LINE      CODE     ---       #642
      00FF6C4FH   LINE      CODE     ---       #643
      00FF6C57H   LINE      CODE     ---       #645
      00FF6C5AH   LINE      CODE     ---       #646
      00FF6C5DH   LINE      CODE     ---       #647
      00FF6C64H   LINE      CODE     ---       #648
      00FF6C6BH   LINE      CODE     ---       #649
      00FF6C6EH   LINE      CODE     ---       #651
      ---         BLOCKEND  ---      ---       LVL=0

      00FF6337H   BLOCK     CODE     ---       LVL=0
      00000E3CH   SYMBOL    EDATA    WORD      x_start
      00000E3EH   SYMBOL    EDATA    WORD      y_start
      00000E40H   SYMBOL    EDATA    WORD      x_end
      00000E42H   SYMBOL    EDATA    WORD      y_end
      00FF6337H   LINE      CODE     ---       #663
      00FF6347H   LINE      CODE     ---       #681
      00FF634CH   LINE      CODE     ---       #682
      00FF6350H   LINE      CODE     ---       #683
      00FF635DH   LINE      CODE     ---       #684
      00FF6361H   LINE      CODE     ---       #685
      00FF636EH   LINE      CODE     ---       #687
      00FF6373H   LINE      CODE     ---       #688
      00FF6377H   LINE      CODE     ---       #689
      00FF6384H   LINE      CODE     ---       #690
      00FF6388H   LINE      CODE     ---       #691
      00FF6395H   LINE      CODE     ---       #695
      00FF639AH   LINE      CODE     ---       #696
      ---         BLOCKEND  ---      ---       LVL=0
      00000FFCH   SYMBOL    EDATA    INT       color
      00000FFEH   SYMBOL    EDATA    BYTE      i
      00000FFFH   SYMBOL    EDATA    BYTE      j
      00000F1CH   SYMBOL    EDATA    WORD      x
      00000F1EH   SYMBOL    EDATA    WORD      y
      00000F20H   SYMBOL    EDATA    WORD      color
      00000E44H   SYMBOL    EDATA    WORD      x
      00000E46H   SYMBOL    EDATA    WORD      y
      00000E48H   SYMBOL    EDATA    CHAR      dat
      00000E49H   SYMBOL    EDATA    BYTE      i
      00000E4AH   SYMBOL    EDATA    BYTE      j
      00000E4BH   SYMBOL    EDATA    BYTE      temp
      00000CC6H   SYMBOL    EDATA    WORD      x
      00000CC8H   SYMBOL    EDATA    WORD      y
      00000CCAH   SYMBOL    EDATA    ---       dat
      00000CCEH   SYMBOL    EDATA    WORD      j
      00000D3CH   SYMBOL    EDATA    WORD      x
      00000D3EH   SYMBOL    EDATA    WORD      y
      00000D40H   SYMBOL    EDATA    CHAR      dat
      00000D41H   SYMBOL    EDATA    ---       a
      00000D44H   SYMBOL    EDATA    BYTE      i
      00000D45H   SYMBOL    EDATA    WORD      x
      00000D47H   SYMBOL    EDATA    WORD      y
      00000D49H   SYMBOL    EDATA    BYTE      dat
      00000D4AH   SYMBOL    EDATA    ---       a
      00000D4DH   SYMBOL    EDATA    BYTE      i
L251 LINKER/LOCATER V4.66.93.0                                                        11/01/2024  21:35:45  PAGE 59


      00000BB4H   SYMBOL    EDATA    WORD      x
      00000BB6H   SYMBOL    EDATA    WORD      y
      00000BB8H   SYMBOL    EDATA    INT       dat
      00000BBAH   SYMBOL    EDATA    ---       a
      00000BBFH   SYMBOL    EDATA    BYTE      i
      00000BC0H   SYMBOL    EDATA    WORD      x
      00000BC2H   SYMBOL    EDATA    WORD      y
      00000BC4H   SYMBOL    EDATA    WORD      dat
      00000BC6H   SYMBOL    EDATA    ---       a
      00000BCBH   SYMBOL    EDATA    BYTE      i
      00000778H   SYMBOL    EDATA    WORD      x
      0000077AH   SYMBOL    EDATA    WORD      y
      0000077CH   SYMBOL    EDATA    LONG      dat
      00000780H   SYMBOL    EDATA    BYTE      num
      00000781H   SYMBOL    EDATA    ---       buff
      000007A3H   SYMBOL    EDATA    BYTE      length
      0000062DH   SYMBOL    EDATA    WORD      x
      0000062FH   SYMBOL    EDATA    WORD      y
      00000631H   SYMBOL    EDATA    FLOAT     dat
      00000635H   SYMBOL    EDATA    BYTE      num
      00000636H   SYMBOL    EDATA    BYTE      pointnum
      00000637H   SYMBOL    EDATA    BYTE      length
      00000638H   SYMBOL    EDATA    ---       buff
      0000065AH   SYMBOL    EDATA    CHAR      start
      0000065BH   SYMBOL    EDATA    CHAR      end
      0000065CH   SYMBOL    EDATA    CHAR      point
      00000BCCH   SYMBOL    EDATA    ---       p
      00000BD0H   SYMBOL    EDATA    INT       i
      00000BD2H   SYMBOL    EDATA    INT       j
      00000BD4H   SYMBOL    EDATA    INT       k
      00000BD6H   SYMBOL    EDATA    BYTE      picH
      00000BD7H   SYMBOL    EDATA    BYTE      picL

      ---         MODULE    ---      ---       SEEKFREE_BLUETOOTH_CH9141
      000000D0H   SFRSYM    DATA     BYTE      PSW
      0000009DH   SFRSYM    DATA     BYTE      IRCBAND
      00000097H   SFRSYM    DATA     BYTE      AUXR2
      000000EFH   SFRSYM    DATA     BYTE      AUXINTIF
      000000FDH   SFRSYM    DATA     BYTE      S4CON
      000000ACH   SFRSYM    DATA     BYTE      S3CON
      0000009AH   SFRSYM    DATA     BYTE      S2CON
      000000B7H   SFRSYM    DATA     BYTE      IPH
      000000CDH   SFRSYM    DATA     BYTE      SPSTAT
      000000DDH   SFRSYM    DATA     BYTE      T4T3M
      000000C1H   SFRSYM    DATA     BYTE      WDT_CONTR
      000000DFH   SFRSYM    DATA     BYTE      IP3
      000000F4H   SFRSYM    DATA     BYTE      USBCON
      000000B5H   SFRSYM    DATA     BYTE      IP2
      000000FFH   SFRSYM    DATA     BYTE      RSTCFG
      000000C7H   SFRSYM    DATA     BYTE      IAP_CONTR
      000000F9H   SFRSYM    DATA     BYTE      LINICR
      0000008EH   SFRSYM    DATA     BYTE      AUXR
      000000AFH   SFRSYM    DATA     BYTE      IE2
      00000080H.7 SFRSYM    DATA     BIT       P07
      00000088H   SFRSYM    DATA     BYTE      TCON
      00000089H   SFRSYM    DATA     BYTE      TMOD
      00000098H   SFRSYM    DATA     BYTE      SCON
      000000F1H   SFRSYM    DATA     BYTE      CANICR
      00000087H   SFRSYM    DATA     BYTE      PCON
      000000BCH   SFRSYM    DATA     BYTE      ADC_CONTR
      000000E7H   SFRSYM    DATA     BYTE      CMPCR2
      000000E6H   SFRSYM    DATA     BYTE      CMPCR1
      000000DEH   SFRSYM    DATA     BYTE      ADCCFG
      000000B8H   SFRSYM    DATA     BYTE      IP
      0000008FH   SFRSYM    DATA     BYTE      INTCLKO
L251 LINKER/LOCATER V4.66.93.0                                                        11/01/2024  21:35:45  PAGE 60


      000000EEH   SFRSYM    DATA     BYTE      IP3H
      000000B6H   SFRSYM    DATA     BYTE      IP2H
      000000A8H   SFRSYM    DATA     BYTE      IE
      000000BBH   SFRSYM    DATA     BYTE      P_SW3
      000000BAH   SFRSYM    DATA     BYTE      P_SW2
      000000A2H   SFRSYM    DATA     BYTE      P_SW1
      000000CEH   SFRSYM    DATA     BYTE      SPCTL
      000000F8H   SFRSYM    DATA     BYTE      P7
      000000E8H   SFRSYM    DATA     BYTE      P6
      000000C8H   SFRSYM    DATA     BYTE      P5
      000000C0H   SFRSYM    DATA     BYTE      P4
      000000B0H   SFRSYM    DATA     BYTE      P3
      000000A0H   SFRSYM    DATA     BYTE      P2
      00000090H   SFRSYM    DATA     BYTE      P1
      00000080H   SFRSYM    DATA     BYTE      P0
      000004BEH   SYMBOL    EDATA    ---       bluetooth_ch9141_buffer
      000004FEH   SYMBOL    EDATA    BYTE      bluetooth_ch9141_data
      000004FFH   SYMBOL    EDATA    ---       bluetooth_ch9141_fifo
      000010D8H   SYMBOL    EDATA    BYTE      dat
      00000CD0H   SYMBOL    EDATA    ---       buff
      00000CD4H   SYMBOL    EDATA    DWORD     len
      00000CD8H   SYMBOL    EDATA    WORD      time_count
      000010D9H   SYMBOL    EDATA    BYTE      dat
      00000BD8H   SYMBOL    EDATA    ---       buff
      00000BDCH   SYMBOL    EDATA    DWORD     len
      00000BE0H   SYMBOL    EDATA    DWORD     data_len

      ---         MODULE    ---      ---       SEEKFREE_BLE6A20
      000000D0H   SFRSYM    DATA     BYTE      PSW
      0000009DH   SFRSYM    DATA     BYTE      IRCBAND
      00000097H   SFRSYM    DATA     BYTE      AUXR2
      000000EFH   SFRSYM    DATA     BYTE      AUXINTIF
      000000FDH   SFRSYM    DATA     BYTE      S4CON
      000000ACH   SFRSYM    DATA     BYTE      S3CON
      0000009AH   SFRSYM    DATA     BYTE      S2CON
      000000B7H   SFRSYM    DATA     BYTE      IPH
      000000CDH   SFRSYM    DATA     BYTE      SPSTAT
      000000DDH   SFRSYM    DATA     BYTE      T4T3M
      000000C1H   SFRSYM    DATA     BYTE      WDT_CONTR
      000000DFH   SFRSYM    DATA     BYTE      IP3
      000000F4H   SFRSYM    DATA     BYTE      USBCON
      000000B5H   SFRSYM    DATA     BYTE      IP2
      000000FFH   SFRSYM    DATA     BYTE      RSTCFG
      000000C7H   SFRSYM    DATA     BYTE      IAP_CONTR
      000000F9H   SFRSYM    DATA     BYTE      LINICR
      0000008EH   SFRSYM    DATA     BYTE      AUXR
      000000AFH   SFRSYM    DATA     BYTE      IE2
      000000C0H.5 SFRSYM    DATA     BIT       P45
      00000088H   SFRSYM    DATA     BYTE      TCON
      00000089H   SFRSYM    DATA     BYTE      TMOD
      00000098H   SFRSYM    DATA     BYTE      SCON
      000000F1H   SFRSYM    DATA     BYTE      CANICR
      00000087H   SFRSYM    DATA     BYTE      PCON
      000000BCH   SFRSYM    DATA     BYTE      ADC_CONTR
      000000E7H   SFRSYM    DATA     BYTE      CMPCR2
      000000E6H   SFRSYM    DATA     BYTE      CMPCR1
      000000DEH   SFRSYM    DATA     BYTE      ADCCFG
      000000B8H   SFRSYM    DATA     BYTE      IP
      0000008FH   SFRSYM    DATA     BYTE      INTCLKO
      000000EEH   SFRSYM    DATA     BYTE      IP3H
      000000B6H   SFRSYM    DATA     BYTE      IP2H
      000000A8H   SFRSYM    DATA     BYTE      IE
      000000BBH   SFRSYM    DATA     BYTE      P_SW3
      000000BAH   SFRSYM    DATA     BYTE      P_SW2
      000000A2H   SFRSYM    DATA     BYTE      P_SW1
L251 LINKER/LOCATER V4.66.93.0                                                        11/01/2024  21:35:45  PAGE 61


      000000CEH   SFRSYM    DATA     BYTE      SPCTL
      000000F8H   SFRSYM    DATA     BYTE      P7
      000000E8H   SFRSYM    DATA     BYTE      P6
      000000C8H   SFRSYM    DATA     BYTE      P5
      000000C0H   SFRSYM    DATA     BYTE      P4
      000000B0H   SFRSYM    DATA     BYTE      P3
      000000A0H   SFRSYM    DATA     BYTE      P2
      00000090H   SFRSYM    DATA     BYTE      P1
      00000080H   SFRSYM    DATA     BYTE      P0
      0000056EH   SYMBOL    EDATA    ---       ble6a20_buffer
      000005AEH   SYMBOL    EDATA    ---       ble6a20_fifo
      000010DAH   SYMBOL    EDATA    BYTE      dat
      000010DBH   SYMBOL    EDATA    BYTE      dat
      00000E4CH   SYMBOL    EDATA    ---       buff
      00000E50H   SYMBOL    EDATA    DWORD     len
      00000BE4H   SYMBOL    EDATA    ---       buff
      00000BE8H   SYMBOL    EDATA    DWORD     len
      00000BECH   SYMBOL    EDATA    DWORD     data_len

      ---         MODULE    ---      ---       SEEKFREE_DL1A
      0000104EH   PUBLIC    EDATA    WORD      dl1a_distance_mm
      00001050H   PUBLIC    EDATA    BYTE      dl1a_finsh_flag
      000000D0H   SFRSYM    DATA     BYTE      PSW
      0000009DH   SFRSYM    DATA     BYTE      IRCBAND
      00000097H   SFRSYM    DATA     BYTE      AUXR2
      000000EFH   SFRSYM    DATA     BYTE      AUXINTIF
      000000FDH   SFRSYM    DATA     BYTE      S4CON
      000000ACH   SFRSYM    DATA     BYTE      S3CON
      0000009AH   SFRSYM    DATA     BYTE      S2CON
      000000B7H   SFRSYM    DATA     BYTE      IPH
      000000CDH   SFRSYM    DATA     BYTE      SPSTAT
      000000DDH   SFRSYM    DATA     BYTE      T4T3M
      000000C1H   SFRSYM    DATA     BYTE      WDT_CONTR
      000000DFH   SFRSYM    DATA     BYTE      IP3
      000000F4H   SFRSYM    DATA     BYTE      USBCON
      000000B5H   SFRSYM    DATA     BYTE      IP2
      000000FFH   SFRSYM    DATA     BYTE      RSTCFG
      000000C7H   SFRSYM    DATA     BYTE      IAP_CONTR
      000000F9H   SFRSYM    DATA     BYTE      LINICR
      0000008EH   SFRSYM    DATA     BYTE      AUXR
      000000AFH   SFRSYM    DATA     BYTE      IE2
      000000B0H.7 SFRSYM    DATA     BIT       P37
      000000B0H.6 SFRSYM    DATA     BIT       P36
      000000C8H.2 SFRSYM    DATA     BIT       P52
      00000088H   SFRSYM    DATA     BYTE      TCON
      00000089H   SFRSYM    DATA     BYTE      TMOD
      00000098H   SFRSYM    DATA     BYTE      SCON
      000000F1H   SFRSYM    DATA     BYTE      CANICR
      00000087H   SFRSYM    DATA     BYTE      PCON
      000000BCH   SFRSYM    DATA     BYTE      ADC_CONTR
      000000E7H   SFRSYM    DATA     BYTE      CMPCR2
      000000E6H   SFRSYM    DATA     BYTE      CMPCR1
      000000DEH   SFRSYM    DATA     BYTE      ADCCFG
      000000B8H   SFRSYM    DATA     BYTE      IP
      0000008FH   SFRSYM    DATA     BYTE      INTCLKO
      000000EEH   SFRSYM    DATA     BYTE      IP3H
      000000B6H   SFRSYM    DATA     BYTE      IP2H
      000000A8H   SFRSYM    DATA     BYTE      IE
      000000BBH   SFRSYM    DATA     BYTE      P_SW3
      000000BAH   SFRSYM    DATA     BYTE      P_SW2
      000000A2H   SFRSYM    DATA     BYTE      P_SW1
      000000CEH   SFRSYM    DATA     BYTE      SPCTL
      000000F8H   SFRSYM    DATA     BYTE      P7
      000000E8H   SFRSYM    DATA     BYTE      P6
      000000C8H   SFRSYM    DATA     BYTE      P5
L251 LINKER/LOCATER V4.66.93.0                                                        11/01/2024  21:35:45  PAGE 62


      000000C0H   SFRSYM    DATA     BYTE      P4
      000000B0H   SFRSYM    DATA     BYTE      P3
      000000A0H   SFRSYM    DATA     BYTE      P2
      00000090H   SFRSYM    DATA     BYTE      P1
      00000080H   SFRSYM    DATA     BYTE      P0
      00FF6CC3H   SYMBOL    CODE     ---       dl1a_simiic_sendack
      00FF6650H   SYMBOL    CODE     ---       dl1a_timeout_microseconds_to_mclks
      00FF65FDH   SYMBOL    CODE     ---       dl1a_timeout_mclks_to_microseconds
      00FF6197H   SYMBOL    CODE     ---       dl1a_read_ch
      00FF6C6FH   SYMBOL    CODE     ---       dl1a_decode_timeout
      00FF6909H   SYMBOL    CODE     ---       dl1a_send_ch
      00FF5DEDH   SYMBOL    CODE     ---       dl1a_encode_timeout
      00FF5CD3H   SYMBOL    CODE     ---       dl1a_get_sequence_step_enables
      00FF6DEFH   SYMBOL    CODE     ---       dl1a_sccb_waitack
      00FF6E73H   SYMBOL    CODE     ---       dl1a_simiic_delay
      00FF586DH   SYMBOL    CODE     ---       dl1a_get_sequence_step_timeouts
      00FF7018H   SYMBOL    CODE     ---       dl1a_simiic_start
      00FF626BH   SYMBOL    CODE     ---       dl1a_simiic_read_regs
      00FF69DEH   SYMBOL    CODE     ---       dl1a_simiic_write_dats
      00FF6F1CH   SYMBOL    CODE     ---       dl1a_simiic_stop
      00FF5EE8H   SYMBOL    CODE     ---       dl1a_get_vcsel_pulse_period

      00FF6E73H   BLOCK     CODE     ---       LVL=0
      0000108EH   SYMBOL    EDATA    WORD      j
      00FF6E73H   LINE      CODE     ---       #59
      00FF6E73H   LINE      CODE     ---       #60
      00FF6E73H   LINE      CODE     ---       #61
      00FF6E7BH   LINE      CODE     ---       #62
      00FF6E91H   LINE      CODE     ---       #63
      ---         BLOCKEND  ---      ---       LVL=0

      00FF7018H   BLOCK     CODE     ---       LVL=0
      00FF7018H   LINE      CODE     ---       #66
      00FF7018H   LINE      CODE     ---       #68
      00FF701BH   LINE      CODE     ---       #69
      00FF701EH   LINE      CODE     ---       #70
      00FF7021H   LINE      CODE     ---       #71
      00FF7024H   LINE      CODE     ---       #72
      00FF7027H   LINE      CODE     ---       #73
      00FF702AH   LINE      CODE     ---       #74
      ---         BLOCKEND  ---      ---       LVL=0

      00FF6F1CH   BLOCK     CODE     ---       LVL=0
      00FF6F1CH   LINE      CODE     ---       #77
      00FF6F1CH   LINE      CODE     ---       #79
      00FF6F1FH   LINE      CODE     ---       #80
      00FF6F22H   LINE      CODE     ---       #81
      00FF6F25H   LINE      CODE     ---       #82
      00FF6F28H   LINE      CODE     ---       #83
      00FF6F2BH   LINE      CODE     ---       #84
      00FF6F2EH   LINE      CODE     ---       #85
      00FF6F31H   LINE      CODE     ---       #86
      ---         BLOCKEND  ---      ---       LVL=0

      00FF6CC3H   BLOCK     CODE     ---       LVL=0
      000010DCH   SYMBOL    EDATA    BYTE      ack_dat
      00FF6CC3H   LINE      CODE     ---       #90
      00FF6CC7H   LINE      CODE     ---       #92
      00FF6CCAH   LINE      CODE     ---       #93
      00FF6CCDH   LINE      CODE     ---       #94
      00FF6CDBH   LINE      CODE     ---       #95
      00FF6CDEH   LINE      CODE     ---       #97
      00FF6CE1H   LINE      CODE     ---       #98
      00FF6CE4H   LINE      CODE     ---       #99
      00FF6CE7H   LINE      CODE     ---       #100
L251 LINKER/LOCATER V4.66.93.0                                                        11/01/2024  21:35:45  PAGE 63


      00FF6CEAH   LINE      CODE     ---       #101
      ---         BLOCKEND  ---      ---       LVL=0

      00FF6DEFH   BLOCK     CODE     ---       LVL=0
      00FF6DEFH   LINE      CODE     ---       #104
      00FF6DEFH   LINE      CODE     ---       #106
      00FF6DF2H   LINE      CODE     ---       #108
      00FF6DF5H   LINE      CODE     ---       #110
      00FF6DF8H   LINE      CODE     ---       #111
      00FF6DFBH   LINE      CODE     ---       #113
      00FF6DFEH   LINE      CODE     ---       #116
      00FF6E01H   LINE      CODE     ---       #117
      00FF6E05H   LINE      CODE     ---       #118
      00FF6E05H   LINE      CODE     ---       #120
      00FF6E08H   LINE      CODE     ---       #121
      00FF6E0BH   LINE      CODE     ---       #122
      00FF6E0FH   LINE      CODE     ---       #123
      ---         BLOCKEND  ---      ---       LVL=0

      00FF6909H   BLOCK     CODE     ---       LVL=0
      00001090H   SYMBOL    EDATA    BYTE      c
      00FF690DH   BLOCK     CODE     NEAR LAB  LVL=1
      00001091H   SYMBOL    EDATA    BYTE      i
      ---         BLOCKEND  ---      ---       LVL=1
      00FF6909H   LINE      CODE     ---       #129
      00FF690DH   LINE      CODE     ---       #130
      00FF690DH   LINE      CODE     ---       #131
      00FF6913H   LINE      CODE     ---       #132
      00FF6915H   LINE      CODE     ---       #134
      00FF6921H   LINE      CODE     ---       #135
      00FF6924H   LINE      CODE     ---       #136
      00FF692EH   LINE      CODE     ---       #137
      00FF6931H   LINE      CODE     ---       #138
      00FF6934H   LINE      CODE     ---       #139
      00FF6937H   LINE      CODE     ---       #140
      00FF693AH   LINE      CODE     ---       #141
      00FF694EH   LINE      CODE     ---       #142
      00FF6951H   LINE      CODE     ---       #143
      ---         BLOCKEND  ---      ---       LVL=0

      00FF6197H   BLOCK     CODE     ---       LVL=0
      00001051H   SYMBOL    EDATA    BYTE      ack_x
      00FF619BH   BLOCK     CODE     NEAR LAB  LVL=1
      00001052H   SYMBOL    EDATA    BYTE      i
      00001053H   SYMBOL    EDATA    BYTE      c
      ---         BLOCKEND  ---      ---       LVL=1
      00FF6197H   LINE      CODE     ---       #149
      00FF619BH   LINE      CODE     ---       #150
      00FF619BH   LINE      CODE     ---       #153
      00FF61A0H   LINE      CODE     ---       #154
      00FF61A3H   LINE      CODE     ---       #155
      00FF61A6H   LINE      CODE     ---       #156
      00FF61A9H   LINE      CODE     ---       #158
      00FF61B0H   LINE      CODE     ---       #160
      00FF61B3H   LINE      CODE     ---       #161
      00FF61B6H   LINE      CODE     ---       #162
      00FF61B9H   LINE      CODE     ---       #163
      00FF61BCH   LINE      CODE     ---       #164
      00FF61BFH   LINE      CODE     ---       #165
      00FF61C9H   LINE      CODE     ---       #166
      00FF61CCH   LINE      CODE     ---       #168
      00FF61D8H   LINE      CODE     ---       #169
      00FF61EFH   LINE      CODE     ---       #172
      00FF61F2H   LINE      CODE     ---       #173
      00FF61F5H   LINE      CODE     ---       #174
L251 LINKER/LOCATER V4.66.93.0                                                        11/01/2024  21:35:45  PAGE 64


      00FF61FCH   LINE      CODE     ---       #176
      00FF6200H   LINE      CODE     ---       #177
      ---         BLOCKEND  ---      ---       LVL=0

      00FF69DEH   BLOCK     CODE     ---       LVL=0
      00000D4EH   SYMBOL    EDATA    BYTE      dev_add
      00000D4FH   SYMBOL    EDATA    ---       dat
      00000D53H   SYMBOL    EDATA    DWORD     len
      00FF69DEH   LINE      CODE     ---       #189
      00FF69EAH   LINE      CODE     ---       #191
      00FF69EDH   LINE      CODE     ---       #192
      00FF69F6H   LINE      CODE     ---       #193
      00FF69F8H   LINE      CODE     ---       #195
      00FF6A08H   LINE      CODE     ---       #196
      00FF6A1CH   LINE      CODE     ---       #199
      00FF6A1FH   LINE      CODE     ---       #200
      ---         BLOCKEND  ---      ---       LVL=0
      00001054H   SYMBOL    EDATA    BYTE      dev_add
      00001055H   SYMBOL    EDATA    BYTE      reg
      00001056H   SYMBOL    EDATA    BYTE      dat
      00001057H   SYMBOL    EDATA    BYTE      dev_add
      00001058H   SYMBOL    EDATA    BYTE      reg
      00001059H   SYMBOL    EDATA    BYTE      dat

      00FF626BH   BLOCK     CODE     ---       LVL=0
      00000CDAH   SYMBOL    EDATA    BYTE      dev_add
      00000CDBH   SYMBOL    EDATA    BYTE      reg
      00000CDCH   SYMBOL    EDATA    ---       dat_add
      00000CE0H   SYMBOL    EDATA    DWORD     num
      00FF626BH   LINE      CODE     ---       #257
      00FF6277H   LINE      CODE     ---       #259
      00FF627AH   LINE      CODE     ---       #260
      00FF6283H   LINE      CODE     ---       #261
      00FF628AH   LINE      CODE     ---       #264
      00FF628DH   LINE      CODE     ---       #265
      00FF629AH   LINE      CODE     ---       #266
      00FF629CH   LINE      CODE     ---       #268
      00FF62A8H   LINE      CODE     ---       #269
      00FF62B2H   LINE      CODE     ---       #270
      00FF62C4H   LINE      CODE     ---       #271
      00FF62CFH   LINE      CODE     ---       #272
      00FF62D2H   LINE      CODE     ---       #273
      ---         BLOCKEND  ---      ---       LVL=0
      00000CE4H   SYMBOL    EDATA    BYTE      dev_add
      00000CE5H   SYMBOL    EDATA    BYTE      reg
      00000CE6H   SYMBOL    EDATA    ---       dat_add
      00000CEAH   SYMBOL    EDATA    DWORD     num
      00000BF0H   SYMBOL    EDATA    ---       index
      00000BF4H   SYMBOL    EDATA    ---       type_is_aperture
      00000BF8H   SYMBOL    EDATA    BYTE      tmp
      00000BF9H   SYMBOL    EDATA    BYTE      return_state
      00000BFAH   SYMBOL    EDATA    WORD      loop_count

      00FF65FDH   BLOCK     CODE     ---       LVL=0
      00000EBBH   SYMBOL    EDATA    WORD      timeout_period_mclks
      00000EBDH   SYMBOL    EDATA    BYTE      vcsel_period_pclks
      00FF6605H   BLOCK     CODE     NEAR LAB  LVL=1
      00000EBEH   SYMBOL    EDATA    DWORD     macro_period_ns
      ---         BLOCKEND  ---      ---       LVL=1
      00FF65FDH   LINE      CODE     ---       #401
      00FF6605H   LINE      CODE     ---       #402
      00FF6605H   LINE      CODE     ---       #403
      00FF662CH   LINE      CODE     ---       #405
      00FF664FH   LINE      CODE     ---       #406
      ---         BLOCKEND  ---      ---       LVL=0
L251 LINKER/LOCATER V4.66.93.0                                                        11/01/2024  21:35:45  PAGE 65



      00FF6650H   BLOCK     CODE     ---       LVL=0
      00000D57H   SYMBOL    EDATA    DWORD     timeout_period_us
      00000D5BH   SYMBOL    EDATA    BYTE      vcsel_period_pclks
      00FF6658H   BLOCK     CODE     NEAR LAB  LVL=1
      00000D5CH   SYMBOL    EDATA    DWORD     macro_period_ns
      ---         BLOCKEND  ---      ---       LVL=1
      00FF6650H   LINE      CODE     ---       #416
      00FF6658H   LINE      CODE     ---       #417
      00FF6658H   LINE      CODE     ---       #418
      00FF667FH   LINE      CODE     ---       #420
      00FF66A0H   LINE      CODE     ---       #421
      ---         BLOCKEND  ---      ---       LVL=0

      00FF6C6FH   BLOCK     CODE     ---       LVL=0
      00001092H   SYMBOL    EDATA    WORD      reg_val
      00FF6C6FH   LINE      CODE     ---       #430
      00FF6C73H   LINE      CODE     ---       #433
      00FF6C98H   LINE      CODE     ---       #435
      ---         BLOCKEND  ---      ---       LVL=0

      00FF5DEDH   BLOCK     CODE     ---       LVL=0
      00000CEEH   SYMBOL    EDATA    WORD      timeout_mclks
      00FF5DF1H   BLOCK     CODE     NEAR LAB  LVL=1
      00000CF0H   SYMBOL    EDATA    DWORD     ls_byte
      00000CF4H   SYMBOL    EDATA    WORD      ms_byte
      00000CF6H   SYMBOL    EDATA    WORD      return_data
      ---         BLOCKEND  ---      ---       LVL=1
      00FF5DEDH   LINE      CODE     ---       #444
      00FF5DF1H   LINE      CODE     ---       #445
      00FF5DF1H   LINE      CODE     ---       #446
      00FF5DF7H   LINE      CODE     ---       #447
      00FF5DFDH   LINE      CODE     ---       #448
      00FF5E03H   LINE      CODE     ---       #450
      00FF5E0DH   LINE      CODE     ---       #453
      00FF5E1DH   LINE      CODE     ---       #454
      00FF5E1FH   LINE      CODE     ---       #456
      00FF5E30H   LINE      CODE     ---       #457
      00FF5E3EH   LINE      CODE     ---       #458
      00FF5E4FH   LINE      CODE     ---       #459
      00FF5E67H   LINE      CODE     ---       #460
      00FF5E67H   LINE      CODE     ---       #461
      00FF5E6BH   LINE      CODE     ---       #462
      ---         BLOCKEND  ---      ---       LVL=0

      00FF5CD3H   BLOCK     CODE     ---       LVL=0
      00000FABH   SYMBOL    EDATA    ---       enables
      00FF5CD7H   BLOCK     CODE     NEAR LAB  LVL=1
      00000FAFH   SYMBOL    EDATA    BYTE      sequence_config
      ---         BLOCKEND  ---      ---       LVL=1
      00FF5CD3H   LINE      CODE     ---       #471
      00FF5CD7H   LINE      CODE     ---       #472
      00FF5CD7H   LINE      CODE     ---       #473
      00FF5CDCH   LINE      CODE     ---       #474
      00FF5CF0H   LINE      CODE     ---       #476
      00FF5D04H   LINE      CODE     ---       #477
      00FF5D1BH   LINE      CODE     ---       #478
      00FF5D31H   LINE      CODE     ---       #479
      00FF5D4AH   LINE      CODE     ---       #480
      00FF5D60H   LINE      CODE     ---       #481
      ---         BLOCKEND  ---      ---       LVL=0

      00FF5EE8H   BLOCK     CODE     ---       LVL=0
      0000105AH   SYMBOL    EDATA    INT       type
      00FF5EECH   BLOCK     CODE     NEAR LAB  LVL=1
L251 LINKER/LOCATER V4.66.93.0                                                        11/01/2024  21:35:45  PAGE 66


      0000105CH   SYMBOL    EDATA    BYTE      data_buffer
      ---         BLOCKEND  ---      ---       LVL=1
      00FF5EE8H   LINE      CODE     ---       #490
      00FF5EECH   LINE      CODE     ---       #491
      00FF5EECH   LINE      CODE     ---       #492
      00FF5EF1H   LINE      CODE     ---       #493
      00FF5EFBH   LINE      CODE     ---       #495
      00FF5F0FH   LINE      CODE     ---       #496
      00FF5F21H   LINE      CODE     ---       #497
      00FF5F23H   LINE      CODE     ---       #498
      00FF5F2FH   LINE      CODE     ---       #500
      00FF5F43H   LINE      CODE     ---       #501
      00FF5F55H   LINE      CODE     ---       #502
      00FF5F57H   LINE      CODE     ---       #505
      00FF5F5DH   LINE      CODE     ---       #506
      00FF5F5DH   LINE      CODE     ---       #507
      00FF5F61H   LINE      CODE     ---       #508
      ---         BLOCKEND  ---      ---       LVL=0

      00FF586DH   BLOCK     CODE     ---       LVL=0
      00000BFCH   SYMBOL    EDATA    ---       enables
      00000C00H   SYMBOL    EDATA    ---       timeouts
      00FF5875H   BLOCK     CODE     NEAR LAB  LVL=1
      00000C04H   SYMBOL    EDATA    ---       reg_buffer
      00000C06H   SYMBOL    EDATA    WORD      reg16_buffer
      ---         BLOCKEND  ---      ---       LVL=1
      00FF586DH   LINE      CODE     ---       #518
      00FF5875H   LINE      CODE     ---       #519
      00FF5875H   LINE      CODE     ---       #521
      00FF587BH   LINE      CODE     ---       #523
      00FF5889H   LINE      CODE     ---       #525
      00FF589DH   LINE      CODE     ---       #526
      00FF58B2H   LINE      CODE     ---       #527
      00FF58D6H   LINE      CODE     ---       #529
      00FF58EAH   LINE      CODE     ---       #530
      00FF5900H   LINE      CODE     ---       #531
      00FF5910H   LINE      CODE     ---       #532
      00FF5936H   LINE      CODE     ---       #534
      00FF5948H   LINE      CODE     ---       #536
      00FF595CH   LINE      CODE     ---       #537
      00FF5972H   LINE      CODE     ---       #538
      00FF5982H   LINE      CODE     ---       #540
      00FF5992H   LINE      CODE     ---       #542
      00FF59ADH   LINE      CODE     ---       #543
      00FF59ADH   LINE      CODE     ---       #545
      00FF59D5H   LINE      CODE     ---       #546
      ---         BLOCKEND  ---      ---       LVL=0
      00000FB0H   SYMBOL    EDATA    BYTE      vhv_init_byte
      00000FB1H   SYMBOL    EDATA    BYTE      return_state
      00000FB2H   SYMBOL    EDATA    BYTE      data_buffer
      00000FB3H   SYMBOL    EDATA    WORD      loop_count
      0000071DH   SYMBOL    EDATA    DWORD     budget_us
      00000721H   SYMBOL    EDATA    BYTE      return_state
      00000722H   SYMBOL    EDATA    ---       data_buffer
      00000725H   SYMBOL    EDATA    WORD      dat
      00000727H   SYMBOL    EDATA    DWORD     used_budget_us
      0000072BH   SYMBOL    EDATA    DWORD     final_range_timeout_us
      0000072FH   SYMBOL    EDATA    WORD      final_range_timeout_mclks
      00000731H   SYMBOL    EDATA    ---       enables
      00000736H   SYMBOL    EDATA    ---       timeouts
      00000910H   SYMBOL    EDATA    ---       enables
      00000915H   SYMBOL    EDATA    ---       timeouts
      0000092BH   SYMBOL    EDATA    DWORD     budget_us
      00000D60H   SYMBOL    EDATA    FLOAT     limit_mcps
      00000D64H   SYMBOL    EDATA    ---       data_buffer
L251 LINKER/LOCATER V4.66.93.0                                                        11/01/2024  21:35:45  PAGE 67


      00000D67H   SYMBOL    EDATA    WORD      limit_mcps_16bit
      0000105DH   SYMBOL    EDATA    ---       reg_databuffer
      00000A1DH   SYMBOL    EDATA    DWORD     measurement_timing_budget_us
      00000A21H   SYMBOL    EDATA    BYTE      stop_variable
      00000A22H   SYMBOL    EDATA    BYTE      return_state
      00000A23H   SYMBOL    EDATA    BYTE      reg_data_buffer
      00000A24H   SYMBOL    EDATA    ---       ref_spad_map
      00000A2AH   SYMBOL    EDATA    ---       data_buffer
      00000A31H   SYMBOL    EDATA    BYTE      i

      ---         MODULE    ---      ---       SEEKFREE_DL1B
      00001000H   PUBLIC    EDATA    WORD      dl1b_distance_mm
      00001002H   PUBLIC    EDATA    BYTE      dl1b_finsh_flag
      00001003H   PUBLIC    EDATA    BYTE      dl1b_init_flag
      00000AE8H   PUBLIC    EDATA    BYTE      ?dl1b_iic_transfer_8bit_array?BYTE
      000000D0H   SFRSYM    DATA     BYTE      PSW
      0000009DH   SFRSYM    DATA     BYTE      IRCBAND
      00000097H   SFRSYM    DATA     BYTE      AUXR2
      000000EFH   SFRSYM    DATA     BYTE      AUXINTIF
      000000FDH   SFRSYM    DATA     BYTE      S4CON
      000000ACH   SFRSYM    DATA     BYTE      S3CON
      0000009AH   SFRSYM    DATA     BYTE      S2CON
      000000B7H   SFRSYM    DATA     BYTE      IPH
      000000CDH   SFRSYM    DATA     BYTE      SPSTAT
      000000DDH   SFRSYM    DATA     BYTE      T4T3M
      000000C1H   SFRSYM    DATA     BYTE      WDT_CONTR
      000000DFH   SFRSYM    DATA     BYTE      IP3
      000000F4H   SFRSYM    DATA     BYTE      USBCON
      000000B5H   SFRSYM    DATA     BYTE      IP2
      000000FFH   SFRSYM    DATA     BYTE      RSTCFG
      000000C7H   SFRSYM    DATA     BYTE      IAP_CONTR
      000000F9H   SFRSYM    DATA     BYTE      LINICR
      0000008EH   SFRSYM    DATA     BYTE      AUXR
      000000AFH   SFRSYM    DATA     BYTE      IE2
      000000B0H.7 SFRSYM    DATA     BIT       P37
      000000B0H.6 SFRSYM    DATA     BIT       P36
      000000C8H.2 SFRSYM    DATA     BIT       P52
      00000088H   SFRSYM    DATA     BYTE      TCON
      00000089H   SFRSYM    DATA     BYTE      TMOD
      00000098H   SFRSYM    DATA     BYTE      SCON
      000000F1H   SFRSYM    DATA     BYTE      CANICR
      00000087H   SFRSYM    DATA     BYTE      PCON
      000000BCH   SFRSYM    DATA     BYTE      ADC_CONTR
      000000E7H   SFRSYM    DATA     BYTE      CMPCR2
      000000E6H   SFRSYM    DATA     BYTE      CMPCR1
      000000DEH   SFRSYM    DATA     BYTE      ADCCFG
      000000B8H   SFRSYM    DATA     BYTE      IP
      0000008FH   SFRSYM    DATA     BYTE      INTCLKO
      000000EEH   SFRSYM    DATA     BYTE      IP3H
      000000B6H   SFRSYM    DATA     BYTE      IP2H
      000000A8H   SFRSYM    DATA     BYTE      IE
      000000BBH   SFRSYM    DATA     BYTE      P_SW3
      000000BAH   SFRSYM    DATA     BYTE      P_SW2
      000000A2H   SFRSYM    DATA     BYTE      P_SW1
      000000CEH   SFRSYM    DATA     BYTE      SPCTL
      000000F8H   SFRSYM    DATA     BYTE      P7
      000000E8H   SFRSYM    DATA     BYTE      P6
      000000C8H   SFRSYM    DATA     BYTE      P5
      000000C0H   SFRSYM    DATA     BYTE      P4
      000000B0H   SFRSYM    DATA     BYTE      P3
      000000A0H   SFRSYM    DATA     BYTE      P2
      00000090H   SFRSYM    DATA     BYTE      P1
      00000080H   SFRSYM    DATA     BYTE      P0
      00FF6CEBH   SYMBOL    CODE     ---       dl1b_simiic_sendack
      00FF6201H   SYMBOL    CODE     ---       dl1b_read_ch
L251 LINKER/LOCATER V4.66.93.0                                                        11/01/2024  21:35:45  PAGE 68


      00FF6952H   SYMBOL    CODE     ---       dl1b_send_ch
      00FF6E10H   SYMBOL    CODE     ---       dl1b_sccb_waitack
      00FF0026H   SYMBOL    CODE     ---       dl1b_simiic_delay

      00FF0026H   BLOCK     CODE     ---       LVL=0
      00001094H   SYMBOL    EDATA    WORD      j
      00FF0026H   LINE      CODE     ---       #58
      00FF0026H   LINE      CODE     ---       #59
      00FF0026H   LINE      CODE     ---       #60
      00FF002CH   LINE      CODE     ---       #61
      00FF0042H   LINE      CODE     ---       #62
      ---         BLOCKEND  ---      ---       LVL=0

      00FF6CEBH   BLOCK     CODE     ---       LVL=0
      000010DDH   SYMBOL    EDATA    BYTE      ack_dat
      00FF6CEBH   LINE      CODE     ---       #89
      00FF6CEFH   LINE      CODE     ---       #91
      00FF6CF2H   LINE      CODE     ---       #92
      00FF6CF5H   LINE      CODE     ---       #93
      00FF6D03H   LINE      CODE     ---       #94
      00FF6D06H   LINE      CODE     ---       #96
      00FF6D09H   LINE      CODE     ---       #97
      00FF6D0CH   LINE      CODE     ---       #98
      00FF6D0FH   LINE      CODE     ---       #99
      00FF6D12H   LINE      CODE     ---       #100
      ---         BLOCKEND  ---      ---       LVL=0

      00FF6E10H   BLOCK     CODE     ---       LVL=0
      00FF6E10H   LINE      CODE     ---       #103
      00FF6E10H   LINE      CODE     ---       #105
      00FF6E13H   LINE      CODE     ---       #107
      00FF6E16H   LINE      CODE     ---       #109
      00FF6E19H   LINE      CODE     ---       #110
      00FF6E1CH   LINE      CODE     ---       #112
      00FF6E1FH   LINE      CODE     ---       #115
      00FF6E22H   LINE      CODE     ---       #116
      00FF6E26H   LINE      CODE     ---       #117
      00FF6E26H   LINE      CODE     ---       #119
      00FF6E29H   LINE      CODE     ---       #120
      00FF6E2CH   LINE      CODE     ---       #121
      00FF6E30H   LINE      CODE     ---       #122
      ---         BLOCKEND  ---      ---       LVL=0

      00FF6952H   BLOCK     CODE     ---       LVL=0
      00001096H   SYMBOL    EDATA    BYTE      c
      00FF6956H   BLOCK     CODE     NEAR LAB  LVL=1
      00001097H   SYMBOL    EDATA    BYTE      i
      ---         BLOCKEND  ---      ---       LVL=1
      00FF6952H   LINE      CODE     ---       #128
      00FF6956H   LINE      CODE     ---       #129
      00FF6956H   LINE      CODE     ---       #130
      00FF695CH   LINE      CODE     ---       #131
      00FF695EH   LINE      CODE     ---       #133
      00FF696AH   LINE      CODE     ---       #134
      00FF696DH   LINE      CODE     ---       #135
      00FF6977H   LINE      CODE     ---       #136
      00FF697AH   LINE      CODE     ---       #137
      00FF697DH   LINE      CODE     ---       #138
      00FF6980H   LINE      CODE     ---       #139
      00FF6983H   LINE      CODE     ---       #140
      00FF6997H   LINE      CODE     ---       #141
      00FF699AH   LINE      CODE     ---       #142
      ---         BLOCKEND  ---      ---       LVL=0

      00FF6201H   BLOCK     CODE     ---       LVL=0
L251 LINKER/LOCATER V4.66.93.0                                                        11/01/2024  21:35:45  PAGE 69


      00001060H   SYMBOL    EDATA    BYTE      ack_x
      00FF6205H   BLOCK     CODE     NEAR LAB  LVL=1
      00001061H   SYMBOL    EDATA    BYTE      i
      00001062H   SYMBOL    EDATA    BYTE      c
      ---         BLOCKEND  ---      ---       LVL=1
      00FF6201H   LINE      CODE     ---       #148
      00FF6205H   LINE      CODE     ---       #149
      00FF6205H   LINE      CODE     ---       #152
      00FF620AH   LINE      CODE     ---       #153
      00FF620DH   LINE      CODE     ---       #154
      00FF6210H   LINE      CODE     ---       #155
      00FF6213H   LINE      CODE     ---       #157
      00FF621AH   LINE      CODE     ---       #159
      00FF621DH   LINE      CODE     ---       #160
      00FF6220H   LINE      CODE     ---       #161
      00FF6223H   LINE      CODE     ---       #162
      00FF6226H   LINE      CODE     ---       #163
      00FF6229H   LINE      CODE     ---       #164
      00FF6233H   LINE      CODE     ---       #165
      00FF6236H   LINE      CODE     ---       #167
      00FF6242H   LINE      CODE     ---       #168
      00FF6259H   LINE      CODE     ---       #171
      00FF625CH   LINE      CODE     ---       #172
      00FF625FH   LINE      CODE     ---       #173
      00FF6266H   LINE      CODE     ---       #175
      00FF626AH   LINE      CODE     ---       #176
      ---         BLOCKEND  ---      ---       LVL=0
      00000AE8H   SYMBOL    EDATA    ---       write_data
      00000AECH   SYMBOL    EDATA    DWORD     write_len
      00000AF0H   SYMBOL    EDATA    ---       read_data
      00000AF4H   SYMBOL    EDATA    DWORD     read_len
      00000FB5H   SYMBOL    EDATA    ---       data_buffer
      00000FB8H   SYMBOL    EDATA    INT       dl1b_distance_temp
      000003D3H   SYMBOL    EDATA    BYTE      return_state
      000003D4H   SYMBOL    EDATA    ---       data_buffer
      0000045DH   SYMBOL    EDATA    WORD      time_out_count

      ---         MODULE    ---      ---       SEEKFREE_FONT
      00FF212DH   PUBLIC    CODE     ---       ascii_font_8x16
      00FF271DH   PUBLIC    CODE     ---       oled_8x16
      00FF2D0DH   PUBLIC    CODE     ---       tft_ascii
      00FF32FDH   PUBLIC    CODE     ---       ascii_font_6x8
      00FF3525H   PUBLIC    CODE     ---       oled_6x8
      000000D0H   SFRSYM    DATA     BYTE      PSW
      0000009DH   SFRSYM    DATA     BYTE      IRCBAND
      00000097H   SFRSYM    DATA     BYTE      AUXR2
      000000EFH   SFRSYM    DATA     BYTE      AUXINTIF
      000000FDH   SFRSYM    DATA     BYTE      S4CON
      000000ACH   SFRSYM    DATA     BYTE      S3CON
      0000009AH   SFRSYM    DATA     BYTE      S2CON
      000000B7H   SFRSYM    DATA     BYTE      IPH
      000000CDH   SFRSYM    DATA     BYTE      SPSTAT
      000000DDH   SFRSYM    DATA     BYTE      T4T3M
      000000C1H   SFRSYM    DATA     BYTE      WDT_CONTR
      000000DFH   SFRSYM    DATA     BYTE      IP3
      000000F4H   SFRSYM    DATA     BYTE      USBCON
      000000B5H   SFRSYM    DATA     BYTE      IP2
      000000FFH   SFRSYM    DATA     BYTE      RSTCFG
      000000C7H   SFRSYM    DATA     BYTE      IAP_CONTR
      000000F9H   SFRSYM    DATA     BYTE      LINICR
      0000008EH   SFRSYM    DATA     BYTE      AUXR
      000000AFH   SFRSYM    DATA     BYTE      IE2
      00000088H   SFRSYM    DATA     BYTE      TCON
      00000089H   SFRSYM    DATA     BYTE      TMOD
      00000098H   SFRSYM    DATA     BYTE      SCON
L251 LINKER/LOCATER V4.66.93.0                                                        11/01/2024  21:35:45  PAGE 70


      000000F1H   SFRSYM    DATA     BYTE      CANICR
      00000087H   SFRSYM    DATA     BYTE      PCON
      000000BCH   SFRSYM    DATA     BYTE      ADC_CONTR
      000000E7H   SFRSYM    DATA     BYTE      CMPCR2
      000000E6H   SFRSYM    DATA     BYTE      CMPCR1
      000000DEH   SFRSYM    DATA     BYTE      ADCCFG
      000000B8H   SFRSYM    DATA     BYTE      IP
      0000008FH   SFRSYM    DATA     BYTE      INTCLKO
      000000EEH   SFRSYM    DATA     BYTE      IP3H
      000000B6H   SFRSYM    DATA     BYTE      IP2H
      000000A8H   SFRSYM    DATA     BYTE      IE
      000000BBH   SFRSYM    DATA     BYTE      P_SW3
      000000BAH   SFRSYM    DATA     BYTE      P_SW2
      000000A2H   SFRSYM    DATA     BYTE      P_SW1
      000000CEH   SFRSYM    DATA     BYTE      SPCTL
      000000F8H   SFRSYM    DATA     BYTE      P7
      000000E8H   SFRSYM    DATA     BYTE      P6
      000000C8H   SFRSYM    DATA     BYTE      P5
      000000C0H   SFRSYM    DATA     BYTE      P4
      000000B0H   SFRSYM    DATA     BYTE      P3
      000000A0H   SFRSYM    DATA     BYTE      P2
      00000090H   SFRSYM    DATA     BYTE      P1
      00000080H   SFRSYM    DATA     BYTE      P0

      ---         MODULE    ---      ---       SEEKFREE_FUNCTION
      00000487H   PUBLIC    EDATA    BYTE      ?zf_sprintf?BYTE
      000000D0H   SFRSYM    DATA     BYTE      PSW
      0000009DH   SFRSYM    DATA     BYTE      IRCBAND
      00000097H   SFRSYM    DATA     BYTE      AUXR2
      000000EFH   SFRSYM    DATA     BYTE      AUXINTIF
      000000FDH   SFRSYM    DATA     BYTE      S4CON
      000000ACH   SFRSYM    DATA     BYTE      S3CON
      0000009AH   SFRSYM    DATA     BYTE      S2CON
      000000B7H   SFRSYM    DATA     BYTE      IPH
      000000CDH   SFRSYM    DATA     BYTE      SPSTAT
      000000DDH   SFRSYM    DATA     BYTE      T4T3M
      000000C1H   SFRSYM    DATA     BYTE      WDT_CONTR
      000000DFH   SFRSYM    DATA     BYTE      IP3
      000000F4H   SFRSYM    DATA     BYTE      USBCON
      000000B5H   SFRSYM    DATA     BYTE      IP2
      000000FFH   SFRSYM    DATA     BYTE      RSTCFG
      000000C7H   SFRSYM    DATA     BYTE      IAP_CONTR
      000000F9H   SFRSYM    DATA     BYTE      LINICR
      0000008EH   SFRSYM    DATA     BYTE      AUXR
      000000AFH   SFRSYM    DATA     BYTE      IE2
      00000088H   SFRSYM    DATA     BYTE      TCON
      00000089H   SFRSYM    DATA     BYTE      TMOD
      00000098H   SFRSYM    DATA     BYTE      SCON
      000000F1H   SFRSYM    DATA     BYTE      CANICR
      00000087H   SFRSYM    DATA     BYTE      PCON
      000000BCH   SFRSYM    DATA     BYTE      ADC_CONTR
      000000E7H   SFRSYM    DATA     BYTE      CMPCR2
      000000E6H   SFRSYM    DATA     BYTE      CMPCR1
      000000DEH   SFRSYM    DATA     BYTE      ADCCFG
      000000B8H   SFRSYM    DATA     BYTE      IP
      0000008FH   SFRSYM    DATA     BYTE      INTCLKO
      000000EEH   SFRSYM    DATA     BYTE      IP3H
      000000B6H   SFRSYM    DATA     BYTE      IP2H
      000000A8H   SFRSYM    DATA     BYTE      IE
      000000BBH   SFRSYM    DATA     BYTE      P_SW3
      000000BAH   SFRSYM    DATA     BYTE      P_SW2
      000000A2H   SFRSYM    DATA     BYTE      P_SW1
      000000CEH   SFRSYM    DATA     BYTE      SPCTL
      000000F8H   SFRSYM    DATA     BYTE      P7
      000000E8H   SFRSYM    DATA     BYTE      P6
L251 LINKER/LOCATER V4.66.93.0                                                        11/01/2024  21:35:45  PAGE 71


      000000C8H   SFRSYM    DATA     BYTE      P5
      000000C0H   SFRSYM    DATA     BYTE      P4
      000000B0H   SFRSYM    DATA     BYTE      P3
      000000A0H   SFRSYM    DATA     BYTE      P2
      00000090H   SFRSYM    DATA     BYTE      P1
      00000080H   SFRSYM    DATA     BYTE      P0
      00FF5AEEH   SYMBOL    CODE     ---       number_conversion_ascii
      00FF73ECH   SYMBOL    HCONST   ---       ?tpl?0001
      00000E54H   SYMBOL    EDATA    DWORD     num1
      00000E58H   SYMBOL    EDATA    DWORD     num2
      00001004H   SYMBOL    EDATA    LONG      t
      00000D69H   SYMBOL    EDATA    ---       str
      00000D6DH   SYMBOL    EDATA    BYTE      sign
      00000D6EH   SYMBOL    EDATA    LONG      temp
      0000094EH   SYMBOL    EDATA    ---       str
      00000952H   SYMBOL    EDATA    LONG      number
      00000956H   SYMBOL    EDATA    ---       data_temp
      00000966H   SYMBOL    EDATA    BYTE      dat_bit
      00000967H   SYMBOL    EDATA    LONG      number_temp
      00000E5CH   SYMBOL    EDATA    ---       str
      00000E60H   SYMBOL    EDATA    DWORD     temp
      000009A5H   SYMBOL    EDATA    ---       str
      000009A9H   SYMBOL    EDATA    DWORD     number
      000009ADH   SYMBOL    EDATA    ---       data_temp
      000009BDH   SYMBOL    EDATA    BYTE      dat_bit
      00000AB6H   SYMBOL    EDATA    ---       str
      00000ABAH   SYMBOL    EDATA    BYTE      sign
      00000ABBH   SYMBOL    EDATA    FLOAT     temp
      00000ABFH   SYMBOL    EDATA    FLOAT     temp_point
      00000AC3H   SYMBOL    EDATA    FLOAT     point_bit
      00000854H   SYMBOL    EDATA    ---       str
      00000858H   SYMBOL    EDATA    FLOAT     number
      0000085CH   SYMBOL    EDATA    BYTE      point_bit
      0000085DH   SYMBOL    EDATA    INT       data_int
      0000085FH   SYMBOL    EDATA    INT       data_float
      00000861H   SYMBOL    EDATA    ---       data_temp
      00000871H   SYMBOL    EDATA    ---       data_temp_point
      0000087DH   SYMBOL    EDATA    BYTE      dat_bit
      00000AC7H   SYMBOL    EDATA    ---       str
      00000ACBH   SYMBOL    EDATA    BYTE      sign
      00000ACCH   SYMBOL    EDATA    FLOAT     temp
      00000AD0H   SYMBOL    EDATA    FLOAT     temp_point
      00000AD4H   SYMBOL    EDATA    FLOAT     point_bit
      000005C5H   SYMBOL    EDATA    ---       str
      000005C9H   SYMBOL    EDATA    FLOAT     number
      000005CDH   SYMBOL    EDATA    BYTE      point_bit
      000005CEH   SYMBOL    EDATA    INT       data_int
      000005D0H   SYMBOL    EDATA    INT       data_float
      000005D2H   SYMBOL    EDATA    ---       data_temp
      000005EAH   SYMBOL    EDATA    ---       data_temp_point
      000005FCH   SYMBOL    EDATA    BYTE      dat_bit
      00000B23H   SYMBOL    EDATA    ---       str
      00000B27H   SYMBOL    EDATA    DWORD     str_len
      00000B2BH   SYMBOL    EDATA    DWORD     result_data
      00000B2FH   SYMBOL    EDATA    BYTE      temp
      00000B30H   SYMBOL    EDATA    BYTE      flag
      000008A8H   SYMBOL    EDATA    ---       str
      000008ACH   SYMBOL    EDATA    DWORD     number
      000008B0H   SYMBOL    EDATA    ---       hex_index
      000008C0H   SYMBOL    EDATA    ---       data_temp
      000008CCH   SYMBOL    EDATA    BYTE      dat_bit

      00FF5AEEH   BLOCK     CODE     ---       LVL=0
      00000A5AH   SYMBOL    EDATA    DWORD     dat
      00000A5EH   SYMBOL    EDATA    ---       p
L251 LINKER/LOCATER V4.66.93.0                                                        11/01/2024  21:35:45  PAGE 72


      00000A62H   SYMBOL    EDATA    BYTE      neg_type
      00000A63H   SYMBOL    EDATA    BYTE      radix
      00FF5AFAH   BLOCK     CODE     NEAR LAB  LVL=1
      00000A64H   SYMBOL    EDATA    LONG      neg_dat
      00000A68H   SYMBOL    EDATA    DWORD     pos_dat
      00000A6CH   SYMBOL    EDATA    BYTE      temp_data
      00000A6DH   SYMBOL    EDATA    BYTE      valid_num
      ---         BLOCKEND  ---      ---       LVL=1
      00FF5AEEH   LINE      CODE     ---       #639
      00FF5AFAH   LINE      CODE     ---       #640
      00FF5AFAH   LINE      CODE     ---       #643
      00FF5AFFH   LINE      CODE     ---       #644
      00FF5B04H   LINE      CODE     ---       #646
      00FF5B0DH   LINE      CODE     ---       #648
      00FF5B15H   LINE      CODE     ---       #649
      00FF5B1BH   LINE      CODE     ---       #651
      00FF5B2DH   LINE      CODE     ---       #652
      00FF5B2DH   LINE      CODE     ---       #653
      00FF5B2DH   LINE      CODE     ---       #655
      00FF5B49H   LINE      CODE     ---       #656
      00FF5B5CH   LINE      CODE     ---       #657
      00FF5B69H   LINE      CODE     ---       #659
      00FF5B71H   LINE      CODE     ---       #661
      00FF5B71H   LINE      CODE     ---       #662
      00FF5B71H   LINE      CODE     ---       #663
      00FF5B7BH   LINE      CODE     ---       #664
      00FF5B7DH   LINE      CODE     ---       #665
      00FF5B80H   LINE      CODE     ---       #668
      00FF5B88H   LINE      CODE     ---       #669
      00FF5B88H   LINE      CODE     ---       #671
      00FF5B9DH   LINE      CODE     ---       #672
      00FF5BA7H   LINE      CODE     ---       #674
      00FF5BB3H   LINE      CODE     ---       #675
      00FF5BB5H   LINE      CODE     ---       #678
      00FF5BC1H   LINE      CODE     ---       #679
      00FF5BC1H   LINE      CODE     ---       #681
      00FF5BCCH   LINE      CODE     ---       #683
      00FF5BDFH   LINE      CODE     ---       #684
      00FF5BECH   LINE      CODE     ---       #686
      00FF5BF4H   LINE      CODE     ---       #688
      00FF5BF4H   LINE      CODE     ---       #689
      00FF5BF4H   LINE      CODE     ---       #690
      00FF5BFEH   LINE      CODE     ---       #691
      00FF5C00H   LINE      CODE     ---       #692
      00FF5C00H   LINE      CODE     ---       #693
      00FF5C04H   LINE      CODE     ---       #694
      ---         BLOCKEND  ---      ---       LVL=0
      00000B76H   SYMBOL    EDATA    ---       d_buff
      00000B7AH   SYMBOL    EDATA    DWORD     len
      00000B7EH   SYMBOL    EDATA    DWORD     i
      00000B82H   SYMBOL    EDATA    CHAR      temp_data
      00000487H   SYMBOL    EDATA    ---       buff
      0000048BH   SYMBOL    EDATA    ---       format
      0000048FH   SYMBOL    EDATA    DWORD     buff_len
      00000493H   SYMBOL    EDATA    ---       arg
      00000497H   SYMBOL    EDATA    CHAR      ret
      00000498H   SYMBOL    EDATA    CHAR      ch
      00000498H   SYMBOL    EDATA    ---       vstr
      000004B9H   SYMBOL    EDATA    LONG      ival
      000004BDH   SYMBOL    EDATA    BYTE      vlen
      00000498H   SYMBOL    EDATA    ---       vstr
      000004B9H   SYMBOL    EDATA    FLOAT     ival
      000004BDH   SYMBOL    EDATA    BYTE      vlen
      00000498H   SYMBOL    EDATA    ---       vstr
      000004B9H   SYMBOL    EDATA    DWORD     ival
L251 LINKER/LOCATER V4.66.93.0                                                        11/01/2024  21:35:45  PAGE 73


      000004BDH   SYMBOL    EDATA    BYTE      vlen
      00000498H   SYMBOL    EDATA    ---       vstr
      000004B9H   SYMBOL    EDATA    DWORD     ival
      000004BDH   SYMBOL    EDATA    BYTE      vlen
      00000498H   SYMBOL    EDATA    ---       vstr
      000004B9H   SYMBOL    EDATA    DWORD     ival
      000004BDH   SYMBOL    EDATA    BYTE      vlen
      00000498H   SYMBOL    EDATA    ---       pc
      00000498H   SYMBOL    EDATA    ---       vstr
      000004B9H   SYMBOL    EDATA    DWORD     ival

      ---         MODULE    ---      ---       SEEKFREE_ICM20602
      00000C08H   PUBLIC    EDATA    INT       icm20602_acc_x
      00000C0AH   PUBLIC    EDATA    INT       icm20602_acc_y
      00000C0CH   PUBLIC    EDATA    INT       icm20602_acc_z
      00000C0EH   PUBLIC    EDATA    INT       icm20602_gyro_x
      00000C10H   PUBLIC    EDATA    INT       icm20602_gyro_y
      00000C12H   PUBLIC    EDATA    INT       icm20602_gyro_z
      000000D0H   SFRSYM    DATA     BYTE      PSW
      0000009DH   SFRSYM    DATA     BYTE      IRCBAND
      00000097H   SFRSYM    DATA     BYTE      AUXR2
      000000EFH   SFRSYM    DATA     BYTE      AUXINTIF
      000000FDH   SFRSYM    DATA     BYTE      S4CON
      000000ACH   SFRSYM    DATA     BYTE      S3CON
      0000009AH   SFRSYM    DATA     BYTE      S2CON
      000000B7H   SFRSYM    DATA     BYTE      IPH
      000000CDH   SFRSYM    DATA     BYTE      SPSTAT
      000000DDH   SFRSYM    DATA     BYTE      T4T3M
      000000C1H   SFRSYM    DATA     BYTE      WDT_CONTR
      000000DFH   SFRSYM    DATA     BYTE      IP3
      000000F4H   SFRSYM    DATA     BYTE      USBCON
      000000B5H   SFRSYM    DATA     BYTE      IP2
      000000FFH   SFRSYM    DATA     BYTE      RSTCFG
      000000C7H   SFRSYM    DATA     BYTE      IAP_CONTR
      000000F9H   SFRSYM    DATA     BYTE      LINICR
      0000008EH   SFRSYM    DATA     BYTE      AUXR
      000000AFH   SFRSYM    DATA     BYTE      IE2
      000000C0H.3 SFRSYM    DATA     BIT       P43
      000000C0H.2 SFRSYM    DATA     BIT       P42
      00000088H   SFRSYM    DATA     BYTE      TCON
      00000089H   SFRSYM    DATA     BYTE      TMOD
      000000C0H.1 SFRSYM    DATA     BIT       P41
      00000098H   SFRSYM    DATA     BYTE      SCON
      000000C0H.0 SFRSYM    DATA     BIT       P40
      000000F1H   SFRSYM    DATA     BYTE      CANICR
      00000087H   SFRSYM    DATA     BYTE      PCON
      000000BCH   SFRSYM    DATA     BYTE      ADC_CONTR
      000000E7H   SFRSYM    DATA     BYTE      CMPCR2
      000000E6H   SFRSYM    DATA     BYTE      CMPCR1
      000000DEH   SFRSYM    DATA     BYTE      ADCCFG
      000000B8H   SFRSYM    DATA     BYTE      IP
      0000008FH   SFRSYM    DATA     BYTE      INTCLKO
      000000EEH   SFRSYM    DATA     BYTE      IP3H
      000000B6H   SFRSYM    DATA     BYTE      IP2H
      000000A8H   SFRSYM    DATA     BYTE      IE
      000000BBH   SFRSYM    DATA     BYTE      P_SW3
      000000BAH   SFRSYM    DATA     BYTE      P_SW2
      000000A2H   SFRSYM    DATA     BYTE      P_SW1
      000000CEH   SFRSYM    DATA     BYTE      SPCTL
      000000F8H   SFRSYM    DATA     BYTE      P7
      000000E8H   SFRSYM    DATA     BYTE      P6
      000000C8H   SFRSYM    DATA     BYTE      P5
      000000C0H   SFRSYM    DATA     BYTE      P4
      000000B0H   SFRSYM    DATA     BYTE      P3
      000000A0H   SFRSYM    DATA     BYTE      P2
L251 LINKER/LOCATER V4.66.93.0                                                        11/01/2024  21:35:45  PAGE 74


      00000090H   SFRSYM    DATA     BYTE      P1
      00000080H   SFRSYM    DATA     BYTE      P0
      00FF6E92H   SYMBOL    CODE     ---       icm20602_read_register
      00FF639BH   SYMBOL    CODE     ---       icm20602_simspi_wr_byte
      00FF66A1H   SYMBOL    CODE     ---       icm20602_simspi_r_reg_bytes
      00FF6D3BH   SYMBOL    CODE     ---       icm20602_simspi_r_reg_byte

      00FF639BH   BLOCK     CODE     ---       LVL=0
      00001098H   SYMBOL    EDATA    BYTE      byte
      00FF639FH   BLOCK     CODE     NEAR LAB  LVL=1
      00001099H   SYMBOL    EDATA    BYTE      i
      ---         BLOCKEND  ---      ---       LVL=1
      00FF639BH   LINE      CODE     ---       #278
      00FF639FH   LINE      CODE     ---       #279
      00FF639FH   LINE      CODE     ---       #282
      00FF63A6H   LINE      CODE     ---       #284
      00FF63B4H   LINE      CODE     ---       #285
      00FF63BEH   LINE      CODE     ---       #286
      00FF63C1H   LINE      CODE     ---       #287
      00FF63C4H   LINE      CODE     ---       #289
      00FF63C7H   LINE      CODE     ---       #290
      00FF63CAH   LINE      CODE     ---       #291
      00FF63D8H   LINE      CODE     ---       #292
      00FF63EFH   LINE      CODE     ---       #293
      00FF63F3H   LINE      CODE     ---       #294
      ---         BLOCKEND  ---      ---       LVL=0
      0000109AH   SYMBOL    EDATA    BYTE      cmd
      0000109BH   SYMBOL    EDATA    BYTE      val

      00FF6D3BH   BLOCK     CODE     ---       LVL=0
      00000FBAH   SYMBOL    EDATA    BYTE      cmd
      00000FBBH   SYMBOL    EDATA    ---       val
      00FF6D3BH   LINE      CODE     ---       #340
      00FF6D43H   LINE      CODE     ---       #343
      00FF6D4FH   LINE      CODE     ---       #344
      00FF6D56H   LINE      CODE     ---       #345
      00FF6D61H   LINE      CODE     ---       #347
      ---         BLOCKEND  ---      ---       LVL=0

      00FF66A1H   BLOCK     CODE     ---       LVL=0
      00000B83H   SYMBOL    EDATA    BYTE      cmd
      00000B84H   SYMBOL    EDATA    ---       val
      00000B88H   SYMBOL    EDATA    DWORD     num
      00FF66ADH   BLOCK     CODE     NEAR LAB  LVL=1
      00000B8CH   SYMBOL    EDATA    DWORD     i
      ---         BLOCKEND  ---      ---       LVL=1
      00FF66A1H   LINE      CODE     ---       #357
      00FF66ADH   LINE      CODE     ---       #358
      00FF66ADH   LINE      CODE     ---       #359
      00FF66B3H   LINE      CODE     ---       #360
      00FF66BFH   LINE      CODE     ---       #361
      00FF66C6H   LINE      CODE     ---       #363
      00FF66C8H   LINE      CODE     ---       #365
      00FF66DDH   LINE      CODE     ---       #366
      00FF66F1H   LINE      CODE     ---       #367
      ---         BLOCKEND  ---      ---       LVL=0
      0000109CH   SYMBOL    EDATA    BYTE      reg
      0000109DH   SYMBOL    EDATA    BYTE      dat

      00FF6E92H   BLOCK     CODE     ---       LVL=0
      0000109EH   SYMBOL    EDATA    BYTE      reg
      00FF6E96H   BLOCK     CODE     NEAR LAB  LVL=1
      0000109FH   SYMBOL    EDATA    BYTE      dat
      ---         BLOCKEND  ---      ---       LVL=1
      00FF6E92H   LINE      CODE     ---       #407
L251 LINKER/LOCATER V4.66.93.0                                                        11/01/2024  21:35:45  PAGE 75


      00FF6E96H   LINE      CODE     ---       #408
      00FF6E96H   LINE      CODE     ---       #410
      00FF6E99H   LINE      CODE     ---       #411
      00FF6EA8H   LINE      CODE     ---       #412
      00FF6EABH   LINE      CODE     ---       #413
      00FF6EAFH   LINE      CODE     ---       #414
      ---         BLOCKEND  ---      ---       LVL=0
      00000D72H   SYMBOL    EDATA    BYTE      reg
      00000D73H   SYMBOL    EDATA    ---       dat
      00000D77H   SYMBOL    EDATA    DWORD     len
      00001008H   SYMBOL    EDATA    BYTE      dat
      00001009H   SYMBOL    EDATA    BYTE      return_state
      0000100AH   SYMBOL    EDATA    WORD      timeout_count
      00000F22H   SYMBOL    EDATA    ---       dat
      00000F28H   SYMBOL    EDATA    ---       dat
      00000F2EH   SYMBOL    EDATA    INT       acc_value
      00000F30H   SYMBOL    EDATA    FLOAT     acc_data
      00000F34H   SYMBOL    EDATA    INT       gyro_value
      00000F36H   SYMBOL    EDATA    FLOAT     gyro_data
      0000100CH   SYMBOL    EDATA    BYTE      val
      0000100DH   SYMBOL    EDATA    BYTE      return_state
      0000100EH   SYMBOL    EDATA    WORD      timeout_count

      ---         MODULE    ---      ---       SEEKFREE_IMU660RA
      00000C14H   PUBLIC    EDATA    INT       imu660ra_acc_x
      00000C16H   PUBLIC    EDATA    INT       imu660ra_acc_y
      00000C18H   PUBLIC    EDATA    INT       imu660ra_acc_z
      00000C1AH   PUBLIC    EDATA    INT       imu660ra_gyro_x
      00000C1CH   PUBLIC    EDATA    INT       imu660ra_gyro_y
      00000C1EH   PUBLIC    EDATA    INT       imu660ra_gyro_z
      000000D0H   SFRSYM    DATA     BYTE      PSW
      0000009DH   SFRSYM    DATA     BYTE      IRCBAND
      00000097H   SFRSYM    DATA     BYTE      AUXR2
      000000EFH   SFRSYM    DATA     BYTE      AUXINTIF
      000000FDH   SFRSYM    DATA     BYTE      S4CON
      000000ACH   SFRSYM    DATA     BYTE      S3CON
      0000009AH   SFRSYM    DATA     BYTE      S2CON
      000000B7H   SFRSYM    DATA     BYTE      IPH
      000000CDH   SFRSYM    DATA     BYTE      SPSTAT
      000000DDH   SFRSYM    DATA     BYTE      T4T3M
      000000C1H   SFRSYM    DATA     BYTE      WDT_CONTR
      000000DFH   SFRSYM    DATA     BYTE      IP3
      000000F4H   SFRSYM    DATA     BYTE      USBCON
      000000B5H   SFRSYM    DATA     BYTE      IP2
      000000FFH   SFRSYM    DATA     BYTE      RSTCFG
      000000C7H   SFRSYM    DATA     BYTE      IAP_CONTR
      000000F9H   SFRSYM    DATA     BYTE      LINICR
      0000008EH   SFRSYM    DATA     BYTE      AUXR
      000000AFH   SFRSYM    DATA     BYTE      IE2
      000000C0H.3 SFRSYM    DATA     BIT       P43
      000000C0H.2 SFRSYM    DATA     BIT       P42
      00000088H   SFRSYM    DATA     BYTE      TCON
      00000089H   SFRSYM    DATA     BYTE      TMOD
      000000C0H.1 SFRSYM    DATA     BIT       P41
      00000098H   SFRSYM    DATA     BYTE      SCON
      000000C0H.0 SFRSYM    DATA     BIT       P40
      000000F1H   SFRSYM    DATA     BYTE      CANICR
      00000087H   SFRSYM    DATA     BYTE      PCON
      000000BCH   SFRSYM    DATA     BYTE      ADC_CONTR
      000000E7H   SFRSYM    DATA     BYTE      CMPCR2
      000000E6H   SFRSYM    DATA     BYTE      CMPCR1
      000000DEH   SFRSYM    DATA     BYTE      ADCCFG
      000000B8H   SFRSYM    DATA     BYTE      IP
      0000008FH   SFRSYM    DATA     BYTE      INTCLKO
      000000EEH   SFRSYM    DATA     BYTE      IP3H
L251 LINKER/LOCATER V4.66.93.0                                                        11/01/2024  21:35:45  PAGE 76


      000000B6H   SFRSYM    DATA     BYTE      IP2H
      000000A8H   SFRSYM    DATA     BYTE      IE
      000000BBH   SFRSYM    DATA     BYTE      P_SW3
      000000BAH   SFRSYM    DATA     BYTE      P_SW2
      000000A2H   SFRSYM    DATA     BYTE      P_SW1
      000000CEH   SFRSYM    DATA     BYTE      SPCTL
      000000F8H   SFRSYM    DATA     BYTE      P7
      000000E8H   SFRSYM    DATA     BYTE      P6
      000000C8H   SFRSYM    DATA     BYTE      P5
      000000C0H   SFRSYM    DATA     BYTE      P4
      000000B0H   SFRSYM    DATA     BYTE      P3
      000000A0H   SFRSYM    DATA     BYTE      P2
      00000090H   SFRSYM    DATA     BYTE      P1
      00000080H   SFRSYM    DATA     BYTE      P0
      00FF6DCDH   SYMBOL    CODE     ---       imu660ra_read_register
      00FF63F4H   SYMBOL    CODE     ---       imu660ra_simspi_wr_byte
      00FF68BEH   SYMBOL    CODE     ---       imu660ra_simspi_r_reg_bytes

      00FF63F4H   BLOCK     CODE     ---       LVL=0
      000010A0H   SYMBOL    EDATA    BYTE      byte
      00FF63F8H   BLOCK     CODE     NEAR LAB  LVL=1
      000010A1H   SYMBOL    EDATA    BYTE      i
      ---         BLOCKEND  ---      ---       LVL=1
      00FF63F4H   LINE      CODE     ---       #310
      00FF63F8H   LINE      CODE     ---       #311
      00FF63F8H   LINE      CODE     ---       #314
      00FF63FFH   LINE      CODE     ---       #316
      00FF640DH   LINE      CODE     ---       #317
      00FF6417H   LINE      CODE     ---       #318
      00FF641AH   LINE      CODE     ---       #319
      00FF641DH   LINE      CODE     ---       #320
      00FF6420H   LINE      CODE     ---       #321
      00FF6423H   LINE      CODE     ---       #323
      00FF6431H   LINE      CODE     ---       #324
      00FF6448H   LINE      CODE     ---       #325
      00FF644CH   LINE      CODE     ---       #326
      ---         BLOCKEND  ---      ---       LVL=0
      000010A2H   SYMBOL    EDATA    BYTE      cmd
      000010A3H   SYMBOL    EDATA    BYTE      val
      00000D7BH   SYMBOL    EDATA    BYTE      cmd
      00000D7CH   SYMBOL    EDATA    ---       dat_addr
      00000D80H   SYMBOL    EDATA    DWORD     len

      00FF68BEH   BLOCK     CODE     ---       LVL=0
      00000D84H   SYMBOL    EDATA    BYTE      cmd
      00000D85H   SYMBOL    EDATA    ---       val
      00000D89H   SYMBOL    EDATA    DWORD     num
      00FF68BEH   LINE      CODE     ---       #383
      00FF68CAH   LINE      CODE     ---       #385
      00FF68D6H   LINE      CODE     ---       #386
      00FF68DDH   LINE      CODE     ---       #388
      00FF68DFH   LINE      CODE     ---       #390
      00FF68F4H   LINE      CODE     ---       #391
      00FF6908H   LINE      CODE     ---       #392
      ---         BLOCKEND  ---      ---       LVL=0
      000010A4H   SYMBOL    EDATA    BYTE      reg
      000010A5H   SYMBOL    EDATA    BYTE      dat
      00000D8DH   SYMBOL    EDATA    BYTE      reg
      00000D8EH   SYMBOL    EDATA    ---       dat
      00000D92H   SYMBOL    EDATA    DWORD     len

      00FF6DCDH   BLOCK     CODE     ---       LVL=0
      00001063H   SYMBOL    EDATA    BYTE      reg
      00FF6DD1H   BLOCK     CODE     NEAR LAB  LVL=1
      00001064H   SYMBOL    EDATA    ---       dat
L251 LINKER/LOCATER V4.66.93.0                                                        11/01/2024  21:35:45  PAGE 77


      ---         BLOCKEND  ---      ---       LVL=1
      00FF6DCDH   LINE      CODE     ---       #433
      00FF6DD1H   LINE      CODE     ---       #434
      00FF6DD1H   LINE      CODE     ---       #436
      00FF6DD4H   LINE      CODE     ---       #437
      00FF6DE7H   LINE      CODE     ---       #438
      00FF6DEAH   LINE      CODE     ---       #439
      00FF6DEEH   LINE      CODE     ---       #440
      ---         BLOCKEND  ---      ---       LVL=0
      00000D96H   SYMBOL    EDATA    BYTE      reg
      00000D97H   SYMBOL    EDATA    ---       dat
      00000D9BH   SYMBOL    EDATA    DWORD     len
      00001010H   SYMBOL    EDATA    BYTE      dat
      00001011H   SYMBOL    EDATA    BYTE      return_state
      00001012H   SYMBOL    EDATA    WORD      timeout_count
      00000EC2H   SYMBOL    EDATA    ---       dat
      00000EC9H   SYMBOL    EDATA    ---       dat
      00000F3AH   SYMBOL    EDATA    INT       acc_value
      00000F3CH   SYMBOL    EDATA    FLOAT     acc_dat
      00000F40H   SYMBOL    EDATA    INT       gyro_value
      00000F42H   SYMBOL    EDATA    FLOAT     gyro_dat
      000010DEH   SYMBOL    EDATA    BYTE      return_state

      ---         MODULE    ---      ---       SEEKFREE_IMU963RA
      00000A80H   PUBLIC    EDATA    INT       imu963ra_acc_x
      00000A82H   PUBLIC    EDATA    INT       imu963ra_acc_y
      00000A84H   PUBLIC    EDATA    INT       imu963ra_acc_z
      00000A86H   PUBLIC    EDATA    INT       imu963ra_mag_x
      00000A88H   PUBLIC    EDATA    INT       imu963ra_mag_y
      00000A8AH   PUBLIC    EDATA    INT       imu963ra_mag_z
      00000A8CH   PUBLIC    EDATA    INT       imu963ra_gyro_x
      00000A8EH   PUBLIC    EDATA    INT       imu963ra_gyro_y
      00000A90H   PUBLIC    EDATA    INT       imu963ra_gyro_z
      000000D0H   SFRSYM    DATA     BYTE      PSW
      0000009DH   SFRSYM    DATA     BYTE      IRCBAND
      00000097H   SFRSYM    DATA     BYTE      AUXR2
      000000EFH   SFRSYM    DATA     BYTE      AUXINTIF
      000000FDH   SFRSYM    DATA     BYTE      S4CON
      000000ACH   SFRSYM    DATA     BYTE      S3CON
      0000009AH   SFRSYM    DATA     BYTE      S2CON
      000000B7H   SFRSYM    DATA     BYTE      IPH
      000000CDH   SFRSYM    DATA     BYTE      SPSTAT
      000000DDH   SFRSYM    DATA     BYTE      T4T3M
      000000C1H   SFRSYM    DATA     BYTE      WDT_CONTR
      000000DFH   SFRSYM    DATA     BYTE      IP3
      000000F4H   SFRSYM    DATA     BYTE      USBCON
      000000B5H   SFRSYM    DATA     BYTE      IP2
      000000FFH   SFRSYM    DATA     BYTE      RSTCFG
      000000C7H   SFRSYM    DATA     BYTE      IAP_CONTR
      000000F9H   SFRSYM    DATA     BYTE      LINICR
      0000008EH   SFRSYM    DATA     BYTE      AUXR
      000000AFH   SFRSYM    DATA     BYTE      IE2
      000000C0H.3 SFRSYM    DATA     BIT       P43
      000000C0H.2 SFRSYM    DATA     BIT       P42
      00000088H   SFRSYM    DATA     BYTE      TCON
      00000089H   SFRSYM    DATA     BYTE      TMOD
      000000C0H.1 SFRSYM    DATA     BIT       P41
      00000098H   SFRSYM    DATA     BYTE      SCON
      000000C0H.0 SFRSYM    DATA     BIT       P40
      000000F1H   SFRSYM    DATA     BYTE      CANICR
      00000087H   SFRSYM    DATA     BYTE      PCON
      000000BCH   SFRSYM    DATA     BYTE      ADC_CONTR
      000000E7H   SFRSYM    DATA     BYTE      CMPCR2
      000000E6H   SFRSYM    DATA     BYTE      CMPCR1
      000000DEH   SFRSYM    DATA     BYTE      ADCCFG
L251 LINKER/LOCATER V4.66.93.0                                                        11/01/2024  21:35:45  PAGE 78


      000000B8H   SFRSYM    DATA     BYTE      IP
      0000008FH   SFRSYM    DATA     BYTE      INTCLKO
      000000EEH   SFRSYM    DATA     BYTE      IP3H
      000000B6H   SFRSYM    DATA     BYTE      IP2H
      000000A8H   SFRSYM    DATA     BYTE      IE
      000000BBH   SFRSYM    DATA     BYTE      P_SW3
      000000BAH   SFRSYM    DATA     BYTE      P_SW2
      000000A2H   SFRSYM    DATA     BYTE      P_SW1
      000000CEH   SFRSYM    DATA     BYTE      SPCTL
      000000F8H   SFRSYM    DATA     BYTE      P7
      000000E8H   SFRSYM    DATA     BYTE      P6
      000000C8H   SFRSYM    DATA     BYTE      P5
      000000C0H   SFRSYM    DATA     BYTE      P4
      000000B0H   SFRSYM    DATA     BYTE      P3
      000000A0H   SFRSYM    DATA     BYTE      P2
      00000090H   SFRSYM    DATA     BYTE      P1
      00000080H   SFRSYM    DATA     BYTE      P0
      00FF644DH   SYMBOL    CODE     ---       imu963ra_simspi_wr_byte
      00FF612BH   SYMBOL    CODE     ---       imu963ra_read_mag_register
      00FF6DAAH   SYMBOL    CODE     ---       imu963ra_read_acc_gyro_register
      00FF6C18H   SYMBOL    CODE     ---       imu963ra_simspi_r_reg_byte
      00FF6ECEH   SYMBOL    CODE     ---       imu963ra_write_acc_gyro_register
      00FF6E31H   SYMBOL    CODE     ---       imu963ra_simspi_w_reg_byte

      00FF644DH   BLOCK     CODE     ---       LVL=0
      000010A6H   SYMBOL    EDATA    BYTE      byte
      00FF6451H   BLOCK     CODE     NEAR LAB  LVL=1
      000010A7H   SYMBOL    EDATA    BYTE      i
      ---         BLOCKEND  ---      ---       LVL=1
      00FF644DH   LINE      CODE     ---       #344
      00FF6451H   LINE      CODE     ---       #345
      00FF6451H   LINE      CODE     ---       #348
      00FF6458H   LINE      CODE     ---       #350
      00FF6466H   LINE      CODE     ---       #351
      00FF6470H   LINE      CODE     ---       #352
      00FF6473H   LINE      CODE     ---       #353
      00FF6476H   LINE      CODE     ---       #355
      00FF6479H   LINE      CODE     ---       #356
      00FF647CH   LINE      CODE     ---       #357
      00FF648AH   LINE      CODE     ---       #358
      00FF64A1H   LINE      CODE     ---       #359
      00FF64A5H   LINE      CODE     ---       #360
      ---         BLOCKEND  ---      ---       LVL=0

      00FF6E31H   BLOCK     CODE     ---       LVL=0
      000010A8H   SYMBOL    EDATA    BYTE      cmd
      000010A9H   SYMBOL    EDATA    BYTE      val
      00FF6E31H   LINE      CODE     ---       #368
      00FF6E39H   LINE      CODE     ---       #370
      00FF6E3CH   LINE      CODE     ---       #371
      00FF6E40H   LINE      CODE     ---       #372
      00FF6E47H   LINE      CODE     ---       #373
      00FF6E4EH   LINE      CODE     ---       #374
      00FF6E51H   LINE      CODE     ---       #375
      ---         BLOCKEND  ---      ---       LVL=0

      00FF6C18H   BLOCK     CODE     ---       LVL=0
      00000FBFH   SYMBOL    EDATA    BYTE      cmd
      00000FC0H   SYMBOL    EDATA    ---       val
      00FF6C18H   LINE      CODE     ---       #406
      00FF6C20H   LINE      CODE     ---       #408
      00FF6C23H   LINE      CODE     ---       #409
      00FF6C2FH   LINE      CODE     ---       #410
      00FF6C36H   LINE      CODE     ---       #411
      00FF6C41H   LINE      CODE     ---       #412
L251 LINKER/LOCATER V4.66.93.0                                                        11/01/2024  21:35:45  PAGE 79


      00FF6C44H   LINE      CODE     ---       #413
      ---         BLOCKEND  ---      ---       LVL=0
      00000D9FH   SYMBOL    EDATA    BYTE      cmd
      00000DA0H   SYMBOL    EDATA    ---       val
      00000DA4H   SYMBOL    EDATA    DWORD     num

      00FF6ECEH   BLOCK     CODE     ---       LVL=0
      000010AAH   SYMBOL    EDATA    BYTE      reg
      000010ABH   SYMBOL    EDATA    BYTE      dat
      00FF6ECEH   LINE      CODE     ---       #445
      00FF6ED6H   LINE      CODE     ---       #447
      00FF6ED9H   LINE      CODE     ---       #448
      00FF6EE4H   LINE      CODE     ---       #450
      00FF6EE7H   LINE      CODE     ---       #451
      ---         BLOCKEND  ---      ---       LVL=0

      00FF6DAAH   BLOCK     CODE     ---       LVL=0
      000010ACH   SYMBOL    EDATA    BYTE      reg
      00FF6DAEH   BLOCK     CODE     NEAR LAB  LVL=1
      000010ADH   SYMBOL    EDATA    BYTE      dat
      ---         BLOCKEND  ---      ---       LVL=1
      00FF6DAAH   LINE      CODE     ---       #460
      00FF6DAEH   LINE      CODE     ---       #461
      00FF6DAEH   LINE      CODE     ---       #462
      00FF6DB3H   LINE      CODE     ---       #463
      00FF6DB6H   LINE      CODE     ---       #464
      00FF6DC5H   LINE      CODE     ---       #465
      00FF6DC8H   LINE      CODE     ---       #466
      00FF6DCCH   LINE      CODE     ---       #467
      ---         BLOCKEND  ---      ---       LVL=0
      00000DA8H   SYMBOL    EDATA    BYTE      reg
      00000DA9H   SYMBOL    EDATA    ---       dat
      00000DADH   SYMBOL    EDATA    DWORD     len
      00000F46H   SYMBOL    EDATA    BYTE      addr
      00000F47H   SYMBOL    EDATA    BYTE      reg
      00000F48H   SYMBOL    EDATA    BYTE      dat
      00000F49H   SYMBOL    EDATA    BYTE      return_state
      00000F4AH   SYMBOL    EDATA    WORD      timeout_count

      00FF612BH   BLOCK     CODE     ---       LVL=0
      00001014H   SYMBOL    EDATA    BYTE      addr
      00001015H   SYMBOL    EDATA    BYTE      reg
      00FF6133H   BLOCK     CODE     NEAR LAB  LVL=1
      00001016H   SYMBOL    EDATA    WORD      timeout_count
      ---         BLOCKEND  ---      ---       LVL=1
      00FF612BH   LINE      CODE     ---       #529
      00FF6133H   LINE      CODE     ---       #530
      00FF6133H   LINE      CODE     ---       #531
      00FF6139H   LINE      CODE     ---       #533
      00FF6143H   LINE      CODE     ---       #534
      00FF6151H   LINE      CODE     ---       #535
      00FF615AH   LINE      CODE     ---       #536
      00FF6162H   LINE      CODE     ---       #537
      00FF616AH   LINE      CODE     ---       #540
      00FF616CH   LINE      CODE     ---       #542
      00FF6182H   LINE      CODE     ---       #544
      00FF6182H   LINE      CODE     ---       #545
      00FF6182H   LINE      CODE     ---       #546
      00FF6189H   LINE      CODE     ---       #547
      00FF6191H   LINE      CODE     ---       #549
      00FF6196H   LINE      CODE     ---       #550
      ---         BLOCKEND  ---      ---       LVL=0
      000010AEH   SYMBOL    EDATA    BYTE      addr
      000010AFH   SYMBOL    EDATA    BYTE      reg
      00001018H   SYMBOL    EDATA    BYTE      return_state
L251 LINKER/LOCATER V4.66.93.0                                                        11/01/2024  21:35:45  PAGE 80


      00001019H   SYMBOL    EDATA    BYTE      dat
      0000101AH   SYMBOL    EDATA    WORD      timeout_count
      0000101CH   SYMBOL    EDATA    BYTE      return_state
      0000101DH   SYMBOL    EDATA    BYTE      dat
      0000101EH   SYMBOL    EDATA    WORD      timeout_count
      00000F4CH   SYMBOL    EDATA    ---       dat
      00000F52H   SYMBOL    EDATA    ---       dat
      00000ED0H   SYMBOL    EDATA    BYTE      temp_status
      00000ED1H   SYMBOL    EDATA    ---       dat
      00000F58H   SYMBOL    EDATA    INT       acc_value
      00000F5AH   SYMBOL    EDATA    FLOAT     acc_dat
      00000F5EH   SYMBOL    EDATA    INT       gyro_value
      00000F60H   SYMBOL    EDATA    FLOAT     gyro_dat
      00000F64H   SYMBOL    EDATA    INT       mag_value
      00000F66H   SYMBOL    EDATA    FLOAT     mag_dat
      000010DFH   SYMBOL    EDATA    BYTE      return_state

      ---         MODULE    ---      ---       SEEKFREE_IPS114_SPI
      00FF6C99H   PUBLIC    CODE     ---       ips114_writedata_16bit
      00FF65A8H   PUBLIC    CODE     ---       ips114_writeDatai_16bit_simspi
      00FF67DAH   PUBLIC    CODE     ---       ips114_writeIndex_simspi
      00FF6F72H   PUBLIC    CODE     ---       ips114_writeIndex
      0000065DH   PUBLIC    EDATA    BYTE      ?ips114_showfloat_simspi?BYTE
      0000068DH   PUBLIC    EDATA    BYTE      ?ips114_showfloat?BYTE
      000000D0H   SFRSYM    DATA     BYTE      PSW
      0000009DH   SFRSYM    DATA     BYTE      IRCBAND
      00000097H   SFRSYM    DATA     BYTE      AUXR2
      000000EFH   SFRSYM    DATA     BYTE      AUXINTIF
      000000FDH   SFRSYM    DATA     BYTE      S4CON
      000000ACH   SFRSYM    DATA     BYTE      S3CON
      0000009AH   SFRSYM    DATA     BYTE      S2CON
      000000B7H   SFRSYM    DATA     BYTE      IPH
      000000CDH   SFRSYM    DATA     BYTE      SPSTAT
      000000DDH   SFRSYM    DATA     BYTE      T4T3M
      000000C1H   SFRSYM    DATA     BYTE      WDT_CONTR
      000000DFH   SFRSYM    DATA     BYTE      IP3
      000000F4H   SFRSYM    DATA     BYTE      USBCON
      000000B5H   SFRSYM    DATA     BYTE      IP2
      000000FFH   SFRSYM    DATA     BYTE      RSTCFG
      000000C7H   SFRSYM    DATA     BYTE      IAP_CONTR
      000000F9H   SFRSYM    DATA     BYTE      LINICR
      0000008EH   SFRSYM    DATA     BYTE      AUXR
      000000AFH   SFRSYM    DATA     BYTE      IE2
      000000A0H.7 SFRSYM    DATA     BIT       P27
      000000A0H.5 SFRSYM    DATA     BIT       P25
      00000088H   SFRSYM    DATA     BYTE      TCON
      00000089H   SFRSYM    DATA     BYTE      TMOD
      000000A0H.3 SFRSYM    DATA     BIT       P23
      00000098H   SFRSYM    DATA     BYTE      SCON
      000000A0H.2 SFRSYM    DATA     BIT       P22
      000000A0H.1 SFRSYM    DATA     BIT       P21
      000000A0H.0 SFRSYM    DATA     BIT       P20
      000000F1H   SFRSYM    DATA     BYTE      CANICR
      00000087H   SFRSYM    DATA     BYTE      PCON
      000000BCH   SFRSYM    DATA     BYTE      ADC_CONTR
      000000E7H   SFRSYM    DATA     BYTE      CMPCR2
      000000E6H   SFRSYM    DATA     BYTE      CMPCR1
      000000DEH   SFRSYM    DATA     BYTE      ADCCFG
      000000B8H   SFRSYM    DATA     BYTE      IP
      0000008FH   SFRSYM    DATA     BYTE      INTCLKO
      000000EEH   SFRSYM    DATA     BYTE      IP3H
      000000B6H   SFRSYM    DATA     BYTE      IP2H
      000000A8H   SFRSYM    DATA     BYTE      IE
      000000BBH   SFRSYM    DATA     BYTE      P_SW3
      000000BAH   SFRSYM    DATA     BYTE      P_SW2
L251 LINKER/LOCATER V4.66.93.0                                                        11/01/2024  21:35:45  PAGE 81


      000000A2H   SFRSYM    DATA     BYTE      P_SW1
      000000CEH   SFRSYM    DATA     BYTE      SPCTL
      000000F8H   SFRSYM    DATA     BYTE      P7
      000000E8H   SFRSYM    DATA     BYTE      P6
      000000C8H   SFRSYM    DATA     BYTE      P5
      000000C0H   SFRSYM    DATA     BYTE      P4
      000000B0H   SFRSYM    DATA     BYTE      P3
      000000A0H   SFRSYM    DATA     BYTE      P2
      00000090H   SFRSYM    DATA     BYTE      P1
      00000080H   SFRSYM    DATA     BYTE      P0

      00FF67DAH   BLOCK     CODE     ---       LVL=0
      000010B0H   SYMBOL    EDATA    BYTE      dat
      00FF67DEH   BLOCK     CODE     NEAR LAB  LVL=1
      000010B1H   SYMBOL    EDATA    BYTE      i
      ---         BLOCKEND  ---      ---       LVL=1
      00FF67DAH   LINE      CODE     ---       #61
      00FF67DEH   LINE      CODE     ---       #62
      00FF67DEH   LINE      CODE     ---       #63
      00FF67E4H   LINE      CODE     ---       #64
      00FF67E7H   LINE      CODE     ---       #65
      00FF67EAH   LINE      CODE     ---       #67
      00FF67EDH   LINE      CODE     ---       #69
      00FF67EFH   LINE      CODE     ---       #71
      00FF67FBH   LINE      CODE     ---       #72
      00FF67FEH   LINE      CODE     ---       #73
      00FF6801H   LINE      CODE     ---       #75
      00FF6804H   LINE      CODE     ---       #76
      00FF680EH   LINE      CODE     ---       #77
      00FF6822H   LINE      CODE     ---       #78
      00FF6825H   LINE      CODE     ---       #79
      ---         BLOCKEND  ---      ---       LVL=0
      000010B2H   SYMBOL    EDATA    BYTE      dat
      000010B3H   SYMBOL    EDATA    BYTE      i

      00FF65A8H   BLOCK     CODE     ---       LVL=0
      00001066H   SYMBOL    EDATA    WORD      dat
      00FF65ACH   BLOCK     CODE     NEAR LAB  LVL=1
      00001068H   SYMBOL    EDATA    BYTE      i
      ---         BLOCKEND  ---      ---       LVL=1
      00FF65A8H   LINE      CODE     ---       #115
      00FF65ACH   LINE      CODE     ---       #116
      00FF65ACH   LINE      CODE     ---       #117
      00FF65B2H   LINE      CODE     ---       #118
      00FF65B5H   LINE      CODE     ---       #119
      00FF65B8H   LINE      CODE     ---       #120
      00FF65BBH   LINE      CODE     ---       #121
      00FF65BDH   LINE      CODE     ---       #123
      00FF65D2H   LINE      CODE     ---       #124
      00FF65D5H   LINE      CODE     ---       #125
      00FF65D8H   LINE      CODE     ---       #127
      00FF65DBH   LINE      CODE     ---       #128
      00FF65E5H   LINE      CODE     ---       #129
      00FF65F9H   LINE      CODE     ---       #130
      00FF65FCH   LINE      CODE     ---       #131
      ---         BLOCKEND  ---      ---       LVL=0
      00000E64H   SYMBOL    EDATA    WORD      x1
      00000E66H   SYMBOL    EDATA    WORD      y1
      00000E68H   SYMBOL    EDATA    WORD      x2
      00000E6AH   SYMBOL    EDATA    WORD      y2
      00000F6AH   SYMBOL    EDATA    WORD      color
      00000F6CH   SYMBOL    EDATA    WORD      i
      00000F6EH   SYMBOL    EDATA    WORD      j
      00000F70H   SYMBOL    EDATA    WORD      x
      00000F72H   SYMBOL    EDATA    WORD      y
L251 LINKER/LOCATER V4.66.93.0                                                        11/01/2024  21:35:45  PAGE 82


      00000F74H   SYMBOL    EDATA    WORD      color
      00000E6CH   SYMBOL    EDATA    WORD      x
      00000E6EH   SYMBOL    EDATA    WORD      y
      00000E70H   SYMBOL    EDATA    CHAR      dat
      00000E71H   SYMBOL    EDATA    BYTE      i
      00000E72H   SYMBOL    EDATA    BYTE      j
      00000E73H   SYMBOL    EDATA    BYTE      temp
      00000CF8H   SYMBOL    EDATA    WORD      x
      00000CFAH   SYMBOL    EDATA    WORD      y
      00000CFCH   SYMBOL    EDATA    ---       dat
      00000D00H   SYMBOL    EDATA    WORD      j
      00000DB1H   SYMBOL    EDATA    WORD      x
      00000DB3H   SYMBOL    EDATA    WORD      y
      00000DB5H   SYMBOL    EDATA    CHAR      dat
      00000DB6H   SYMBOL    EDATA    ---       a
      00000DB9H   SYMBOL    EDATA    BYTE      i
      00000DBAH   SYMBOL    EDATA    WORD      x
      00000DBCH   SYMBOL    EDATA    WORD      y
      00000DBEH   SYMBOL    EDATA    BYTE      dat
      00000DBFH   SYMBOL    EDATA    ---       a
      00000DC2H   SYMBOL    EDATA    BYTE      i
      00000C20H   SYMBOL    EDATA    WORD      x
      00000C22H   SYMBOL    EDATA    WORD      y
      00000C24H   SYMBOL    EDATA    INT       dat
      00000C26H   SYMBOL    EDATA    ---       a
      00000C2BH   SYMBOL    EDATA    BYTE      i
      00000C2CH   SYMBOL    EDATA    WORD      x
      00000C2EH   SYMBOL    EDATA    WORD      y
      00000C30H   SYMBOL    EDATA    WORD      dat
      00000C32H   SYMBOL    EDATA    ---       a
      00000C37H   SYMBOL    EDATA    BYTE      i
      000007A4H   SYMBOL    EDATA    WORD      x
      000007A6H   SYMBOL    EDATA    WORD      y
      000007A8H   SYMBOL    EDATA    LONG      dat
      000007ACH   SYMBOL    EDATA    BYTE      num
      000007ADH   SYMBOL    EDATA    ---       buff
      000007CFH   SYMBOL    EDATA    BYTE      length
      0000065DH   SYMBOL    EDATA    WORD      x
      0000065FH   SYMBOL    EDATA    WORD      y
      00000661H   SYMBOL    EDATA    FLOAT     dat
      00000665H   SYMBOL    EDATA    BYTE      num
      00000666H   SYMBOL    EDATA    BYTE      pointnum
      00000667H   SYMBOL    EDATA    BYTE      length
      00000668H   SYMBOL    EDATA    ---       buff
      0000068AH   SYMBOL    EDATA    CHAR      start
      0000068BH   SYMBOL    EDATA    CHAR      end
      0000068CH   SYMBOL    EDATA    CHAR      point

      00FF6F72H   BLOCK     CODE     ---       LVL=0
      000010E0H   SYMBOL    EDATA    BYTE      dat
      00FF6F72H   LINE      CODE     ---       #594
      00FF6F76H   LINE      CODE     ---       #596
      00FF6F79H   LINE      CODE     ---       #597
      00FF6F7CH   LINE      CODE     ---       #599
      00FF6F83H   LINE      CODE     ---       #600
      00FF6F86H   LINE      CODE     ---       #601
      ---         BLOCKEND  ---      ---       LVL=0
      000010E1H   SYMBOL    EDATA    BYTE      dat

      00FF6C99H   BLOCK     CODE     ---       LVL=0
      00001020H   SYMBOL    EDATA    WORD      dat
      00FF6C9DH   BLOCK     CODE     NEAR LAB  LVL=1
      00001022H   SYMBOL    EDATA    ---       dat1
      ---         BLOCKEND  ---      ---       LVL=1
      00FF6C99H   LINE      CODE     ---       #626
L251 LINKER/LOCATER V4.66.93.0                                                        11/01/2024  21:35:45  PAGE 83


      00FF6C9DH   LINE      CODE     ---       #627
      00FF6C9DH   LINE      CODE     ---       #629
      00FF6CA3H   LINE      CODE     ---       #630
      00FF6CABH   LINE      CODE     ---       #631
      00FF6CAEH   LINE      CODE     ---       #632
      00FF6CB1H   LINE      CODE     ---       #633
      00FF6CB8H   LINE      CODE     ---       #634
      00FF6CBFH   LINE      CODE     ---       #635
      00FF6CC2H   LINE      CODE     ---       #636
      ---         BLOCKEND  ---      ---       LVL=0
      00000E74H   SYMBOL    EDATA    WORD      x1
      00000E76H   SYMBOL    EDATA    WORD      y1
      00000E78H   SYMBOL    EDATA    WORD      x2
      00000E7AH   SYMBOL    EDATA    WORD      y2
      00000F76H   SYMBOL    EDATA    WORD      color
      00000F78H   SYMBOL    EDATA    WORD      i
      00000F7AH   SYMBOL    EDATA    WORD      j
      00000F7CH   SYMBOL    EDATA    WORD      x
      00000F7EH   SYMBOL    EDATA    WORD      y
      00000F80H   SYMBOL    EDATA    WORD      color
      00000E7CH   SYMBOL    EDATA    WORD      x
      00000E7EH   SYMBOL    EDATA    WORD      y
      00000E80H   SYMBOL    EDATA    CHAR      dat
      00000E81H   SYMBOL    EDATA    BYTE      i
      00000E82H   SYMBOL    EDATA    BYTE      j
      00000E83H   SYMBOL    EDATA    BYTE      temp
      00000D02H   SYMBOL    EDATA    WORD      x
      00000D04H   SYMBOL    EDATA    WORD      y
      00000D06H   SYMBOL    EDATA    ---       dat
      00000D0AH   SYMBOL    EDATA    WORD      j
      00000DC3H   SYMBOL    EDATA    WORD      x
      00000DC5H   SYMBOL    EDATA    WORD      y
      00000DC7H   SYMBOL    EDATA    CHAR      dat
      00000DC8H   SYMBOL    EDATA    ---       a
      00000DCBH   SYMBOL    EDATA    BYTE      i
      00000DCCH   SYMBOL    EDATA    WORD      x
      00000DCEH   SYMBOL    EDATA    WORD      y
      00000DD0H   SYMBOL    EDATA    BYTE      dat
      00000DD1H   SYMBOL    EDATA    ---       a
      00000DD4H   SYMBOL    EDATA    BYTE      i
      00000C38H   SYMBOL    EDATA    WORD      x
      00000C3AH   SYMBOL    EDATA    WORD      y
      00000C3CH   SYMBOL    EDATA    INT       dat
      00000C3EH   SYMBOL    EDATA    ---       a
      00000C43H   SYMBOL    EDATA    BYTE      i
      00000C44H   SYMBOL    EDATA    WORD      x
      00000C46H   SYMBOL    EDATA    WORD      y
      00000C48H   SYMBOL    EDATA    WORD      dat
      00000C4AH   SYMBOL    EDATA    ---       a
      00000C4FH   SYMBOL    EDATA    BYTE      i
      000007D0H   SYMBOL    EDATA    WORD      x
      000007D2H   SYMBOL    EDATA    WORD      y
      000007D4H   SYMBOL    EDATA    LONG      dat
      000007D8H   SYMBOL    EDATA    BYTE      num
      000007D9H   SYMBOL    EDATA    ---       buff
      000007FBH   SYMBOL    EDATA    BYTE      length
      0000068DH   SYMBOL    EDATA    WORD      x
      0000068FH   SYMBOL    EDATA    WORD      y
      00000691H   SYMBOL    EDATA    FLOAT     dat
      00000695H   SYMBOL    EDATA    BYTE      num
      00000696H   SYMBOL    EDATA    BYTE      pointnum
      00000697H   SYMBOL    EDATA    BYTE      length
      00000698H   SYMBOL    EDATA    ---       buff
      000006BAH   SYMBOL    EDATA    CHAR      start
      000006BBH   SYMBOL    EDATA    CHAR      end
L251 LINKER/LOCATER V4.66.93.0                                                        11/01/2024  21:35:45  PAGE 84


      000006BCH   SYMBOL    EDATA    CHAR      point

      ---         MODULE    ---      ---       SEEKFREE_IPS200_SPI
      00FF6F87H   PUBLIC    CODE     ---       ips200_set_color
      00FF6E52H   PUBLIC    CODE     ---       ips200_write_16bit_data_spi
      00FF56A7H   PUBLIC    CODE     ---       ips200_init_spi
      00FF6ADDH   PUBLIC    CODE     ---       ips200_set_dir
      00FF60BEH   PUBLIC    CODE     ---       ips200_clear
      00FF7073H   PUBLIC    CODE     ---       ips200_write_8bit_data_spi
      00000A07H   PUBLIC    EDATA    BYTE      ?ips200_draw_line?BYTE
      000008CDH   PUBLIC    EDATA    BYTE      ?ips200_show_float?BYTE
      000008F0H   PUBLIC    EDATA    BYTE      ?ips200_show_wave?BYTE
      000009BEH   PUBLIC    EDATA    BYTE      ?ips200_show_chinese?BYTE
      000000D0H   SFRSYM    DATA     BYTE      PSW
      0000009DH   SFRSYM    DATA     BYTE      IRCBAND
      00000097H   SFRSYM    DATA     BYTE      AUXR2
      000000EFH   SFRSYM    DATA     BYTE      AUXINTIF
      000000FDH   SFRSYM    DATA     BYTE      S4CON
      000000ACH   SFRSYM    DATA     BYTE      S3CON
      0000009AH   SFRSYM    DATA     BYTE      S2CON
      000000B7H   SFRSYM    DATA     BYTE      IPH
      000000CDH   SFRSYM    DATA     BYTE      SPSTAT
      000000DDH   SFRSYM    DATA     BYTE      T4T3M
      000000C1H   SFRSYM    DATA     BYTE      WDT_CONTR
      000000DFH   SFRSYM    DATA     BYTE      IP3
      000000F4H   SFRSYM    DATA     BYTE      USBCON
      000000B5H   SFRSYM    DATA     BYTE      IP2
      000000FFH   SFRSYM    DATA     BYTE      RSTCFG
      000000C7H   SFRSYM    DATA     BYTE      IAP_CONTR
      000000F9H   SFRSYM    DATA     BYTE      LINICR
      0000008EH   SFRSYM    DATA     BYTE      AUXR
      000000AFH   SFRSYM    DATA     BYTE      IE2
      000000A0H.7 SFRSYM    DATA     BIT       P27
      00000088H   SFRSYM    DATA     BYTE      TCON
      00000089H   SFRSYM    DATA     BYTE      TMOD
      00000098H   SFRSYM    DATA     BYTE      SCON
      000000A0H.2 SFRSYM    DATA     BIT       P22
      000000A0H.1 SFRSYM    DATA     BIT       P21
      000000A0H.0 SFRSYM    DATA     BIT       P20
      000000F1H   SFRSYM    DATA     BYTE      CANICR
      00000087H   SFRSYM    DATA     BYTE      PCON
      000000BCH   SFRSYM    DATA     BYTE      ADC_CONTR
      000000E7H   SFRSYM    DATA     BYTE      CMPCR2
      000000E6H   SFRSYM    DATA     BYTE      CMPCR1
      000000DEH   SFRSYM    DATA     BYTE      ADCCFG
      000000B8H   SFRSYM    DATA     BYTE      IP
      0000008FH   SFRSYM    DATA     BYTE      INTCLKO
      000000EEH   SFRSYM    DATA     BYTE      IP3H
      000000B6H   SFRSYM    DATA     BYTE      IP2H
      000000A8H   SFRSYM    DATA     BYTE      IE
      000000BBH   SFRSYM    DATA     BYTE      P_SW3
      000000BAH   SFRSYM    DATA     BYTE      P_SW2
      000000A2H   SFRSYM    DATA     BYTE      P_SW1
      000000CEH   SFRSYM    DATA     BYTE      SPCTL
      000000F8H   SFRSYM    DATA     BYTE      P7
      000000E8H   SFRSYM    DATA     BYTE      P6
      000000C8H   SFRSYM    DATA     BYTE      P5
      000000C0H   SFRSYM    DATA     BYTE      P4
      000000B0H   SFRSYM    DATA     BYTE      P3
      000000A0H   SFRSYM    DATA     BYTE      P2
      00000090H   SFRSYM    DATA     BYTE      P1
      00000080H   SFRSYM    DATA     BYTE      P0
      00FF6EB0H   SYMBOL    CODE     ---       ips200_write_command
      00FF6F9CH   SYMBOL    CODE     ---       ips200_write_8bit_data
      00FF6FB1H   SYMBOL    CODE     ---       ips200_write_16bit_data
L251 LINKER/LOCATER V4.66.93.0                                                        11/01/2024  21:35:45  PAGE 85


      00FF6AA1H   SYMBOL    CODE     ---       ips200_set_region
      00000B31H   SYMBOL    EDATA    WORD      ips200_pencolor
      00000B33H   SYMBOL    EDATA    WORD      ips200_bgcolor
      00000B35H   SYMBOL    EDATA    INT       ips200_display_font
      00000B37H   SYMBOL    EDATA    INT       ips200_display_dir
      00000B39H   SYMBOL    EDATA    WORD      ips200_x_max
      00000B3BH   SYMBOL    EDATA    INT       ips200_display_type
      00000B3DH   SYMBOL    EDATA    WORD      ips200_y_max

      00FF7073H   BLOCK     CODE     ---       LVL=0
      000010E2H   SYMBOL    EDATA    BYTE      dat
      00FF7073H   LINE      CODE     ---       #62
      00FF7077H   LINE      CODE     ---       #64
      00FF707AH   LINE      CODE     ---       #66
      ---         BLOCKEND  ---      ---       LVL=0

      00FF6E52H   BLOCK     CODE     ---       LVL=0
      00001024H   SYMBOL    EDATA    WORD      dat
      00FF6E56H   BLOCK     CODE     NEAR LAB  LVL=1
      00001026H   SYMBOL    EDATA    ---       dat1
      ---         BLOCKEND  ---      ---       LVL=1
      00FF6E52H   LINE      CODE     ---       #75
      00FF6E56H   LINE      CODE     ---       #76
      00FF6E56H   LINE      CODE     ---       #78
      00FF6E5CH   LINE      CODE     ---       #79
      00FF6E64H   LINE      CODE     ---       #81
      00FF6E6BH   LINE      CODE     ---       #82
      00FF6E72H   LINE      CODE     ---       #83
      ---         BLOCKEND  ---      ---       LVL=0

      00FF6EB0H   BLOCK     CODE     ---       LVL=0
      000010E3H   SYMBOL    EDATA    BYTE      command
      00FF6EB0H   LINE      CODE     ---       #93
      00FF6EB4H   LINE      CODE     ---       #96
      00FF6EB7H   LINE      CODE     ---       #97
      00FF6EBAH   LINE      CODE     ---       #98
      00FF6EBDH   LINE      CODE     ---       #99
      00FF6EC4H   LINE      CODE     ---       #100
      00FF6EC7H   LINE      CODE     ---       #101
      00FF6ECAH   LINE      CODE     ---       #102
      00FF6ECDH   LINE      CODE     ---       #104
      ---         BLOCKEND  ---      ---       LVL=0

      00FF6F9CH   BLOCK     CODE     ---       LVL=0
      000010E4H   SYMBOL    EDATA    BYTE      dat
      00FF6F9CH   LINE      CODE     ---       #113
      00FF6FA0H   LINE      CODE     ---       #115
      00FF6FA3H   LINE      CODE     ---       #116
      00FF6FA6H   LINE      CODE     ---       #117
      00FF6FADH   LINE      CODE     ---       #118
      00FF6FB0H   LINE      CODE     ---       #119
      ---         BLOCKEND  ---      ---       LVL=0

      00FF6FB1H   BLOCK     CODE     ---       LVL=0
      000010B4H   SYMBOL    EDATA    WORD      dat
      00FF6FB1H   LINE      CODE     ---       #128
      00FF6FB5H   LINE      CODE     ---       #130
      00FF6FB8H   LINE      CODE     ---       #131
      00FF6FBBH   LINE      CODE     ---       #132
      00FF6FC2H   LINE      CODE     ---       #133
      00FF6FC5H   LINE      CODE     ---       #134
      ---         BLOCKEND  ---      ---       LVL=0

      00FF6AA1H   BLOCK     CODE     ---       LVL=0
      00000E84H   SYMBOL    EDATA    WORD      x1
L251 LINKER/LOCATER V4.66.93.0                                                        11/01/2024  21:35:45  PAGE 86


      00000E86H   SYMBOL    EDATA    WORD      y1
      00000E88H   SYMBOL    EDATA    WORD      x2
      00000E8AH   SYMBOL    EDATA    WORD      y2
      00FF6AA1H   LINE      CODE     ---       #146
      00FF6AB1H   LINE      CODE     ---       #150
      00FF6AB6H   LINE      CODE     ---       #151
      00FF6ABDH   LINE      CODE     ---       #152
      00FF6AC4H   LINE      CODE     ---       #154
      00FF6AC9H   LINE      CODE     ---       #155
      00FF6AD0H   LINE      CODE     ---       #156
      00FF6AD7H   LINE      CODE     ---       #158
      00FF6ADCH   LINE      CODE     ---       #159
      ---         BLOCKEND  ---      ---       LVL=0

      00FF60BEH   BLOCK     CODE     ---       LVL=0
      00001028H   SYMBOL    EDATA    WORD      i
      0000102AH   SYMBOL    EDATA    WORD      j
      00FF60BEH   LINE      CODE     ---       #169
      00FF60BEH   LINE      CODE     ---       #170
      00FF60BEH   LINE      CODE     ---       #172
      00FF60C1H   LINE      CODE     ---       #174
      00FF60DCH   LINE      CODE     ---       #175
      00FF60E4H   LINE      CODE     ---       #177
      00FF60ECH   LINE      CODE     ---       #179
      00FF60F3H   LINE      CODE     ---       #180
      00FF610DH   LINE      CODE     ---       #181
      00FF6127H   LINE      CODE     ---       #183
      00FF612AH   LINE      CODE     ---       #185
      ---         BLOCKEND  ---      ---       LVL=0
      00000F82H   SYMBOL    EDATA    WORD      color
      00000F84H   SYMBOL    EDATA    WORD      i
      00000F86H   SYMBOL    EDATA    WORD      j

      00FF6ADDH   BLOCK     CODE     ---       LVL=0
      000010B6H   SYMBOL    EDATA    INT       dir
      00FF6ADDH   LINE      CODE     ---       #220
      00FF6AE1H   LINE      CODE     ---       #222
      00FF6AE5H   LINE      CODE     ---       #223
      00FF6AF1H   LINE      CODE     ---       #225
      00FF6AF9H   LINE      CODE     ---       #226
      00FF6B01H   LINE      CODE     ---       #227
      00FF6B03H   LINE      CODE     ---       #230
      00FF6B0BH   LINE      CODE     ---       #231
      00FF6B13H   LINE      CODE     ---       #232
      00FF6B13H   LINE      CODE     ---       #233
      ---         BLOCKEND  ---      ---       LVL=0
      000010B8H   SYMBOL    EDATA    INT       font

      00FF6F87H   BLOCK     CODE     ---       LVL=0
      0000102CH   SYMBOL    EDATA    WORD      pen
      0000102EH   SYMBOL    EDATA    WORD      bgcolor
      00FF6F87H   LINE      CODE     ---       #255
      00FF6F8FH   LINE      CODE     ---       #257
      00FF6F93H   LINE      CODE     ---       #258
      00FF6F9BH   LINE      CODE     ---       #259
      ---         BLOCKEND  ---      ---       LVL=0
      00000F88H   SYMBOL    EDATA    WORD      x
      00000F8AH   SYMBOL    EDATA    WORD      y
      00000F8CH   SYMBOL    EDATA    WORD      color
      00000A07H   SYMBOL    EDATA    WORD      x_start
      00000A09H   SYMBOL    EDATA    WORD      y_start
      00000A0BH   SYMBOL    EDATA    WORD      x_end
      00000A0DH   SYMBOL    EDATA    WORD      y_end
      00000A0FH   SYMBOL    EDATA    WORD      color
      00000A11H   SYMBOL    EDATA    INT       x_dir
L251 LINKER/LOCATER V4.66.93.0                                                        11/01/2024  21:35:45  PAGE 87


      00000A13H   SYMBOL    EDATA    INT       y_dir
      00000A15H   SYMBOL    EDATA    FLOAT     temp_rate
      00000A19H   SYMBOL    EDATA    FLOAT     temp_b
      00000DD5H   SYMBOL    EDATA    WORD      x
      00000DD7H   SYMBOL    EDATA    WORD      y
      00000DD9H   SYMBOL    EDATA    CHAR      dat
      00000DDAH   SYMBOL    EDATA    BYTE      i
      00000DDBH   SYMBOL    EDATA    BYTE      j
      00000DDCH   SYMBOL    EDATA    BYTE      temp_top
      00000DDDH   SYMBOL    EDATA    BYTE      temp_bottom
      00000D0CH   SYMBOL    EDATA    WORD      x
      00000D0EH   SYMBOL    EDATA    WORD      y
      00000D10H   SYMBOL    EDATA    ---       dat
      00000D14H   SYMBOL    EDATA    WORD      j
      0000096BH   SYMBOL    EDATA    WORD      x
      0000096DH   SYMBOL    EDATA    WORD      y
      0000096FH   SYMBOL    EDATA    LONG      dat
      00000973H   SYMBOL    EDATA    BYTE      num
      00000974H   SYMBOL    EDATA    LONG      dat_temp
      00000978H   SYMBOL    EDATA    LONG      offset
      0000097CH   SYMBOL    EDATA    ---       data_buffer
      00000988H   SYMBOL    EDATA    WORD      x
      0000098AH   SYMBOL    EDATA    WORD      y
      0000098CH   SYMBOL    EDATA    DWORD     dat
      00000990H   SYMBOL    EDATA    BYTE      num
      00000991H   SYMBOL    EDATA    DWORD     dat_temp
      00000995H   SYMBOL    EDATA    LONG      offset
      00000999H   SYMBOL    EDATA    ---       data_buffer
      000008CDH   SYMBOL    EDATA    WORD      x
      000008CFH   SYMBOL    EDATA    WORD      y
      000008D1H   SYMBOL    EDATA    FLOAT     dat
      000008D5H   SYMBOL    EDATA    BYTE      num
      000008D6H   SYMBOL    EDATA    BYTE      pointnum
      000008D7H   SYMBOL    EDATA    FLOAT     dat_temp
      000008DBH   SYMBOL    EDATA    FLOAT     offset
      000008DFH   SYMBOL    EDATA    ---       data_buffer
      000008F0H   SYMBOL    EDATA    WORD      x
      000008F2H   SYMBOL    EDATA    WORD      y
      000008F4H   SYMBOL    EDATA    ---       wave
      000008F8H   SYMBOL    EDATA    WORD      width
      000008FAH   SYMBOL    EDATA    WORD      value_max
      000008FCH   SYMBOL    EDATA    WORD      dis_width
      000008FEH   SYMBOL    EDATA    WORD      dis_value_max
      00000900H   SYMBOL    EDATA    DWORD     i
      00000904H   SYMBOL    EDATA    DWORD     j
      00000908H   SYMBOL    EDATA    DWORD     width_index
      0000090CH   SYMBOL    EDATA    DWORD     value_max_index
      000009BEH   SYMBOL    EDATA    WORD      x
      000009C0H   SYMBOL    EDATA    WORD      y
      000009C2H   SYMBOL    EDATA    BYTE      size
      000009C3H   SYMBOL    EDATA    ---       chinese_buffer
      000009C7H   SYMBOL    EDATA    BYTE      number
      000009C8H   SYMBOL    EDATA    WORD      color
      000009CAH   SYMBOL    EDATA    INT       i
      000009CCH   SYMBOL    EDATA    INT       j
      000009CEH   SYMBOL    EDATA    INT       k
      000009D0H   SYMBOL    EDATA    BYTE      temp
      000009D1H   SYMBOL    EDATA    BYTE      temp1
      000009D2H   SYMBOL    EDATA    BYTE      temp2
      000009D3H   SYMBOL    EDATA    ---       p_data

      00FF56A7H   BLOCK     CODE     ---       LVL=0
      00FF56A7H   LINE      CODE     ---       #660
      00FF56A7H   LINE      CODE     ---       #662
      00FF56AAH   LINE      CODE     ---       #663
L251 LINKER/LOCATER V4.66.93.0                                                        11/01/2024  21:35:45  PAGE 88


      00FF56ADH   LINE      CODE     ---       #664
      00FF56B0H   LINE      CODE     ---       #667
      00FF56D2H   LINE      CODE     ---       #672
      00FF56D9H   LINE      CODE     ---       #673
      00FF56E4H   LINE      CODE     ---       #676
      00FF56E7H   LINE      CODE     ---       #677
      00FF56EAH   LINE      CODE     ---       #678
      00FF56F1H   LINE      CODE     ---       #679
      00FF56F4H   LINE      CODE     ---       #680
      00FF56FBH   LINE      CODE     ---       #683
      00FF56FEH   LINE      CODE     ---       #685
      00FF5703H   LINE      CODE     ---       #686
      00FF570AH   LINE      CODE     ---       #688
      00FF570FH   LINE      CODE     ---       #689
      00FF5719H   LINE      CODE     ---       #691
      00FF571DH   LINE      CODE     ---       #692
      00FF571FH   LINE      CODE     ---       #693
      00FF572BH   LINE      CODE     ---       #695
      00FF5730H   LINE      CODE     ---       #696
      00FF5732H   LINE      CODE     ---       #697
      00FF573EH   LINE      CODE     ---       #699
      00FF5743H   LINE      CODE     ---       #700
      00FF5745H   LINE      CODE     ---       #703
      00FF574AH   LINE      CODE     ---       #704
      00FF574AH   LINE      CODE     ---       #706
      00FF574FH   LINE      CODE     ---       #707
      00FF5754H   LINE      CODE     ---       #709
      00FF5759H   LINE      CODE     ---       #710
      00FF575EH   LINE      CODE     ---       #711
      00FF5763H   LINE      CODE     ---       #712
      00FF5767H   LINE      CODE     ---       #713
      00FF576CH   LINE      CODE     ---       #714
      00FF5771H   LINE      CODE     ---       #716
      00FF5776H   LINE      CODE     ---       #717
      00FF577BH   LINE      CODE     ---       #719
      00FF5780H   LINE      CODE     ---       #720
      00FF5785H   LINE      CODE     ---       #722
      00FF578AH   LINE      CODE     ---       #723
      00FF578FH   LINE      CODE     ---       #725
      00FF5794H   LINE      CODE     ---       #726
      00FF5799H   LINE      CODE     ---       #728
      00FF579EH   LINE      CODE     ---       #729
      00FF57A3H   LINE      CODE     ---       #731
      00FF57A8H   LINE      CODE     ---       #732
      00FF57ADH   LINE      CODE     ---       #734
      00FF57B2H   LINE      CODE     ---       #735
      00FF57B7H   LINE      CODE     ---       #737
      00FF57BCH   LINE      CODE     ---       #738
      00FF57C1H   LINE      CODE     ---       #739
      00FF57C6H   LINE      CODE     ---       #741
      00FF57CBH   LINE      CODE     ---       #742
      00FF57D0H   LINE      CODE     ---       #743
      00FF57D5H   LINE      CODE     ---       #744
      00FF57DAH   LINE      CODE     ---       #745
      00FF57DFH   LINE      CODE     ---       #746
      00FF57E4H   LINE      CODE     ---       #747
      00FF57E9H   LINE      CODE     ---       #748
      00FF57EEH   LINE      CODE     ---       #749
      00FF57F3H   LINE      CODE     ---       #750
      00FF57F8H   LINE      CODE     ---       #751
      00FF57FDH   LINE      CODE     ---       #752
      00FF5802H   LINE      CODE     ---       #753
      00FF5807H   LINE      CODE     ---       #754
      00FF580CH   LINE      CODE     ---       #755
      00FF5811H   LINE      CODE     ---       #757
L251 LINKER/LOCATER V4.66.93.0                                                        11/01/2024  21:35:45  PAGE 89


      00FF5816H   LINE      CODE     ---       #758
      00FF581BH   LINE      CODE     ---       #759
      00FF5820H   LINE      CODE     ---       #760
      00FF5825H   LINE      CODE     ---       #761
      00FF582AH   LINE      CODE     ---       #762
      00FF582FH   LINE      CODE     ---       #763
      00FF5834H   LINE      CODE     ---       #764
      00FF5839H   LINE      CODE     ---       #765
      00FF583EH   LINE      CODE     ---       #766
      00FF5843H   LINE      CODE     ---       #767
      00FF5848H   LINE      CODE     ---       #768
      00FF584DH   LINE      CODE     ---       #769
      00FF5852H   LINE      CODE     ---       #770
      00FF5857H   LINE      CODE     ---       #771
      00FF585CH   LINE      CODE     ---       #773
      00FF5861H   LINE      CODE     ---       #775
      00FF5866H   LINE      CODE     ---       #777
      00FF5869H   LINE      CODE     ---       #780
      00FF586CH   LINE      CODE     ---       #781
      ---         BLOCKEND  ---      ---       LVL=0

      ---         MODULE    ---      ---       SEEKFREE_MPU6050
      00000C50H   PUBLIC    EDATA    INT       mpu6050_acc_x
      00000C52H   PUBLIC    EDATA    INT       mpu6050_acc_y
      00000C54H   PUBLIC    EDATA    INT       mpu6050_acc_z
      00000C56H   PUBLIC    EDATA    INT       mpu6050_gyro_x
      00000C58H   PUBLIC    EDATA    INT       mpu6050_gyro_y
      00000C5AH   PUBLIC    EDATA    INT       mpu6050_gyro_z
      000000D0H   SFRSYM    DATA     BYTE      PSW
      0000009DH   SFRSYM    DATA     BYTE      IRCBAND
      00000097H   SFRSYM    DATA     BYTE      AUXR2
      000000EFH   SFRSYM    DATA     BYTE      AUXINTIF
      000000FDH   SFRSYM    DATA     BYTE      S4CON
      000000ACH   SFRSYM    DATA     BYTE      S3CON
      0000009AH   SFRSYM    DATA     BYTE      S2CON
      000000B7H   SFRSYM    DATA     BYTE      IPH
      000000CDH   SFRSYM    DATA     BYTE      SPSTAT
      000000DDH   SFRSYM    DATA     BYTE      T4T3M
      000000C1H   SFRSYM    DATA     BYTE      WDT_CONTR
      000000DFH   SFRSYM    DATA     BYTE      IP3
      000000F4H   SFRSYM    DATA     BYTE      USBCON
      000000B5H   SFRSYM    DATA     BYTE      IP2
      000000FFH   SFRSYM    DATA     BYTE      RSTCFG
      000000C7H   SFRSYM    DATA     BYTE      IAP_CONTR
      000000F9H   SFRSYM    DATA     BYTE      LINICR
      0000008EH   SFRSYM    DATA     BYTE      AUXR
      000000AFH   SFRSYM    DATA     BYTE      IE2
      00000088H   SFRSYM    DATA     BYTE      TCON
      00000089H   SFRSYM    DATA     BYTE      TMOD
      000000C0H.1 SFRSYM    DATA     BIT       P41
      00000098H   SFRSYM    DATA     BYTE      SCON
      000000C0H.0 SFRSYM    DATA     BIT       P40
      000000F1H   SFRSYM    DATA     BYTE      CANICR
      00000087H   SFRSYM    DATA     BYTE      PCON
      000000BCH   SFRSYM    DATA     BYTE      ADC_CONTR
      000000E7H   SFRSYM    DATA     BYTE      CMPCR2
      000000E6H   SFRSYM    DATA     BYTE      CMPCR1
      000000DEH   SFRSYM    DATA     BYTE      ADCCFG
      000000B8H   SFRSYM    DATA     BYTE      IP
      0000008FH   SFRSYM    DATA     BYTE      INTCLKO
      000000EEH   SFRSYM    DATA     BYTE      IP3H
      000000B6H   SFRSYM    DATA     BYTE      IP2H
      000000A8H   SFRSYM    DATA     BYTE      IE
      000000BBH   SFRSYM    DATA     BYTE      P_SW3
      000000BAH   SFRSYM    DATA     BYTE      P_SW2
L251 LINKER/LOCATER V4.66.93.0                                                        11/01/2024  21:35:45  PAGE 90


      000000A2H   SFRSYM    DATA     BYTE      P_SW1
      000000CEH   SFRSYM    DATA     BYTE      SPCTL
      000000F8H   SFRSYM    DATA     BYTE      P7
      000000E8H   SFRSYM    DATA     BYTE      P6
      000000C8H   SFRSYM    DATA     BYTE      P5
      000000C0H   SFRSYM    DATA     BYTE      P4
      000000B0H   SFRSYM    DATA     BYTE      P3
      000000A0H   SFRSYM    DATA     BYTE      P2
      00000090H   SFRSYM    DATA     BYTE      P1
      00000080H   SFRSYM    DATA     BYTE      P0
      00FF702BH   SYMBOL    CODE     ---       mpu6050_simiic_start
      00FF6F32H   SYMBOL    CODE     ---       mpu6050_simiic_stop
      00FF6D13H   SYMBOL    CODE     ---       mpu6050_simiic_sendack
      00FF0066H   SYMBOL    CODE     ---       mpu6050_simiic_delay

      00FF0066H   BLOCK     CODE     ---       LVL=0
      000010BAH   SYMBOL    EDATA    WORD      j
      00FF0066H   LINE      CODE     ---       #52
      00FF0066H   LINE      CODE     ---       #53
      00FF0066H   LINE      CODE     ---       #54
      00FF006CH   LINE      CODE     ---       #55
      00FF0082H   LINE      CODE     ---       #56
      ---         BLOCKEND  ---      ---       LVL=0

      00FF702BH   BLOCK     CODE     ---       LVL=0
      00FF702BH   LINE      CODE     ---       #59
      00FF702BH   LINE      CODE     ---       #61
      00FF702EH   LINE      CODE     ---       #62
      00FF7031H   LINE      CODE     ---       #63
      00FF7034H   LINE      CODE     ---       #64
      00FF7037H   LINE      CODE     ---       #65
      00FF703AH   LINE      CODE     ---       #66
      00FF703DH   LINE      CODE     ---       #67
      ---         BLOCKEND  ---      ---       LVL=0

      00FF6F32H   BLOCK     CODE     ---       LVL=0
      00FF6F32H   LINE      CODE     ---       #70
      00FF6F32H   LINE      CODE     ---       #72
      00FF6F35H   LINE      CODE     ---       #73
      00FF6F38H   LINE      CODE     ---       #74
      00FF6F3BH   LINE      CODE     ---       #75
      00FF6F3EH   LINE      CODE     ---       #76
      00FF6F41H   LINE      CODE     ---       #77
      00FF6F44H   LINE      CODE     ---       #78
      00FF6F47H   LINE      CODE     ---       #79
      ---         BLOCKEND  ---      ---       LVL=0

      00FF6D13H   BLOCK     CODE     ---       LVL=0
      000010E5H   SYMBOL    EDATA    BYTE      ack_dat
      00FF6D13H   LINE      CODE     ---       #83
      00FF6D17H   LINE      CODE     ---       #85
      00FF6D1AH   LINE      CODE     ---       #86
      00FF6D1DH   LINE      CODE     ---       #87
      00FF6D2BH   LINE      CODE     ---       #88
      00FF6D2EH   LINE      CODE     ---       #90
      00FF6D31H   LINE      CODE     ---       #91
      00FF6D34H   LINE      CODE     ---       #92
      00FF6D37H   LINE      CODE     ---       #93
      00FF6D3AH   LINE      CODE     ---       #94
      ---         BLOCKEND  ---      ---       LVL=0
      000010BCH   SYMBOL    EDATA    BYTE      c
      000010BDH   SYMBOL    EDATA    BYTE      i
      00001069H   SYMBOL    EDATA    BYTE      ack_x
      0000106AH   SYMBOL    EDATA    BYTE      i
      0000106BH   SYMBOL    EDATA    BYTE      c
L251 LINKER/LOCATER V4.66.93.0                                                        11/01/2024  21:35:45  PAGE 91


      0000106CH   SYMBOL    EDATA    BYTE      dev_add
      0000106DH   SYMBOL    EDATA    BYTE      reg
      0000106EH   SYMBOL    EDATA    BYTE      dat
      0000106FH   SYMBOL    EDATA    BYTE      dev_add
      00001070H   SYMBOL    EDATA    BYTE      reg
      00001071H   SYMBOL    EDATA    BYTE      dat
      00000ED7H   SYMBOL    EDATA    BYTE      dev_add
      00000ED8H   SYMBOL    EDATA    BYTE      reg
      00000ED9H   SYMBOL    EDATA    ---       dat_add
      00000EDDH   SYMBOL    EDATA    BYTE      num
      00000F8EH   SYMBOL    EDATA    ---       dat
      00000F94H   SYMBOL    EDATA    ---       dat

      ---         MODULE    ---      ---       SEEKFREE_OLED
      00FF6BB4H   PUBLIC    CODE     ---       oled_set_pos
      00FF6826H   PUBLIC    CODE     ---       oled_wrcmd
      00FF6872H   PUBLIC    CODE     ---       oled_wrdat
      00FF6B14H   PUBLIC    CODE     ---       oled_set_pos_spi
      00FF6FC6H   PUBLIC    CODE     ---       oled_wrcmd_spi
      00FF6FDBH   PUBLIC    CODE     ---       oled_wrdat_spi
      000006BDH   PUBLIC    EDATA    BYTE      ?oled_printf_float?BYTE
      000006EDH   PUBLIC    EDATA    BYTE      ?oled_printf_float_spi?BYTE
      000000D0H   SFRSYM    DATA     BYTE      PSW
      0000009DH   SFRSYM    DATA     BYTE      IRCBAND
      00000097H   SFRSYM    DATA     BYTE      AUXR2
      000000EFH   SFRSYM    DATA     BYTE      AUXINTIF
      000000FDH   SFRSYM    DATA     BYTE      S4CON
      000000ACH   SFRSYM    DATA     BYTE      S3CON
      0000009AH   SFRSYM    DATA     BYTE      S2CON
      000000B7H   SFRSYM    DATA     BYTE      IPH
      000000CDH   SFRSYM    DATA     BYTE      SPSTAT
      000000DDH   SFRSYM    DATA     BYTE      T4T3M
      000000C1H   SFRSYM    DATA     BYTE      WDT_CONTR
      000000DFH   SFRSYM    DATA     BYTE      IP3
      000000F4H   SFRSYM    DATA     BYTE      USBCON
      000000B5H   SFRSYM    DATA     BYTE      IP2
      000000FFH   SFRSYM    DATA     BYTE      RSTCFG
      000000C7H   SFRSYM    DATA     BYTE      IAP_CONTR
      000000F9H   SFRSYM    DATA     BYTE      LINICR
      0000008EH   SFRSYM    DATA     BYTE      AUXR
      000000AFH   SFRSYM    DATA     BYTE      IE2
      000000A0H.5 SFRSYM    DATA     BIT       P25
      00000088H   SFRSYM    DATA     BYTE      TCON
      00000089H   SFRSYM    DATA     BYTE      TMOD
      000000A0H.3 SFRSYM    DATA     BIT       P23
      00000098H   SFRSYM    DATA     BYTE      SCON
      000000A0H.2 SFRSYM    DATA     BIT       P22
      000000A0H.1 SFRSYM    DATA     BIT       P21
      000000A0H.0 SFRSYM    DATA     BIT       P20
      000000F1H   SFRSYM    DATA     BYTE      CANICR
      00000087H   SFRSYM    DATA     BYTE      PCON
      000000BCH   SFRSYM    DATA     BYTE      ADC_CONTR
      000000E7H   SFRSYM    DATA     BYTE      CMPCR2
      000000E6H   SFRSYM    DATA     BYTE      CMPCR1
      000000DEH   SFRSYM    DATA     BYTE      ADCCFG
      000000B8H   SFRSYM    DATA     BYTE      IP
      0000008FH   SFRSYM    DATA     BYTE      INTCLKO
      000000EEH   SFRSYM    DATA     BYTE      IP3H
      000000B6H   SFRSYM    DATA     BYTE      IP2H
      000000A8H   SFRSYM    DATA     BYTE      IE
      000000BBH   SFRSYM    DATA     BYTE      P_SW3
      000000BAH   SFRSYM    DATA     BYTE      P_SW2
      000000A2H   SFRSYM    DATA     BYTE      P_SW1
      000000CEH   SFRSYM    DATA     BYTE      SPCTL
      000000F8H   SFRSYM    DATA     BYTE      P7
L251 LINKER/LOCATER V4.66.93.0                                                        11/01/2024  21:35:45  PAGE 92


      000000E8H   SFRSYM    DATA     BYTE      P6
      000000C8H   SFRSYM    DATA     BYTE      P5
      000000C0H   SFRSYM    DATA     BYTE      P4
      000000B0H   SFRSYM    DATA     BYTE      P3
      000000A0H   SFRSYM    DATA     BYTE      P2
      00000090H   SFRSYM    DATA     BYTE      P1
      00000080H   SFRSYM    DATA     BYTE      P0

      00FF6872H   BLOCK     CODE     ---       LVL=0
      000010BEH   SYMBOL    EDATA    BYTE      dat
      00FF6876H   BLOCK     CODE     NEAR LAB  LVL=1
      000010BFH   SYMBOL    EDATA    BYTE      i
      ---         BLOCKEND  ---      ---       LVL=1
      00FF6872H   LINE      CODE     ---       #47
      00FF6876H   LINE      CODE     ---       #48
      00FF6876H   LINE      CODE     ---       #49
      00FF687CH   LINE      CODE     ---       #51
      00FF687FH   LINE      CODE     ---       #52
      00FF6882H   LINE      CODE     ---       #53
      00FF6885H   LINE      CODE     ---       #54
      00FF6887H   LINE      CODE     ---       #56
      00FF6893H   LINE      CODE     ---       #57
      00FF6896H   LINE      CODE     ---       #58
      00FF6899H   LINE      CODE     ---       #60
      00FF689CH   LINE      CODE     ---       #61
      00FF68A6H   LINE      CODE     ---       #62
      00FF68BAH   LINE      CODE     ---       #63
      00FF68BDH   LINE      CODE     ---       #64
      ---         BLOCKEND  ---      ---       LVL=0

      00FF6826H   BLOCK     CODE     ---       LVL=0
      000010C0H   SYMBOL    EDATA    BYTE      cmd
      00FF682AH   BLOCK     CODE     NEAR LAB  LVL=1
      000010C1H   SYMBOL    EDATA    BYTE      i
      ---         BLOCKEND  ---      ---       LVL=1
      00FF6826H   LINE      CODE     ---       #98
      00FF682AH   LINE      CODE     ---       #99
      00FF682AH   LINE      CODE     ---       #100
      00FF6830H   LINE      CODE     ---       #102
      00FF6833H   LINE      CODE     ---       #103
      00FF6836H   LINE      CODE     ---       #104
      00FF6839H   LINE      CODE     ---       #106
      00FF683BH   LINE      CODE     ---       #108
      00FF6847H   LINE      CODE     ---       #109
      00FF684AH   LINE      CODE     ---       #110
      00FF684DH   LINE      CODE     ---       #112
      00FF6850H   LINE      CODE     ---       #113
      00FF685AH   LINE      CODE     ---       #114
      00FF686EH   LINE      CODE     ---       #115
      00FF6871H   LINE      CODE     ---       #116
      ---         BLOCKEND  ---      ---       LVL=0
      00000E8CH   SYMBOL    EDATA    WORD      hex
      00000E8EH   SYMBOL    EDATA    ---       Print
      00000E92H   SYMBOL    EDATA    BYTE      hexcheck
      00000E93H   SYMBOL    EDATA    BYTE      TEMP

      00FF6BB4H   BLOCK     CODE     ---       LVL=0
      000010C2H   SYMBOL    EDATA    BYTE      x
      000010C3H   SYMBOL    EDATA    BYTE      y
      00FF6BB4H   LINE      CODE     ---       #205
      00FF6BBCH   LINE      CODE     ---       #207
      00FF6BC7H   LINE      CODE     ---       #208
      00FF6BDDH   LINE      CODE     ---       #209
      00FF6BE8H   LINE      CODE     ---       #210
      ---         BLOCKEND  ---      ---       LVL=0
L251 LINKER/LOCATER V4.66.93.0                                                        11/01/2024  21:35:45  PAGE 93


      00001072H   SYMBOL    EDATA    BYTE      bmp_data
      00001073H   SYMBOL    EDATA    BYTE      y
      00001074H   SYMBOL    EDATA    BYTE      x
      00001075H   SYMBOL    EDATA    BYTE      x
      00001076H   SYMBOL    EDATA    BYTE      y
      00001077H   SYMBOL    EDATA    BYTE      data1
      000010C4H   SYMBOL    EDATA    BYTE      x
      000010C5H   SYMBOL    EDATA    BYTE      y
      00000DDEH   SYMBOL    EDATA    BYTE      x
      00000DDFH   SYMBOL    EDATA    BYTE      y
      00000DE0H   SYMBOL    EDATA    ---       ch
      00000DE4H   SYMBOL    EDATA    BYTE      c
      00000DE5H   SYMBOL    EDATA    BYTE      i
      00000DE6H   SYMBOL    EDATA    BYTE      j
      00000DE7H   SYMBOL    EDATA    BYTE      x
      00000DE8H   SYMBOL    EDATA    BYTE      y
      00000DE9H   SYMBOL    EDATA    ---       ch
      00000DEDH   SYMBOL    EDATA    BYTE      c
      00000DEEH   SYMBOL    EDATA    BYTE      i
      00000DEFH   SYMBOL    EDATA    BYTE      j
      00000C68H   SYMBOL    EDATA    BYTE      x
      00000C69H   SYMBOL    EDATA    BYTE      y
      00000C6AH   SYMBOL    EDATA    WORD      num
      00000C6CH   SYMBOL    EDATA    ---       ch
      00000C73H   SYMBOL    EDATA    BYTE      x
      00000C74H   SYMBOL    EDATA    BYTE      y
      00000C75H   SYMBOL    EDATA    INT       num
      00000C77H   SYMBOL    EDATA    ---       ch
      000007FCH   SYMBOL    EDATA    WORD      x
      000007FEH   SYMBOL    EDATA    WORD      y
      00000800H   SYMBOL    EDATA    LONG      dat
      00000804H   SYMBOL    EDATA    BYTE      num
      00000805H   SYMBOL    EDATA    ---       buff
      00000827H   SYMBOL    EDATA    BYTE      length
      000006BDH   SYMBOL    EDATA    WORD      x
      000006BFH   SYMBOL    EDATA    WORD      y
      000006C1H   SYMBOL    EDATA    FLOAT     dat
      000006C5H   SYMBOL    EDATA    BYTE      num
      000006C6H   SYMBOL    EDATA    BYTE      pointnum
      000006C7H   SYMBOL    EDATA    BYTE      length
      000006C8H   SYMBOL    EDATA    ---       buff
      000006EAH   SYMBOL    EDATA    CHAR      start
      000006EBH   SYMBOL    EDATA    CHAR      end
      000006ECH   SYMBOL    EDATA    CHAR      point
      00000A92H   SYMBOL    EDATA    WORD      high
      00000A94H   SYMBOL    EDATA    WORD      width
      00000A96H   SYMBOL    EDATA    ---       p
      00000A9AH   SYMBOL    EDATA    BYTE      value
      00000A9BH   SYMBOL    EDATA    WORD      i
      00000A9DH   SYMBOL    EDATA    WORD      j
      00000A9FH   SYMBOL    EDATA    WORD      temp
      00000AA1H   SYMBOL    EDATA    WORD      temp1
      00000AA3H   SYMBOL    EDATA    BYTE      dat
      00000B3FH   SYMBOL    EDATA    BYTE      x
      00000B40H   SYMBOL    EDATA    BYTE      y
      00000B41H   SYMBOL    EDATA    BYTE      size
      00000B42H   SYMBOL    EDATA    ---       p
      00000B46H   SYMBOL    EDATA    BYTE      len
      00000B47H   SYMBOL    EDATA    WORD      i
      00000B49H   SYMBOL    EDATA    WORD      j
      00000B4BH   SYMBOL    EDATA    WORD      k

      00FF6FDBH   BLOCK     CODE     ---       LVL=0
      000010E6H   SYMBOL    EDATA    BYTE      dat
      00FF6FDBH   LINE      CODE     ---       #534
L251 LINKER/LOCATER V4.66.93.0                                                        11/01/2024  21:35:45  PAGE 94


      00FF6FDFH   LINE      CODE     ---       #536
      00FF6FE2H   LINE      CODE     ---       #537
      00FF6FE5H   LINE      CODE     ---       #538
      00FF6FECH   LINE      CODE     ---       #539
      00FF6FEFH   LINE      CODE     ---       #542
      ---         BLOCKEND  ---      ---       LVL=0

      00FF6FC6H   BLOCK     CODE     ---       LVL=0
      000010E7H   SYMBOL    EDATA    BYTE      cmd
      00FF6FC6H   LINE      CODE     ---       #576
      00FF6FCAH   LINE      CODE     ---       #578
      00FF6FCDH   LINE      CODE     ---       #579
      00FF6FD0H   LINE      CODE     ---       #580
      00FF6FD7H   LINE      CODE     ---       #581
      00FF6FDAH   LINE      CODE     ---       #582
      ---         BLOCKEND  ---      ---       LVL=0
      00000E94H   SYMBOL    EDATA    WORD      hex
      00000E96H   SYMBOL    EDATA    ---       Print
      00000E9AH   SYMBOL    EDATA    BYTE      hexcheck
      00000E9BH   SYMBOL    EDATA    BYTE      TEMP

      00FF6B14H   BLOCK     CODE     ---       LVL=0
      000010C6H   SYMBOL    EDATA    BYTE      x
      000010C7H   SYMBOL    EDATA    BYTE      y
      00FF6B14H   LINE      CODE     ---       #672
      00FF6B1CH   LINE      CODE     ---       #676
      00FF6B27H   LINE      CODE     ---       #677
      00FF6B3EH   LINE      CODE     ---       #678
      00FF6B49H   LINE      CODE     ---       #679
      ---         BLOCKEND  ---      ---       LVL=0
      00001078H   SYMBOL    EDATA    BYTE      bmp_data
      00001079H   SYMBOL    EDATA    BYTE      y
      0000107AH   SYMBOL    EDATA    BYTE      x
      0000107BH   SYMBOL    EDATA    BYTE      x
      0000107CH   SYMBOL    EDATA    BYTE      y
      0000107DH   SYMBOL    EDATA    BYTE      data1
      000010C8H   SYMBOL    EDATA    BYTE      x
      000010C9H   SYMBOL    EDATA    BYTE      y
      00000DF0H   SYMBOL    EDATA    BYTE      x
      00000DF1H   SYMBOL    EDATA    BYTE      y
      00000DF2H   SYMBOL    EDATA    ---       ch
      00000DF6H   SYMBOL    EDATA    BYTE      c
      00000DF7H   SYMBOL    EDATA    BYTE      i
      00000DF8H   SYMBOL    EDATA    BYTE      j
      00000DF9H   SYMBOL    EDATA    BYTE      x
      00000DFAH   SYMBOL    EDATA    BYTE      y
      00000DFBH   SYMBOL    EDATA    ---       ch
      00000DFFH   SYMBOL    EDATA    BYTE      c
      00000E00H   SYMBOL    EDATA    BYTE      i
      00000E01H   SYMBOL    EDATA    BYTE      j
      00000C7EH   SYMBOL    EDATA    BYTE      x
      00000C7FH   SYMBOL    EDATA    BYTE      y
      00000C80H   SYMBOL    EDATA    WORD      num
      00000C82H   SYMBOL    EDATA    ---       ch
      00000C89H   SYMBOL    EDATA    BYTE      x
      00000C8AH   SYMBOL    EDATA    BYTE      y
      00000C8BH   SYMBOL    EDATA    INT       num
      00000C8DH   SYMBOL    EDATA    ---       ch
      00000828H   SYMBOL    EDATA    WORD      x
      0000082AH   SYMBOL    EDATA    WORD      y
      0000082CH   SYMBOL    EDATA    LONG      dat
      00000830H   SYMBOL    EDATA    BYTE      num
      00000831H   SYMBOL    EDATA    ---       buff
      00000853H   SYMBOL    EDATA    BYTE      length
      000006EDH   SYMBOL    EDATA    WORD      x
L251 LINKER/LOCATER V4.66.93.0                                                        11/01/2024  21:35:45  PAGE 95


      000006EFH   SYMBOL    EDATA    WORD      y
      000006F1H   SYMBOL    EDATA    FLOAT     dat
      000006F5H   SYMBOL    EDATA    BYTE      num
      000006F6H   SYMBOL    EDATA    BYTE      pointnum
      000006F7H   SYMBOL    EDATA    BYTE      length
      000006F8H   SYMBOL    EDATA    ---       buff
      0000071AH   SYMBOL    EDATA    CHAR      start
      0000071BH   SYMBOL    EDATA    CHAR      end
      0000071CH   SYMBOL    EDATA    CHAR      point
      00000AA4H   SYMBOL    EDATA    WORD      high
      00000AA6H   SYMBOL    EDATA    WORD      width
      00000AA8H   SYMBOL    EDATA    ---       p
      00000AACH   SYMBOL    EDATA    BYTE      value
      00000AADH   SYMBOL    EDATA    WORD      i
      00000AAFH   SYMBOL    EDATA    WORD      j
      00000AB1H   SYMBOL    EDATA    WORD      temp
      00000AB3H   SYMBOL    EDATA    WORD      temp1
      00000AB5H   SYMBOL    EDATA    BYTE      dat
      00000B4DH   SYMBOL    EDATA    BYTE      x
      00000B4EH   SYMBOL    EDATA    BYTE      y
      00000B4FH   SYMBOL    EDATA    BYTE      size
      00000B50H   SYMBOL    EDATA    ---       p
      00000B54H   SYMBOL    EDATA    BYTE      len
      00000B55H   SYMBOL    EDATA    WORD      i
      00000B57H   SYMBOL    EDATA    WORD      j
      00000B59H   SYMBOL    EDATA    WORD      k

      ---         MODULE    ---      ---       SEEKFREE_TSL1401
      00FF5E6CH   PUBLIC    CODE     ---       ccd_collect
      00000008H   PUBLIC    EDATA    BYTE      tsl1401_finish_flag
      00000009H   PUBLIC    EDATA    ---       ccd_data_ch1
      00000109H   PUBLIC    EDATA    ---       ccd_data_ch2
      000000D0H   SFRSYM    DATA     BYTE      PSW
      0000009DH   SFRSYM    DATA     BYTE      IRCBAND
      00000097H   SFRSYM    DATA     BYTE      AUXR2
      000000EFH   SFRSYM    DATA     BYTE      AUXINTIF
      000000FDH   SFRSYM    DATA     BYTE      S4CON
      000000ACH   SFRSYM    DATA     BYTE      S3CON
      0000009AH   SFRSYM    DATA     BYTE      S2CON
      000000B7H   SFRSYM    DATA     BYTE      IPH
      000000CDH   SFRSYM    DATA     BYTE      SPSTAT
      000000DDH   SFRSYM    DATA     BYTE      T4T3M
      000000C1H   SFRSYM    DATA     BYTE      WDT_CONTR
      000000DFH   SFRSYM    DATA     BYTE      IP3
      000000F4H   SFRSYM    DATA     BYTE      USBCON
      000000B5H   SFRSYM    DATA     BYTE      IP2
      000000FFH   SFRSYM    DATA     BYTE      RSTCFG
      000000C7H   SFRSYM    DATA     BYTE      IAP_CONTR
      000000F9H   SFRSYM    DATA     BYTE      LINICR
      0000008EH   SFRSYM    DATA     BYTE      AUXR
      000000AFH   SFRSYM    DATA     BYTE      IE2
      00000080H.7 SFRSYM    DATA     BIT       P07
      00000088H   SFRSYM    DATA     BYTE      TCON
      00000089H   SFRSYM    DATA     BYTE      TMOD
      00000098H   SFRSYM    DATA     BYTE      SCON
      00000080H.2 SFRSYM    DATA     BIT       P02
      000000F1H   SFRSYM    DATA     BYTE      CANICR
      00000087H   SFRSYM    DATA     BYTE      PCON
      000000BCH   SFRSYM    DATA     BYTE      ADC_CONTR
      000000E7H   SFRSYM    DATA     BYTE      CMPCR2
      000000E6H   SFRSYM    DATA     BYTE      CMPCR1
      000000DEH   SFRSYM    DATA     BYTE      ADCCFG
      000000B8H   SFRSYM    DATA     BYTE      IP
      0000008FH   SFRSYM    DATA     BYTE      INTCLKO
      000000EEH   SFRSYM    DATA     BYTE      IP3H
L251 LINKER/LOCATER V4.66.93.0                                                        11/01/2024  21:35:45  PAGE 96


      000000B6H   SFRSYM    DATA     BYTE      IP2H
      000000A8H   SFRSYM    DATA     BYTE      IE
      000000BBH   SFRSYM    DATA     BYTE      P_SW3
      000000BAH   SFRSYM    DATA     BYTE      P_SW2
      000000A2H   SFRSYM    DATA     BYTE      P_SW1
      000000CEH   SFRSYM    DATA     BYTE      SPCTL
      000000F8H   SFRSYM    DATA     BYTE      P7
      000000E8H   SFRSYM    DATA     BYTE      P6
      000000C8H   SFRSYM    DATA     BYTE      P5
      000000C0H   SFRSYM    DATA     BYTE      P4
      000000B0H   SFRSYM    DATA     BYTE      P3
      000000A0H   SFRSYM    DATA     BYTE      P2
      00000090H   SFRSYM    DATA     BYTE      P1
      00000080H   SFRSYM    DATA     BYTE      P0
      00000EDEH   SYMBOL    EDATA    INT       uart_n
      00000EE0H   SYMBOL    EDATA    ---       dat
      00000EE4H   SYMBOL    EDATA    BYTE      i

      00FF5E6CH   BLOCK     CODE     ---       LVL=0
      000010E8H   SYMBOL    EDATA    BYTE      i
      00FF5E6CH   LINE      CODE     ---       #86
      00FF5E6CH   LINE      CODE     ---       #87
      00FF5E6CH   LINE      CODE     ---       #88
      00FF5E71H   LINE      CODE     ---       #90
      00FF5E74H   LINE      CODE     ---       #91
      00FF5E77H   LINE      CODE     ---       #92
      00FF5E7AH   LINE      CODE     ---       #93
      00FF5E7DH   LINE      CODE     ---       #94
      00FF5E80H   LINE      CODE     ---       #95
      00FF5E83H   LINE      CODE     ---       #97
      00FF5E8AH   LINE      CODE     ---       #99
      00FF5E8DH   LINE      CODE     ---       #100
      00FF5EAAH   LINE      CODE     ---       #101
      00FF5EC7H   LINE      CODE     ---       #102
      00FF5ECAH   LINE      CODE     ---       #103
      00FF5EE1H   LINE      CODE     ---       #104
      00FF5EE7H   LINE      CODE     ---       #105
      ---         BLOCKEND  ---      ---       LVL=0

      ---         MODULE    ---      ---       SEEKFREE_VIRSCO
      00000D16H   PUBLIC    EDATA    ---       virtual_scope_data
      00000B5BH   PUBLIC    EDATA    BYTE      ?data_conversion?BYTE
      000000D0H   SFRSYM    DATA     BYTE      PSW
      0000009DH   SFRSYM    DATA     BYTE      IRCBAND
      00000097H   SFRSYM    DATA     BYTE      AUXR2
      000000EFH   SFRSYM    DATA     BYTE      AUXINTIF
      000000FDH   SFRSYM    DATA     BYTE      S4CON
      000000ACH   SFRSYM    DATA     BYTE      S3CON
      0000009AH   SFRSYM    DATA     BYTE      S2CON
      000000B7H   SFRSYM    DATA     BYTE      IPH
      000000CDH   SFRSYM    DATA     BYTE      SPSTAT
      000000DDH   SFRSYM    DATA     BYTE      T4T3M
      000000C1H   SFRSYM    DATA     BYTE      WDT_CONTR
      000000DFH   SFRSYM    DATA     BYTE      IP3
      000000F4H   SFRSYM    DATA     BYTE      USBCON
      000000B5H   SFRSYM    DATA     BYTE      IP2
      000000FFH   SFRSYM    DATA     BYTE      RSTCFG
      000000C7H   SFRSYM    DATA     BYTE      IAP_CONTR
      000000F9H   SFRSYM    DATA     BYTE      LINICR
      0000008EH   SFRSYM    DATA     BYTE      AUXR
      000000AFH   SFRSYM    DATA     BYTE      IE2
      00000088H   SFRSYM    DATA     BYTE      TCON
      00000089H   SFRSYM    DATA     BYTE      TMOD
      00000098H   SFRSYM    DATA     BYTE      SCON
      000000F1H   SFRSYM    DATA     BYTE      CANICR
L251 LINKER/LOCATER V4.66.93.0                                                        11/01/2024  21:35:45  PAGE 97


      00000087H   SFRSYM    DATA     BYTE      PCON
      000000BCH   SFRSYM    DATA     BYTE      ADC_CONTR
      000000E7H   SFRSYM    DATA     BYTE      CMPCR2
      000000E6H   SFRSYM    DATA     BYTE      CMPCR1
      000000DEH   SFRSYM    DATA     BYTE      ADCCFG
      000000B8H   SFRSYM    DATA     BYTE      IP
      0000008FH   SFRSYM    DATA     BYTE      INTCLKO
      000000EEH   SFRSYM    DATA     BYTE      IP3H
      000000B6H   SFRSYM    DATA     BYTE      IP2H
      000000A8H   SFRSYM    DATA     BYTE      IE
      000000BBH   SFRSYM    DATA     BYTE      P_SW3
      000000BAH   SFRSYM    DATA     BYTE      P_SW2
      000000A2H   SFRSYM    DATA     BYTE      P_SW1
      000000CEH   SFRSYM    DATA     BYTE      SPCTL
      000000F8H   SFRSYM    DATA     BYTE      P7
      000000E8H   SFRSYM    DATA     BYTE      P6
      000000C8H   SFRSYM    DATA     BYTE      P5
      000000C0H   SFRSYM    DATA     BYTE      P4
      000000B0H   SFRSYM    DATA     BYTE      P3
      000000A0H   SFRSYM    DATA     BYTE      P2
      00000090H   SFRSYM    DATA     BYTE      P1
      00000080H   SFRSYM    DATA     BYTE      P0
      00000E02H   SYMBOL    EDATA    ---       Buf
      00000E06H   SYMBOL    EDATA    BYTE      CRC_CNT
      00000E07H   SYMBOL    EDATA    WORD      CRC_Temp
      00000E09H   SYMBOL    EDATA    BYTE      i
      00000E0AH   SYMBOL    EDATA    BYTE      j
      00000B5BH   SYMBOL    EDATA    INT       data1
      00000B5DH   SYMBOL    EDATA    INT       data2
      00000B5FH   SYMBOL    EDATA    INT       data3
      00000B61H   SYMBOL    EDATA    INT       data4
      00000B63H   SYMBOL    EDATA    ---       dat
      00000B67H   SYMBOL    EDATA    WORD      CRC16

      ---         MODULE    ---      ---       SEEKFREE_WIRELESS
      000000D0H   SFRSYM    DATA     BYTE      PSW
      0000009DH   SFRSYM    DATA     BYTE      IRCBAND
      00000097H   SFRSYM    DATA     BYTE      AUXR2
      000000EFH   SFRSYM    DATA     BYTE      AUXINTIF
      000000FDH   SFRSYM    DATA     BYTE      S4CON
      000000ACH   SFRSYM    DATA     BYTE      S3CON
      0000009AH   SFRSYM    DATA     BYTE      S2CON
      000000B7H   SFRSYM    DATA     BYTE      IPH
      000000CDH   SFRSYM    DATA     BYTE      SPSTAT
      000000DDH   SFRSYM    DATA     BYTE      T4T3M
      000000C1H   SFRSYM    DATA     BYTE      WDT_CONTR
      000000DFH   SFRSYM    DATA     BYTE      IP3
      000000F4H   SFRSYM    DATA     BYTE      USBCON
      000000B5H   SFRSYM    DATA     BYTE      IP2
      000000FFH   SFRSYM    DATA     BYTE      RSTCFG
      000000C7H   SFRSYM    DATA     BYTE      IAP_CONTR
      000000F9H   SFRSYM    DATA     BYTE      LINICR
      0000008EH   SFRSYM    DATA     BYTE      AUXR
      000000AFH   SFRSYM    DATA     BYTE      IE2
      00000080H.7 SFRSYM    DATA     BIT       P07
      00000088H   SFRSYM    DATA     BYTE      TCON
      00000089H   SFRSYM    DATA     BYTE      TMOD
      00000098H   SFRSYM    DATA     BYTE      SCON
      000000F1H   SFRSYM    DATA     BYTE      CANICR
      00000087H   SFRSYM    DATA     BYTE      PCON
      000000BCH   SFRSYM    DATA     BYTE      ADC_CONTR
      000000E7H   SFRSYM    DATA     BYTE      CMPCR2
      000000E6H   SFRSYM    DATA     BYTE      CMPCR1
      000000DEH   SFRSYM    DATA     BYTE      ADCCFG
      000000B8H   SFRSYM    DATA     BYTE      IP
L251 LINKER/LOCATER V4.66.93.0                                                        11/01/2024  21:35:45  PAGE 98


      0000008FH   SFRSYM    DATA     BYTE      INTCLKO
      000000EEH   SFRSYM    DATA     BYTE      IP3H
      000000B6H   SFRSYM    DATA     BYTE      IP2H
      000000A8H   SFRSYM    DATA     BYTE      IE
      000000BBH   SFRSYM    DATA     BYTE      P_SW3
      000000BAH   SFRSYM    DATA     BYTE      P_SW2
      000000A2H   SFRSYM    DATA     BYTE      P_SW1
      000000CEH   SFRSYM    DATA     BYTE      SPCTL
      000000F8H   SFRSYM    DATA     BYTE      P7
      000000E8H   SFRSYM    DATA     BYTE      P6
      000000C8H   SFRSYM    DATA     BYTE      P5
      000000C0H   SFRSYM    DATA     BYTE      P4
      000000B0H   SFRSYM    DATA     BYTE      P3
      000000A0H   SFRSYM    DATA     BYTE      P2
      00000090H   SFRSYM    DATA     BYTE      P1
      00000080H   SFRSYM    DATA     BYTE      P0
      00000516H   SYMBOL    EDATA    BYTE      wireless_uart_data
      00000517H   SYMBOL    EDATA    ---       wireless_uart_fifo
      0000052EH   SYMBOL    EDATA    ---       wireless_uart_buffer
      000010E9H   SYMBOL    EDATA    BYTE      dat
      000010EAH   SYMBOL    EDATA    BYTE      dat
      00000E9CH   SYMBOL    EDATA    ---       buff
      00000EA0H   SYMBOL    EDATA    DWORD     len
      00000C5CH   SYMBOL    EDATA    ---       buff
      00000C60H   SYMBOL    EDATA    DWORD     len
      00000C64H   SYMBOL    EDATA    DWORD     data_len

      ---         MODULE    ---      ---       isr
      00FF6A20H   PUBLIC    CODE     ---       UART1_Isr
      00FF66F2H   PUBLIC    CODE     ---       UART2_Isr
      00FF6EE8H   PUBLIC    CODE     ---       UART3_Isr
      00FF6F02H   PUBLIC    CODE     ---       UART4_Isr
      00FF005EH   PUBLIC    CODE     ---       INT0_Isr
      00FF000AH   PUBLIC    CODE     ---       INT1_Isr
      00FF0086H   PUBLIC    CODE     ---       INT2_Isr
      00FF008EH   PUBLIC    CODE     ---       INT3_Isr
      00FF0096H   PUBLIC    CODE     ---       INT4_Isr
      00FF0012H   PUBLIC    CODE     ---       TM0_Isr
      00FF001AH   PUBLIC    CODE     ---       TM1_Isr
      00FF009EH   PUBLIC    CODE     ---       TM2_Isr
      00FF7087H   PUBLIC    CODE     ---       TM3_Isr
      00FF6BE9H   PUBLIC    CODE     ---       TM4_Isr
      000000D0H   SFRSYM    DATA     BYTE      PSW
      0000009DH   SFRSYM    DATA     BYTE      IRCBAND
      00000097H   SFRSYM    DATA     BYTE      AUXR2
      000000EFH   SFRSYM    DATA     BYTE      AUXINTIF
      000000FDH   SFRSYM    DATA     BYTE      S4CON
      000000ACH   SFRSYM    DATA     BYTE      S3CON
      0000009AH   SFRSYM    DATA     BYTE      S2CON
      0000009BH   SFRSYM    DATA     BYTE      S2BUF
      000000B7H   SFRSYM    DATA     BYTE      IPH
      000000CDH   SFRSYM    DATA     BYTE      SPSTAT
      000000DDH   SFRSYM    DATA     BYTE      T4T3M
      000000C1H   SFRSYM    DATA     BYTE      WDT_CONTR
      000000DFH   SFRSYM    DATA     BYTE      IP3
      000000F4H   SFRSYM    DATA     BYTE      USBCON
      000000B5H   SFRSYM    DATA     BYTE      IP2
      000000FFH   SFRSYM    DATA     BYTE      RSTCFG
      000000C7H   SFRSYM    DATA     BYTE      IAP_CONTR
      000000F9H   SFRSYM    DATA     BYTE      LINICR
      0000008EH   SFRSYM    DATA     BYTE      AUXR
      000000AFH   SFRSYM    DATA     BYTE      IE2
      000000C8H.2 SFRSYM    DATA     BIT       P52
      00000088H   SFRSYM    DATA     BYTE      TCON
      00000089H   SFRSYM    DATA     BYTE      TMOD
L251 LINKER/LOCATER V4.66.93.0                                                        11/01/2024  21:35:45  PAGE 99


      00000098H   SFRSYM    DATA     BYTE      SCON
      000000F1H   SFRSYM    DATA     BYTE      CANICR
      00000087H   SFRSYM    DATA     BYTE      PCON
      00000099H   SFRSYM    DATA     BYTE      SBUF
      000000BCH   SFRSYM    DATA     BYTE      ADC_CONTR
      000000E7H   SFRSYM    DATA     BYTE      CMPCR2
      000000E6H   SFRSYM    DATA     BYTE      CMPCR1
      000000DEH   SFRSYM    DATA     BYTE      ADCCFG
      000000B8H   SFRSYM    DATA     BYTE      IP
      0000008FH   SFRSYM    DATA     BYTE      INTCLKO
      000000EEH   SFRSYM    DATA     BYTE      IP3H
      000000B6H   SFRSYM    DATA     BYTE      IP2H
      000000A8H   SFRSYM    DATA     BYTE      IE
      000000BBH   SFRSYM    DATA     BYTE      P_SW3
      000000BAH   SFRSYM    DATA     BYTE      P_SW2
      000000A2H   SFRSYM    DATA     BYTE      P_SW1
      000000CEH   SFRSYM    DATA     BYTE      SPCTL
      000000F8H   SFRSYM    DATA     BYTE      P7
      000000E8H   SFRSYM    DATA     BYTE      P6
      000000C8H   SFRSYM    DATA     BYTE      P5
      000000C0H   SFRSYM    DATA     BYTE      P4
      000000B0H   SFRSYM    DATA     BYTE      P3
      000000A0H   SFRSYM    DATA     BYTE      P2
      00000090H   SFRSYM    DATA     BYTE      P1
      00000080H   SFRSYM    DATA     BYTE      P0

      00FF6A20H   BLOCK     CODE     ---       LVL=0
      00FF6A22H   BLOCK     CODE     NEAR LAB  LVL=1
      000010EBH   SYMBOL    EDATA    BYTE      res
      000010ECH   SYMBOL    EDATA    BYTE      dwon_count
      ---         BLOCKEND  ---      ---       LVL=1
      00FF6A20H   LINE      CODE     ---       #22
      00FF6A22H   LINE      CODE     ---       #23
      00FF6A22H   LINE      CODE     ---       #26
      00FF6A27H   LINE      CODE     ---       #28
      00FF6A2AH   LINE      CODE     ---       #29
      00FF6A2FH   LINE      CODE     ---       #30
      00FF6A2FH   LINE      CODE     ---       #31
      00FF6A34H   LINE      CODE     ---       #33
      00FF6A37H   LINE      CODE     ---       #34
      00FF6A3DH   LINE      CODE     ---       #36
      00FF6A42H   LINE      CODE     ---       #38
      00FF6A54H   LINE      CODE     ---       #39
      00FF6A58H   LINE      CODE     ---       #40
      00FF6A5AH   LINE      CODE     ---       #43
      00FF6A5FH   LINE      CODE     ---       #44
      00FF6A5FH   LINE      CODE     ---       #45
      ---         BLOCKEND  ---      ---       LVL=0

      00FF66F2H   BLOCK     CODE     ---       LVL=0
      00FF66F2H   LINE      CODE     ---       #49
      00FF6706H   LINE      CODE     ---       #51
      00FF670BH   LINE      CODE     ---       #53
      00FF670EH   LINE      CODE     ---       #54
      00FF6713H   LINE      CODE     ---       #55
      00FF6713H   LINE      CODE     ---       #56
      00FF6718H   LINE      CODE     ---       #58
      00FF671BH   LINE      CODE     ---       #60
      00FF6725H   LINE      CODE     ---       #64
      00FF672DH   LINE      CODE     ---       #65
      00FF672DH   LINE      CODE     ---       #67
      ---         BLOCKEND  ---      ---       LVL=0

      00FF6EE8H   BLOCK     CODE     ---       LVL=0
      00FF6EE8H   LINE      CODE     ---       #71
L251 LINKER/LOCATER V4.66.93.0                                                        11/01/2024  21:35:45  PAGE 100


      00FF6EEAH   LINE      CODE     ---       #73
      00FF6EEFH   LINE      CODE     ---       #75
      00FF6EF2H   LINE      CODE     ---       #76
      00FF6EF7H   LINE      CODE     ---       #77
      00FF6EF7H   LINE      CODE     ---       #78
      00FF6EFCH   LINE      CODE     ---       #80
      00FF6EFFH   LINE      CODE     ---       #83
      ---         BLOCKEND  ---      ---       LVL=0

      00FF6F02H   BLOCK     CODE     ---       LVL=0
      00FF6F02H   LINE      CODE     ---       #88
      00FF6F04H   LINE      CODE     ---       #90
      00FF6F09H   LINE      CODE     ---       #92
      00FF6F0CH   LINE      CODE     ---       #93
      00FF6F11H   LINE      CODE     ---       #94
      00FF6F11H   LINE      CODE     ---       #95
      00FF6F16H   LINE      CODE     ---       #97
      00FF6F19H   LINE      CODE     ---       #101
      ---         BLOCKEND  ---      ---       LVL=0

      00FF005EH   BLOCK     CODE     ---       LVL=0
      00FF005EH   LINE      CODE     ---       #105
      00FF005EH   LINE      CODE     ---       #107
      00FF0061H   LINE      CODE     ---       #108
      ---         BLOCKEND  ---      ---       LVL=0

      00FF000AH   BLOCK     CODE     ---       LVL=0
      00FF000AH   LINE      CODE     ---       #109
      00FF000AH   LINE      CODE     ---       #112
      ---         BLOCKEND  ---      ---       LVL=0

      00FF0086H   BLOCK     CODE     ---       LVL=0
      00FF0086H   LINE      CODE     ---       #113
      00FF0086H   LINE      CODE     ---       #115
      00FF0089H   LINE      CODE     ---       #116
      ---         BLOCKEND  ---      ---       LVL=0

      00FF008EH   BLOCK     CODE     ---       LVL=0
      00FF008EH   LINE      CODE     ---       #117
      00FF008EH   LINE      CODE     ---       #119
      00FF0091H   LINE      CODE     ---       #120
      ---         BLOCKEND  ---      ---       LVL=0

      00FF0096H   BLOCK     CODE     ---       LVL=0
      00FF0096H   LINE      CODE     ---       #122
      00FF0096H   LINE      CODE     ---       #124
      00FF0099H   LINE      CODE     ---       #125
      ---         BLOCKEND  ---      ---       LVL=0

      00FF0012H   BLOCK     CODE     ---       LVL=0
      00FF0012H   LINE      CODE     ---       #127
      00FF0012H   LINE      CODE     ---       #130
      ---         BLOCKEND  ---      ---       LVL=0

      00FF001AH   BLOCK     CODE     ---       LVL=0
      00FF001AH   LINE      CODE     ---       #131
      00FF001AH   LINE      CODE     ---       #134
      ---         BLOCKEND  ---      ---       LVL=0

      00FF009EH   BLOCK     CODE     ---       LVL=0
      00FF009EH   LINE      CODE     ---       #135
      00FF009EH   LINE      CODE     ---       #137
      00FF00A1H   LINE      CODE     ---       #139
      ---         BLOCKEND  ---      ---       LVL=0

L251 LINKER/LOCATER V4.66.93.0                                                        11/01/2024  21:35:45  PAGE 101


      00FF7087H   BLOCK     CODE     ---       LVL=0
      00FF7087H   LINE      CODE     ---       #140
      00FF7087H   LINE      CODE     ---       #142
      00FF708AH   LINE      CODE     ---       #144
      ---         BLOCKEND  ---      ---       LVL=0

      00FF6BE9H   BLOCK     CODE     ---       LVL=0
      00FF6BE9H   LINE      CODE     ---       #146
      00FF6BFDH   LINE      CODE     ---       #148
      00FF6C00H   LINE      CODE     ---       #149
      00FF6C03H   LINE      CODE     ---       #151
      ---         BLOCKEND  ---      ---       LVL=0

      ---         MODULE    ---      ---       main
      00FF7004H   PUBLIC    CODE     ---       main
      000000D0H   SFRSYM    DATA     BYTE      PSW
      0000009DH   SFRSYM    DATA     BYTE      IRCBAND
      00000097H   SFRSYM    DATA     BYTE      AUXR2
      000000EFH   SFRSYM    DATA     BYTE      AUXINTIF
      000000FDH   SFRSYM    DATA     BYTE      S4CON
      000000ACH   SFRSYM    DATA     BYTE      S3CON
      0000009AH   SFRSYM    DATA     BYTE      S2CON
      000000B7H   SFRSYM    DATA     BYTE      IPH
      000000CDH   SFRSYM    DATA     BYTE      SPSTAT
      000000DDH   SFRSYM    DATA     BYTE      T4T3M
      000000C1H   SFRSYM    DATA     BYTE      WDT_CONTR
      000000DFH   SFRSYM    DATA     BYTE      IP3
      000000F4H   SFRSYM    DATA     BYTE      USBCON
      000000B5H   SFRSYM    DATA     BYTE      IP2
      000000FFH   SFRSYM    DATA     BYTE      RSTCFG
      000000C7H   SFRSYM    DATA     BYTE      IAP_CONTR
      000000F9H   SFRSYM    DATA     BYTE      LINICR
      0000008EH   SFRSYM    DATA     BYTE      AUXR
      000000AFH   SFRSYM    DATA     BYTE      IE2
      00000088H   SFRSYM    DATA     BYTE      TCON
      00000089H   SFRSYM    DATA     BYTE      TMOD
      00000098H   SFRSYM    DATA     BYTE      SCON
      000000F1H   SFRSYM    DATA     BYTE      CANICR
      00000087H   SFRSYM    DATA     BYTE      PCON
      000000BCH   SFRSYM    DATA     BYTE      ADC_CONTR
      000000E7H   SFRSYM    DATA     BYTE      CMPCR2
      000000E6H   SFRSYM    DATA     BYTE      CMPCR1
      000000DEH   SFRSYM    DATA     BYTE      ADCCFG
      000000B8H   SFRSYM    DATA     BYTE      IP
      0000008FH   SFRSYM    DATA     BYTE      INTCLKO
      000000EEH   SFRSYM    DATA     BYTE      IP3H
      000000B6H   SFRSYM    DATA     BYTE      IP2H
      000000A8H   SFRSYM    DATA     BYTE      IE
      000000BBH   SFRSYM    DATA     BYTE      P_SW3
      000000BAH   SFRSYM    DATA     BYTE      P_SW2
      000000A2H   SFRSYM    DATA     BYTE      P_SW1
      000000CEH   SFRSYM    DATA     BYTE      SPCTL
      000000F8H   SFRSYM    DATA     BYTE      P7
      000000E8H   SFRSYM    DATA     BYTE      P6
      000000C8H   SFRSYM    DATA     BYTE      P5
      000000C0H   SFRSYM    DATA     BYTE      P4
      000000B0H   SFRSYM    DATA     BYTE      P3
      000000A0H   SFRSYM    DATA     BYTE      P2
      00000090H   SFRSYM    DATA     BYTE      P1
      00000080H   SFRSYM    DATA     BYTE      P0

      00FF7004H   BLOCK     CODE     ---       LVL=0
      00FF7004H   LINE      CODE     ---       #26
      00FF7004H   LINE      CODE     ---       #28
      00FF700FH   LINE      CODE     ---       #29
L251 LINKER/LOCATER V4.66.93.0                                                        11/01/2024  21:35:45  PAGE 102


      00FF7012H   LINE      CODE     ---       #32
      00FF7015H   LINE      CODE     ---       #35
      00FF7015H   LINE      CODE     ---       #40
      00FF7017H   LINE      CODE     ---       #41
      ---         BLOCKEND  ---      ---       LVL=0

      ---         MODULE    ---      ---       seekfree_assistant
      00000211H   PUBLIC    EDATA    ---       seekfree_assistant_oscilloscope_data
      0000024CH   PUBLIC    EDATA    ---       seekfree_assistant_parameter_update_flag
      00000254H   PUBLIC    EDATA    ---       seekfree_assistant_parameter
      00000AF8H   PUBLIC    EDATA    BYTE      ?seekfree_assistant_camera_data_send?BYTE
      00000D20H   PUBLIC    EDATA    BYTE      ?seekfree_assistant_camera_information_config?BYTE
      0000092FH   PUBLIC    EDATA    BYTE      ?seekfree_assistant_camera_boundary_config?BYTE
      000000D0H   SFRSYM    DATA     BYTE      PSW
      0000009DH   SFRSYM    DATA     BYTE      IRCBAND
      00000097H   SFRSYM    DATA     BYTE      AUXR2
      000000EFH   SFRSYM    DATA     BYTE      AUXINTIF
      000000FDH   SFRSYM    DATA     BYTE      S4CON
      000000ACH   SFRSYM    DATA     BYTE      S3CON
      0000009AH   SFRSYM    DATA     BYTE      S2CON
      000000B7H   SFRSYM    DATA     BYTE      IPH
      000000CDH   SFRSYM    DATA     BYTE      SPSTAT
      000000DDH   SFRSYM    DATA     BYTE      T4T3M
      000000C1H   SFRSYM    DATA     BYTE      WDT_CONTR
      000000DFH   SFRSYM    DATA     BYTE      IP3
      000000F4H   SFRSYM    DATA     BYTE      USBCON
      000000B5H   SFRSYM    DATA     BYTE      IP2
      000000FFH   SFRSYM    DATA     BYTE      RSTCFG
      000000C7H   SFRSYM    DATA     BYTE      IAP_CONTR
      000000F9H   SFRSYM    DATA     BYTE      LINICR
      0000008EH   SFRSYM    DATA     BYTE      AUXR
      000000AFH   SFRSYM    DATA     BYTE      IE2
      00000088H   SFRSYM    DATA     BYTE      TCON
      00000089H   SFRSYM    DATA     BYTE      TMOD
      00000098H   SFRSYM    DATA     BYTE      SCON
      000000F1H   SFRSYM    DATA     BYTE      CANICR
      00000087H   SFRSYM    DATA     BYTE      PCON
      000000BCH   SFRSYM    DATA     BYTE      ADC_CONTR
      000000E7H   SFRSYM    DATA     BYTE      CMPCR2
      000000E6H   SFRSYM    DATA     BYTE      CMPCR1
      000000DEH   SFRSYM    DATA     BYTE      ADCCFG
      000000B8H   SFRSYM    DATA     BYTE      IP
      0000008FH   SFRSYM    DATA     BYTE      INTCLKO
      000000EEH   SFRSYM    DATA     BYTE      IP3H
      000000B6H   SFRSYM    DATA     BYTE      IP2H
      000000A8H   SFRSYM    DATA     BYTE      IE
      000000BBH   SFRSYM    DATA     BYTE      P_SW3
      000000BAH   SFRSYM    DATA     BYTE      P_SW2
      000000A2H   SFRSYM    DATA     BYTE      P_SW1
      000000CEH   SFRSYM    DATA     BYTE      SPCTL
      000000F8H   SFRSYM    DATA     BYTE      P7
      000000E8H   SFRSYM    DATA     BYTE      P6
      000000C8H   SFRSYM    DATA     BYTE      P5
      000000C0H   SFRSYM    DATA     BYTE      P4
      000000B0H   SFRSYM    DATA     BYTE      P3
      000000A0H   SFRSYM    DATA     BYTE      P2
      00000090H   SFRSYM    DATA     BYTE      P1
      00000080H   SFRSYM    DATA     BYTE      P0
      00000209H   SYMBOL    EDATA    ---       seekfree_assistant_camera_dot_data
      00000235H   SYMBOL    EDATA    ---       seekfree_assistant_fifo
      00000274H   SYMBOL    EDATA    ---       seekfree_assistant_camera_buffer
      000002BEH   SYMBOL    EDATA    ---       seekfree_assistant_camera_data
      000002C6H   SYMBOL    EDATA    ---       seekfree_assistant_buffer
      00000E0BH   SYMBOL    EDATA    ---       buffer
      00000E0FH   SYMBOL    EDATA    DWORD     length
L251 LINKER/LOCATER V4.66.93.0                                                        11/01/2024  21:35:45  PAGE 103


      00000E13H   SYMBOL    EDATA    BYTE      temp_sum
      00000AF8H   SYMBOL    EDATA    INT       camera_type
      00000AFAH   SYMBOL    EDATA    ---       image_addr
      00000AFEH   SYMBOL    EDATA    BYTE      boundary_num
      00000AFFH   SYMBOL    EDATA    WORD      width
      00000B01H   SYMBOL    EDATA    WORD      height
      00000B03H   SYMBOL    EDATA    DWORD     image_size
      00000D20H   SYMBOL    EDATA    INT       camera_type
      00000D22H   SYMBOL    EDATA    ---       image_addr
      00000D26H   SYMBOL    EDATA    WORD      width
      00000D28H   SYMBOL    EDATA    WORD      height
      0000087EH   SYMBOL    EDATA    ---       seekfree_assistant_oscilloscope
      00000882H   SYMBOL    EDATA    BYTE      packet_size
      00000883H   SYMBOL    EDATA    BYTE      i
      00000884H   SYMBOL    EDATA    ---       temp_oscilloscope
      00000EE5H   SYMBOL    EDATA    ---       buffer
      00000EE9H   SYMBOL    EDATA    BYTE      i
      00000EEAH   SYMBOL    EDATA    WORD      dot_bytes
      0000092FH   SYMBOL    EDATA    INT       boundary_type
      00000931H   SYMBOL    EDATA    WORD      dot_num
      00000933H   SYMBOL    EDATA    ---       dot_x1
      00000937H   SYMBOL    EDATA    ---       dot_x2
      0000093BH   SYMBOL    EDATA    ---       dot_x3
      0000093FH   SYMBOL    EDATA    ---       dot_y1
      00000943H   SYMBOL    EDATA    ---       dot_y2
      00000947H   SYMBOL    EDATA    ---       dot_y3
      0000094BH   SYMBOL    EDATA    BYTE      i
      0000094CH   SYMBOL    EDATA    BYTE      boundary_num
      0000094DH   SYMBOL    EDATA    BYTE      boundary_data_type
      00000346H   SYMBOL    EDATA    BYTE      temp_sum
      00000347H   SYMBOL    EDATA    DWORD     read_length
      0000034BH   SYMBOL    EDATA    ---       receive_packet
      0000034FH   SYMBOL    EDATA    ---       temp_buffer
      000003CFH   SYMBOL    EDATA    DWORD     i

      ---         MODULE    ---      ---       seekfree_assistant_inface
      00001030H   PUBLIC    EDATA    ---       seekfree_assistant_receive
      00001032H   PUBLIC    EDATA    ---       seekfree_assistant_transfer
      000000D0H   SFRSYM    DATA     BYTE      PSW
      0000009DH   SFRSYM    DATA     BYTE      IRCBAND
      00000097H   SFRSYM    DATA     BYTE      AUXR2
      000000EFH   SFRSYM    DATA     BYTE      AUXINTIF
      000000FDH   SFRSYM    DATA     BYTE      S4CON
      000000ACH   SFRSYM    DATA     BYTE      S3CON
      0000009AH   SFRSYM    DATA     BYTE      S2CON
      000000B7H   SFRSYM    DATA     BYTE      IPH
      000000CDH   SFRSYM    DATA     BYTE      SPSTAT
      000000DDH   SFRSYM    DATA     BYTE      T4T3M
      000000C1H   SFRSYM    DATA     BYTE      WDT_CONTR
      000000DFH   SFRSYM    DATA     BYTE      IP3
      000000F4H   SFRSYM    DATA     BYTE      USBCON
      000000B5H   SFRSYM    DATA     BYTE      IP2
      000000FFH   SFRSYM    DATA     BYTE      RSTCFG
      000000C7H   SFRSYM    DATA     BYTE      IAP_CONTR
      000000F9H   SFRSYM    DATA     BYTE      LINICR
      0000008EH   SFRSYM    DATA     BYTE      AUXR
      000000AFH   SFRSYM    DATA     BYTE      IE2
      00000088H   SFRSYM    DATA     BYTE      TCON
      00000089H   SFRSYM    DATA     BYTE      TMOD
      00000098H   SFRSYM    DATA     BYTE      SCON
      000000F1H   SFRSYM    DATA     BYTE      CANICR
      00000087H   SFRSYM    DATA     BYTE      PCON
      000000BCH   SFRSYM    DATA     BYTE      ADC_CONTR
      000000E7H   SFRSYM    DATA     BYTE      CMPCR2
      000000E6H   SFRSYM    DATA     BYTE      CMPCR1
L251 LINKER/LOCATER V4.66.93.0                                                        11/01/2024  21:35:45  PAGE 104


      000000DEH   SFRSYM    DATA     BYTE      ADCCFG
      000000B8H   SFRSYM    DATA     BYTE      IP
      0000008FH   SFRSYM    DATA     BYTE      INTCLKO
      000000EEH   SFRSYM    DATA     BYTE      IP3H
      000000B6H   SFRSYM    DATA     BYTE      IP2H
      000000A8H   SFRSYM    DATA     BYTE      IE
      000000BBH   SFRSYM    DATA     BYTE      P_SW3
      000000BAH   SFRSYM    DATA     BYTE      P_SW2
      000000A2H   SFRSYM    DATA     BYTE      P_SW1
      000000CEH   SFRSYM    DATA     BYTE      SPCTL
      000000F8H   SFRSYM    DATA     BYTE      P7
      000000E8H   SFRSYM    DATA     BYTE      P6
      000000C8H   SFRSYM    DATA     BYTE      P5
      000000C0H   SFRSYM    DATA     BYTE      P4
      000000B0H   SFRSYM    DATA     BYTE      P3
      000000A0H   SFRSYM    DATA     BYTE      P2
      00000090H   SFRSYM    DATA     BYTE      P1
      00000080H   SFRSYM    DATA     BYTE      P0

      ---         MODULE    ---      ---       drv8701_dual
      00FF5D61H   PUBLIC    CODE     ---       drv8701_control
      000000D0H   SFRSYM    DATA     BYTE      PSW
      0000009DH   SFRSYM    DATA     BYTE      IRCBAND
      00000097H   SFRSYM    DATA     BYTE      AUXR2
      000000EFH   SFRSYM    DATA     BYTE      AUXINTIF
      000000FDH   SFRSYM    DATA     BYTE      S4CON
      000000ACH   SFRSYM    DATA     BYTE      S3CON
      0000009AH   SFRSYM    DATA     BYTE      S2CON
      000000B7H   SFRSYM    DATA     BYTE      IPH
      000000CDH   SFRSYM    DATA     BYTE      SPSTAT
      000000DDH   SFRSYM    DATA     BYTE      T4T3M
      000000C1H   SFRSYM    DATA     BYTE      WDT_CONTR
      000000DFH   SFRSYM    DATA     BYTE      IP3
      000000F4H   SFRSYM    DATA     BYTE      USBCON
      000000B5H   SFRSYM    DATA     BYTE      IP2
      000000FFH   SFRSYM    DATA     BYTE      RSTCFG
      000000C7H   SFRSYM    DATA     BYTE      IAP_CONTR
      000000F9H   SFRSYM    DATA     BYTE      LINICR
      0000008EH   SFRSYM    DATA     BYTE      AUXR
      000000AFH   SFRSYM    DATA     BYTE      IE2
      00000088H   SFRSYM    DATA     BYTE      TCON
      00000089H   SFRSYM    DATA     BYTE      TMOD
      00000098H   SFRSYM    DATA     BYTE      SCON
      000000F1H   SFRSYM    DATA     BYTE      CANICR
      00000087H   SFRSYM    DATA     BYTE      PCON
      000000BCH   SFRSYM    DATA     BYTE      ADC_CONTR
      000000E7H   SFRSYM    DATA     BYTE      CMPCR2
      000000E6H   SFRSYM    DATA     BYTE      CMPCR1
      000000DEH   SFRSYM    DATA     BYTE      ADCCFG
      000000B8H   SFRSYM    DATA     BYTE      IP
      0000008FH   SFRSYM    DATA     BYTE      INTCLKO
      000000EEH   SFRSYM    DATA     BYTE      IP3H
      000000B6H   SFRSYM    DATA     BYTE      IP2H
      000000A8H   SFRSYM    DATA     BYTE      IE
      000000BBH   SFRSYM    DATA     BYTE      P_SW3
      000000BAH   SFRSYM    DATA     BYTE      P_SW2
      000000A2H   SFRSYM    DATA     BYTE      P_SW1
      000000CEH   SFRSYM    DATA     BYTE      SPCTL
      000000F8H   SFRSYM    DATA     BYTE      P7
      000000E8H   SFRSYM    DATA     BYTE      P6
      000000C8H   SFRSYM    DATA     BYTE      P5
      000000C0H   SFRSYM    DATA     BYTE      P4
      000000B0H   SFRSYM    DATA     BYTE      P3
      000000A0H   SFRSYM    DATA     BYTE      P2
      00000090H   SFRSYM    DATA     BYTE      P1
L251 LINKER/LOCATER V4.66.93.0                                                        11/01/2024  21:35:45  PAGE 105


      00000080H   SFRSYM    DATA     BYTE      P0
      00FF699BH   SYMBOL    CODE     ---       set_motor

      00FF699BH   BLOCK     CODE     ---       LVL=0
      00001034H   SYMBOL    EDATA    BYTE      dir_pin
      00001035H   SYMBOL    EDATA    BYTE      motor_pwm_channel
      00001036H   SYMBOL    EDATA    INT       speed_mapped
      00FF699BH   LINE      CODE     ---       #34
      00FF69A7H   LINE      CODE     ---       #37
      00FF69B1H   LINE      CODE     ---       #39
      00FF69B6H   LINE      CODE     ---       #40
      00FF69B8H   LINE      CODE     ---       #43
      00FF69BEH   LINE      CODE     ---       #44
      00FF69CCH   LINE      CODE     ---       #45
      00FF69CCH   LINE      CODE     ---       #48
      00FF69DDH   LINE      CODE     ---       #49
      ---         BLOCKEND  ---      ---       LVL=0

      00FF5D61H   BLOCK     CODE     ---       LVL=0
      00000F9AH   SYMBOL    EDATA    INT       motor_select
      00000F9CH   SYMBOL    EDATA    INT       speed
      00FF5D69H   BLOCK     CODE     NEAR LAB  LVL=1
      00000F9EH   SYMBOL    EDATA    INT       mapped_speed
      ---         BLOCKEND  ---      ---       LVL=1
      00FF5D61H   LINE      CODE     ---       #70
      00FF5D69H   LINE      CODE     ---       #71
      00FF5D69H   LINE      CODE     ---       #74
      00FF5D75H   LINE      CODE     ---       #75
      00FF5D7FH   LINE      CODE     ---       #76
      00FF5D8BH   LINE      CODE     ---       #77
      00FF5D93H   LINE      CODE     ---       #80
      00FF5DA8H   LINE      CODE     ---       #83
      00FF5DB8H   LINE      CODE     ---       #85
      00FF5DB8H   LINE      CODE     ---       #86
      00FF5DC4H   LINE      CODE     ---       #87
      00FF5DC6H   LINE      CODE     ---       #89
      00FF5DC6H   LINE      CODE     ---       #90
      00FF5DD2H   LINE      CODE     ---       #91
      00FF5DD4H   LINE      CODE     ---       #93
      00FF5DD4H   LINE      CODE     ---       #94
      00FF5DE0H   LINE      CODE     ---       #95
      00FF5DECH   LINE      CODE     ---       #96
      00FF5DECH   LINE      CODE     ---       #98
      00FF5DECH   LINE      CODE     ---       #100
      00FF5DECH   LINE      CODE     ---       #101
      00FF5DECH   LINE      CODE     ---       #102
      ---         BLOCKEND  ---      ---       LVL=0
      000010CAH   SYMBOL    EDATA    INT       motor_select

      ---         MODULE    ---      ---       servo
      000010CCH   PUBLIC    EDATA    WORD      ServoAngle
      000000D0H   SFRSYM    DATA     BYTE      PSW
      0000009DH   SFRSYM    DATA     BYTE      IRCBAND
      00000097H   SFRSYM    DATA     BYTE      AUXR2
      000000EFH   SFRSYM    DATA     BYTE      AUXINTIF
      000000FDH   SFRSYM    DATA     BYTE      S4CON
      000000ACH   SFRSYM    DATA     BYTE      S3CON
      0000009AH   SFRSYM    DATA     BYTE      S2CON
      000000B7H   SFRSYM    DATA     BYTE      IPH
      000000CDH   SFRSYM    DATA     BYTE      SPSTAT
      000000DDH   SFRSYM    DATA     BYTE      T4T3M
      000000C1H   SFRSYM    DATA     BYTE      WDT_CONTR
      000000DFH   SFRSYM    DATA     BYTE      IP3
      000000F4H   SFRSYM    DATA     BYTE      USBCON
      000000B5H   SFRSYM    DATA     BYTE      IP2
L251 LINKER/LOCATER V4.66.93.0                                                        11/01/2024  21:35:45  PAGE 106


      000000FFH   SFRSYM    DATA     BYTE      RSTCFG
      000000C7H   SFRSYM    DATA     BYTE      IAP_CONTR
      000000F9H   SFRSYM    DATA     BYTE      LINICR
      0000008EH   SFRSYM    DATA     BYTE      AUXR
      000000AFH   SFRSYM    DATA     BYTE      IE2
      00000088H   SFRSYM    DATA     BYTE      TCON
      00000089H   SFRSYM    DATA     BYTE      TMOD
      00000098H   SFRSYM    DATA     BYTE      SCON
      000000F1H   SFRSYM    DATA     BYTE      CANICR
      00000087H   SFRSYM    DATA     BYTE      PCON
      000000BCH   SFRSYM    DATA     BYTE      ADC_CONTR
      000000E7H   SFRSYM    DATA     BYTE      CMPCR2
      000000E6H   SFRSYM    DATA     BYTE      CMPCR1
      000000DEH   SFRSYM    DATA     BYTE      ADCCFG
      000000B8H   SFRSYM    DATA     BYTE      IP
      0000008FH   SFRSYM    DATA     BYTE      INTCLKO
      000000EEH   SFRSYM    DATA     BYTE      IP3H
      000000B6H   SFRSYM    DATA     BYTE      IP2H
      000000A8H   SFRSYM    DATA     BYTE      IE
      000000BBH   SFRSYM    DATA     BYTE      P_SW3
      000000BAH   SFRSYM    DATA     BYTE      P_SW2
      000000A2H   SFRSYM    DATA     BYTE      P_SW1
      000000CEH   SFRSYM    DATA     BYTE      SPCTL
      000000F8H   SFRSYM    DATA     BYTE      P7
      000000E8H   SFRSYM    DATA     BYTE      P6
      000000C8H   SFRSYM    DATA     BYTE      P5
      000000C0H   SFRSYM    DATA     BYTE      P4
      000000B0H   SFRSYM    DATA     BYTE      P3
      000000A0H   SFRSYM    DATA     BYTE      P2
      00000090H   SFRSYM    DATA     BYTE      P1
      00000080H   SFRSYM    DATA     BYTE      P0
      00001038H   SYMBOL    EDATA    DWORD     duty
      00000FA0H   SYMBOL    EDATA    WORD      angle
      00000FA2H   SYMBOL    EDATA    DWORD     pulseWide

      ---         MODULE    ---      ---       battery
      00000EA4H   PUBLIC    EDATA    DWORD     temp
      00000EA8H   PUBLIC    EDATA    WORD      ad_result
      00000EAAH   PUBLIC    EDATA    WORD      battery_voltage
      000000D0H   SFRSYM    DATA     BYTE      PSW
      0000009DH   SFRSYM    DATA     BYTE      IRCBAND
      00000097H   SFRSYM    DATA     BYTE      AUXR2
      000000EFH   SFRSYM    DATA     BYTE      AUXINTIF
      000000FDH   SFRSYM    DATA     BYTE      S4CON
      000000ACH   SFRSYM    DATA     BYTE      S3CON
      0000009AH   SFRSYM    DATA     BYTE      S2CON
      000000B7H   SFRSYM    DATA     BYTE      IPH
      000000CDH   SFRSYM    DATA     BYTE      SPSTAT
      000000DDH   SFRSYM    DATA     BYTE      T4T3M
      000000C1H   SFRSYM    DATA     BYTE      WDT_CONTR
      000000DFH   SFRSYM    DATA     BYTE      IP3
      000000F4H   SFRSYM    DATA     BYTE      USBCON
      000000B5H   SFRSYM    DATA     BYTE      IP2
      000000FFH   SFRSYM    DATA     BYTE      RSTCFG
      000000C7H   SFRSYM    DATA     BYTE      IAP_CONTR
      000000F9H   SFRSYM    DATA     BYTE      LINICR
      0000008EH   SFRSYM    DATA     BYTE      AUXR
      000000AFH   SFRSYM    DATA     BYTE      IE2
      00000088H   SFRSYM    DATA     BYTE      TCON
      00000089H   SFRSYM    DATA     BYTE      TMOD
      00000098H   SFRSYM    DATA     BYTE      SCON
      000000F1H   SFRSYM    DATA     BYTE      CANICR
      00000087H   SFRSYM    DATA     BYTE      PCON
      000000BCH   SFRSYM    DATA     BYTE      ADC_CONTR
      000000E7H   SFRSYM    DATA     BYTE      CMPCR2
L251 LINKER/LOCATER V4.66.93.0                                                        11/01/2024  21:35:45  PAGE 107


      000000E6H   SFRSYM    DATA     BYTE      CMPCR1
      000000DEH   SFRSYM    DATA     BYTE      ADCCFG
      000000B8H   SFRSYM    DATA     BYTE      IP
      0000008FH   SFRSYM    DATA     BYTE      INTCLKO
      000000EEH   SFRSYM    DATA     BYTE      IP3H
      000000B6H   SFRSYM    DATA     BYTE      IP2H
      000000A8H   SFRSYM    DATA     BYTE      IE
      000000BBH   SFRSYM    DATA     BYTE      P_SW3
      000000BAH   SFRSYM    DATA     BYTE      P_SW2
      000000A2H   SFRSYM    DATA     BYTE      P_SW1
      000000CEH   SFRSYM    DATA     BYTE      SPCTL
      000000F8H   SFRSYM    DATA     BYTE      P7
      000000E8H   SFRSYM    DATA     BYTE      P6
      000000C8H   SFRSYM    DATA     BYTE      P5
      000000C0H   SFRSYM    DATA     BYTE      P4
      000000B0H   SFRSYM    DATA     BYTE      P3
      000000A0H   SFRSYM    DATA     BYTE      P2
      00000090H   SFRSYM    DATA     BYTE      P1
      00000080H   SFRSYM    DATA     BYTE      P0
      00000EACH   SYMBOL    EDATA    INT       max_voltage
      00000EAEH   SYMBOL    EDATA    INT       min_voltage
      00000EB0H   SYMBOL    EDATA    INT       current_voltage
      00000EB2H   SYMBOL    EDATA    INT       percentage

      ---         MODULE    ---      ---       SEEKFREE_CONFIG
      00FF00A6H   PUBLIC    CODE     ---       dl1b_default_configuration
      00FF012DH   PUBLIC    CODE     ---       imu660ra_config_file

      ---         MODULE    ---      ---       PRINTF
      00FF405AH   PUBLIC    CODE     NEAR LAB  PRINTF

      ---         MODULE    ---      ---       ?C?PRNFMT
      00FF40B3H   PUBLIC    CODE     ---       ?C?PRNFMT

      ---         MODULE    ---      ---       ?C?FPCONVERT
      00FF44D0H   PUBLIC    CODE     ---       ?C?FPCONVERT
      00FF4588H   PUBLIC    CODE     ---       ?C?FPROUND

      ---         MODULE    ---      ---       ?C?FTNPWR
      00FF45FBH   PUBLIC    CODE     ---       ?C?FTNPWR

      ---         MODULE    ---      ---       ?C_START
      00FF0000H   PUBLIC    CODE     ---       ?C?STARTUP
      00FF0000H   PUBLIC    CODE     ---       ?C_STARTUP

      ---         MODULE    ---      ---       ?C?INITEDATA
      00FF6A75H   PUBLIC    CODE     ---       ?C?INITEDATA

      ---         MODULE    ---      ---       ?C?SIDIV
      00FF4632H   PUBLIC    CODE     ---       ?C?SIDIV

      ---         MODULE    ---      ---       ?C?LMUL
      00FF4664H   PUBLIC    CODE     ---       ?C?LMUL

      ---         MODULE    ---      ---       ?C?LIMUL
      00FF4675H   PUBLIC    CODE     ---       ?C?LIMUL

      ---         MODULE    ---      ---       ?C?ULDIV
      00FF4680H   PUBLIC    CODE     NEAR LAB  ?C?ULDIV
      00FF467EH   PUBLIC    CODE     NEAR LAB  ?C?ULIDIV

      ---         MODULE    ---      ---       ?C?SLDIV
      00FF46D1H   PUBLIC    CODE     NEAR LAB  ?C?SLDIV

      ---         MODULE    ---      ---       ?C?BMOVENP
L251 LINKER/LOCATER V4.66.93.0                                                        11/01/2024  21:35:45  PAGE 108


      00FF4707H   PUBLIC    CODE     ---       ?C?BMOVENP
      00FF4705H   PUBLIC    CODE     ---       ?C?BMOVENP8

      ---         MODULE    ---      ---       STRLEN

      ---         MODULE    ---      ---       memcpy
      00FF6D62H   PUBLIC    CODE     ---       memcpy?_

      ---         MODULE    ---      ---       memset

      ---         MODULE    ---      ---       ?C?INITEDATA_END
      00FF72B5H   PUBLIC    HCONST   WORD      ?C?INITEDATA_END

Program Size: data=8.0 edata+hdata=4581 xdata=0 const=915 code=28803
L251 RUN COMPLETE.  0 WARNING(S),  0 ERROR(S)
