L251 LINKER/LOCATER V4.66.93.0                                                          11/20/2024  19:22:33  PAGE 1


L251 LINKER/LOCATER V4.66.93.0, INVOKED BY:
C:\KEIL_V5\C251\BIN\L251.EXE .\Out_File\board.obj, .\Out_File\common.obj, ..\..\Libraries\libraries\STC32_FPMU_LARGE_V1.
>> 0.LIB (STC32F_FPMU), .\Out_File\zf_adc.obj, .\Out_File\zf_delay.obj, .\Out_File\zf_eeprom.obj, .\Out_File\zf_exti.obj
>> , .\Out_File\zf_gpio.obj, .\Out_File\zf_iic.obj, .\Out_File\zf_nvic.obj, .\Out_File\zf_pwm.obj, .\Out_File\zf_spi.obj
>> , .\Out_File\zf_tim.obj, .\Out_File\zf_uart.obj, .\Out_File\zf_fifo.obj, .\Out_File\globals.obj, .\Out_File\SEEKFREE_
>> 18TFT.obj, .\Out_File\SEEKFREE_BLUETOOTH_CH9141.obj, ..\..\Libraries\seekfree_peripheral\SEEKFREE_CONFIG.LIB, .\Out_F
>> ile\SEEKFREE_DL1A.obj, .\Out_File\SEEKFREE_DL1B.obj, .\Out_File\SEEKFREE_FONT.obj, .\Out_File\SEEKFREE_FUNCTION.obj, 
>> .\Out_File\SEEKFREE_ICM20602.obj, .\Out_File\SEEKFREE_IMU660RA.obj, .\Out_File\SEEKFREE_IMU963RA.obj, .\Out_File\SEEK
>> FREE_IPS114_SPI.obj, .\Out_File\SEEKFREE_IPS200_SPI.obj, .\Out_File\SEEKFREE_MPU6050.obj, .\Out_File\SEEKFREE_OLED.ob
>> j, .\Out_File\SEEKFREE_TSL1401.obj, .\Out_File\SEEKFREE_VIRSCO.obj, .\Out_File\SEEKFREE_WIRELESS.obj, .\Out_File\isr.
>> obj, .\Out_File\main.obj, .\Out_File\seekfree_assistant.obj, .\Out_File\seekfree_assistant_inface.obj, .\Out_File\drv
>> 8701_dual.obj, .\Out_File\servo.obj, .\Out_File\battery.obj, .\Out_File\encoder.obj, .\Out_File\line.obj, .\Out_File\
>> straight.obj, .\Out_File\ring.obj TO .\Out_File\SEEKFREE PRINT (.\Out_File\SEEKFREE.map) CASE DISABLEWARNING (16, 57)
>>  REMOVEUNUSED CLASSES (EDATA (0X0-0X1FFF), HDATA (0X0-0X1FFF))




PROGRAM RECURSIONS REMOVED FROM CALL TREE
=========================================
+--> code_entrance/main
|  | straight_entrance/straight
<--+ Remote_Stop/line



CPU MODE:     251 SOURCE MODE
INTR FRAME:   4 BYTES SAVED ON INTERRUPT
MEMORY MODEL: XSMALL WITH FLOATING POINT ARITHMETIC


INPUT MODULES INCLUDED:
  .\Out_File\board.obj (board)
         COMMENT TYPE 0: C251 V5.60.0
  .\Out_File\common.obj (common)
         COMMENT TYPE 0: C251 V5.60.0
  ..\..\Libraries\libraries\STC32_FPMU_LARGE_V1.0.LIB (STC32F_FPMU)
         COMMENT TYPE 0: A251 V4.69.13.0
  .\Out_File\zf_adc.obj (zf_adc)
         COMMENT TYPE 0: C251 V5.60.0
  .\Out_File\zf_delay.obj (zf_delay)
         COMMENT TYPE 0: C251 V5.60.0
  .\Out_File\zf_eeprom.obj (zf_eeprom)
         COMMENT TYPE 0: C251 V5.60.0
  .\Out_File\zf_exti.obj (zf_exti)
         COMMENT TYPE 0: C251 V5.60.0
  .\Out_File\zf_gpio.obj (zf_gpio)
         COMMENT TYPE 0: C251 V5.60.0
  .\Out_File\zf_iic.obj (zf_iic)
         COMMENT TYPE 0: C251 V5.60.0
  .\Out_File\zf_nvic.obj (zf_nvic)
         COMMENT TYPE 0: C251 V5.60.0
  .\Out_File\zf_pwm.obj (zf_pwm)
         COMMENT TYPE 0: C251 V5.60.0
  .\Out_File\zf_spi.obj (zf_spi)
         COMMENT TYPE 0: C251 V5.60.0
  .\Out_File\zf_tim.obj (zf_tim)
         COMMENT TYPE 0: C251 V5.60.0
  .\Out_File\zf_uart.obj (zf_uart)
         COMMENT TYPE 0: C251 V5.60.0
  .\Out_File\zf_fifo.obj (zf_fifo)
         COMMENT TYPE 0: C251 V5.60.0
  .\Out_File\globals.obj (globals)
         COMMENT TYPE 0: C251 V5.60.0
  .\Out_File\SEEKFREE_18TFT.obj (SEEKFREE_18TFT)
         COMMENT TYPE 0: C251 V5.60.0
L251 LINKER/LOCATER V4.66.93.0                                                        11/20/2024  19:22:33  PAGE 2


  .\Out_File\SEEKFREE_BLUETOOTH_CH9141.obj (SEEKFREE_BLUETOOTH_CH9141)
         COMMENT TYPE 0: C251 V5.60.0
  .\Out_File\SEEKFREE_DL1A.obj (SEEKFREE_DL1A)
         COMMENT TYPE 0: C251 V5.60.0
  .\Out_File\SEEKFREE_DL1B.obj (SEEKFREE_DL1B)
         COMMENT TYPE 0: C251 V5.60.0
  .\Out_File\SEEKFREE_FONT.obj (SEEKFREE_FONT)
         COMMENT TYPE 0: C251 V5.60.0
  .\Out_File\SEEKFREE_FUNCTION.obj (SEEKFREE_FUNCTION)
         COMMENT TYPE 0: C251 V5.60.0
  .\Out_File\SEEKFREE_ICM20602.obj (SEEKFREE_ICM20602)
         COMMENT TYPE 0: C251 V5.60.0
  .\Out_File\SEEKFREE_IMU660RA.obj (SEEKFREE_IMU660RA)
         COMMENT TYPE 0: C251 V5.60.0
  .\Out_File\SEEKFREE_IMU963RA.obj (SEEKFREE_IMU963RA)
         COMMENT TYPE 0: C251 V5.60.0
  .\Out_File\SEEKFREE_IPS114_SPI.obj (SEEKFREE_IPS114_SPI)
         COMMENT TYPE 0: C251 V5.60.0
  .\Out_File\SEEKFREE_IPS200_SPI.obj (SEEKFREE_IPS200_SPI)
         COMMENT TYPE 0: C251 V5.60.0
  .\Out_File\SEEKFREE_MPU6050.obj (SEEKFREE_MPU6050)
         COMMENT TYPE 0: C251 V5.60.0
  .\Out_File\SEEKFREE_OLED.obj (SEEKFREE_OLED)
         COMMENT TYPE 0: C251 V5.60.0
  .\Out_File\SEEKFREE_TSL1401.obj (SEEKFREE_TSL1401)
         COMMENT TYPE 0: C251 V5.60.0
  .\Out_File\SEEKFREE_VIRSCO.obj (SEEKFREE_VIRSCO)
         COMMENT TYPE 0: C251 V5.60.0
  .\Out_File\SEEKFREE_WIRELESS.obj (SEEKFREE_WIRELESS)
         COMMENT TYPE 0: C251 V5.60.0
  .\Out_File\isr.obj (isr)
         COMMENT TYPE 0: C251 V5.60.0
  .\Out_File\main.obj (main)
         COMMENT TYPE 0: C251 V5.60.0
  .\Out_File\seekfree_assistant.obj (seekfree_assistant)
         COMMENT TYPE 0: C251 V5.60.0
  .\Out_File\seekfree_assistant_inface.obj (seekfree_assistant_inface)
         COMMENT TYPE 0: C251 V5.60.0
  .\Out_File\drv8701_dual.obj (drv8701_dual)
         COMMENT TYPE 0: C251 V5.60.0
  .\Out_File\servo.obj (servo)
         COMMENT TYPE 0: C251 V5.60.0
  .\Out_File\battery.obj (battery)
         COMMENT TYPE 0: C251 V5.60.0
  .\Out_File\encoder.obj (encoder)
         COMMENT TYPE 0: C251 V5.60.0
  .\Out_File\line.obj (line)
         COMMENT TYPE 0: C251 V5.60.0
  .\Out_File\straight.obj (straight)
         COMMENT TYPE 0: C251 V5.60.0
  .\Out_File\ring.obj (ring)
         COMMENT TYPE 0: C251 V5.60.0
  ..\..\Libraries\seekfree_peripheral\SEEKFREE_CONFIG.LIB (SEEKFREE_CONFIG)
         COMMENT TYPE 0: C251 V5.60.0
  C:\KEIL_V5\C251\LIB\C2SFPXS.LIB (PRINTF)
         COMMENT TYPE 0: A251 V4.69.6.0
  C:\KEIL_V5\C251\LIB\C2SFPXS.LIB (SPRINTF)
         COMMENT TYPE 0: A251 V4.69.6.0
  C:\KEIL_V5\C251\LIB\C2SFPXS.LIB (?C?PRNFMT)
         COMMENT TYPE 0: A251 V4.69.6.0
  C:\KEIL_V5\C251\LIB\C2SFPXS.LIB (?C?FPCONVERT)
         COMMENT TYPE 0: A251 V4.69.6.0
  C:\KEIL_V5\C251\LIB\C2SFPXS.LIB (?C?FTNPWR)
         COMMENT TYPE 0: A251 V4.69.6.0
  C:\KEIL_V5\C251\LIB\C2SXS.LIB (?C_START)
L251 LINKER/LOCATER V4.66.93.0                                                        11/20/2024  19:22:33  PAGE 3


         COMMENT TYPE 0: A251 V4.69.6.0
  C:\KEIL_V5\C251\LIB\C2SXS.LIB (?C?INITEDATA)
         COMMENT TYPE 0: A251 V4.69.6.0
  C:\KEIL_V5\C251\LIB\C2SXS.LIB (?C?SIDIV)
         COMMENT TYPE 0: A251 V4.69.6.0
  C:\KEIL_V5\C251\LIB\C2SXS.LIB (?C?LMUL)
         COMMENT TYPE 0: A251 V4.69.6.0
  C:\KEIL_V5\C251\LIB\C2SXS.LIB (?C?LIMUL)
         COMMENT TYPE 0: A251 V4.69.6.0
  C:\KEIL_V5\C251\LIB\C2SXS.LIB (?C?ULDIV)
         COMMENT TYPE 0: A251 V4.69.6.0
  C:\KEIL_V5\C251\LIB\C2SXS.LIB (?C?SLDIV)
         COMMENT TYPE 0: A251 V4.69.6.0
  C:\KEIL_V5\C251\LIB\C2SXS.LIB (?C?BMOVENP)
         COMMENT TYPE 0: A251 V4.69.6.0
  C:\KEIL_V5\C251\LIB\C2SXS.LIB (STRLEN)
         COMMENT TYPE 0: C251 V5.58.7
  C:\KEIL_V5\C251\LIB\C2SXS.LIB (memcpy)
         COMMENT TYPE 0: C251 V5.58.7
  C:\KEIL_V5\C251\LIB\C2SXS.LIB (memset)
         COMMENT TYPE 0: C251 V5.58.7
  C:\KEIL_V5\C251\LIB\C2SXS.LIB (?C?INITEDATA_END)
         COMMENT TYPE 0: A251 V4.69.6.0


ACTIVE MEMORY CLASSES OF MODULE:  .\Out_File\SEEKFREE (board)

BASE        START       END         USED      MEMORY CLASS
==========================================================
000000H     000000H     001FFFH     00141AH   EDATA
000000H     000000H     001FFFH               HDATA
FF0000H     FF0000H     FFFFFFH     00AD71H   CODE
000000H     FF0000H     FFFFFFH     0006B6H   HCONST
FF0000H     FF0000H     FFFFFFH     000004H   CONST
000000H     000000H     00007FH     000008H   DATA


MEMORY MAP OF MODULE:  .\Out_File\SEEKFREE (board)


START     STOP      LENGTH    ALIGN  RELOC    MEMORY CLASS   SEGMENT NAME
=========================================================================
000000H   000007H   000008H   ---    AT..     DATA           "REG BANK 0"
000008H   000208H   000201H   BYTE   UNIT     EDATA          ?ED?SEEKFREE_TSL1401
000209H   000345H   00013DH   BYTE   UNIT     EDATA          ?ED?SEEKFREE_ASSISTANT
000346H   000446H   000101H   BYTE   UNIT     EDATA          ?ED?REMOTE_STOP?LINE
000447H   0004D3H   00008DH   BYTE   UNIT     EDATA          ?ED?SEEKFREE_ASSISTANT_DATA_ANALYSIS?SEEKFREE_ASSISTANT
0004D4H   00055FH   00008CH   BYTE   UNIT     EDATA          ?ED?DL1B_INIT?SEEKFREE_DL1B
000560H   0005C1H   000062H   BYTE   UNIT     EDATA          ?ED?STRAIGHT
0005C2H   000620H   00005FH   BYTE   UNIT     EDATA          ?ED?ZF_SPRINTF?SEEKFREE_FUNCTION
000621H   000678H   000058H   BYTE   UNIT     EDATA          ?ED?SEEKFREE_BLUETOOTH_CH9141
000679H   0006D0H   000058H   BYTE   UNIT     EDATA          ?ED?SEEKFREE_WIRELESS
0006D1H   00071CH   00004CH   BYTE   UNIT     EDATA          ?ED?RING_HANDLER?RING
00071DH   00075EH   000042H   BYTE   UNIT     EDATA          ?ED?CODE_ENTRANCE?MAIN
00075FH   000796H   000038H   BYTE   UNIT     EDATA          ?ED?FUNC_DOUBLE_TO_STR?SEEKFREE_FUNCTION
000797H   0007C6H   000030H   BYTE   UNIT     EDATA          ?ED?LCD_SHOWFLOAT_SIMSPI?SEEKFREE_18TFT
0007C7H   0007F6H   000030H   BYTE   UNIT     EDATA          ?ED?LCD_SHOWFLOAT?SEEKFREE_18TFT
0007F7H   000826H   000030H   BYTE   UNIT     EDATA          ?ED?IPS114_SHOWFLOAT_SIMSPI?SEEKFREE_IPS114_SPI
000827H   000856H   000030H   BYTE   UNIT     EDATA          ?ED?IPS114_SHOWFLOAT?SEEKFREE_IPS114_SPI
000857H   000886H   000030H   BYTE   UNIT     EDATA          ?ED?OLED_PRINTF_FLOAT?SEEKFREE_OLED
000887H   0008B6H   000030H   BYTE   UNIT     EDATA          ?ED?OLED_PRINTF_FLOAT_SPI?SEEKFREE_OLED
0008B7H   0008E5H   00002FH   BYTE   UNIT     EDATA          ?ED?DL1A_SET_MEASUREMENT_TIMING_BUDGET?SEEKFREE_DL1A
0008E6H   000913H   00002EH   BYTE   UNIT     EDATA          ?ED?GET_ADC_RANGE?LINE
000914H   00093FH   00002CH   BYTE   UNIT     EDATA          ?ED?LCD_SHOWINT32_SIMSPI?SEEKFREE_18TFT
000940H   00096BH   00002CH   BYTE   UNIT     EDATA          ?ED?LCD_SHOWINT32?SEEKFREE_18TFT
L251 LINKER/LOCATER V4.66.93.0                                                        11/20/2024  19:22:33  PAGE 4


00096CH   000997H   00002CH   BYTE   UNIT     EDATA          ?ED?IPS114_SHOWINT32_SIMSPI?SEEKFREE_IPS114_SPI
000998H   0009C3H   00002CH   BYTE   UNIT     EDATA          ?ED?IPS114_SHOWINT32?SEEKFREE_IPS114_SPI
0009C4H   0009EFH   00002CH   BYTE   UNIT     EDATA          ?ED?OLED_PRINTF_INT32?SEEKFREE_OLED
0009F0H   000A1BH   00002CH   BYTE   UNIT     EDATA          ?ED?OLED_PRINTF_INT32_SPI?SEEKFREE_OLED
000A1CH   000A45H   00002AH   BYTE   UNIT     EDATA          ?ED?FUNC_FLOAT_TO_STR?SEEKFREE_FUNCTION
000A46H   000A6FH   00002AH   BYTE   UNIT     EDATA          ?ED?SEEKFREE_ASSISTANT_OSCILLOSCOPE_SEND?SEEKFREE_ASSISTAN
                                                             -T
000A70H   000A97H   000028H   BYTE   UNIT     EDATA          _EDATA_GROUP_
000A98H   000ABCH   000025H   BYTE   UNIT     EDATA          ?ED?FUNC_HEX_TO_STR?SEEKFREE_FUNCTION
000ABDH   000ADFH   000023H   BYTE   UNIT     EDATA          ?ED?IPS200_SHOW_FLOAT?SEEKFREE_IPS200_SPI
000AE0H   000AFFH   000020H   BYTE   UNIT     EDATA          ?ED?IPS200_SHOW_WAVE?SEEKFREE_IPS200_SPI
000B00H   000B1EH   00001FH   BYTE   UNIT     EDATA          ?ED?DL1A_GET_MEASUREMENT_TIMING_BUDGET?SEEKFREE_DL1A
000B1FH   000B3DH   00001FH   BYTE   UNIT     EDATA          ?ED?SEEKFREE_ASSISTANT_CAMERA_BOUNDARY_CONFIG?SEEKFREE_ASS
                                                             -ISTANT
000B3EH   000B5AH   00001DH   BYTE   UNIT     EDATA          ?ED?FUNC_INT_TO_STR?SEEKFREE_FUNCTION
000B5BH   000B77H   00001DH   BYTE   UNIT     EDATA          ?ED?IPS200_SHOW_INT?SEEKFREE_IPS200_SPI
000B78H   000B94H   00001DH   BYTE   UNIT     EDATA          ?ED?IPS200_SHOW_UINT?SEEKFREE_IPS200_SPI
000B95H   000BADH   000019H   BYTE   UNIT     EDATA          ?ED?FUNC_UINT_TO_STR?SEEKFREE_FUNCTION
000BAEH   000BC6H   000019H   BYTE   UNIT     EDATA          ?ED?IPS200_SHOW_CHINESE?SEEKFREE_IPS200_SPI
000BC7H   000BDEH   000018H   BYTE   UNIT     EDATA          ?ED?FIFO_READ_BUFFER?ZF_FIFO
000BDFH   000BF6H   000018H   BYTE   UNIT     EDATA          ?ED?FIFO_READ_TAIL_BUFFER?ZF_FIFO
000BF7H   000C0EH   000018H   BYTE   UNIT     EDATA          ?ED?LINE_CALCULATE_POSITION?STRAIGHT
000C0FH   000C26H   000018H   BYTE   UNIT     EDATA          ?ED?LINE_CALCULATE_POSITION_RING?STRAIGHT
000C27H   000C3CH   000016H   BYTE   UNIT     EDATA          ?ED?IPS200_DRAW_LINE?SEEKFREE_IPS200_SPI
000C3DH   000C51H   000015H   BYTE   UNIT     EDATA          ?ED?DL1A_INIT?SEEKFREE_DL1A
000C52H   000C65H   000014H   BYTE   UNIT     EDATA          ?ED?PWM_INIT?ZF_PWM
000C66H   000C79H   000014H   BYTE   UNIT     EDATA          ?ED?PWM_FREQ?ZF_PWM
000C7AH   000C8DH   000014H   BYTE   UNIT     EDATA          ?ED?NUMBER_CONVERSION_ASCII?SEEKFREE_FUNCTION
000C8EH   000C9FH   000012H   BYTE   UNIT     EDATA          ?ED?FIFO_WRITE_BUFFER?ZF_FIFO
000CA0H   000CB1H   000012H   BYTE   UNIT     EDATA          ?ED?SEEKFREE_IMU963RA
000CB2H   000CC3H   000012H   BYTE   UNIT     EDATA          ?ED?OLED_DIS_BMP?SEEKFREE_OLED
000CC4H   000CD5H   000012H   BYTE   UNIT     EDATA          ?ED?OLED_DIS_BMP_SPI?SEEKFREE_OLED
000CD6H   000CE6H   000011H   BYTE   UNIT     EDATA          ?ED?FUNC_STR_TO_FLOAT?SEEKFREE_FUNCTION
000CE7H   000CF7H   000011H   BYTE   UNIT     EDATA          ?ED?FUNC_STR_TO_DOUBLE?SEEKFREE_FUNCTION
000CF8H   000D07H   000010H   BYTE   UNIT     EDATA          ?ED?FIFO_INIT?ZF_FIFO
000D08H   000D17H   000010H   BYTE   UNIT     EDATA          ?ED?DL1B_IIC_TRANSFER_8BIT_ARRAY?SEEKFREE_DL1B
000D18H   000D26H   00000FH   BYTE   UNIT     EDATA          ?ED?SEEKFREE_ASSISTANT_CAMERA_DATA_SEND?SEEKFREE_ASSISTANT
000D27H   000D34H   00000EH   BYTE   UNIT     EDATA          ?ED?PWM_DUTY?ZF_PWM
000D35H   000D42H   00000EH   BYTE   UNIT     EDATA          ?ED?UART_INIT?ZF_UART
000D43H   000D50H   00000EH   BYTE   UNIT     EDATA          ?ED?FUNC_STR_TO_HEX?SEEKFREE_FUNCTION
000D51H   000D5EH   00000EH   BYTE   UNIT     EDATA          ?ED?SEEKFREE_IPS200_SPI
000D5FH   000D6CH   00000EH   BYTE   UNIT     EDATA          ?ED?OLED_PRINT_CHINESE?SEEKFREE_OLED
000D6DH   000D7AH   00000EH   BYTE   UNIT     EDATA          ?ED?OLED_PRINT_CHINESE_SPI?SEEKFREE_OLED
000D7BH   000D88H   00000EH   BYTE   UNIT     EDATA          ?ED?DATA_CONVERSION?SEEKFREE_VIRSCO
000D89H   000D95H   00000DH   BYTE   UNIT     EDATA          ?ED?SPI_INIT?ZF_SPI
000D96H   000DA2H   00000DH   BYTE   UNIT     EDATA          ?ED?PRINTF_REVERSE_ORDER?SEEKFREE_FUNCTION
000DA3H   000DAFH   00000DH   BYTE   UNIT     EDATA          ?ED?ICM20602_SIMSPI_R_REG_BYTES?SEEKFREE_ICM20602
000DB0H   000DBBH   00000CH   BYTE   UNIT     EDATA          ?ED?FIFO_READ_ELEMENT?ZF_FIFO
000DBCH   000DC7H   00000CH   BYTE   UNIT     EDATA          ?ED?LCD_SHOWINT16_SIMSPI?SEEKFREE_18TFT
000DC8H   000DD3H   00000CH   BYTE   UNIT     EDATA          ?ED?LCD_SHOWUINT16_SIMSPI?SEEKFREE_18TFT
000DD4H   000DDFH   00000CH   BYTE   UNIT     EDATA          ?ED?LCD_SHOWINT16?SEEKFREE_18TFT
000DE0H   000DEBH   00000CH   BYTE   UNIT     EDATA          ?ED?LCD_SHOWUINT16?SEEKFREE_18TFT
000DECH   000DF7H   00000CH   BYTE   UNIT     EDATA          ?ED?SHOWIMAGE?SEEKFREE_18TFT
000DF8H   000E03H   00000CH   BYTE   UNIT     EDATA          ?ED?BLUETOOTH_CH9141_READ_BUFF?SEEKFREE_BLUETOOTH_CH9141
000E04H   000E0FH   00000CH   BYTE   UNIT     EDATA          ?ED?DL1A_GET_SPAD_INFO?SEEKFREE_DL1A
000E10H   000E1BH   00000CH   BYTE   UNIT     EDATA          ?ED?DL1A_GET_SEQUENCE_STEP_TIMEOUTS?SEEKFREE_DL1A
000E1CH   000E27H   00000CH   BYTE   UNIT     EDATA          ?ED?SEEKFREE_ICM20602
000E28H   000E33H   00000CH   BYTE   UNIT     EDATA          ?ED?SEEKFREE_IMU660RA
000E34H   000E3FH   00000CH   BYTE   UNIT     EDATA          ?ED?IPS114_SHOWINT16_SIMSPI?SEEKFREE_IPS114_SPI
000E40H   000E4BH   00000CH   BYTE   UNIT     EDATA          ?ED?IPS114_SHOWUINT16_SIMSPI?SEEKFREE_IPS114_SPI
000E4CH   000E57H   00000CH   BYTE   UNIT     EDATA          ?ED?IPS114_SHOWINT16?SEEKFREE_IPS114_SPI
000E58H   000E63H   00000CH   BYTE   UNIT     EDATA          ?ED?IPS114_SHOWUINT16?SEEKFREE_IPS114_SPI
000E64H   000E6FH   00000CH   BYTE   UNIT     EDATA          ?ED?SEEKFREE_MPU6050
000E70H   000E7BH   00000CH   BYTE   UNIT     EDATA          ?ED?WIRELESS_UART_READ_BUFF?SEEKFREE_WIRELESS
000E7CH   000E87H   00000CH   BYTE   UNIT     EDATA          ?ED?ENCODER
L251 LINKER/LOCATER V4.66.93.0                                                        11/20/2024  19:22:33  PAGE 5


000E88H   000E92H   00000BH   BYTE   UNIT     EDATA          ?ED?OLED_UINT16?SEEKFREE_OLED
000E93H   000E9DH   00000BH   BYTE   UNIT     EDATA          ?ED?OLED_INT16?SEEKFREE_OLED
000E9EH   000EA8H   00000BH   BYTE   UNIT     EDATA          ?ED?OLED_UINT16_SPI?SEEKFREE_OLED
000EA9H   000EB3H   00000BH   BYTE   UNIT     EDATA          ?ED?OLED_INT16_SPI?SEEKFREE_OLED
000EB4H   000EBEH   00000BH   BYTE   UNIT     EDATA          ?ED?SERVO
000EBFH   000EC8H   00000AH   BYTE   UNIT     EDATA          ?ED?IAP_READ_BYTES?ZF_EEPROM
000EC9H   000ED2H   00000AH   BYTE   UNIT     EDATA          ?ED?IAP_WRITE_BYTES?ZF_EEPROM
000ED3H   000EDCH   00000AH   BYTE   UNIT     EDATA          ?ED?UART_PUTBUFF?ZF_UART
000EDDH   000EE6H   00000AH   BYTE   UNIT     EDATA          ?ED?FIFO_WRITE_ELEMENT?ZF_FIFO
000EE7H   000EF0H   00000AH   BYTE   UNIT     EDATA          ?ED?LCD_SHOWSTR_SIMSPI?SEEKFREE_18TFT
000EF1H   000EFAH   00000AH   BYTE   UNIT     EDATA          ?ED?LCD_SHOWSTR?SEEKFREE_18TFT
000EFBH   000F04H   00000AH   BYTE   UNIT     EDATA          ?ED?BLUETOOTH_CH9141_SEND_BUFF?SEEKFREE_BLUETOOTH_CH9141
000F05H   000F0EH   00000AH   BYTE   UNIT     EDATA          ?ED?DL1A_SIMIIC_READ_REGS?SEEKFREE_DL1A
000F0FH   000F18H   00000AH   BYTE   UNIT     EDATA          ?ED?DL1A_SIMIIC_READ_REGS_1?SEEKFREE_DL1A
000F19H   000F22H   00000AH   BYTE   UNIT     EDATA          ?ED?DL1A_ENCODE_TIMEOUT?SEEKFREE_DL1A
000F23H   000F2CH   00000AH   BYTE   UNIT     EDATA          ?ED?IPS114_SHOWSTR_SIMSPI?SEEKFREE_IPS114_SPI
000F2DH   000F36H   00000AH   BYTE   UNIT     EDATA          ?ED?IPS114_SHOWSTR?SEEKFREE_IPS114_SPI
000F37H   000F40H   00000AH   BYTE   UNIT     EDATA          ?ED?IPS200_SHOW_STRING?SEEKFREE_IPS200_SPI
000F41H   000F4AH   00000AH   BYTE   UNIT     EDATA          ?ED?SEEKFREE_VIRSCO
000F4BH   000F54H   00000AH   BYTE   UNIT     EDATA          ?ED?SEEKFREE_ASSISTANT_CAMERA_INFORMATION_CONFIG?SEEKFREE_
                                                             -ASSISTANT
000F55H   000F5EH   00000AH   BYTE   UNIT     EDATA          ?ED?BATTERY
000F5FH   000F68H   00000AH   BYTE   UNIT     EDATA          ?ED?LINE_READ_RAW?LINE
000F69H   000F71H   000009H   BYTE   UNIT     EDATA          ?ED?LCD_SHOWINT8_SIMSPI?SEEKFREE_18TFT
000F72H   000F7AH   000009H   BYTE   UNIT     EDATA          ?ED?LCD_SHOWUINT8_SIMSPI?SEEKFREE_18TFT
000F7BH   000F83H   000009H   BYTE   UNIT     EDATA          ?ED?LCD_SHOWINT8?SEEKFREE_18TFT
000F84H   000F8CH   000009H   BYTE   UNIT     EDATA          ?ED?LCD_SHOWUINT8?SEEKFREE_18TFT
000F8DH   000F95H   000009H   BYTE   UNIT     EDATA          ?ED?DL1A_SIMIIC_WRITE_DATS?SEEKFREE_DL1A
000F96H   000F9EH   000009H   BYTE   UNIT     EDATA          ?ED?DL1A_TIMEOUT_MICROSECONDS_TO_MCLKS?SEEKFREE_DL1A
000F9FH   000FA7H   000009H   BYTE   UNIT     EDATA          ?ED?DL1A_SET_SIGNAL_RATE_LIMIT?SEEKFREE_DL1A
000FA8H   000FB0H   000009H   BYTE   UNIT     EDATA          ?ED?FUNC_STR_TO_INT?SEEKFREE_FUNCTION
000FB1H   000FB9H   000009H   BYTE   UNIT     EDATA          ?ED?ICM20602_READ_REGISTERS?SEEKFREE_ICM20602
000FBAH   000FC2H   000009H   BYTE   UNIT     EDATA          ?ED?IMU660RA_SIMSPI_W_REG_BYTES?SEEKFREE_IMU660RA
000FC3H   000FCBH   000009H   BYTE   UNIT     EDATA          ?ED?IMU660RA_SIMSPI_R_REG_BYTES?SEEKFREE_IMU660RA
000FCCH   000FD4H   000009H   BYTE   UNIT     EDATA          ?ED?IMU660RA_WRITE_REGISTERS?SEEKFREE_IMU660RA
000FD5H   000FDDH   000009H   BYTE   UNIT     EDATA          ?ED?IMU660RA_READ_REGISTERS?SEEKFREE_IMU660RA
000FDEH   000FE6H   000009H   BYTE   UNIT     EDATA          ?ED?IMU963RA_SIMSPI_R_REG_BYTES?SEEKFREE_IMU963RA
000FE7H   000FEFH   000009H   BYTE   UNIT     EDATA          ?ED?IMU963RA_READ_ACC_GYRO_REGISTERS?SEEKFREE_IMU963RA
000FF0H   000FF8H   000009H   BYTE   UNIT     EDATA          ?ED?IPS114_SHOWINT8_SIMSPI?SEEKFREE_IPS114_SPI
000FF9H   001001H   000009H   BYTE   UNIT     EDATA          ?ED?IPS114_SHOWUINT8_SIMSPI?SEEKFREE_IPS114_SPI
001002H   00100AH   000009H   BYTE   UNIT     EDATA          ?ED?IPS114_SHOWINT8?SEEKFREE_IPS114_SPI
00100BH   001013H   000009H   BYTE   UNIT     EDATA          ?ED?IPS114_SHOWUINT8?SEEKFREE_IPS114_SPI
001014H   00101CH   000009H   BYTE   UNIT     EDATA          ?ED?IPS200_SHOW_CHAR?SEEKFREE_IPS200_SPI
00101DH   001025H   000009H   BYTE   UNIT     EDATA          ?ED?OLED_P6X8STR?SEEKFREE_OLED
001026H   00102EH   000009H   BYTE   UNIT     EDATA          ?ED?OLED_P8X16STR?SEEKFREE_OLED
00102FH   001037H   000009H   BYTE   UNIT     EDATA          ?ED?OLED_P6X8STR_SPI?SEEKFREE_OLED
001038H   001040H   000009H   BYTE   UNIT     EDATA          ?ED?OLED_P8X16STR_SPI?SEEKFREE_OLED
001041H   001049H   000009H   BYTE   UNIT     EDATA          ?ED?CRC_CHECK?SEEKFREE_VIRSCO
00104AH   001052H   000009H   BYTE   UNIT     EDATA          ?ED?SEEKFREE_ASSISTANT_SUM?SEEKFREE_ASSISTANT
001053H   00105AH   000008H   BYTE   UNIT     EDATA          ?ED?SET_CLK?BOARD
00105BH   001062H   000008H   BYTE   UNIT     EDATA          ?ED?FIFO_HEAD_OFFSET?ZF_FIFO
001063H   00106AH   000008H   BYTE   UNIT     EDATA          ?ED?FIFO_END_OFFSET?ZF_FIFO
00106BH   001072H   000008H   BYTE   UNIT     EDATA          ?ED?LCD_SET_REGION_SIMSPI?SEEKFREE_18TFT
001073H   00107AH   000008H   BYTE   UNIT     EDATA          ?ED?LCD_SHOWCHAR_SIMSPI?SEEKFREE_18TFT
00107BH   001082H   000008H   BYTE   UNIT     EDATA          ?ED?LCD_SET_REGION?SEEKFREE_18TFT
001083H   00108AH   000008H   BYTE   UNIT     EDATA          ?ED?LCD_SHOWCHAR?SEEKFREE_18TFT
00108BH   001092H   000008H   BYTE   UNIT     EDATA          ?ED?FUNC_GET_GREATEST_COMMON_DIVISOR?SEEKFREE_FUNCTION
001093H   00109AH   000008H   BYTE   UNIT     EDATA          ?ED?FUNC_STR_TO_UINT?SEEKFREE_FUNCTION
00109BH   0010A2H   000008H   BYTE   UNIT     EDATA          ?ED?IPS114_SET_REGION_SIMSPI?SEEKFREE_IPS114_SPI
0010A3H   0010AAH   000008H   BYTE   UNIT     EDATA          ?ED?IPS114_SHOWCHAR_SIMSPI?SEEKFREE_IPS114_SPI
0010ABH   0010B2H   000008H   BYTE   UNIT     EDATA          ?ED?IPS114_SET_REGION?SEEKFREE_IPS114_SPI
0010B3H   0010BAH   000008H   BYTE   UNIT     EDATA          ?ED?IPS114_SHOWCHAR?SEEKFREE_IPS114_SPI
0010BBH   0010C2H   000008H   BYTE   UNIT     EDATA          ?ED?IPS200_SET_REGION?SEEKFREE_IPS200_SPI
0010C3H   0010CAH   000008H   BYTE   UNIT     EDATA          ?ED?OLED_HEXASCII?SEEKFREE_OLED
0010CBH   0010D2H   000008H   BYTE   UNIT     EDATA          ?ED?OLED_HEXASCII_SPI?SEEKFREE_OLED
L251 LINKER/LOCATER V4.66.93.0                                                        11/20/2024  19:22:33  PAGE 6


0010D3H   0010DAH   000008H   BYTE   UNIT     EDATA          ?ED?WIRELESS_UART_SEND_BUFF?SEEKFREE_WIRELESS
0010DBH   0010E2H   000008H   BYTE   UNIT     EDATA          ?ED?GET_BATTERY_PERCENTAGE?BATTERY
0010E3H   0010EAH   000008H   BYTE   UNIT     EDATA          ?ED?LINE
0010EBH   0010F1H   000007H   BYTE   UNIT     EDATA          ?ED?IIC_READ_REG_BYTES?ZF_IIC
0010F2H   0010F8H   000007H   BYTE   UNIT     EDATA          ?ED?DL1A_TIMEOUT_MCLKS_TO_MICROSECONDS?SEEKFREE_DL1A
0010F9H   0010FFH   000007H   BYTE   UNIT     EDATA          ?ED?IMU660RA_GET_ACC?SEEKFREE_IMU660RA
001100H   001106H   000007H   BYTE   UNIT     EDATA          ?ED?IMU660RA_GET_GYRO?SEEKFREE_IMU660RA
001107H   00110DH   000007H   BYTE   UNIT     EDATA          ?ED?IMU963RA_GET_MAG?SEEKFREE_IMU963RA
00110EH   001114H   000007H   BYTE   UNIT     EDATA          ?ED?MPU6050_SIMIIC_READ_REGS?SEEKFREE_MPU6050
001115H   00111BH   000007H   BYTE   UNIT     EDATA          ?ED?CCD_SEND_DATA?SEEKFREE_TSL1401
00111CH   001122H   000007H   BYTE   UNIT     EDATA          ?ED?SEEKFREE_ASSISTANT_CAMERA_DOT_SEND?SEEKFREE_ASSISTANT
001123H   001128H   000006H   BYTE   UNIT     EDATA          ?ED?ADC_ONCE?ZF_ADC
001129H   00112EH   000006H   BYTE   UNIT     EDATA          ?ED?DELAY_US?ZF_DELAY
00112FH   001134H   000006H   BYTE   UNIT     EDATA          ?ED?IIC_INIT?ZF_IIC
001135H   00113AH   000006H   BYTE   UNIT     EDATA          ?ED?IIC_READ_REG?ZF_IIC
00113BH   001140H   000006H   BYTE   UNIT     EDATA          ?ED?PIT_TIMER_MS?ZF_TIM
001141H   001146H   000006H   BYTE   UNIT     EDATA          ?ED?UART_PUTSTR?ZF_UART
001147H   00114CH   000006H   BYTE   UNIT     EDATA          ?ED?FIFO_CLEAR?ZF_FIFO
00114DH   001152H   000006H   BYTE   UNIT     EDATA          ?ED?LCD_DRAWPOINT_SIMSPI?SEEKFREE_18TFT
001153H   001158H   000006H   BYTE   UNIT     EDATA          ?ED?LCD_DRAWPOINT?SEEKFREE_18TFT
001159H   00115EH   000006H   BYTE   UNIT     EDATA          ?ED?ICM20602_GET_ACC?SEEKFREE_ICM20602
00115FH   001164H   000006H   BYTE   UNIT     EDATA          ?ED?ICM20602_GET_GYRO?SEEKFREE_ICM20602
001165H   00116AH   000006H   BYTE   UNIT     EDATA          ?ED?ICM20602_ACC_TRANSITION?SEEKFREE_ICM20602
00116BH   001170H   000006H   BYTE   UNIT     EDATA          ?ED?ICM20602_GYRO_TRANSITION?SEEKFREE_ICM20602
001171H   001176H   000006H   BYTE   UNIT     EDATA          ?ED?IMU660RA_ACC_TRANSITION?SEEKFREE_IMU660RA
001177H   00117CH   000006H   BYTE   UNIT     EDATA          ?ED?IMU660RA_GYRO_TRANSITION?SEEKFREE_IMU660RA
00117DH   001182H   000006H   BYTE   UNIT     EDATA          ?ED?IMU963RA_WRITE_MAG_REGISTER?SEEKFREE_IMU963RA
001183H   001188H   000006H   BYTE   UNIT     EDATA          ?ED?IMU963RA_GET_ACC?SEEKFREE_IMU963RA
001189H   00118EH   000006H   BYTE   UNIT     EDATA          ?ED?IMU963RA_GET_GYRO?SEEKFREE_IMU963RA
00118FH   001194H   000006H   BYTE   UNIT     EDATA          ?ED?IMU963RA_ACC_TRANSITION?SEEKFREE_IMU963RA
001195H   00119AH   000006H   BYTE   UNIT     EDATA          ?ED?IMU963RA_GYRO_TRANSITION?SEEKFREE_IMU963RA
00119BH   0011A0H   000006H   BYTE   UNIT     EDATA          ?ED?IMU963RA_MAG_TRANSITION?SEEKFREE_IMU963RA
0011A1H   0011A6H   000006H   BYTE   UNIT     EDATA          ?ED?IPS114_CLEAR_SIMSPI?SEEKFREE_IPS114_SPI
0011A7H   0011ACH   000006H   BYTE   UNIT     EDATA          ?ED?IPS114_DRAWPOINT_SIMSPI?SEEKFREE_IPS114_SPI
0011ADH   0011B2H   000006H   BYTE   UNIT     EDATA          ?ED?IPS114_CLEAR?SEEKFREE_IPS114_SPI
0011B3H   0011B8H   000006H   BYTE   UNIT     EDATA          ?ED?IPS114_DRAWPOINT?SEEKFREE_IPS114_SPI
0011B9H   0011BEH   000006H   BYTE   UNIT     EDATA          ?ED?IPS200_FULL?SEEKFREE_IPS200_SPI
0011BFH   0011C4H   000006H   BYTE   UNIT     EDATA          ?ED?IPS200_DRAW_POINT?SEEKFREE_IPS200_SPI
0011C5H   0011CAH   000006H   BYTE   UNIT     EDATA          ?ED?MPU6050_GET_ACCDATA?SEEKFREE_MPU6050
0011CBH   0011D0H   000006H   BYTE   UNIT     EDATA          ?ED?MPU6050_GET_GYRO?SEEKFREE_MPU6050
0011D1H   0011D6H   000006H   BYTE   UNIT     EDATA          ?ED?DRV8701_CONTROL?DRV8701_DUAL
0011D7H   0011DCH   000006H   BYTE   UNIT     EDATA          ?ED?SERVO_SET_POSITION?SERVO
0011DDH   0011E1H   000005H   BYTE   UNIT     EDATA          ?ED?ZF_UART
0011E2H   0011E6H   000005H   BYTE   UNIT     EDATA          ?ED?DL1A_GET_SEQUENCE_STEP_ENABLES?SEEKFREE_DL1A
0011E7H   0011EBH   000005H   BYTE   UNIT     EDATA          ?ED?DL1A_PERFORM_SINGLE_REF_CALIBRATION?SEEKFREE_DL1A
0011ECH   0011F0H   000005H   BYTE   UNIT     EDATA          ?ED?DL1B_GET_DISTANCE?SEEKFREE_DL1B
0011F1H   0011F5H   000005H   BYTE   UNIT     EDATA          ?ED?ICM20602_SIMSPI_R_REG_BYTE?SEEKFREE_ICM20602
0011F6H   0011FAH   000005H   BYTE   UNIT     EDATA          ?ED?IMU963RA_SIMSPI_R_REG_BYTE?SEEKFREE_IMU963RA
0011FBH   0011FEH   000004H   BYTE   UNIT     EDATA          ?ED?BOARD
0011FFH   001202H   000004H   BYTE   UNIT     EDATA          ?ED?CLOCK_INIT?BOARD
001203H   001206H   000004H   BYTE   UNIT     EDATA          ?ED?ADC_INIT?ZF_ADC
001207H   00120AH   000004H   BYTE   UNIT     EDATA          ?ED?ZF_DELAY
00120BH   00120EH   000004H   BYTE   UNIT     EDATA          ?ED?DELAY_MS?ZF_DELAY
00120FH   001212H   000004H   BYTE   UNIT     EDATA          ?ED?IAP_ERASE_PAGE?ZF_EEPROM
001213H   001216H   000004H   BYTE   UNIT     EDATA          ?ED?EXIT_INIT?ZF_EXTI
001217H   00121AH   000004H   BYTE   UNIT     EDATA          ?ED?GPIO_PULL_SET?ZF_GPIO
00121BH   00121EH   000004H   BYTE   UNIT     EDATA          ?ED?GPIO_MODE?ZF_GPIO
00121FH   001222H   000004H   BYTE   UNIT     EDATA          ?ED?CTIMER_COUNT_READ?ZF_TIM
001223H   001226H   000004H   BYTE   UNIT     EDATA          ?ED?FIFO_USED?ZF_FIFO
001227H   00122AH   000004H   BYTE   UNIT     EDATA          ?ED?LCD_CLEAR_SIMSPI?SEEKFREE_18TFT
00122BH   00122EH   000004H   BYTE   UNIT     EDATA          ?ED?LCD_WRITEDATA_16BIT?SEEKFREE_18TFT
00122FH   001232H   000004H   BYTE   UNIT     EDATA          ?ED?LCD_CLEAR?SEEKFREE_18TFT
001233H   001236H   000004H   BYTE   UNIT     EDATA          ?ED?SEEKFREE_DL1B
001237H   00123AH   000004H   BYTE   UNIT     EDATA          ?ED?FUNC_SOFT_DELAY?SEEKFREE_FUNCTION
00123BH   00123EH   000004H   BYTE   UNIT     EDATA          ?ED?ICM20602_SELF_CHECK?SEEKFREE_ICM20602
L251 LINKER/LOCATER V4.66.93.0                                                        11/20/2024  19:22:33  PAGE 7


00123FH   001242H   000004H   BYTE   UNIT     EDATA          ?ED?ICM20602_INIT?SEEKFREE_ICM20602
001243H   001246H   000004H   BYTE   UNIT     EDATA          ?ED?IMU660RA_SELF_CHECK?SEEKFREE_IMU660RA
001247H   00124AH   000004H   BYTE   UNIT     EDATA          ?ED?IMU963RA_READ_MAG_REGISTER?SEEKFREE_IMU963RA
00124BH   00124EH   000004H   BYTE   UNIT     EDATA          ?ED?IMU963RA_ACC_GYRO_SELF_CHECK?SEEKFREE_IMU963RA
00124FH   001252H   000004H   BYTE   UNIT     EDATA          ?ED?IMU963RA_MAG_SELF_CHECK?SEEKFREE_IMU963RA
001253H   001256H   000004H   BYTE   UNIT     EDATA          ?ED?IPS114_WRITEDATA_16BIT?SEEKFREE_IPS114_SPI
001257H   00125AH   000004H   BYTE   UNIT     EDATA          ?ED?IPS200_WRITE_16BIT_DATA_SPI?SEEKFREE_IPS200_SPI
00125BH   00125EH   000004H   BYTE   UNIT     EDATA          ?ED?IPS200_CLEAR?SEEKFREE_IPS200_SPI
00125FH   001262H   000004H   BYTE   UNIT     EDATA          ?ED?IPS200_SET_COLOR?SEEKFREE_IPS200_SPI
001263H   001266H   000004H   BYTE   UNIT     EDATA          ?ED?SEEKFREE_ASSISTANT_INFACE
001267H   00126AH   000004H   BYTE   UNIT     EDATA          ?ED?SERVO_INIT?SERVO
00126BH   00126DH   000003H   BYTE   UNIT     EDATA          ?ED?IIC_DELAY_US?ZF_IIC
00126EH   001270H   000003H   BYTE   UNIT     EDATA          ?ED?WAIT?ZF_IIC
001271H   001273H   000003H   BYTE   UNIT     EDATA          ?ED?IIC_WRITE_REG?ZF_IIC
001274H   001276H   000003H   BYTE   UNIT     EDATA          ?ED?NVIC_SETPRIORITY?ZF_NVIC
001277H   001279H   000003H   BYTE   UNIT     EDATA          ?ED?UART_PUTCHAR?ZF_UART
00127AH   00127CH   000003H   BYTE   UNIT     EDATA          ?ED?LCD_WRITEDATA_16BIT_SIMSPI?SEEKFREE_18TFT
00127DH   00127FH   000003H   BYTE   UNIT     EDATA          ?ED?SEEKFREE_DL1A
001280H   001282H   000003H   BYTE   UNIT     EDATA          ?ED?DL1A_READ_CH?SEEKFREE_DL1A
001283H   001285H   000003H   BYTE   UNIT     EDATA          ?ED?DL1A_SIMIIC_WRITE_REG?SEEKFREE_DL1A
001286H   001288H   000003H   BYTE   UNIT     EDATA          ?ED?DL1A_SIMIIC_READ_REG?SEEKFREE_DL1A
001289H   00128BH   000003H   BYTE   UNIT     EDATA          ?ED?DL1A_GET_VCSEL_PULSE_PERIOD?SEEKFREE_DL1A
00128CH   00128EH   000003H   BYTE   UNIT     EDATA          ?ED?DL1A_GET_DISTANCE?SEEKFREE_DL1A
00128FH   001291H   000003H   BYTE   UNIT     EDATA          ?ED?DL1B_READ_CH?SEEKFREE_DL1B
001292H   001294H   000003H   BYTE   UNIT     EDATA          ?ED?IMU660RA_READ_REGISTER?SEEKFREE_IMU660RA
001295H   001297H   000003H   BYTE   UNIT     EDATA          ?ED?IPS114_WRITEDATAI_16BIT_SIMSPI?SEEKFREE_IPS114_SPI
001298H   00129AH   000003H   BYTE   UNIT     EDATA          ?ED?MPU6050_READ_CH?SEEKFREE_MPU6050
00129BH   00129DH   000003H   BYTE   UNIT     EDATA          ?ED?MPU6050_SIMIIC_WRITE_REG?SEEKFREE_MPU6050
00129EH   0012A0H   000003H   BYTE   UNIT     EDATA          ?ED?MPU6050_SIMIIC_READ_REG?SEEKFREE_MPU6050
0012A1H   0012A3H   000003H   BYTE   UNIT     EDATA          ?ED?OLED_FILL?SEEKFREE_OLED
0012A4H   0012A6H   000003H   BYTE   UNIT     EDATA          ?ED?OLED_PUTPIXEL?SEEKFREE_OLED
0012A7H   0012A9H   000003H   BYTE   UNIT     EDATA          ?ED?OLED_FILL_SPI?SEEKFREE_OLED
0012AAH   0012ACH   000003H   BYTE   UNIT     EDATA          ?ED?OLED_PUTPIXEL_SPI?SEEKFREE_OLED
0012ADH   0012AFH   000003H   BYTE   UNIT     EDATA          ?ED?MAIN
0012B0H   0012B1H   000002H   BYTE   UNIT     EDATA          ?ED?COMMON
0012B2H   0012B3H   000002H   BYTE   UNIT     EDATA          ?ED?SEND_DATA?ZF_IIC
0012B4H   0012B5H   000002H   BYTE   UNIT     EDATA          ?ED?IIC_CHANGE_PIN?ZF_IIC
0012B6H   0012B7H   000002H   BYTE   UNIT     EDATA          ?ED?PWM_SET_GPIO?ZF_PWM
0012B8H   0012B9H   000002H   BYTE   UNIT     EDATA          ?ED?SPI_CHANGE_PIN?ZF_SPI
0012BAH   0012BBH   000002H   BYTE   UNIT     EDATA          ?ED?CTIMER_COUNT_INIT?ZF_TIM
0012BCH   0012BDH   000002H   BYTE   UNIT     EDATA          ?ED?CTIMER_COUNT_CLEAN?ZF_TIM
0012BEH   0012BFH   000002H   BYTE   UNIT     EDATA          ?ED?LCD_WRITEINDEX_SIMSPI?SEEKFREE_18TFT
0012C0H   0012C1H   000002H   BYTE   UNIT     EDATA          ?ED?LCD_WRITEDATA_SIMSPI?SEEKFREE_18TFT
0012C2H   0012C3H   000002H   BYTE   UNIT     EDATA          ?ED?DL1A_SIMIIC_DELAY?SEEKFREE_DL1A
0012C4H   0012C5H   000002H   BYTE   UNIT     EDATA          ?ED?DL1A_SEND_CH?SEEKFREE_DL1A
0012C6H   0012C7H   000002H   BYTE   UNIT     EDATA          ?ED?DL1A_DECODE_TIMEOUT?SEEKFREE_DL1A
0012C8H   0012C9H   000002H   BYTE   UNIT     EDATA          ?ED?DL1B_SIMIIC_DELAY?SEEKFREE_DL1B
0012CAH   0012CBH   000002H   BYTE   UNIT     EDATA          ?ED?DL1B_SEND_CH?SEEKFREE_DL1B
0012CCH   0012CDH   000002H   BYTE   UNIT     EDATA          ?ED?ICM20602_SIMSPI_WR_BYTE?SEEKFREE_ICM20602
0012CEH   0012CFH   000002H   BYTE   UNIT     EDATA          ?ED?ICM20602_SIMSPI_W_REG_BYTE?SEEKFREE_ICM20602
0012D0H   0012D1H   000002H   BYTE   UNIT     EDATA          ?ED?ICM20602_WRITE_REGISTER?SEEKFREE_ICM20602
0012D2H   0012D3H   000002H   BYTE   UNIT     EDATA          ?ED?ICM20602_READ_REGISTER?SEEKFREE_ICM20602
0012D4H   0012D5H   000002H   BYTE   UNIT     EDATA          ?ED?IMU660RA_SIMSPI_WR_BYTE?SEEKFREE_IMU660RA
0012D6H   0012D7H   000002H   BYTE   UNIT     EDATA          ?ED?IMU660RA_SIMSPI_W_REG_BYTE?SEEKFREE_IMU660RA
0012D8H   0012D9H   000002H   BYTE   UNIT     EDATA          ?ED?IMU660RA_WRITE_REGISTER?SEEKFREE_IMU660RA
0012DAH   0012DBH   000002H   BYTE   UNIT     EDATA          ?ED?IMU963RA_SIMSPI_WR_BYTE?SEEKFREE_IMU963RA
0012DCH   0012DDH   000002H   BYTE   UNIT     EDATA          ?ED?IMU963RA_SIMSPI_W_REG_BYTE?SEEKFREE_IMU963RA
0012DEH   0012DFH   000002H   BYTE   UNIT     EDATA          ?ED?IMU963RA_WRITE_ACC_GYRO_REGISTER?SEEKFREE_IMU963RA
0012E0H   0012E1H   000002H   BYTE   UNIT     EDATA          ?ED?IMU963RA_READ_ACC_GYRO_REGISTER?SEEKFREE_IMU963RA
0012E2H   0012E3H   000002H   BYTE   UNIT     EDATA          ?ED?IMU963RA_CONNECT_MAG?SEEKFREE_IMU963RA
0012E4H   0012E5H   000002H   BYTE   UNIT     EDATA          ?ED?IPS114_WRITEINDEX_SIMSPI?SEEKFREE_IPS114_SPI
0012E6H   0012E7H   000002H   BYTE   UNIT     EDATA          ?ED?IPS114_WRITEDATA_SIMSPI?SEEKFREE_IPS114_SPI
0012E8H   0012E9H   000002H   BYTE   UNIT     EDATA          ?ED?IPS200_WRITE_16BIT_DATA?SEEKFREE_IPS200_SPI
0012EAH   0012EBH   000002H   BYTE   UNIT     EDATA          ?ED?IPS200_SET_DIR?SEEKFREE_IPS200_SPI
0012ECH   0012EDH   000002H   BYTE   UNIT     EDATA          ?ED?IPS200_SET_FONT?SEEKFREE_IPS200_SPI
L251 LINKER/LOCATER V4.66.93.0                                                        11/20/2024  19:22:33  PAGE 8


0012EEH   0012EFH   000002H   BYTE   UNIT     EDATA          ?ED?MPU6050_SIMIIC_DELAY?SEEKFREE_MPU6050
0012F0H   0012F1H   000002H   BYTE   UNIT     EDATA          ?ED?MPU6050_SEND_CH?SEEKFREE_MPU6050
0012F2H   0012F3H   000002H   BYTE   UNIT     EDATA          ?ED?OLED_WRDAT?SEEKFREE_OLED
0012F4H   0012F5H   000002H   BYTE   UNIT     EDATA          ?ED?OLED_WRCMD?SEEKFREE_OLED
0012F6H   0012F7H   000002H   BYTE   UNIT     EDATA          ?ED?OLED_SET_POS?SEEKFREE_OLED
0012F8H   0012F9H   000002H   BYTE   UNIT     EDATA          ?ED?OLED_CLRPIXEL?SEEKFREE_OLED
0012FAH   0012FBH   000002H   BYTE   UNIT     EDATA          ?ED?OLED_SET_POS_SPI?SEEKFREE_OLED
0012FCH   0012FDH   000002H   BYTE   UNIT     EDATA          ?ED?OLED_CLRPIXEL_SPI?SEEKFREE_OLED
0012FEH   0012FFH   000002H   BYTE   UNIT     EDATA          ?ED?DRV8701_STOP?DRV8701_DUAL
001300H   001301H   000002H   BYTE   UNIT     EDATA          ?ED?ENCODER_READ1?ENCODER
001302H   001303H   000002H   BYTE   UNIT     EDATA          ?ED?ENCODER_READ2?ENCODER
001304H   001305H   000002H   BYTE   UNIT     EDATA          ?ED?EXCEPTION_HANDLER?STRAIGHT
001306H   001306H   000001H   BYTE   UNIT     EDATA          ?ED?PUTCHAR?BOARD
001307H   001307H   000001H   BYTE   UNIT     EDATA          ?ED?IAP_SET_TPS?ZF_EEPROM
001308H   001308H   000001H   BYTE   UNIT     EDATA          ?ED?START?ZF_IIC
001309H   001309H   000001H   BYTE   UNIT     EDATA          ?ED?RECV_ACK?ZF_IIC
00130AH   00130AH   000001H   BYTE   UNIT     EDATA          ?ED?SEND_ACK?ZF_IIC
00130BH   00130BH   000001H   BYTE   UNIT     EDATA          ?ED?STOP?ZF_IIC
00130CH   00130CH   000001H   BYTE   UNIT     EDATA          ?ED?SPI_MOSI?ZF_SPI
00130DH   00130DH   000001H   BYTE   UNIT     EDATA          ?ED?SPI_CHANGE_MODE?ZF_SPI
00130EH   00130EH   000001H   BYTE   UNIT     EDATA          ?ED?LCD_WRITEINDEX?SEEKFREE_18TFT
00130FH   00130FH   000001H   BYTE   UNIT     EDATA          ?ED?LCD_WRITEDATA?SEEKFREE_18TFT
001310H   001310H   000001H   BYTE   UNIT     EDATA          ?ED?DL1A_SIMIIC_SENDACK?SEEKFREE_DL1A
001311H   001311H   000001H   BYTE   UNIT     EDATA          ?ED?DL1B_SIMIIC_SENDACK?SEEKFREE_DL1B
001312H   001312H   000001H   BYTE   UNIT     EDATA          ?ED?IMU660RA_INIT?SEEKFREE_IMU660RA
001313H   001313H   000001H   BYTE   UNIT     EDATA          ?ED?IMU963RA_INIT?SEEKFREE_IMU963RA
001314H   001314H   000001H   BYTE   UNIT     EDATA          ?ED?IPS114_WRITEINDEX?SEEKFREE_IPS114_SPI
001315H   001315H   000001H   BYTE   UNIT     EDATA          ?ED?IPS114_WRITEDATA?SEEKFREE_IPS114_SPI
001316H   001316H   000001H   BYTE   UNIT     EDATA          ?ED?IPS200_WRITE_8BIT_DATA_SPI?SEEKFREE_IPS200_SPI
001317H   001317H   000001H   BYTE   UNIT     EDATA          ?ED?IPS200_WRITE_COMMAND?SEEKFREE_IPS200_SPI
001318H   001318H   000001H   BYTE   UNIT     EDATA          ?ED?IPS200_WRITE_8BIT_DATA?SEEKFREE_IPS200_SPI
001319H   001319H   000001H   BYTE   UNIT     EDATA          ?ED?MPU6050_SIMIIC_SENDACK?SEEKFREE_MPU6050
00131AH   00131AH   000001H   BYTE   UNIT     EDATA          ?ED?OLED_WRDAT_SPI?SEEKFREE_OLED
00131BH   00131BH   000001H   BYTE   UNIT     EDATA          ?ED?OLED_WRCMD_SPI?SEEKFREE_OLED
00131CH   00131CH   000001H   BYTE   UNIT     EDATA          ?ED?CCD_COLLECT?SEEKFREE_TSL1401
00131DH   00131DH   000001H   BYTE   UNIT     EDATA          ?ED?WIRELESS_UART_SEND_BYTE?SEEKFREE_WIRELESS
00131EH   00131EH   000001H   BYTE   UNIT     EDATA          ?ED?UART1_ISR?ISR
00131FH   00131FH   000001H   BYTE   UNIT     EDATA          ?ED?ISR
001320H   001320H   000001H   BYTE   UNIT     EDATA          ?ED?BEEP_SET?BATTERY
001321H   001321H   000001H   BYTE   UNIT     EDATA          ?ED?RING
001322H   001421H   000100H   BYTE   UNIT     EDATA          ?STACK
001422H   FEFFFFH   FEEBDEH   ---    ---      **GAP**
FF0000H   FF0002H   000003H   ---    OFFS..   CODE           ?CO?start251?4
FF0003H   FF0005H   000003H   ---    OFFS..   CODE           ?PR?IV?0
FF0006H   FF0009H   000004H   BYTE   INSEG    CODE           ?PR?ENABLEGLOBALIRQ?BOARD
FF000AH   FF000AH   000001H   BYTE   INSEG    CODE           ?PR?INT1_ISR?ISR
FF000BH   FF000DH   000003H   ---    OFFS..   CODE           ?PR?IV?1
FF000EH   FF0011H   000004H   BYTE   UNIT     CODE           ?PR?FPADD?STC32F_FPMU
FF0012H   FF0012H   000001H   BYTE   INSEG    CODE           ?PR?TM0_ISR?ISR
FF0013H   FF0015H   000003H   ---    OFFS..   CODE           ?PR?IV?2
FF0016H   FF0019H   000004H   BYTE   UNIT     CODE           ?PR?FPSUB?STC32F_FPMU
FF001AH   FF001AH   000001H   BYTE   INSEG    CODE           ?PR?TM1_ISR?ISR
FF001BH   FF001DH   000003H   ---    OFFS..   CODE           ?PR?IV?3
FF001EH   FF0021H   000004H   BYTE   UNIT     CODE           ?PR?FPMUL?STC32F_FPMU
FF0022H   FF0022H   000001H   ---    ---      **GAP**
FF0023H   FF0025H   000003H   ---    OFFS..   CODE           ?PR?IV?4
FF0026H   FF0042H   00001DH   BYTE   INSEG    CODE           ?PR?DL1B_SIMIIC_DELAY?SEEKFREE_DL1B
FF0043H   FF0045H   000003H   ---    OFFS..   CODE           ?PR?IV?8
FF0046H   FF0052H   00000DH   BYTE   INSEG    CODE           ?PR?ENCODER_INIT?ENCODER
FF0053H   FF0055H   000003H   ---    OFFS..   CODE           ?PR?IV?10
FF0056H   FF0059H   000004H   BYTE   UNIT     CODE           ?PR?FPDIV?STC32F_FPMU
FF005AH   FF005AH   000001H   ---    ---      **GAP**
FF005BH   FF005DH   000003H   ---    OFFS..   CODE           ?PR?IV?11
FF005EH   FF0061H   000004H   BYTE   UNIT     CODE           ?PR?FCASTL?STC32F_FPMU
FF0062H   FF0062H   000001H   ---    ---      **GAP**
L251 LINKER/LOCATER V4.66.93.0                                                        11/20/2024  19:22:33  PAGE 9


FF0063H   FF0065H   000003H   ---    OFFS..   CODE           ?PR?IV?12
FF0066H   FF0082H   00001DH   BYTE   INSEG    CODE           ?PR?MPU6050_SIMIIC_DELAY?SEEKFREE_MPU6050
FF0083H   FF0085H   000003H   ---    OFFS..   CODE           ?PR?IV?16
FF0086H   FF0089H   000004H   BYTE   INSEG    CODE           ?PR?INT0_ISR?ISR
FF008AH   FF008AH   000001H   ---    ---      **GAP**
FF008BH   FF008DH   000003H   ---    OFFS..   CODE           ?PR?IV?17
FF008EH   FF0091H   000004H   BYTE   INSEG    CODE           ?PR?INT2_ISR?ISR
FF0092H   FF0092H   000001H   ---    ---      **GAP**
FF0093H   FF0095H   000003H   ---    OFFS..   CODE           ?PR?IV?18
FF0096H   FF0099H   000004H   BYTE   INSEG    CODE           ?PR?INT3_ISR?ISR
FF009AH   FF009AH   000001H   ---    ---      **GAP**
FF009BH   FF009DH   000003H   ---    OFFS..   CODE           ?PR?IV?19
FF009EH   FF00A1H   000004H   BYTE   INSEG    CODE           ?PR?INT4_ISR?ISR
FF00A2H   FF00A2H   000001H   ---    ---      **GAP**
FF00A3H   FF00A5H   000003H   ---    OFFS..   CODE           ?PR?IV?20
FF00A6H   FF212CH   002087H   BYTE   UNIT     CODE           ?CO?SEEKFREE_CONFIG
FF212DH   FF374CH   001620H   BYTE   UNIT     CODE           ?CO?SEEKFREE_FONT
FF374DH   FF4059H   00090DH   BYTE   INSEG    CODE           ?PR?GPIO_MODE?ZF_GPIO
FF405AH   FF4749H   0006F0H   BYTE   UNIT     CODE           ?C?LIB_CODE
FF474AH   FF4DAAH   000661H   BYTE   INSEG    CODE           ?PR?ZF_SPRINTF?SEEKFREE_FUNCTION
FF4DABH   FF53D6H   00062CH   BYTE   INSEG    CODE           ?PR?SET_CLK?BOARD
FF53D7H   FF57B0H   0003DAH   BYTE   INSEG    CODE           ?PR?PWM_INIT?ZF_PWM
FF57B1H   FF5B5CH   0003ACH   BYTE   INSEG    CODE           ?PR?FIFO_READ_BUFFER?ZF_FIFO
FF5B5DH   FF5EEEH   000392H   BYTE   INSEG    CODE           ?PR?FIFO_WRITE_BUFFER?ZF_FIFO
FF5EEFH   FF61FAH   00030CH   BYTE   INSEG    CODE           ?PR?PWM_SET_GPIO?ZF_PWM
FF61FBH   FF64ADH   0002B3H   BYTE   INSEG    CODE           ?PR?UART_INIT?ZF_UART
FF64AEH   FF6734H   000287H   BYTE   INSEG    CODE           ?PR?FUNC_DOUBLE_TO_STR?SEEKFREE_FUNCTION
FF6735H   FF6925H   0001F1H   BYTE   INSEG    CODE           ?PR?IPS200_SHOW_CHAR?SEEKFREE_IPS200_SPI
FF6926H   FF6AEBH   0001C6H   BYTE   INSEG    CODE           ?PR?IPS200_INIT_SPI?SEEKFREE_IPS200_SPI
FF6AECH   FF6C80H   000195H   BYTE   INSEG    CODE           ?PR?DL1A_GET_SPAD_INFO?SEEKFREE_DL1A
FF6C81H   FF6DE9H   000169H   BYTE   INSEG    CODE           ?PR?DL1A_GET_SEQUENCE_STEP_TIMEOUTS?SEEKFREE_DL1A
FF6DEAH   FF6F42H   000159H   BYTE   INSEG    CODE           ?PR?REMOTE_STOP?LINE
FF6F43H   FF708BH   000149H   BYTE   INSEG    CODE           ?PR?DL1A_SET_MEASUREMENT_TIMING_BUDGET?SEEKFREE_DL1A
FF708CH   FF71ACH   000121H   BYTE   INSEG    CODE           ?PR?LINE_CALCULATE_POSITION?STRAIGHT
FF71ADH   FF72C4H   000118H   BYTE   INSEG    CODE           ?PR?PWM_DUTY?ZF_PWM
FF72C5H   FF73DBH   000117H   BYTE   INSEG    CODE           ?PR?NUMBER_CONVERSION_ASCII?SEEKFREE_FUNCTION
FF73DCH   FF74E3H   000108H   BYTE   INSEG    CODE           ?PR?PID_CONTROL_STRAINT?STRAIGHT
FF74E4H   FF75EBH   000108H   BYTE   INSEG    CODE           ?PR?PID_CONTROL_RING?STRAIGHT
FF75ECH   FF76ECH   000101H   BYTE   INSEG    CODE           ?PR?SEEKFREE_ASSISTANT_CAMERA_DOT_SEND?SEEKFREE_ASSISTANT
FF76EDH   FF77EDH   000101H   BYTE   INSEG    CODE           ?PR?SEEKFREE_ASSISTANT_CAMERA_DATA_SEND?SEEKFREE_ASSISTANT
FF77EEH   FF78ECH   0000FFH   BYTE   INSEG    CODE           ?PR?FUNC_INT_TO_STR?SEEKFREE_FUNCTION
FF78EDH   FF79E6H   0000FAH   BYTE   INSEG    CODE           ?PR?LINE_CALCULATE_POSITION_RING?STRAIGHT
FF79E7H   FF7ADDH   0000F7H   BYTE   INSEG    CODE           ?PR?RING_HANDLER?RING
FF7ADEH   FF7BC2H   0000E5H   BYTE   INSEG    CODE           ?PR?PIT_TIMER_MS?ZF_TIM
FF7BC3H   FF7C99H   0000D7H   BYTE   INSEG    CODE           ?PR?DRV8701_CONTROL?DRV8701_DUAL
FF7C9AH   FF7D6AH   0000D1H   BYTE   INSEG    CODE           ?PR?OLED_P6X8STR?SEEKFREE_OLED
FF7D6BH   FF7E3BH   0000D1H   BYTE   INSEG    CODE           ?PR?OLED_P6X8STR_SPI?SEEKFREE_OLED
FF7E3CH   FF7F09H   0000CEH   BYTE   INSEG    CODE           ?PR?SPI_INIT?ZF_SPI
FF7F0AH   FF7FD4H   0000CBH   BYTE   INSEG    CODE           ?PR?LINE_READ_RAW?LINE
FF7FD5H   FF8093H   0000BFH   BYTE   INSEG    CODE           ?PR?LCD_SHOWCHAR_SIMSPI?SEEKFREE_18TFT
FF8094H   FF8152H   0000BFH   BYTE   INSEG    CODE           ?PR?LCD_SHOWCHAR?SEEKFREE_18TFT
FF8153H   FF8211H   0000BFH   BYTE   INSEG    CODE           ?PR?IPS114_SHOWCHAR_SIMSPI?SEEKFREE_IPS114_SPI
FF8212H   FF82D0H   0000BFH   BYTE   INSEG    CODE           ?PR?IPS114_SHOWCHAR?SEEKFREE_IPS114_SPI
FF82D1H   FF8386H   0000B6H   BYTE   INSEG    CODE           ?PR?DL1A_GET_MEASUREMENT_TIMING_BUDGET?SEEKFREE_DL1A
FF8387H   FF843BH   0000B5H   BYTE   INSEG    CODE           ?PR?ADC_INIT?ZF_ADC
FF843CH   FF84EFH   0000B4H   BYTE   INSEG    CODE           ?PR?CTIMER_COUNT_READ?ZF_TIM
FF84F0H   FF859AH   0000ABH   BYTE   INSEG    CODE           ?PR?DL1A_PERFORM_SINGLE_REF_CALIBRATION?SEEKFREE_DL1A
FF859BH   FF8643H   0000A9H   BYTE   INSEG    CODE           ?PR?FUNC_UINT_TO_STR?SEEKFREE_FUNCTION
FF8644H   FF86DDH   00009AH   BYTE   INSEG    CODE           ?PR?CRC_CHECK?SEEKFREE_VIRSCO
FF86DEH   FF8772H   000095H   BYTE   INSEG    CODE           ?PR?PRINTF_REVERSE_ORDER?SEEKFREE_FUNCTION
FF8773H   FF8805H   000093H   BYTE   INSEG    CODE           ?PR?IPS200_SHOW_STRING?SEEKFREE_IPS200_SPI
FF8806H   FF8893H   00008EH   BYTE   INSEG    CODE           ?PR?DL1A_GET_SEQUENCE_STEP_ENABLES?SEEKFREE_DL1A
FF8894H   FF8918H   000085H   BYTE   INSEG    CODE           ?PR?ENCODER_READ2?ENCODER
FF8919H   FF899BH   000083H   BYTE   INSEG    CODE           ?PR?FIFO_INIT?ZF_FIFO
FF899CH   FF8A1AH   00007FH   BYTE   INSEG    CODE           ?PR?DL1A_ENCODE_TIMEOUT?SEEKFREE_DL1A
L251 LINKER/LOCATER V4.66.93.0                                                        11/20/2024  19:22:33  PAGE 10


FF8A1BH   FF8A99H   00007FH   BYTE   INSEG    CODE           ?PR?IMU963RA_WRITE_MAG_REGISTER?SEEKFREE_IMU963RA
FF8A9AH   FF8B14H   00007BH   BYTE   INSEG    CODE           ?PR?ENCODER_READ1?ENCODER
FF8B15H   FF8B8EH   00007AH   BYTE   INSEG    CODE           ?PR?DL1A_GET_VCSEL_PULSE_PERIOD?SEEKFREE_DL1A
FF8B8FH   FF8C07H   000079H   BYTE   INSEG    CODE           ?PR?DL1B_IIC_TRANSFER_8BIT_ARRAY?SEEKFREE_DL1B
FF8C08H   FF8C7EH   000077H   BYTE   INSEG    CODE           ?PR?BOARD_INIT?BOARD
FF8C7FH   FF8CF3H   000075H   BYTE   INSEG    CODE           ?PR?UART_PUTCHAR?ZF_UART
FF8CF4H   FF8D68H   000075H   BYTE   INSEG    CODE           ?PR?WIRELESS_UART_SEND_BUFF?SEEKFREE_WIRELESS
FF8D69H   FF8DD9H   000071H   BYTE   INSEG    CODE           ?PR?CODE_ENTRANCE?MAIN
FF8DDAH   FF8E49H   000070H   BYTE   INSEG    CODE           ?PR?FIFO_HEAD_OFFSET?ZF_FIFO
FF8E4AH   FF8EB9H   000070H   BYTE   INSEG    CODE           ?PR?FIFO_END_OFFSET?ZF_FIFO
FF8EBAH   FF8F28H   00006FH   BYTE   INSEG    CODE           ?PR?OLED_HEXASCII_SPI?SEEKFREE_OLED
FF8F29H   FF8F95H   00006DH   BYTE   INSEG    CODE           ?PR?IPS200_CLEAR?SEEKFREE_IPS200_SPI
FF8F96H   FF9001H   00006CH   BYTE   INSEG    CODE           ?PR?IMU963RA_READ_MAG_REGISTER?SEEKFREE_IMU963RA
FF9002H   FF906DH   00006CH   BYTE   INSEG    CODE           ?PR?MPU6050_SIMIIC_READ_REGS?SEEKFREE_MPU6050
FF906EH   FF90D7H   00006AH   BYTE   INSEG    CODE           ?PR?DL1A_READ_CH?SEEKFREE_DL1A
FF90D8H   FF9141H   00006AH   BYTE   INSEG    CODE           ?PR?DL1B_READ_CH?SEEKFREE_DL1B
FF9142H   FF91ABH   00006AH   BYTE   INSEG    CODE           ?PR?MPU6050_READ_CH?SEEKFREE_MPU6050
FF91ACH   FF9213H   000068H   BYTE   INSEG    CODE           ?PR?DL1A_SIMIIC_READ_REGS?SEEKFREE_DL1A
FF9214H   FF9277H   000064H   BYTE   INSEG    CODE           ?PR?LCD_SET_REGION_SIMSPI?SEEKFREE_18TFT
FF9278H   FF92DBH   000064H   BYTE   INSEG    CODE           ?PR?LCD_SET_REGION?SEEKFREE_18TFT
FF92DCH   FF933FH   000064H   BYTE   INSEG    CODE           ?PR?GET_BATTERY_VOLTAGE?BATTERY
FF9340H   FF93A0H   000061H   BYTE   INSEG    CODE           ?PR?GET_BATTERY_PERCENTAGE?BATTERY
FF93A1H   FF93FFH   00005FH   BYTE   INSEG    CODE           ?PR?IPS114_CLEAR_SIMSPI?SEEKFREE_IPS114_SPI
FF9400H   FF945EH   00005FH   BYTE   INSEG    CODE           ?PR?IPS114_CLEAR?SEEKFREE_IPS114_SPI
FF945FH   FF94BCH   00005EH   BYTE   INSEG    CODE           ?PR?UART2_ISR?ISR
FF94BDH   FF951AH   00005EH   BYTE   INSEG    CODE           ?PR?UART4_ISR?ISR
FF951BH   FF9577H   00005DH   BYTE   INSEG    CODE           ?PR?CTIMER_COUNT_CLEAN?ZF_TIM
FF9578H   FF95D4H   00005DH   BYTE   INSEG    CODE           ?PR?LCD_SHOWSTR_SIMSPI?SEEKFREE_18TFT
FF95D5H   FF9631H   00005DH   BYTE   INSEG    CODE           ?PR?LCD_SHOWSTR?SEEKFREE_18TFT
FF9632H   FF968EH   00005DH   BYTE   INSEG    CODE           ?PR?OLED_FILL?SEEKFREE_OLED
FF968FH   FF96EBH   00005DH   BYTE   INSEG    CODE           ?PR?OLED_FILL_SPI?SEEKFREE_OLED
FF96ECH   FF9745H   00005AH   BYTE   INSEG    CODE           ?PR?SERVO_SET_POSITION?SERVO
FF9746H   FF979EH   000059H   BYTE   INSEG    CODE           ?PR?ICM20602_SIMSPI_WR_BYTE?SEEKFREE_ICM20602
FF979FH   FF97F7H   000059H   BYTE   INSEG    CODE           ?PR?IMU660RA_SIMSPI_WR_BYTE?SEEKFREE_IMU660RA
FF97F8H   FF9850H   000059H   BYTE   INSEG    CODE           ?PR?IMU963RA_SIMSPI_WR_BYTE?SEEKFREE_IMU963RA
FF9851H   FF98A7H   000057H   BYTE   INSEG    CODE           ?PR?WAIT?ZF_IIC
FF98A8H   FF98FEH   000057H   BYTE   INSEG    CODE           ?PR?LCD_CLEAR_SIMSPI?SEEKFREE_18TFT
FF98FFH   FF9955H   000057H   BYTE   INSEG    CODE           ?PR?LCD_CLEAR?SEEKFREE_18TFT
FF9956H   FF99ABH   000056H   BYTE   INSEG    CODE           ?PR?ADC_ONCE?ZF_ADC
FF99ACH   FF9A00H   000055H   BYTE   INSEG    CODE           ?PR?LCD_WRITEDATA_16BIT_SIMSPI?SEEKFREE_18TFT
FF9A01H   FF9A55H   000055H   BYTE   INSEG    CODE           ?PR?IPS114_WRITEDATAI_16BIT_SIMSPI?SEEKFREE_IPS114_SPI
FF9A56H   FF9AA9H   000054H   BYTE   INSEG    CODE           ?PR?CTIMER_COUNT_INIT?ZF_TIM
FF9AAAH   FF9AFDH   000054H   BYTE   INSEG    CODE           ?PR?IPS114_SET_REGION_SIMSPI?SEEKFREE_IPS114_SPI
FF9AFEH   FF9B51H   000054H   BYTE   INSEG    CODE           ?PR?IPS114_SET_REGION?SEEKFREE_IPS114_SPI
FF9B52H   FF9BA4H   000053H   BYTE   INSEG    CODE           ?PR?DL1A_TIMEOUT_MCLKS_TO_MICROSECONDS?SEEKFREE_DL1A
FF9BA5H   FF9BF5H   000051H   BYTE   INSEG    CODE           ?PR?DL1A_TIMEOUT_MICROSECONDS_TO_MCLKS?SEEKFREE_DL1A
FF9BF6H   FF9C46H   000051H   BYTE   INSEG    CODE           ?PR?ICM20602_SIMSPI_R_REG_BYTES?SEEKFREE_ICM20602
FF9C47H   FF9C97H   000051H   BYTE   INSEG    CODE           ?PR?IMU963RA_MAG_SELF_CHECK?SEEKFREE_IMU963RA
FF9C98H   FF9CE5H   00004EH   BYTE   INSEG    CODE           ?PR?ICM20602_SELF_CHECK?SEEKFREE_ICM20602
FF9CE6H   FF9D31H   00004CH   BYTE   INSEG    CODE           ?PR?LCD_WRITEINDEX_SIMSPI?SEEKFREE_18TFT
FF9D32H   FF9D7DH   00004CH   BYTE   INSEG    CODE           ?PR?LCD_WRITEDATA_SIMSPI?SEEKFREE_18TFT
FF9D7EH   FF9DC9H   00004CH   BYTE   INSEG    CODE           ?PR?IPS114_WRITEINDEX_SIMSPI?SEEKFREE_IPS114_SPI
FF9DCAH   FF9E15H   00004CH   BYTE   INSEG    CODE           ?PR?IPS114_WRITEDATA_SIMSPI?SEEKFREE_IPS114_SPI
FF9E16H   FF9E61H   00004CH   BYTE   INSEG    CODE           ?PR?OLED_WRCMD?SEEKFREE_OLED
FF9E62H   FF9EADH   00004CH   BYTE   INSEG    CODE           ?PR?OLED_WRDAT?SEEKFREE_OLED
FF9EAEH   FF9EF8H   00004BH   BYTE   INSEG    CODE           ?PR?IMU660RA_SELF_CHECK?SEEKFREE_IMU660RA
FF9EF9H   FF9F43H   00004BH   BYTE   INSEG    CODE           ?PR?IMU660RA_SIMSPI_R_REG_BYTES?SEEKFREE_IMU660RA
FF9F44H   FF9F8EH   00004BH   BYTE   INSEG    CODE           ?PR?IMU963RA_SIMSPI_R_REG_BYTES?SEEKFREE_IMU963RA
FF9F8FH   FF9FD7H   000049H   BYTE   INSEG    CODE           ?PR?DL1A_SEND_CH?SEEKFREE_DL1A
FF9FD8H   FFA020H   000049H   BYTE   INSEG    CODE           ?PR?DL1B_SEND_CH?SEEKFREE_DL1B
FFA021H   FFA069H   000049H   BYTE   INSEG    CODE           ?PR?MPU6050_SEND_CH?SEEKFREE_MPU6050
FFA06AH   FFA0AEH   000045H   BYTE   INSEG    CODE           ?PR?DRV8701_STOP?DRV8701_DUAL
FFA0AFH   FFA0F2H   000044H   BYTE   INSEG    CODE           ?PR?WIRELESS_UART_INIT?SEEKFREE_WIRELESS
FFA0F3H   FFA134H   000042H   BYTE   INSEG    CODE           ?PR?DL1A_SIMIIC_WRITE_DATS?SEEKFREE_DL1A
FFA135H   FFA176H   000042H   BYTE   INSEG    CODE           ?PR?UART1_ISR?ISR
L251 LINKER/LOCATER V4.66.93.0                                                        11/20/2024  19:22:33  PAGE 11


FFA177H   FFA1B5H   00003FH   BYTE   INSEG    CODE           ?PR?SEEKFREE_ASSISTANT_SUM?SEEKFREE_ASSISTANT
FFA1B6H   FFA1C8H   000013H   BYTE   UNIT     CODE           ?C_C51STARTUP
FFA1C9H   FFA1F1H   000029H   BYTE   UNIT     CODE           ?C_C51STARTUP?2
FFA1F2H   FFA1F4H   000003H   BYTE   UNIT     CODE           ?C_C51STARTUP?3
FFA1F5H   FFA232H   00003EH   BYTE   INSEG    CODE           ?PR?DL1A_SET_SIGNAL_RATE_LIMIT?SEEKFREE_DL1A
FFA233H   FFA270H   00003EH   BYTE   INSEG    CODE           ?PR?IMU660RA_SIMSPI_W_REG_BYTES?SEEKFREE_IMU660RA
FFA271H   FFA2ADH   00003DH   BYTE   INSEG    CODE           ?PR?DRV8701_INIT?DRV8701_DUAL
FFA2AEH   FFA2E9H   00003CH   BYTE   INSEG    CODE           ?PR?IPS200_SET_REGION?SEEKFREE_IPS200_SPI
FFA2EAH   FFA324H   00003BH   BYTE   INSEG    CODE           ?PR?DL1A_SIMIIC_READ_REG?SEEKFREE_DL1A
FFA325H   FFA35FH   00003BH   BYTE   INSEG    CODE           ?PR?MPU6050_SIMIIC_READ_REG?SEEKFREE_MPU6050
FFA360H   FFA399H   00003AH   BYTE   INSEG    CODE           ?PR?IMU963RA_CONNECT_MAG?SEEKFREE_IMU963RA
FFA39AH   FFA3D0H   000037H   BYTE   INSEG    CODE           ?PR?IPS200_SET_DIR?SEEKFREE_IPS200_SPI
FFA3D1H   FFA406H   000036H   BYTE   INSEG    CODE           ?PR?OLED_SET_POS_SPI?SEEKFREE_OLED
FFA407H   FFA43BH   000035H   BYTE   INSEG    CODE           ?PR?DELAY_MS?ZF_DELAY
FFA43CH   FFA470H   000035H   BYTE   INSEG    CODE           ?PR?IIC_DELAY_US?ZF_IIC
FFA471H   FFA4A5H   000035H   BYTE   INSEG    CODE           ?PR?OLED_SET_POS?SEEKFREE_OLED
FFA4A6H   FFA4D8H   000033H   BYTE   INSEG    CODE           ?PR?UART_PUTBUFF?ZF_UART
FFA4D9H   FFA50AH   000032H   BYTE   INSEG    CODE           ?PR?STRAIGHT_ENTRANCE?STRAIGHT
FFA50BH   FFA538H   00002EH   BYTE   INSEG    CODE           ?PR?WIRELESS_UART_READ_BUFF?SEEKFREE_WIRELESS
FFA539H   FFA565H   00002DH   BYTE   INSEG    CODE           ?PR?IMU963RA_SIMSPI_R_REG_BYTE?SEEKFREE_IMU963RA
FFA566H   FFA592H   00002DH   BYTE   INSEG    CODE           ?PR?IPS200_DRAW_POINT?SEEKFREE_IPS200_SPI
FFA593H   FFA5BCH   00002AH   BYTE   INSEG    CODE           ?PR?LCD_WRITEDATA_16BIT?SEEKFREE_18TFT
FFA5BDH   FFA5E6H   00002AH   BYTE   INSEG    CODE           ?PR?DL1A_DECODE_TIMEOUT?SEEKFREE_DL1A
FFA5E7H   FFA610H   00002AH   BYTE   INSEG    CODE           ?PR?DL1A_SIMIIC_WRITE_REG?SEEKFREE_DL1A
FFA611H   FFA63AH   00002AH   BYTE   INSEG    CODE           ?PR?IPS114_WRITEDATA_16BIT?SEEKFREE_IPS114_SPI
FFA63BH   FFA664H   00002AH   BYTE   INSEG    CODE           ?PR?MPU6050_SIMIIC_WRITE_REG?SEEKFREE_MPU6050
FFA665H   FFA68CH   000028H   BYTE   INSEG    CODE           ?PR?SEND_DATA?ZF_IIC
FFA68DH   FFA6B4H   000028H   BYTE   INSEG    CODE           ?PR?DL1A_SIMIIC_SENDACK?SEEKFREE_DL1A
FFA6B5H   FFA6DCH   000028H   BYTE   INSEG    CODE           ?PR?DL1B_SIMIIC_SENDACK?SEEKFREE_DL1B
FFA6DDH   FFA704H   000028H   BYTE   INSEG    CODE           ?PR?MPU6050_SIMIIC_SENDACK?SEEKFREE_MPU6050
FFA705H   FFA72BH   000027H   BYTE   INSEG    CODE           ?PR?ICM20602_SIMSPI_R_REG_BYTE?SEEKFREE_ICM20602
FFA72CH   FFA752H   000027H   BYTE   INSEG    CODE           ?PR?MAIN?MAIN
FFA753H   FFA778H   000026H   BYTE   INSEG    CODE           ?PR?ICM20602_READ_REGISTERS?SEEKFREE_ICM20602
FFA779H   FFA79EH   000026H   BYTE   INSEG    CODE           ?PR?IMU963RA_READ_ACC_GYRO_REGISTERS?SEEKFREE_IMU963RA
FFA79FH   FFA7C3H   000025H   BYTE   INSEG    CODE           ?PR?FIFO_USED?ZF_FIFO
FFA7C4H   FFA7E8H   000025H   BYTE   INSEG    CODE           ?PR?LINE_INIT?LINE
FFA7E9H   FFA80DH   000025H   BYTE   INSEG    CODE           ?PR?MEMCPY?_?MEMCPY
FFA80EH   FFA830H   000023H   BYTE   INSEG    CODE           ?PR?DELAY_INIT?ZF_DELAY
FFA831H   FFA853H   000023H   BYTE   INSEG    CODE           ?PR?IMU963RA_READ_ACC_GYRO_REGISTER?SEEKFREE_IMU963RA
FFA854H   FFA875H   000022H   BYTE   INSEG    CODE           ?PR?IMU660RA_READ_REGISTER?SEEKFREE_IMU660RA
FFA876H   FFA897H   000022H   BYTE   INSEG    CODE           ?PR?IMU660RA_WRITE_REGISTERS?SEEKFREE_IMU660RA
FFA898H   FFA8B8H   000021H   BYTE   INSEG    CODE           ?PR?SEND_ACK?ZF_IIC
FFA8B9H   FFA8D9H   000021H   BYTE   INSEG    CODE           ?PR?DL1A_SCCB_WAITACK?SEEKFREE_DL1A
FFA8DAH   FFA8FAH   000021H   BYTE   INSEG    CODE           ?PR?DL1B_SCCB_WAITACK?SEEKFREE_DL1B
FFA8FBH   FFA91BH   000021H   BYTE   INSEG    CODE           ?PR?IMU963RA_SIMSPI_W_REG_BYTE?SEEKFREE_IMU963RA
FFA91CH   FFA93CH   000021H   BYTE   INSEG    CODE           ?PR?IPS200_WRITE_16BIT_DATA_SPI?SEEKFREE_IPS200_SPI
FFA93DH   FFA95DH   000021H   BYTE   INSEG    CODE           ?PR?MPU6050_SCCB_WAITACK?SEEKFREE_MPU6050
FFA95EH   FFA97EH   000021H   BYTE   INSEG    CODE           ?PR?WIRELESS_UART_SEND_BYTE?SEEKFREE_WIRELESS
FFA97FH   FFA99DH   00001FH   BYTE   INSEG    CODE           ?PR?DL1A_SIMIIC_DELAY?SEEKFREE_DL1A
FFA99EH   FFA9BBH   00001EH   BYTE   INSEG    CODE           ?PR?ICM20602_READ_REGISTER?SEEKFREE_ICM20602
FFA9BCH   FFA9D9H   00001EH   BYTE   INSEG    CODE           ?PR?IPS200_WRITE_COMMAND?SEEKFREE_IPS200_SPI
FFA9DAH   FFA9F7H   00001EH   BYTE   INSEG    CODE           ?PR?GET_ENCODER_DISTANCE?ENCODER
FFA9F8H   FFAA13H   00001CH   BYTE   INSEG    CODE           ?PR?RECV_DATA?ZF_IIC
FFAA14H   FFAA2EH   00001BH   BYTE   INSEG    CODE           ?PR?ICM20602_SIMSPI_W_REG_BYTE?SEEKFREE_ICM20602
FFAA2FH   FFAA49H   00001BH   BYTE   INSEG    CODE           ?PR?IMU660RA_SIMSPI_W_REG_BYTE?SEEKFREE_IMU660RA
FFAA4AH   FFAA63H   00001AH   BYTE   INSEG    CODE           ?PR?IAP_SET_TPS?ZF_EEPROM
FFAA64H   FFAA7DH   00001AH   BYTE   INSEG    CODE           ?PR?BLUETOOTH_CH9141_UART_CALLBACK?SEEKFREE_BLUETOOTH_CH91
                                                             -41
FFAA7EH   FFAA97H   00001AH   BYTE   INSEG    CODE           ?PR?ICM20602_WRITE_REGISTER?SEEKFREE_ICM20602
FFAA98H   FFAAB1H   00001AH   BYTE   INSEG    CODE           ?PR?IMU660RA_WRITE_REGISTER?SEEKFREE_IMU660RA
FFAAB2H   FFAACBH   00001AH   BYTE   INSEG    CODE           ?PR?IMU963RA_WRITE_ACC_GYRO_REGISTER?SEEKFREE_IMU963RA
FFAACCH   FFAAE5H   00001AH   BYTE   INSEG    CODE           ?PR?WIRELESS_UART_CALLBACK?SEEKFREE_WIRELESS
FFAAE6H   FFAAFFH   00001AH   BYTE   INSEG    CODE           ?PR?UART3_ISR?ISR
FFAB00H   FFAB19H   00001AH   BYTE   INSEG    CODE           ?PR?MEMSET?_?MEMSET
FFAB1AH   FFAB31H   000018H   BYTE   INSEG    CODE           ?PR?SERVO_INIT?SERVO
L251 LINKER/LOCATER V4.66.93.0                                                        11/20/2024  19:22:33  PAGE 12


FFAB32H   FFAB47H   000016H   BYTE   INSEG    CODE           ?PR?DL1A_SIMIIC_STOP?SEEKFREE_DL1A
FFAB48H   FFAB5DH   000016H   BYTE   INSEG    CODE           ?PR?DL1B_SIMIIC_STOP?SEEKFREE_DL1B
FFAB5EH   FFAB73H   000016H   BYTE   INSEG    CODE           ?PR?MPU6050_SIMIIC_STOP?SEEKFREE_MPU6050
FFAB74H   FFAB88H   000015H   BYTE   INSEG    CODE           ?PR?EEPROM_TRIG?ZF_EEPROM
FFAB89H   FFAB9DH   000015H   BYTE   INSEG    CODE           ?PR?START?ZF_IIC
FFAB9EH   FFABB2H   000015H   BYTE   INSEG    CODE           ?PR?RECV_ACK?ZF_IIC
FFABB3H   FFABC7H   000015H   BYTE   INSEG    CODE           ?PR?STOP?ZF_IIC
FFABC8H   FFABDCH   000015H   BYTE   INSEG    CODE           ?PR?LCD_WRITEINDEX?SEEKFREE_18TFT
FFABDDH   FFABF1H   000015H   BYTE   INSEG    CODE           ?PR?LCD_WRITEDATA?SEEKFREE_18TFT
FFABF2H   FFAC06H   000015H   BYTE   INSEG    CODE           ?PR?IPS114_WRITEINDEX?SEEKFREE_IPS114_SPI
FFAC07H   FFAC1BH   000015H   BYTE   INSEG    CODE           ?PR?IPS114_WRITEDATA?SEEKFREE_IPS114_SPI
FFAC1CH   FFAC30H   000015H   BYTE   INSEG    CODE           ?PR?IPS200_SET_COLOR?SEEKFREE_IPS200_SPI
FFAC31H   FFAC45H   000015H   BYTE   INSEG    CODE           ?PR?IPS200_WRITE_8BIT_DATA?SEEKFREE_IPS200_SPI
FFAC46H   FFAC5AH   000015H   BYTE   INSEG    CODE           ?PR?IPS200_WRITE_16BIT_DATA?SEEKFREE_IPS200_SPI
FFAC5BH   FFAC6FH   000015H   BYTE   INSEG    CODE           ?PR?OLED_WRCMD_SPI?SEEKFREE_OLED
FFAC70H   FFAC84H   000015H   BYTE   INSEG    CODE           ?PR?OLED_WRDAT_SPI?SEEKFREE_OLED
FFAC85H   FFAC98H   000014H   BYTE   INSEG    CODE           ?PR?CLOCK_INIT?BOARD
FFAC99H   FFACABH   000013H   BYTE   INSEG    CODE           ?PR?DL1A_SIMIIC_START?SEEKFREE_DL1A
FFACACH   FFACBEH   000013H   BYTE   INSEG    CODE           ?PR?DL1B_SIMIIC_START?SEEKFREE_DL1B
FFACBFH   FFACD1H   000013H   BYTE   INSEG    CODE           ?PR?MPU6050_SIMIIC_START?SEEKFREE_MPU6050
FFACD2H   FFACE4H   000013H   BYTE   INSEG    CODE           ?PR?CLEAR_ENCODER_DISTANCE?ENCODER
FFACE5H   FFACF6H   000012H   BYTE   INSEG    CODE           ?PR?PUTCHAR?BOARD
FFACF7H   FFAD08H   000012H   BYTE   INSEG    CODE           ?PR?SPI_MOSI?ZF_SPI
FFAD09H   FFAD19H   000011H   BYTE   INSEG    CODE           ?PR?ICACHEON?BOARD
FFAD1AH   FFAD28H   00000FH   BYTE   INSEG    CODE           ?PR?BEEP_INIT?BATTERY
FFAD29H   FFAD36H   00000EH   BYTE   INSEG    CODE           ?PR?BEEP_SET?BATTERY
FFAD37H   FFAD44H   00000EH   BYTE   INSEG    CODE           ?PR?STRLEN?_?STRLEN
FFAD45H   FFAD50H   00000CH   BYTE   UNIT     CODE           ?PR?FPCMP?STC32F_FPMU
FFAD51H   FFAD58H   000008H   BYTE   INSEG    CODE           ?PR?IPS200_WRITE_8BIT_DATA_SPI?SEEKFREE_IPS200_SPI
FFAD59H   FFAD5FH   000007H   BYTE   UNIT     CODE           ?PR?FCHS?STC32F_FPMU
FFAD60H   FFAD65H   000006H   BYTE   UNIT     CODE           ?PR?CASTF?STC32F_FPMU
FFAD66H   FFAD6BH   000006H   BYTE   UNIT     CODE           ?PR?FCASTI?STC32F_FPMU
FFAD6CH   FFAD6FH   000004H   BYTE   INSEG    CODE           ?PR?TM2_ISR?ISR
FFAD70H   FFAD73H   000004H   BYTE   INSEG    CODE           ?PR?TM3_ISR?ISR
FFAD74H   FFAD77H   000004H   BYTE   INSEG    CODE           ?PR?TM4_ISR?ISR
FFAD78H   FFAD7BH   000004H   BYTE   UNIT     CONST          ?CO?PRINTF
FFAD7CH   FFB028H   0002ADH   BYTE   UNIT     HCONST         ?C_INITEDATA
FFB029H   FFB153H   00012BH   BYTE   UNIT     HCONST         ?HC?LINE
FFB154H   FFB227H   0000D4H   BYTE   UNIT     HCONST         ?HC?STRAIGHT
FFB228H   FFB2A2H   00007BH   BYTE   UNIT     HCONST         ?HC?RING
FFB2A3H   FFB2FAH   000058H   BYTE   UNIT     HCONST         ?HC?ZF_PWM
FFB2FBH   FFB345H   00004BH   BYTE   UNIT     HCONST         ?HC?SEEKFREE_IMU963RA
FFB346H   FFB37AH   000035H   BYTE   UNIT     HCONST         ?HC?SEEKFREE_ICM20602
FFB37BH   FFB3AEH   000034H   BYTE   UNIT     HCONST         ?HC?SEEKFREE_IMU660RA
FFB3AFH   FFB3D6H   000028H   BYTE   UNIT     HCONST         ?HC?MAIN
FFB3D7H   FFB3ECH   000016H   BYTE   UNIT     HCONST         ?HC?SEEKFREE_MPU6050
FFB3EDH   FFB3FFH   000013H   BYTE   UNIT     HCONST         ?HC?SEEKFREE_DL1A
FFB400H   FFB40FH   000010H   BYTE   UNIT     HCONST         ?HC?SEEKFREE_FUNCTION
FFB410H   FFB41BH   00000CH   BYTE   UNIT     HCONST         ?HC?BATTERY
FFB41CH   FFB425H   00000AH   BYTE   UNIT     HCONST         ?HC?SEEKFREE_OLED
FFB426H   FFB42BH   000006H   BYTE   UNIT     HCONST         ?HC?SEEKFREE_18TFT
FFB42CH   FFB431H   000006H   BYTE   UNIT     HCONST         ?HC?SEEKFREE_IPS114_SPI

* * * * * * * * *   R E M O V E D     S E G M E N T S   * * * * * * * *
   *DEL*:           000016H   BYTE   INSEG    CODE           ?PR?DISALBE_ICACHE?BOARD
   *DEL*:           000017H   BYTE   INSEG    CODE           ?PR?ENALBE_ICACHE?BOARD
   *DEL*:           000004H   BYTE   INSEG    CODE           ?PR?DISABLEGLOBALIRQ?BOARD
   *DEL*:           000004H   BYTE   UNIT     CODE           ?PR?SQRT?STC32F_FPMU
   *DEL*:           000006H   BYTE   UNIT     CODE           ?PR?FXAM?STC32F_FPMU
   *DEL*:           000007H   BYTE   UNIT     CODE           ?PR?FABS?STC32F_FPMU
   *DEL*:           000004H   BYTE   UNIT     CODE           ?PR?SIN?STC32F_FPMU
   *DEL*:           000004H   BYTE   UNIT     CODE           ?PR?COS?STC32F_FPMU
   *DEL*:           000004H   BYTE   UNIT     CODE           ?PR?TAN?STC32F_FPMU
   *DEL*:           00000AH   BYTE   UNIT     CODE           ?PR?ATAN?STC32F_FPMU
   *DEL*:           000006H   BYTE   UNIT     CODE           ?PR?FCASTC?STC32F_FPMU
L251 LINKER/LOCATER V4.66.93.0                                                        11/20/2024  19:22:33  PAGE 13


   *DEL*:           000004H   BYTE   UNIT     CODE           ?PR?FCLEX?STC32F_FPMU
   *DEL*:           000004H   BYTE   UNIT     CODE           ?PR?FINIT?STC32F_FPMU
   *DEL*:           000006H   BYTE   UNIT     CODE           ?PR?FPSRR?STC32F_FPMU
   *DEL*:           000006H   BYTE   UNIT     CODE           ?PR?FPSRW?STC32F_FPMU
   *DEL*:           000006H   BYTE   UNIT     CODE           ?PR?FPCRR?STC32F_FPMU
   *DEL*:           000006H   BYTE   UNIT     CODE           ?PR?FPCRW?STC32F_FPMU
   *DEL*:           000033H   BYTE   INSEG    CODE           ?PR?DELAY_US?ZF_DELAY
   *DEL*:           000029H   BYTE   INSEG    CODE           ?PR?IAP_ERASE_PAGE?ZF_EEPROM
   *DEL*:           000004H   BYTE   INSEG    CODE           ?PR?IAP_IDLE?ZF_EEPROM
   *DEL*:           00005FH   BYTE   INSEG    CODE           ?PR?IAP_READ_BYTES?ZF_EEPROM
   *DEL*:           000008H   BYTE   INSEG    CODE           ?PR?IAP_INIT?ZF_EEPROM
   *DEL*:           00005BH   BYTE   INSEG    CODE           ?PR?IAP_WRITE_BYTES?ZF_EEPROM
   *DEL*:           000012H   BYTE   INSEG    CODE           ?PR?IAP_GET_CMD_STATE?ZF_EEPROM
   *DEL*:           000066H   BYTE   INSEG    CODE           ?PR?EXIT_INIT?ZF_EXTI
   *DEL*:           000095H   BYTE   INSEG    CODE           ?PR?GPIO_PULL_SET?ZF_GPIO
   *DEL*:           000037H   BYTE   INSEG    CODE           ?PR?IIC_CHANGE_PIN?ZF_IIC
   *DEL*:           00001EH   BYTE   INSEG    CODE           ?PR?SEND_NAK?ZF_IIC
   *DEL*:           00007AH   BYTE   INSEG    CODE           ?PR?IIC_INIT?ZF_IIC
   *DEL*:           000099H   BYTE   INSEG    CODE           ?PR?IIC_READ_REG?ZF_IIC
   *DEL*:           0000D4H   BYTE   INSEG    CODE           ?PR?IIC_READ_REG_BYTES?ZF_IIC
   *DEL*:           00007CH   BYTE   INSEG    CODE           ?PR?IIC_WRITE_REG?ZF_IIC
   *DEL*:           0000B9H   BYTE   INSEG    CODE           ?PR?NVIC_SETPRIORITY?ZF_NVIC
   *DEL*:           0001ABH   BYTE   INSEG    CODE           ?PR?PWM_FREQ?ZF_PWM
   *DEL*:           000026H   BYTE   INSEG    CODE           ?PR?SPI_CHANGE_MODE?ZF_SPI
   *DEL*:           0000CCH   BYTE   INSEG    CODE           ?PR?SPI_CHANGE_PIN?ZF_SPI
   *DEL*:           00002BH   BYTE   INSEG    CODE           ?PR?UART_PUTSTR?ZF_UART
   *DEL*:           00013BH   BYTE   INSEG    CODE           ?PR?FIFO_WRITE_ELEMENT?ZF_FIFO
   *DEL*:           000434H   BYTE   INSEG    CODE           ?PR?FIFO_READ_TAIL_BUFFER?ZF_FIFO
   *DEL*:           0000EAH   BYTE   INSEG    CODE           ?PR?FIFO_CLEAR?ZF_FIFO
   *DEL*:           00018BH   BYTE   INSEG    CODE           ?PR?FIFO_READ_ELEMENT?ZF_FIFO
   *DEL*:           0000CDH   BYTE   INSEG    CODE           ?PR?LCD_SHOWUINT16?SEEKFREE_18TFT
   *DEL*:           0000CEH   BYTE   INSEG    CODE           ?PR?LCD_SHOWINT32_SIMSPI?SEEKFREE_18TFT
   *DEL*:           000119H   BYTE   INSEG    CODE           ?PR?LCD_SHOWINT16_SIMSPI?SEEKFREE_18TFT
   *DEL*:           0000CEH   BYTE   INSEG    CODE           ?PR?LCD_SHOWINT32?SEEKFREE_18TFT
   *DEL*:           000119H   BYTE   INSEG    CODE           ?PR?LCD_SHOWINT16?SEEKFREE_18TFT
   *DEL*:           0001FDH   BYTE   INSEG    CODE           ?PR?LCD_INIT_SIMSPI?SEEKFREE_18TFT
   *DEL*:           0000ECH   BYTE   INSEG    CODE           ?PR?SHOWIMAGE?SEEKFREE_18TFT
   *DEL*:           0001F3H   BYTE   INSEG    CODE           ?PR?LCD_INIT?SEEKFREE_18TFT
   *DEL*:           0000A9H   BYTE   INSEG    CODE           ?PR?LCD_SHOWUINT8_SIMSPI?SEEKFREE_18TFT
   *DEL*:           0000A9H   BYTE   INSEG    CODE           ?PR?LCD_SHOWUINT8?SEEKFREE_18TFT
   *DEL*:           0000EBH   BYTE   INSEG    CODE           ?PR?LCD_SHOWINT8_SIMSPI?SEEKFREE_18TFT
   *DEL*:           0000EBH   BYTE   INSEG    CODE           ?PR?LCD_SHOWINT8?SEEKFREE_18TFT
   *DEL*:           000145H   BYTE   INSEG    CODE           ?PR?LCD_SHOWFLOAT_SIMSPI?SEEKFREE_18TFT
   *DEL*:           000023H   BYTE   INSEG    CODE           ?PR?LCD_DRAWPOINT_SIMSPI?SEEKFREE_18TFT
   *DEL*:           000145H   BYTE   INSEG    CODE           ?PR?LCD_SHOWFLOAT?SEEKFREE_18TFT
   *DEL*:           000023H   BYTE   INSEG    CODE           ?PR?LCD_DRAWPOINT?SEEKFREE_18TFT
   *DEL*:           0000CDH   BYTE   INSEG    CODE           ?PR?LCD_SHOWUINT16_SIMSPI?SEEKFREE_18TFT
   *DEL*:           00002EH   BYTE   INSEG    CODE           ?PR?BLUETOOTH_CH9141_READ_BUFF?SEEKFREE_BLUETOOTH_CH9141
   *DEL*:           0000D4H   BYTE   INSEG    CODE           ?PR?BLUETOOTH_CH9141_SEND_BUFF?SEEKFREE_BLUETOOTH_CH9141
   *DEL*:           000045H   BYTE   INSEG    CODE           ?PR?BLUETOOTH_CH9141_INIT?SEEKFREE_BLUETOOTH_CH9141
   *DEL*:           00006CH   BYTE   INSEG    CODE           ?PR?DL1A_GET_DISTANCE?SEEKFREE_DL1A
   *DEL*:           000068H   BYTE   INSEG    CODE           ?PR?DL1A_SIMIIC_READ_REGS_1?SEEKFREE_DL1A
   *DEL*:           0006AEH   BYTE   INSEG    CODE           ?PR?DL1A_INIT?SEEKFREE_DL1A
   *DEL*:           000133H   BYTE   INSEG    CODE           ?PR?DL1B_GET_DISTANCE?SEEKFREE_DL1B
   *DEL*:           000112H   BYTE   INSEG    CODE           ?PR?DL1B_INIT?SEEKFREE_DL1B
   *DEL*:           000178H   BYTE   INSEG    CODE           ?PR?FUNC_STR_TO_DOUBLE?SEEKFREE_FUNCTION
   *DEL*:           000287H   BYTE   INSEG    CODE           ?PR?FUNC_FLOAT_TO_STR?SEEKFREE_FUNCTION
   *DEL*:           000178H   BYTE   INSEG    CODE           ?PR?FUNC_STR_TO_FLOAT?SEEKFREE_FUNCTION
   *DEL*:           000019H   BYTE   INSEG    CODE           ?PR?FUNC_SOFT_DELAY?SEEKFREE_FUNCTION
   *DEL*:           00005FH   BYTE   INSEG    CODE           ?PR?FUNC_STR_TO_UINT?SEEKFREE_FUNCTION
   *DEL*:           0000E3H   BYTE   INSEG    CODE           ?PR?FUNC_HEX_TO_STR?SEEKFREE_FUNCTION
   *DEL*:           000137H   BYTE   INSEG    CODE           ?PR?FUNC_STR_TO_HEX?SEEKFREE_FUNCTION
   *DEL*:           0000B6H   BYTE   INSEG    CODE           ?PR?FUNC_STR_TO_INT?SEEKFREE_FUNCTION
   *DEL*:           00004FH   BYTE   INSEG    CODE           ?PR?FUNC_GET_GREATEST_COMMON_DIVISOR?SEEKFREE_FUNCTION
   *DEL*:           00008DH   BYTE   INSEG    CODE           ?PR?ICM20602_GYRO_TRANSITION?SEEKFREE_ICM20602
L251 LINKER/LOCATER V4.66.93.0                                                        11/20/2024  19:22:33  PAGE 14


   *DEL*:           0000C2H   BYTE   INSEG    CODE           ?PR?ICM20602_INIT?SEEKFREE_ICM20602
   *DEL*:           000050H   BYTE   INSEG    CODE           ?PR?ICM20602_GET_ACC?SEEKFREE_ICM20602
   *DEL*:           000089H   BYTE   INSEG    CODE           ?PR?ICM20602_ACC_TRANSITION?SEEKFREE_ICM20602
   *DEL*:           000050H   BYTE   INSEG    CODE           ?PR?ICM20602_GET_GYRO?SEEKFREE_ICM20602
   *DEL*:           000050H   BYTE   INSEG    CODE           ?PR?IMU660RA_GET_GYRO?SEEKFREE_IMU660RA
   *DEL*:           0000A8H   BYTE   INSEG    CODE           ?PR?IMU660RA_GYRO_TRANSITION?SEEKFREE_IMU660RA
   *DEL*:           0000AAH   BYTE   INSEG    CODE           ?PR?IMU660RA_INIT?SEEKFREE_IMU660RA
   *DEL*:           000050H   BYTE   INSEG    CODE           ?PR?IMU660RA_GET_ACC?SEEKFREE_IMU660RA
   *DEL*:           00007CH   BYTE   INSEG    CODE           ?PR?IMU660RA_ACC_TRANSITION?SEEKFREE_IMU660RA
   *DEL*:           000026H   BYTE   INSEG    CODE           ?PR?IMU660RA_READ_REGISTERS?SEEKFREE_IMU660RA
   *DEL*:           00008DH   BYTE   INSEG    CODE           ?PR?IMU963RA_ACC_TRANSITION?SEEKFREE_IMU963RA
   *DEL*:           000050H   BYTE   INSEG    CODE           ?PR?IMU963RA_GET_GYRO?SEEKFREE_IMU963RA
   *DEL*:           000051H   BYTE   INSEG    CODE           ?PR?IMU963RA_MAG_TRANSITION?SEEKFREE_IMU963RA
   *DEL*:           0000D2H   BYTE   INSEG    CODE           ?PR?IMU963RA_GYRO_TRANSITION?SEEKFREE_IMU963RA
   *DEL*:           00011DH   BYTE   INSEG    CODE           ?PR?IMU963RA_INIT?SEEKFREE_IMU963RA
   *DEL*:           00004EH   BYTE   INSEG    CODE           ?PR?IMU963RA_ACC_GYRO_SELF_CHECK?SEEKFREE_IMU963RA
   *DEL*:           000050H   BYTE   INSEG    CODE           ?PR?IMU963RA_GET_ACC?SEEKFREE_IMU963RA
   *DEL*:           00006BH   BYTE   INSEG    CODE           ?PR?IMU963RA_GET_MAG?SEEKFREE_IMU963RA
   *DEL*:           0000A9H   BYTE   INSEG    CODE           ?PR?IPS114_SHOWUINT8_SIMSPI?SEEKFREE_IPS114_SPI
   *DEL*:           0000A5H   BYTE   INSEG    CODE           ?PR?IPS114_SHOWUINT8?SEEKFREE_IPS114_SPI
   *DEL*:           0000EBH   BYTE   INSEG    CODE           ?PR?IPS114_SHOWINT8_SIMSPI?SEEKFREE_IPS114_SPI
   *DEL*:           0000E7H   BYTE   INSEG    CODE           ?PR?IPS114_SHOWINT8?SEEKFREE_IPS114_SPI
   *DEL*:           000145H   BYTE   INSEG    CODE           ?PR?IPS114_SHOWFLOAT_SIMSPI?SEEKFREE_IPS114_SPI
   *DEL*:           000023H   BYTE   INSEG    CODE           ?PR?IPS114_DRAWPOINT_SIMSPI?SEEKFREE_IPS114_SPI
   *DEL*:           000145H   BYTE   INSEG    CODE           ?PR?IPS114_SHOWFLOAT?SEEKFREE_IPS114_SPI
   *DEL*:           000023H   BYTE   INSEG    CODE           ?PR?IPS114_DRAWPOINT?SEEKFREE_IPS114_SPI
   *DEL*:           0000CDH   BYTE   INSEG    CODE           ?PR?IPS114_SHOWUINT16_SIMSPI?SEEKFREE_IPS114_SPI
   *DEL*:           0000CDH   BYTE   INSEG    CODE           ?PR?IPS114_SHOWUINT16?SEEKFREE_IPS114_SPI
   *DEL*:           0000CEH   BYTE   INSEG    CODE           ?PR?IPS114_SHOWINT32_SIMSPI?SEEKFREE_IPS114_SPI
   *DEL*:           000119H   BYTE   INSEG    CODE           ?PR?IPS114_SHOWINT16_SIMSPI?SEEKFREE_IPS114_SPI
   *DEL*:           0000CEH   BYTE   INSEG    CODE           ?PR?IPS114_SHOWINT32?SEEKFREE_IPS114_SPI
   *DEL*:           000115H   BYTE   INSEG    CODE           ?PR?IPS114_SHOWINT16?SEEKFREE_IPS114_SPI
   *DEL*:           00005DH   BYTE   INSEG    CODE           ?PR?IPS114_SHOWSTR_SIMSPI?SEEKFREE_IPS114_SPI
   *DEL*:           00005DH   BYTE   INSEG    CODE           ?PR?IPS114_SHOWSTR?SEEKFREE_IPS114_SPI
   *DEL*:           000154H   BYTE   INSEG    CODE           ?PR?IPS114_INIT_SIMSPI?SEEKFREE_IPS114_SPI
   *DEL*:           000176H   BYTE   INSEG    CODE           ?PR?IPS114_INIT?SEEKFREE_IPS114_SPI
   *DEL*:           0000CCH   BYTE   INSEG    CODE           ?PR?IPS200_SHOW_FLOAT?SEEKFREE_IPS200_SPI
   *DEL*:           000132H   BYTE   INSEG    CODE           ?PR?IPS200_SHOW_WAVE?SEEKFREE_IPS200_SPI
   *DEL*:           000095H   BYTE   INSEG    CODE           ?PR?IPS200_SHOW_UINT?SEEKFREE_IPS200_SPI
   *DEL*:           000009H   BYTE   INSEG    CODE           ?PR?IPS200_SET_FONT?SEEKFREE_IPS200_SPI
   *DEL*:           00009BH   BYTE   INSEG    CODE           ?PR?IPS200_SHOW_INT?SEEKFREE_IPS200_SPI
   *DEL*:           000163H   BYTE   INSEG    CODE           ?PR?IPS200_SHOW_CHINESE?SEEKFREE_IPS200_SPI
   *DEL*:           000071H   BYTE   INSEG    CODE           ?PR?IPS200_FULL?SEEKFREE_IPS200_SPI
   *DEL*:           0001BEH   BYTE   INSEG    CODE           ?PR?IPS200_DRAW_LINE?SEEKFREE_IPS200_SPI
   *DEL*:           000060H   BYTE   INSEG    CODE           ?PR?MPU6050_INIT?SEEKFREE_MPU6050
   *DEL*:           000033H   BYTE   INSEG    CODE           ?PR?MPU6050_SELF1_CHECK?SEEKFREE_MPU6050
   *DEL*:           000052H   BYTE   INSEG    CODE           ?PR?MPU6050_GET_GYRO?SEEKFREE_MPU6050
   *DEL*:           000052H   BYTE   INSEG    CODE           ?PR?MPU6050_GET_ACCDATA?SEEKFREE_MPU6050
   *DEL*:           000047H   BYTE   INSEG    CODE           ?PR?OLED_PUTPIXEL?SEEKFREE_OLED
   *DEL*:           00044DH   BYTE   INSEG    CODE           ?PR?OLED_DIS_BMP_SPI?SEEKFREE_OLED
   *DEL*:           000145H   BYTE   INSEG    CODE           ?PR?OLED_PRINTF_FLOAT?SEEKFREE_OLED
   *DEL*:           000121H   BYTE   INSEG    CODE           ?PR?OLED_P8X16STR_SPI?SEEKFREE_OLED
   *DEL*:           000041H   BYTE   INSEG    CODE           ?PR?OLED_CLRPIXEL_SPI?SEEKFREE_OLED
   *DEL*:           0000C0H   BYTE   INSEG    CODE           ?PR?OLED_PRINT_CHINESE_SPI?SEEKFREE_OLED
   *DEL*:           0000CEH   BYTE   INSEG    CODE           ?PR?OLED_PRINTF_INT32?SEEKFREE_OLED
   *DEL*:           000027H   BYTE   INSEG    CODE           ?PR?OLED_UINT16?SEEKFREE_OLED
   *DEL*:           000048H   BYTE   INSEG    CODE           ?PR?OLED_PUTPIXEL_SPI?SEEKFREE_OLED
   *DEL*:           000073H   BYTE   INSEG    CODE           ?PR?OLED_INT16?SEEKFREE_OLED
   *DEL*:           0000A8H   BYTE   INSEG    CODE           ?PR?OLED_INIT?SEEKFREE_OLED
   *DEL*:           000145H   BYTE   INSEG    CODE           ?PR?OLED_PRINTF_FLOAT_SPI?SEEKFREE_OLED
   *DEL*:           00006FH   BYTE   INSEG    CODE           ?PR?OLED_HEXASCII?SEEKFREE_OLED
   *DEL*:           0000CEH   BYTE   INSEG    CODE           ?PR?OLED_PRINTF_INT32_SPI?SEEKFREE_OLED
   *DEL*:           000027H   BYTE   INSEG    CODE           ?PR?OLED_UINT16_SPI?SEEKFREE_OLED
   *DEL*:           000073H   BYTE   INSEG    CODE           ?PR?OLED_INT16_SPI?SEEKFREE_OLED
   *DEL*:           00046AH   BYTE   INSEG    CODE           ?PR?OLED_DIS_BMP?SEEKFREE_OLED
L251 LINKER/LOCATER V4.66.93.0                                                        11/20/2024  19:22:33  PAGE 15


   *DEL*:           0000C5H   BYTE   INSEG    CODE           ?PR?OLED_INIT_SPI?SEEKFREE_OLED
   *DEL*:           000121H   BYTE   INSEG    CODE           ?PR?OLED_P8X16STR?SEEKFREE_OLED
   *DEL*:           000040H   BYTE   INSEG    CODE           ?PR?OLED_CLRPIXEL?SEEKFREE_OLED
   *DEL*:           0000C0H   BYTE   INSEG    CODE           ?PR?OLED_PRINT_CHINESE?SEEKFREE_OLED
   *DEL*:           00008AH   BYTE   INSEG    CODE           ?PR?CCD_SEND_DATA?SEEKFREE_TSL1401
   *DEL*:           000022H   BYTE   INSEG    CODE           ?PR?CCD_INIT?SEEKFREE_TSL1401
   *DEL*:           00007CH   BYTE   INSEG    CODE           ?PR?CCD_COLLECT?SEEKFREE_TSL1401
   *DEL*:           0000DCH   BYTE   INSEG    CODE           ?PR?DATA_CONVERSION?SEEKFREE_VIRSCO
   *DEL*:           0003F2H   BYTE   INSEG    CODE           ?PR?SEEKFREE_ASSISTANT_CAMERA_BOUNDARY_CONFIG?SEEKFREE_ASS
                                                             -ISTANT
   *DEL*:           000138H   BYTE   INSEG    CODE           ?PR?SEEKFREE_ASSISTANT_OSCILLOSCOPE_SEND?SEEKFREE_ASSISTAN
                                                             -T
   *DEL*:           00001AH   BYTE   INSEG    CODE           ?PR?SEEKFREE_ASSISTANT_INIT?SEEKFREE_ASSISTANT
   *DEL*:           00003FH   BYTE   INSEG    CODE           ?PR?SEEKFREE_ASSISTANT_CAMERA_INFORMATION_CONFIG?SEEKFREE_
                                                             -ASSISTANT
   *DEL*:           000175H   BYTE   INSEG    CODE           ?PR?SEEKFREE_ASSISTANT_DATA_ANALYSIS?SEEKFREE_ASSISTANT
   *DEL*:           000034H   BYTE   INSEG    CODE           ?PR?SEEKFREE_ASSISTANT_CAMERA_SEND?SEEKFREE_ASSISTANT
   *DEL*:           00000CH   BYTE   INSEG    CODE           ?PR?BATTERY_INIT?BATTERY
   *DEL*:           000008H   BYTE   INSEG    CODE           ?PR?UPDATE_BATTERY_STATUS?BATTERY
   *DEL*:           0002A9H   BYTE   INSEG    CODE           ?PR?GET_ADC_RANGE?LINE
   *DEL*:           0000B8H   BYTE   INSEG    CODE           ?PR?EXCEPTION_HANDLER?STRAIGHT
   *DEL*:           000028H   BYTE   UNIT     EDATA          ?ED?PRINTF



OVERLAY MAP OF MODULE:   .\Out_File\SEEKFREE (board)


FUNCTION/MODULE                               EDATA_GROUP
--> CALLED FUNCTION/MODULE                    START  STOP
=========================================================
UART1_Isr/isr                                 ----- -----

*** NEW ROOT ********************************

UART2_Isr/isr                                 ----- -----
  +--> wireless_uart_callback/SEEKFREE_WIRELESS
  +--> bluetooth_ch9141_uart_callback/SEEKFREE_BLUETOOTH_CH9141

wireless_uart_callback/SEEKFREE_WIRELESS      ----- -----
  +--> fifo_write_buffer/zf_fifo

fifo_write_buffer/zf_fifo                     ----- -----
  +--> memcpy?_/memcpy
  +--> fifo_head_offset/zf_fifo

memcpy?_/memcpy                               ----- -----

fifo_head_offset/zf_fifo                      ----- -----

bluetooth_ch9141_uart_callback/SEEKFREE_+     ----- -----
... BLUETOOTH_CH9141
  +--> fifo_write_buffer/zf_fifo

*** NEW ROOT ********************************

UART3_Isr/isr                                 ----- -----

*** NEW ROOT ********************************

UART4_Isr/isr                                 ----- -----
  +--> wireless_uart_callback/SEEKFREE_WIRELESS
  +--> bluetooth_ch9141_uart_callback/SEEKFREE_BLUETOOTH_CH9141

*** NEW ROOT ********************************
L251 LINKER/LOCATER V4.66.93.0                                                        11/20/2024  19:22:33  PAGE 16



INT0_Isr/isr                                  ----- -----

*** NEW ROOT ********************************

INT1_Isr/isr                                  ----- -----

*** NEW ROOT ********************************

INT2_Isr/isr                                  ----- -----

*** NEW ROOT ********************************

INT3_Isr/isr                                  ----- -----

*** NEW ROOT ********************************

INT4_Isr/isr                                  ----- -----

*** NEW ROOT ********************************

TM0_Isr/isr                                   ----- -----

*** NEW ROOT ********************************

TM1_Isr/isr                                   ----- -----

*** NEW ROOT ********************************

TM2_Isr/isr                                   ----- -----

*** NEW ROOT ********************************

TM3_Isr/isr                                   ----- -----

*** NEW ROOT ********************************

TM4_Isr/isr                                   ----- -----

*** NEW ROOT ********************************

?C_C51STARTUP                                 ----- -----

*** NEW ROOT ********************************

?C_C51STARTUP?3                               ----- -----
  +--> main/main

main/main                                     ----- -----
  +--> clock_init/board
  +--> board_init/board
  +--> ips200_init_spi/SEEKFREE_IPS200_SPI
  +--> servo_init/servo
  +--> drv8701_init/drv8701_dual
  +--> encoder_init/encoder
  +--> Line_init/line
  +--> Beep_init/battery
  +--> wireless_uart_init/SEEKFREE_WIRELESS
  +--> code_entrance/main

clock_init/board                              ----- -----
  +--> set_clk/board

set_clk/board                                 ----- -----

L251 LINKER/LOCATER V4.66.93.0                                                        11/20/2024  19:22:33  PAGE 17


board_init/board                              ----- -----
  +--> delay_init/zf_delay
  +--> ICacheOn/board
  +--> uart_init/zf_uart
  +--> EnableGlobalIRQ/board

delay_init/zf_delay                           ----- -----
  +--> ?C?SLDIV/?C?SLDIV

?C?SLDIV/?C?SLDIV                             ----- -----
  +--> ?C?ULIDIV/?C?ULDIV

?C?ULIDIV/?C?ULDIV                            ----- -----

ICacheOn/board                                ----- -----

uart_init/zf_uart                             ----- -----
  +--> ?C?ULIDIV/?C?ULDIV

EnableGlobalIRQ/board                         ----- -----

ips200_init_spi/SEEKFREE_IPS200_SPI           ----- -----
  +--> spi_init/zf_spi
  +--> ips200_set_dir/SEEKFREE_IPS200_SPI
  +--> ips200_set_color/SEEKFREE_IPS200_SPI
  +--> delay_ms/zf_delay
  +--> ips200_write_command/SEEKFREE_IPS200_SPI
  +--> ips200_write_8bit_data/SEEKFREE_IPS200_SPI
  +--> ips200_clear/SEEKFREE_IPS200_SPI

spi_init/zf_spi                               ----- -----
  +--> gpio_mode/zf_gpio

gpio_mode/zf_gpio                             ----- -----

ips200_set_dir/SEEKFREE_IPS200_SPI            ----- -----

ips200_set_color/SEEKFREE_IPS200_SPI          ----- -----

delay_ms/zf_delay                             ----- -----

ips200_write_command/SEEKFREE_IPS200_SPI      ----- -----
  +--> ips200_write_8bit_data_spi/SEEKFREE_IPS200_SPI

ips200_write_8bit_data_spi/SEEKFREE_IPS2+     ----- -----
... 00_SPI
  +--> spi_mosi/zf_spi

spi_mosi/zf_spi                               ----- -----

ips200_write_8bit_data/SEEKFREE_IPS200_S+     ----- -----
... PI
  +--> ips200_write_8bit_data_spi/SEEKFREE_IPS200_SPI

ips200_clear/SEEKFREE_IPS200_SPI              ----- -----
  +--> ips200_set_region/SEEKFREE_IPS200_SPI
  +--> ips200_write_16bit_data/SEEKFREE_IPS200_SPI

ips200_set_region/SEEKFREE_IPS200_SPI         ----- -----
  +--> ips200_write_command/SEEKFREE_IPS200_SPI
  +--> ips200_write_16bit_data/SEEKFREE_IPS200_SPI

ips200_write_16bit_data/SEEKFREE_IPS200_+     ----- -----
... SPI
  +--> ips200_write_16bit_data_spi/SEEKFREE_IPS200_SPI
L251 LINKER/LOCATER V4.66.93.0                                                        11/20/2024  19:22:33  PAGE 18



ips200_write_16bit_data_spi/SEEKFREE_IPS+     ----- -----
... 200_SPI
  +--> spi_mosi/zf_spi

servo_init/servo                              ----- -----
  +--> pwm_init/zf_pwm

pwm_init/zf_pwm                               ----- -----
  +--> pwm_set_gpio/zf_pwm
  +--> ?C?ULIDIV/?C?ULDIV
  +--> FCASTL/STC32F_FPMU
  +--> FPDIV/STC32F_FPMU
  +--> FPMUL/STC32F_FPMU
  +--> CASTF/STC32F_FPMU

pwm_set_gpio/zf_pwm                           ----- -----
  +--> gpio_mode/zf_gpio

FCASTL/STC32F_FPMU                            ----- -----

FPDIV/STC32F_FPMU                             ----- -----

FPMUL/STC32F_FPMU                             ----- -----

CASTF/STC32F_FPMU                             ----- -----

drv8701_init/drv8701_dual                     ----- -----
  +--> pwm_init/zf_pwm
  +--> gpio_mode/zf_gpio

encoder_init/encoder                          ----- -----
  +--> ctimer_count_init/zf_tim

ctimer_count_init/zf_tim                      ----- -----

Line_init/line                                ----- -----
  +--> adc_init/zf_adc

adc_init/zf_adc                               ----- -----

Beep_init/battery                             ----- -----
  +--> gpio_mode/zf_gpio

wireless_uart_init/SEEKFREE_WIRELESS          ----- -----
  +--> fifo_init/zf_fifo
  +--> uart_init/zf_uart

fifo_init/zf_fifo                             ----- -----

code_entrance/main                            ----- -----
  +--> straight_entrance/straight
  +--> SPRINTF/SPRINTF
  +--> strlen?_/STRLEN
  +--> wireless_uart_send_buff/SEEKFREE_WIRELESS
  +--> delay_ms/zf_delay
  +--> memset?_/memset
  +--> wireless_uart_read_buff/SEEKFREE_WIRELESS

straight_entrance/straight                    ----- -----
  +--> ips200_clear/SEEKFREE_IPS200_SPI
  +--> ips200_show_string/SEEKFREE_IPS200_SPI
  +--> wireless_uart_send_buff/SEEKFREE_WIRELESS
  +--> Remote_Stop/line
  +--> PID_control_straint/straight
L251 LINKER/LOCATER V4.66.93.0                                                        11/20/2024  19:22:33  PAGE 19


  +--> delay_ms/zf_delay

ips200_show_string/SEEKFREE_IPS200_SPI        ----- -----
  +--> ips200_show_char/SEEKFREE_IPS200_SPI

ips200_show_char/SEEKFREE_IPS200_SPI          ----- -----
  +--> ips200_set_region/SEEKFREE_IPS200_SPI
  +--> ips200_write_16bit_data/SEEKFREE_IPS200_SPI

wireless_uart_send_buff/SEEKFREE_WIRELES+     ----- -----
... S
  +--> uart_putbuff/zf_uart

uart_putbuff/zf_uart                          ----- -----
  +--> uart_putchar/zf_uart

uart_putchar/zf_uart                          ----- -----

Remote_Stop/line                              ----- -----
  +--> wireless_uart_read_buff/SEEKFREE_WIRELESS
  +--> drv8701_stop/drv8701_dual
  +--> strlen?_/STRLEN
  +--> wireless_uart_send_buff/SEEKFREE_WIRELESS
  +--> memset?_/memset
  +--> wireless_uart_send_byte/SEEKFREE_WIRELESS
  +--> delay_ms/zf_delay
  +--> drv8701_control/drv8701_dual
  +--> code_entrance/main

wireless_uart_read_buff/SEEKFREE_WIRELES+     ----- -----
... S
  +--> fifo_read_buffer/zf_fifo

fifo_read_buffer/zf_fifo                      ----- -----
  +--> fifo_used/zf_fifo
  +--> memcpy?_/memcpy
  +--> fifo_end_offset/zf_fifo

fifo_used/zf_fifo                             ----- -----

fifo_end_offset/zf_fifo                       ----- -----

drv8701_stop/drv8701_dual                     ----- -----
  +--> pwm_duty/zf_pwm

pwm_duty/zf_pwm                               ----- -----
  +--> FCASTL/STC32F_FPMU
  +--> FPDIV/STC32F_FPMU
  +--> FPMUL/STC32F_FPMU
  +--> CASTF/STC32F_FPMU

strlen?_/STRLEN                               ----- -----

memset?_/memset                               ----- -----

wireless_uart_send_byte/SEEKFREE_WIRELES+     ----- -----
... S
  +--> uart_putbuff/zf_uart

drv8701_control/drv8701_dual                  ----- -----
  +--> ?C?SLDIV/?C?SLDIV
  +--> pwm_duty/zf_pwm

PID_control_straint/straight                  ----- -----
  +--> Line_calculate_position/straight
L251 LINKER/LOCATER V4.66.93.0                                                        11/20/2024  19:22:33  PAGE 20


  +--> FCASTI/STC32F_FPMU
  +--> FPMUL/STC32F_FPMU
  +--> FPADD/STC32F_FPMU
  +--> CASTF/STC32F_FPMU
  +--> servo_set_position/servo
  +--> drv8701_control/drv8701_dual
  +--> FPCMP/STC32F_FPMU
  +--> FCHS/STC32F_FPMU

Line_calculate_position/straight              ----- -----
  +--> Line_read_raw/line
  +--> FCASTI/STC32F_FPMU
  +--> FPMUL/STC32F_FPMU
  +--> FPDIV/STC32F_FPMU
  +--> FPADD/STC32F_FPMU
  +--> FPCMP/STC32F_FPMU
  +--> Beep_set/battery
  +--> ring_handler/ring
  +--> FPSUB/STC32F_FPMU
  +--> SPRINTF/SPRINTF
  +--> strlen?_/STRLEN
  +--> wireless_uart_send_buff/SEEKFREE_WIRELESS
  +--> CASTF/STC32F_FPMU

Line_read_raw/line                            ----- -----
  +--> adc_once/zf_adc

adc_once/zf_adc                               ----- -----

FCASTI/STC32F_FPMU                            ----- -----

FPADD/STC32F_FPMU                             ----- -----

FPCMP/STC32F_FPMU                             ----- -----

Beep_set/battery                              ----- -----

ring_handler/ring                             ----- -----
  +--> clear_encoder_distance/encoder
  +--> get_encoder_distance/encoder
  +--> SPRINTF/SPRINTF
  +--> strlen?_/STRLEN
  +--> wireless_uart_send_buff/SEEKFREE_WIRELESS
  +--> PID_control_ring/straight
  +--> delay_ms/zf_delay
  +--> servo_set_position/servo

clear_encoder_distance/encoder                ----- -----

get_encoder_distance/encoder                  ----- -----
  +--> encoder_read1/encoder
  +--> encoder_read2/encoder

encoder_read1/encoder                         ----- -----
  +--> ctimer_count_read/zf_tim
  +--> ctimer_count_clean/zf_tim
  +--> delay_ms/zf_delay

ctimer_count_read/zf_tim                      ----- -----

ctimer_count_clean/zf_tim                     ----- -----

encoder_read2/encoder                         ----- -----
  +--> ctimer_count_read/zf_tim
  +--> ctimer_count_clean/zf_tim
L251 LINKER/LOCATER V4.66.93.0                                                        11/20/2024  19:22:33  PAGE 21


  +--> delay_ms/zf_delay

SPRINTF/SPRINTF                               0A70H 0A97H
  +--> OUT/SPRINTF

OUT/SPRINTF                                   ----- -----
  +--> PUTCH/SPRINTF

PUTCH/SPRINTF                                 ----- -----

PID_control_ring/straight                     ----- -----
  +--> Line_calculate_position_ring/straight
  +--> FCASTI/STC32F_FPMU
  +--> FPMUL/STC32F_FPMU
  +--> FPADD/STC32F_FPMU
  +--> CASTF/STC32F_FPMU
  +--> servo_set_position/servo
  +--> drv8701_control/drv8701_dual
  +--> FPCMP/STC32F_FPMU
  +--> FCHS/STC32F_FPMU

Line_calculate_position_ring/straight         ----- -----
  +--> Line_read_raw/line
  +--> FCASTI/STC32F_FPMU
  +--> FPMUL/STC32F_FPMU
  +--> FPDIV/STC32F_FPMU
  +--> FPADD/STC32F_FPMU
  +--> FPSUB/STC32F_FPMU
  +--> SPRINTF/SPRINTF
  +--> strlen?_/STRLEN
  +--> wireless_uart_send_buff/SEEKFREE_WIRELESS
  +--> CASTF/STC32F_FPMU

FPSUB/STC32F_FPMU                             ----- -----

servo_set_position/servo                      ----- -----
  +--> pwm_duty/zf_pwm

FCHS/STC32F_FPMU                              ----- -----

*** NEW ROOT ********************************

?C_C51STARTUP?2                               ----- -----



PUBLIC SYMBOLS OF MODULE:  .\Out_File\SEEKFREE (board)


      VALUE       CLASS    TYPE      PUBLIC SYMBOL NAME
      =================================================
      00FF4727H   CODE     ---       ?C?BMOVENP
      00FF4725H   CODE     ---       ?C?BMOVENP8
      00FFAD60H   CODE     ---       ?C?CASTF
      000000FFH   NUMBER   ---       ?C?CODESEG
*DEL*:00000000H   CODE     ---       ?C?FCASTC
      00FFAD66H   CODE     ---       ?C?FCASTI
      00FF005EH   CODE     ---       ?C?FCASTL
      00FF000EH   CODE     ---       ?C?FPADD
      00FFAD45H   CODE     ---       ?C?FPCMP3
      00FF44F0H   CODE     ---       ?C?FPCONVERT
      00FF0056H   CODE     ---       ?C?FPDIV
      00FF001EH   CODE     ---       ?C?FPMUL
      00FFAD59H   CODE     ---       ?C?FPNEG
      00FF45A8H   CODE     ---       ?C?FPROUND
L251 LINKER/LOCATER V4.66.93.0                                                        11/20/2024  19:22:33  PAGE 22


      00FF0016H   CODE     ---       ?C?FPSUB
      00FF461BH   CODE     ---       ?C?FTNPWR
      00FFA1C9H   CODE     ---       ?C?INITEDATA
      00FFB027H   HCONST   WORD      ?C?INITEDATA_END
      00FF4695H   CODE     ---       ?C?LIMUL
      00FF4684H   CODE     ---       ?C?LMUL
      00FF40D3H   CODE     ---       ?C?PRNFMT
      00FF4652H   CODE     ---       ?C?SIDIV
      00FF46F1H   CODE     NEAR LAB  ?C?SLDIV
      00FF0000H   CODE     ---       ?C?STARTUP
      00FF46A0H   CODE     NEAR LAB  ?C?ULDIV
      00FF469EH   CODE     NEAR LAB  ?C?ULIDIV
      00000001H   NUMBER   ---       ?C?XDATASEG
      00FF0000H   CODE     ---       ?C_STARTUP
      00000D7BH   EDATA    BYTE      ?data_conversion?BYTE
      00000D08H   EDATA    BYTE      ?dl1b_iic_transfer_8bit_array?BYTE
      00000CF8H   EDATA    BYTE      ?fifo_init?BYTE
      00000BC7H   EDATA    BYTE      ?fifo_read_buffer?BYTE
      00000DB0H   EDATA    BYTE      ?fifo_read_element?BYTE
      00000BDFH   EDATA    BYTE      ?fifo_read_tail_buffer?BYTE
      00000C8EH   EDATA    BYTE      ?fifo_write_buffer?BYTE
      00000EBFH   EDATA    BYTE      ?iap_read_bytes?BYTE
      00000EC9H   EDATA    BYTE      ?iap_write_bytes?BYTE
      0000112BH   EDATA    BYTE      ?iic_init?BYTE
      00000827H   EDATA    BYTE      ?ips114_showfloat?BYTE
      000007F7H   EDATA    BYTE      ?ips114_showfloat_simspi?BYTE
      00000C27H   EDATA    BYTE      ?ips200_draw_line?BYTE
      00000BAEH   EDATA    BYTE      ?ips200_show_chinese?BYTE
      00000ABDH   EDATA    BYTE      ?ips200_show_float?BYTE
      00000AE0H   EDATA    BYTE      ?ips200_show_wave?BYTE
      000007C7H   EDATA    BYTE      ?lcd_showfloat?BYTE
      00000797H   EDATA    BYTE      ?lcd_showfloat_simspi?BYTE
      00000857H   EDATA    BYTE      ?oled_printf_float?BYTE
      00000887H   EDATA    BYTE      ?oled_printf_float_spi?BYTE
*DEL*:00000028H   EDATA    ---       ?printf?BYTE
      00000C66H   EDATA    BYTE      ?pwm_freq?BYTE
      00000C52H   EDATA    BYTE      ?pwm_init?BYTE
      00000B1FH   EDATA    BYTE      ?seekfree_assistant_camera_boundary_config?BYTE
      00000D18H   EDATA    BYTE      ?seekfree_assistant_camera_data_send?BYTE
      00000F4BH   EDATA    BYTE      ?seekfree_assistant_camera_information_config?BYTE
      00000D89H   EDATA    BYTE      ?spi_init?BYTE
      00000A98H   EDATA    ---       ?sprintf?BYTE
      00000D35H   EDATA    BYTE      ?uart_init?BYTE
      00000ED3H   EDATA    BYTE      ?uart_putbuff?BYTE
      000005EAH   EDATA    BYTE      ?zf_sprintf?BYTE
*SFR* 000000E0H   DATA     BYTE      ACC
      00000F5BH   EDATA    WORD      ad_result
*SFR* 000000BCH   DATA     BYTE      ADC_CONTR
      00FF8387H   CODE     ---       adc_init
      00FF9956H   CODE     ---       adc_once
*SFR* 000000BDH   DATA     BYTE      ADC_RES
*SFR* 000000BEH   DATA     BYTE      ADC_RESL
      000010E3H   EDATA    ---       adc_value
*SFR* 000000DEH   DATA     BYTE      ADCCFG
      00000560H   EDATA    INT       angle
      00FF32FDH   CODE     ---       ascii_font_6x8
      00FF212DH   CODE     ---       ascii_font_8x16
*DEL*:00000000H   CODE     ---       ATAN?_
*SFR* 000000EFH   DATA     BYTE      AUXINTIF
*SFR* 0000008EH   DATA     BYTE      AUXR
*SFR* 00000097H   DATA     BYTE      AUXR2
*DEL*:00000000H   CODE     ---       battery_init
      00000F55H   EDATA    WORD      battery_percentage
      00000F5DH   EDATA    WORD      battery_voltage
      00FFAD1AH   CODE     ---       Beep_init
L251 LINKER/LOCATER V4.66.93.0                                                        11/20/2024  19:22:33  PAGE 23


      00FFAD29H   CODE     ---       Beep_set
*DEL*:00000000H   CODE     ---       bluetooth_ch9141_init
*DEL*:00000000H   CODE     ---       bluetooth_ch9141_read_buff
*DEL*:00000000H   CODE     ---       bluetooth_ch9141_send_buff
      00FFAA64H   CODE     ---       bluetooth_ch9141_uart_callback
      00FF8C08H   CODE     ---       board_init
      000011DDH   EDATA    ---       busy
*SFR* 000000F1H   DATA     BYTE      CANICR
*DEL*:00000000H   CODE     ---       ccd_collect
      00000009H   EDATA    ---       ccd_data_ch1
      00000109H   EDATA    ---       ccd_data_ch2
*DEL*:00000000H   CODE     ---       ccd_init
*DEL*:00000000H   CODE     ---       ccd_send_data
      00FFACD2H   CODE     ---       clear_encoder_distance
      00FFAC85H   CODE     ---       clock_init
*SFR* 000000E6H   DATA     BYTE      CMPCR1
*SFR* 000000E7H   DATA     BYTE      CMPCR2
      00FF8D69H   CODE     ---       code_entrance
*DEL*:00000000H   CODE     ---       COS?_
      00FF8644H   CODE     ---       CRC_CHECK
      00FF951BH   CODE     ---       ctimer_count_clean
      00FF9A56H   CODE     ---       ctimer_count_init
      00FF843CH   CODE     ---       ctimer_count_read
*DEL*:00000000H   CODE     ---       data_conversion
      00FFA80EH   CODE     ---       delay_init
      00FFA407H   CODE     ---       delay_ms
*DEL*:00000000H   CODE     ---       delay_us
      000012ADH   EDATA    BYTE      dir
*DEL*:00000000H   CODE     ---       DisableGlobalIRQ
*DEL*:00000000H   CODE     ---       disalbe_icache
      0000127DH   EDATA    WORD      dl1a_distance_mm
      0000127FH   EDATA    BYTE      dl1a_finsh_flag
*DEL*:00000000H   CODE     ---       dl1a_get_distance
*DEL*:00000000H   CODE     ---       dl1a_init
      00FF00A6H   CODE     ---       dl1b_default_configuration
      00001233H   EDATA    WORD      dl1b_distance_mm
      00001235H   EDATA    BYTE      dl1b_finsh_flag
*DEL*:00000000H   CODE     ---       dl1b_get_distance
      00FF8B8FH   CODE     ---       dl1b_iic_transfer_8bit_array
*DEL*:00000000H   CODE     ---       dl1b_init
      00001236H   EDATA    BYTE      dl1b_init_flag
*SFR* 000000EDH   DATA     BYTE      DMAIR
*SFR* 00000083H   DATA     BYTE      DPH
*SFR* 00000082H   DATA     BYTE      DPL
      00FF7BC3H   CODE     ---       drv8701_control
      00FFA271H   CODE     ---       drv8701_init
      00FFA06AH   CODE     ---       drv8701_stop
      000012AEH   EDATA    INT       duty
*SFR* 000000A8H.7 DATA     BIT       EA
      00FFAB74H   CODE     ---       eeprom_trig
      00FF0006H   CODE     ---       EnableGlobalIRQ
*DEL*:00000000H   CODE     ---       enalbe_icache
      00FF0046H   CODE     ---       encoder_init
      00FF8A9AH   CODE     ---       encoder_read1
      00FF8894H   CODE     ---       encoder_read2
*SFR* 000000A8H.4 DATA     BIT       ES
*SFR* 000000A8H.1 DATA     BIT       ET0
*SFR* 000000A8H.3 DATA     BIT       ET1
*SFR* 000000A8H.0 DATA     BIT       EX0
*SFR* 000000A8H.2 DATA     BIT       EX1
*DEL*:00000000H   CODE     ---       exception_handler
*DEL*:00000000H   CODE     ---       exit_init
*SFR* 000000D0H.5 DATA     BIT       F0
*DEL*:00000000H   CODE     ---       FABS?_
*DEL*:00000000H   CODE     ---       FCLEX
L251 LINKER/LOCATER V4.66.93.0                                                        11/20/2024  19:22:33  PAGE 24


*DEL*:00000000H   CODE     ---       fifo_clear
      00FF8919H   CODE     ---       fifo_init
      00FF57B1H   CODE     ---       fifo_read_buffer
*DEL*:00000000H   CODE     ---       fifo_read_element
*DEL*:00000000H   CODE     ---       fifo_read_tail_buffer
      00FFA79FH   CODE     ---       fifo_used
      00FF5B5DH   CODE     ---       fifo_write_buffer
*DEL*:00000000H   CODE     ---       fifo_write_element
*DEL*:00000000H   CODE     ---       FINIT
*DEL*:00000000H   CODE     ---       FPCRR
*DEL*:00000000H   CODE     ---       FPCRW
*DEL*:00000000H   CODE     ---       FPSRR
*DEL*:00000000H   CODE     ---       FPSRW
      00FF64AEH   CODE     ---       func_double_to_str
*DEL*:00000000H   CODE     ---       func_float_to_str
*DEL*:00000000H   CODE     ---       func_get_greatest_common_divisor
*DEL*:00000000H   CODE     ---       func_hex_to_str
      00FF77EEH   CODE     ---       func_int_to_str
*DEL*:00000000H   CODE     ---       func_soft_delay
*DEL*:00000000H   CODE     ---       func_str_to_double
*DEL*:00000000H   CODE     ---       func_str_to_float
*DEL*:00000000H   CODE     ---       func_str_to_hex
*DEL*:00000000H   CODE     ---       func_str_to_int
*DEL*:00000000H   CODE     ---       func_str_to_uint
      00FF859BH   CODE     ---       func_uint_to_str
*DEL*:00000000H   CODE     ---       FXAM
*DEL*:00000000H   CODE     ---       Get_ADC_Range
      00FF9340H   CODE     ---       get_battery_percentage
      00FF92DCH   CODE     ---       get_battery_voltage
      00FFA9DAH   CODE     ---       get_encoder_distance
      00FF374DH   CODE     ---       gpio_mode
*DEL*:00000000H   CODE     ---       gpio_pull_set
*SFR* 000000F6H   DATA     BYTE      IAP_ADDRE
*SFR* 000000C3H   DATA     BYTE      IAP_ADDRH
*SFR* 000000C4H   DATA     BYTE      IAP_ADDRL
*SFR* 000000C5H   DATA     BYTE      IAP_CMD
*SFR* 000000C7H   DATA     BYTE      IAP_CONTR
*SFR* 000000C2H   DATA     BYTE      IAP_DATA
*DEL*:00000000H   CODE     ---       iap_erase_page
*DEL*:00000000H   CODE     ---       iap_get_cmd_state
*DEL*:00000000H   CODE     ---       iap_idle
*DEL*:00000000H   CODE     ---       iap_init
*DEL*:00000000H   CODE     ---       iap_read_bytes
      00FFAA4AH   CODE     ---       iap_set_tps
*SFR* 000000F5H   DATA     BYTE      IAP_TPS
*SFR* 000000C6H   DATA     BYTE      IAP_TRIG
*DEL*:00000000H   CODE     ---       iap_write_bytes
      00FFAD09H   CODE     ---       ICacheOn
*SFR* 000000F7H   DATA     BYTE      ICHECR
*DEL*:00000000H   CODE     ---       icm20602_acc_transition
      00000E1CH   EDATA    INT       icm20602_acc_x
      00000E1EH   EDATA    INT       icm20602_acc_y
      00000E20H   EDATA    INT       icm20602_acc_z
*DEL*:00000000H   CODE     ---       icm20602_get_acc
*DEL*:00000000H   CODE     ---       icm20602_get_gyro
*DEL*:00000000H   CODE     ---       icm20602_gyro_transition
      00000E22H   EDATA    INT       icm20602_gyro_x
      00000E24H   EDATA    INT       icm20602_gyro_y
      00000E26H   EDATA    INT       icm20602_gyro_z
*DEL*:00000000H   CODE     ---       icm20602_init
*SFR* 000000A8H   DATA     BYTE      IE
*SFR* 000000AFH   DATA     BYTE      IE2
*DEL*:00000000H   CODE     ---       iic_change_pin
      00FFA43CH   CODE     ---       iic_delay_us
*DEL*:00000000H   CODE     ---       iic_init
L251 LINKER/LOCATER V4.66.93.0                                                        11/20/2024  19:22:33  PAGE 25


*DEL*:00000000H   CODE     ---       iic_read_reg
*DEL*:00000000H   CODE     ---       iic_read_reg_bytes
*DEL*:00000000H   CODE     ---       iic_write_reg
*DEL*:00000000H   CODE     ---       imu660ra_acc_transition
      00000E28H   EDATA    INT       imu660ra_acc_x
      00000E2AH   EDATA    INT       imu660ra_acc_y
      00000E2CH   EDATA    INT       imu660ra_acc_z
      00FF012DH   CODE     ---       imu660ra_config_file
*DEL*:00000000H   CODE     ---       imu660ra_get_acc
*DEL*:00000000H   CODE     ---       imu660ra_get_gyro
*DEL*:00000000H   CODE     ---       imu660ra_gyro_transition
      00000E2EH   EDATA    INT       imu660ra_gyro_x
      00000E30H   EDATA    INT       imu660ra_gyro_y
      00000E32H   EDATA    INT       imu660ra_gyro_z
*DEL*:00000000H   CODE     ---       imu660ra_init
*DEL*:00000000H   CODE     ---       imu963ra_acc_transition
      00000CA0H   EDATA    INT       imu963ra_acc_x
      00000CA2H   EDATA    INT       imu963ra_acc_y
      00000CA4H   EDATA    INT       imu963ra_acc_z
*DEL*:00000000H   CODE     ---       imu963ra_get_acc
*DEL*:00000000H   CODE     ---       imu963ra_get_gyro
*DEL*:00000000H   CODE     ---       imu963ra_get_mag
*DEL*:00000000H   CODE     ---       imu963ra_gyro_transition
      00000CACH   EDATA    INT       imu963ra_gyro_x
      00000CAEH   EDATA    INT       imu963ra_gyro_y
      00000CB0H   EDATA    INT       imu963ra_gyro_z
*DEL*:00000000H   CODE     ---       imu963ra_init
*DEL*:00000000H   CODE     ---       imu963ra_mag_transition
      00000CA6H   EDATA    INT       imu963ra_mag_x
      00000CA8H   EDATA    INT       imu963ra_mag_y
      00000CAAH   EDATA    INT       imu963ra_mag_z
      00FF0086H   CODE     ---       INT0_Isr
      00FF000AH   CODE     ---       INT1_Isr
      00FF008EH   CODE     ---       INT2_Isr
      00FF0096H   CODE     ---       INT3_Isr
      00FF009EH   CODE     ---       INT4_Isr
*SFR* 0000008FH   DATA     BYTE      INTCLKO
*SFR* 000000B8H   DATA     BYTE      IP
*SFR* 000000B5H   DATA     BYTE      IP2
*SFR* 000000B6H   DATA     BYTE      IP2H
*SFR* 000000DFH   DATA     BYTE      IP3
*SFR* 000000EEH   DATA     BYTE      IP3H
*SFR* 000000B7H   DATA     BYTE      IPH
      00FF9400H   CODE     ---       ips114_clear
      00FF93A1H   CODE     ---       ips114_clear_simspi
*DEL*:00000000H   CODE     ---       ips114_drawpoint
*DEL*:00000000H   CODE     ---       ips114_drawpoint_simspi
*DEL*:00000000H   CODE     ---       ips114_init
*DEL*:00000000H   CODE     ---       ips114_init_simspi
      00FF9AFEH   CODE     ---       ips114_set_region
      00FF9AAAH   CODE     ---       ips114_set_region_simspi
      00FF8212H   CODE     ---       ips114_showchar
      00FF8153H   CODE     ---       ips114_showchar_simspi
*DEL*:00000000H   CODE     ---       ips114_showfloat
*DEL*:00000000H   CODE     ---       ips114_showfloat_simspi
*DEL*:00000000H   CODE     ---       ips114_showint16
*DEL*:00000000H   CODE     ---       ips114_showint16_simspi
*DEL*:00000000H   CODE     ---       ips114_showint32
*DEL*:00000000H   CODE     ---       ips114_showint32_simspi
*DEL*:00000000H   CODE     ---       ips114_showint8
*DEL*:00000000H   CODE     ---       ips114_showint8_simspi
*DEL*:00000000H   CODE     ---       ips114_showstr
*DEL*:00000000H   CODE     ---       ips114_showstr_simspi
*DEL*:00000000H   CODE     ---       ips114_showuint16
*DEL*:00000000H   CODE     ---       ips114_showuint16_simspi
L251 LINKER/LOCATER V4.66.93.0                                                        11/20/2024  19:22:33  PAGE 26


*DEL*:00000000H   CODE     ---       ips114_showuint8
*DEL*:00000000H   CODE     ---       ips114_showuint8_simspi
      00FFAC07H   CODE     ---       ips114_writeData
      00FFA611H   CODE     ---       ips114_writedata_16bit
      00FF9DCAH   CODE     ---       ips114_writeData_simspi
      00FF9A01H   CODE     ---       ips114_writeDatai_16bit_simspi
      00FFABF2H   CODE     ---       ips114_writeIndex
      00FF9D7EH   CODE     ---       ips114_writeIndex_simspi
      00FF8F29H   CODE     ---       ips200_clear
*DEL*:00000000H   CODE     ---       ips200_draw_line
      00FFA566H   CODE     ---       ips200_draw_point
*DEL*:00000000H   CODE     ---       ips200_full
      00FF6926H   CODE     ---       ips200_init_spi
      00FFAC1CH   CODE     ---       ips200_set_color
      00FFA39AH   CODE     ---       ips200_set_dir
*DEL*:00000000H   CODE     ---       ips200_set_font
      00FF6735H   CODE     ---       ips200_show_char
*DEL*:00000000H   CODE     ---       ips200_show_chinese
*DEL*:00000000H   CODE     ---       ips200_show_float
*DEL*:00000000H   CODE     ---       ips200_show_int
      00FF8773H   CODE     ---       ips200_show_string
*DEL*:00000000H   CODE     ---       ips200_show_uint
*DEL*:00000000H   CODE     ---       ips200_show_wave
      00FFA91CH   CODE     ---       ips200_write_16bit_data_spi
      00FFAD51H   CODE     ---       ips200_write_8bit_data_spi
*SFR* 0000009DH   DATA     BYTE      IRCBAND
*SFR* 0000009FH   DATA     BYTE      IRTRIM
*SFR* 00000088H.0 DATA     BIT       IT0
*SFR* 00000088H.2 DATA     BIT       IT1
      00000566H   EDATA    FLOAT     Kd
      0000056CH   EDATA    FLOAT     Ki
      00000570H   EDATA    FLOAT     Kp
      00FF98FFH   CODE     ---       lcd_clear
      00FF98A8H   CODE     ---       lcd_clear_simspi
*DEL*:00000000H   CODE     ---       lcd_drawpoint
*DEL*:00000000H   CODE     ---       lcd_drawpoint_simspi
*DEL*:00000000H   CODE     ---       lcd_init
*DEL*:00000000H   CODE     ---       lcd_init_simspi
      00FF9278H   CODE     ---       lcd_set_region
      00FF9214H   CODE     ---       lcd_set_region_simspi
      00FF8094H   CODE     ---       lcd_showchar
      00FF7FD5H   CODE     ---       lcd_showchar_simspi
*DEL*:00000000H   CODE     ---       lcd_showfloat
*DEL*:00000000H   CODE     ---       lcd_showfloat_simspi
*DEL*:00000000H   CODE     ---       lcd_showint16
*DEL*:00000000H   CODE     ---       lcd_showint16_simspi
*DEL*:00000000H   CODE     ---       lcd_showint32
*DEL*:00000000H   CODE     ---       lcd_showint32_simspi
*DEL*:00000000H   CODE     ---       lcd_showint8
*DEL*:00000000H   CODE     ---       lcd_showint8_simspi
      00FF95D5H   CODE     ---       lcd_showstr
      00FF9578H   CODE     ---       lcd_showstr_simspi
*DEL*:00000000H   CODE     ---       lcd_showuint16
*DEL*:00000000H   CODE     ---       lcd_showuint16_simspi
*DEL*:00000000H   CODE     ---       lcd_showuint8
*DEL*:00000000H   CODE     ---       lcd_showuint8_simspi
      00FFABDDH   CODE     ---       lcd_writeData
      00FFA593H   CODE     ---       lcd_writedata_16bit
      00FF99ACH   CODE     ---       lcd_writeData_16bit_simspi
      00FF9D32H   CODE     ---       lcd_writeData_simspi
      00FFABC8H   CODE     ---       lcd_writeIndex
      00FF9CE6H   CODE     ---       lcd_writeIndex_simspi
      00FF708CH   CODE     ---       Line_calculate_position
      00FF78EDH   CODE     ---       Line_calculate_position_ring
      00FFA7C4H   CODE     ---       Line_init
L251 LINKER/LOCATER V4.66.93.0                                                        11/20/2024  19:22:33  PAGE 27


      00FF7F0AH   CODE     ---       Line_read_raw
*SFR* 000000F9H   DATA     BYTE      LINICR
      00FFA72CH   CODE     ---       main
      00000574H   EDATA    FLOAT     MAX_DERIVATIVE
      00000562H   EDATA    FLOAT     MAX_INTEGRAL
      00FFA7E9H   CODE     ---       memcpy?_
      00FFAB00H   CODE     ---       memset?_
      00000E64H   EDATA    INT       mpu6050_acc_x
      00000E66H   EDATA    INT       mpu6050_acc_y
      00000E68H   EDATA    INT       mpu6050_acc_z
*DEL*:00000000H   CODE     ---       mpu6050_get_accdata
*DEL*:00000000H   CODE     ---       mpu6050_get_gyro
      00000E6AH   EDATA    INT       mpu6050_gyro_x
      00000E6CH   EDATA    INT       mpu6050_gyro_y
      00000E6EH   EDATA    INT       mpu6050_gyro_z
*DEL*:00000000H   CODE     ---       mpu6050_init
      00FFA325H   CODE     ---       mpu6050_simiic_read_reg
      00FF9002H   CODE     ---       mpu6050_simiic_read_regs
*DEL*:00000000H   CODE     ---       NVIC_SetPriority
      00FF3525H   CODE     ---       oled_6x8
      00FF271DH   CODE     ---       oled_8x16
*DEL*:00000000H   CODE     ---       oled_clrpixel
*DEL*:00000000H   CODE     ---       oled_clrpixel_spi
*DEL*:00000000H   CODE     ---       oled_dis_bmp
*DEL*:00000000H   CODE     ---       oled_dis_bmp_spi
      00FF9632H   CODE     ---       oled_fill
      00FF968FH   CODE     ---       oled_fill_spi
*DEL*:00000000H   CODE     ---       oled_hexascii
      00FF8EBAH   CODE     ---       oled_hexascii_spi
*DEL*:00000000H   CODE     ---       oled_init
*DEL*:00000000H   CODE     ---       oled_init_spi
*DEL*:00000000H   CODE     ---       oled_int16
*DEL*:00000000H   CODE     ---       oled_int16_spi
      00FF7C9AH   CODE     ---       oled_p6x8str
      00FF7D6BH   CODE     ---       oled_p6x8str_spi
*DEL*:00000000H   CODE     ---       oled_p8x16str
*DEL*:00000000H   CODE     ---       oled_p8x16str_spi
*DEL*:00000000H   CODE     ---       oled_print_chinese
*DEL*:00000000H   CODE     ---       oled_print_chinese_spi
*DEL*:00000000H   CODE     ---       oled_printf_float
*DEL*:00000000H   CODE     ---       oled_printf_float_spi
*DEL*:00000000H   CODE     ---       oled_printf_int32
*DEL*:00000000H   CODE     ---       oled_printf_int32_spi
*DEL*:00000000H   CODE     ---       oled_putpixel
*DEL*:00000000H   CODE     ---       oled_putpixel_spi
      00FFA471H   CODE     ---       oled_set_pos
      00FFA3D1H   CODE     ---       oled_set_pos_spi
*DEL*:00000000H   CODE     ---       oled_uint16
*DEL*:00000000H   CODE     ---       oled_uint16_spi
      00FF9E16H   CODE     ---       oled_wrcmd
      00FFAC5BH   CODE     ---       oled_wrcmd_spi
      00FF9E62H   CODE     ---       oled_wrdat
      00FFAC70H   CODE     ---       oled_wrdat_spi
*SFR* 00000080H   DATA     BYTE      P0
*SFR* 00000080H.2 DATA     BIT       P02
*SFR* 00000080H.7 DATA     BIT       P07
*SFR* 00000094H   DATA     BYTE      P0M0
*SFR* 00000093H   DATA     BYTE      P0M1
*SFR* 00000090H   DATA     BYTE      P1
*SFR* 00000090H.0 DATA     BIT       P10
*SFR* 00000092H   DATA     BYTE      P1M0
*SFR* 00000091H   DATA     BYTE      P1M1
*SFR* 000000A0H   DATA     BYTE      P2
*SFR* 000000A0H.0 DATA     BIT       P20
*SFR* 000000A0H.1 DATA     BIT       P21
L251 LINKER/LOCATER V4.66.93.0                                                        11/20/2024  19:22:33  PAGE 28


*SFR* 000000A0H.2 DATA     BIT       P22
*SFR* 000000A0H.3 DATA     BIT       P23
*SFR* 000000A0H.4 DATA     BIT       P24
*SFR* 000000A0H.5 DATA     BIT       P25
*SFR* 000000A0H.7 DATA     BIT       P27
*SFR* 00000096H   DATA     BYTE      P2M0
*SFR* 00000095H   DATA     BYTE      P2M1
*SFR* 000000B0H   DATA     BYTE      P3
*SFR* 000000B0H.2 DATA     BIT       P32
*SFR* 000000B0H.5 DATA     BIT       P35
*SFR* 000000B0H.6 DATA     BIT       P36
*SFR* 000000B0H.7 DATA     BIT       P37
*SFR* 000000B2H   DATA     BYTE      P3M0
*SFR* 000000B1H   DATA     BYTE      P3M1
*SFR* 000000C0H   DATA     BYTE      P4
*SFR* 000000C0H.0 DATA     BIT       P40
*SFR* 000000C0H.1 DATA     BIT       P41
*SFR* 000000C0H.2 DATA     BIT       P42
*SFR* 000000C0H.3 DATA     BIT       P43
*SFR* 000000B4H   DATA     BYTE      P4M0
*SFR* 000000B3H   DATA     BYTE      P4M1
*SFR* 000000C8H   DATA     BYTE      P5
*SFR* 000000C8H.2 DATA     BIT       P52
*SFR* 000000C8H.3 DATA     BIT       P53
*SFR* 000000CAH   DATA     BYTE      P5M0
*SFR* 000000C9H   DATA     BYTE      P5M1
*SFR* 000000E8H   DATA     BYTE      P6
*SFR* 000000CCH   DATA     BYTE      P6M0
*SFR* 000000CBH   DATA     BYTE      P6M1
*SFR* 000000F8H   DATA     BYTE      P7
*SFR* 000000E2H   DATA     BYTE      P7M0
*SFR* 000000E1H   DATA     BYTE      P7M1
*SFR* 000000A2H   DATA     BYTE      P_SW1
*SFR* 000000BAH   DATA     BYTE      P_SW2
*SFR* 000000BBH   DATA     BYTE      P_SW3
*SFR* 00000087H   DATA     BYTE      PCON
      00FF74E4H   CODE     ---       PID_control_ring
      00FF73DCH   CODE     ---       PID_control_straint
      00FF7ADEH   CODE     ---       pit_timer_ms
      000005C0H   EDATA    INT       position
      00FF405AH   CODE     NEAR LAB  printf
*SFR* 000000D0H   DATA     BYTE      PSW
      00FFACE5H   CODE     ---       putchar
      00FFB2C3H   HCONST   ---       PWM_ARR_ADDR
      00FFB2CBH   HCONST   ---       PWM_CCER_ADDR
      00FFB2DBH   HCONST   ---       PWM_CCMR_ADDR
      00FFB2A3H   HCONST   ---       PWM_CCR_ADDR
      00FF71ADH   CODE     ---       pwm_duty
*DEL*:00000000H   CODE     ---       pwm_freq
      00FF53D7H   CODE     ---       pwm_init
      00FF5EEFH   CODE     ---       pwm_set_gpio
      000005BCH   EDATA    FLOAT     reactFactor
      0000056AH   EDATA    INT       recv
      00FFAB9EH   CODE     ---       recv_ack
      00FFA9F8H   CODE     ---       recv_data
      00FF6DEAH   CODE     ---       Remote_Stop
      00001321H   EDATA    BYTE      RING_FLAG
      00FF79E7H   CODE     ---       ring_handler
*SFR* 000000FFH   DATA     BYTE      RSTCFG
*SFR* 0000009BH   DATA     BYTE      S2BUF
*SFR* 0000009AH   DATA     BYTE      S2CON
*SFR* 000000ADH   DATA     BYTE      S3BUF
*SFR* 000000ACH   DATA     BYTE      S3CON
*SFR* 000000FEH   DATA     BYTE      S4BUF
*SFR* 000000FDH   DATA     BYTE      S4CON
L251 LINKER/LOCATER V4.66.93.0                                                        11/20/2024  19:22:33  PAGE 29


*SFR* 00000099H   DATA     BYTE      SBUF
*SFR* 00000098H   DATA     BYTE      SCON
*DEL*:00000000H   CODE     ---       seekfree_assistant_camera_boundary_config
      00FF76EDH   CODE     ---       seekfree_assistant_camera_data_send
      00FF75ECH   CODE     ---       seekfree_assistant_camera_dot_send
*DEL*:00000000H   CODE     ---       seekfree_assistant_camera_information_config
*DEL*:00000000H   CODE     ---       seekfree_assistant_camera_send
*DEL*:00000000H   CODE     ---       seekfree_assistant_data_analysis
*DEL*:00000000H   CODE     ---       seekfree_assistant_init
      00000211H   EDATA    ---       seekfree_assistant_oscilloscope_data
*DEL*:00000000H   CODE     ---       seekfree_assistant_oscilloscope_send
      00000254H   EDATA    ---       seekfree_assistant_parameter
      0000024CH   EDATA    ---       seekfree_assistant_parameter_update_flag
      00001263H   EDATA    ---       seekfree_assistant_receive
      00001265H   EDATA    ---       seekfree_assistant_transfer
      00FFA898H   CODE     ---       send_ack
      00FFA665H   CODE     ---       send_data
*DEL*:00000000H   CODE     ---       send_nak
      00FFAB1AH   CODE     ---       servo_init
      00000EB7H   EDATA    FLOAT     servo_Kd
      00000EBBH   EDATA    FLOAT     servo_Kp
      00000EB4H   EDATA    CHAR      servo_position
      00FF96ECH   CODE     ---       servo_set_position
      00FF4DABH   CODE     ---       set_clk
*DEL*:00000000H   CODE     ---       showimage
*DEL*:00000000H   CODE     ---       SIN?_
*SFR* 000000CEH   DATA     BYTE      SPCTL
*SFR* 000000CFH   DATA     BYTE      SPDAT
*DEL*:00000000H   CODE     ---       spi_change_mode
*DEL*:00000000H   CODE     ---       spi_change_pin
      00FF7E3CH   CODE     ---       spi_init
      00FFACF7H   CODE     ---       spi_mosi
      00FF4086H   CODE     NEAR LAB  sprintf
*SFR* 000000CDH   DATA     BYTE      SPSTAT
*DEL*:00000000H   CODE     ---       SQRT?_
      00FFAB89H   CODE     ---       start
      00FFABB3H   CODE     ---       stop
      0000057AH   EDATA    ---       str
      00FFA4D9H   CODE     ---       straight_entrance
      00FFAD37H   CODE     ---       strlen?_
      000011FBH   EDATA    LONG      sys_clk
*SFR* 000000D6H   DATA     BYTE      T2H
*SFR* 000000D7H   DATA     BYTE      T2L
*SFR* 000000D4H   DATA     BYTE      T3H
*SFR* 000000D5H   DATA     BYTE      T3L
*SFR* 000000D2H   DATA     BYTE      T4H
*SFR* 000000D3H   DATA     BYTE      T4L
*SFR* 000000DDH   DATA     BYTE      T4T3M
*SFR* 000000AEH   DATA     BYTE      TA
*DEL*:00000000H   CODE     ---       TAN?_
*SFR* 00000088H   DATA     BYTE      TCON
      00000F57H   EDATA    DWORD     temp
      00FF2D0DH   CODE     ---       tft_ascii
*SFR* 0000008CH   DATA     BYTE      TH0
*SFR* 0000008DH   DATA     BYTE      TH1
*SFR* 0000008AH   DATA     BYTE      TL0
*SFR* 0000008BH   DATA     BYTE      TL1
      00FF0012H   CODE     ---       TM0_Isr
      00FF001AH   CODE     ---       TM1_Isr
      00FFAD6CH   CODE     ---       TM2_Isr
      00FFAD70H   CODE     ---       TM3_Isr
      00FFAD74H   CODE     ---       TM4_Isr
*SFR* 00000089H   DATA     BYTE      TMOD
*SFR* 00000088H.4 DATA     BIT       TR0
*SFR* 00000088H.6 DATA     BIT       TR1
L251 LINKER/LOCATER V4.66.93.0                                                        11/20/2024  19:22:33  PAGE 30


      00000008H   EDATA    BYTE      tsl1401_finish_flag
      00FFA135H   CODE     ---       UART1_Isr
      00FF945FH   CODE     ---       UART2_Isr
      00FFAAE6H   CODE     ---       UART3_Isr
      00FF94BDH   CODE     ---       UART4_Isr
      00FF61FBH   CODE     ---       uart_init
      00FFA4A6H   CODE     ---       uart_putbuff
      00FF8C7FH   CODE     ---       uart_putchar
*DEL*:00000000H   CODE     ---       uart_putstr
*DEL*:00000000H   CODE     ---       update_battery_status
*SFR* 000000F4H   DATA     BYTE      USBCON
      00000F41H   EDATA    ---       virtual_scope_data
*SFR* 000000A6H   DATA     BYTE      VRTRIM
      00FF9851H   CODE     ---       wait
*SFR* 000000C1H   DATA     BYTE      WDT_CONTR
      000012B0H   EDATA    INT       wireless_type
      00FFAACCH   CODE     ---       wireless_uart_callback
      00FFA0AFH   CODE     ---       wireless_uart_init
      00FFA50BH   CODE     ---       wireless_uart_read_buff
      00FF8CF4H   CODE     ---       wireless_uart_send_buff
      00FFA95EH   CODE     ---       wireless_uart_send_byte
*SFR* 000000E9H   DATA     BYTE      WTST
      00001207H   EDATA    WORD      zf_delay_ms
      00001209H   EDATA    WORD      zf_delay_us
      00FF474AH   CODE     ---       zf_sprintf



SYMBOL TABLE OF MODULE:  .\Out_File\SEEKFREE (board)

      VALUE       REP       CLASS    TYPE      SYMBOL NAME
      ====================================================
      ---         MODULE    ---      ---       board
      00FF0006H   PUBLIC    CODE     ---       EnableGlobalIRQ
      00FF8C08H   PUBLIC    CODE     ---       board_init
      00FFAC85H   PUBLIC    CODE     ---       clock_init
      00FFAD09H   PUBLIC    CODE     ---       ICacheOn
      00FF4DABH   PUBLIC    CODE     ---       set_clk
      00FFACE5H   PUBLIC    CODE     ---       putchar
      000011FBH   PUBLIC    EDATA    LONG      sys_clk
      00000094H   SFRSYM    DATA     BYTE      P0M0
      000000D0H   SFRSYM    DATA     BYTE      PSW
      0000009DH   SFRSYM    DATA     BYTE      IRCBAND
      00000097H   SFRSYM    DATA     BYTE      AUXR2
      000000EFH   SFRSYM    DATA     BYTE      AUXINTIF
      000000FDH   SFRSYM    DATA     BYTE      S4CON
      000000ACH   SFRSYM    DATA     BYTE      S3CON
      0000009AH   SFRSYM    DATA     BYTE      S2CON
      000000A6H   SFRSYM    DATA     BYTE      VRTRIM
      000000B7H   SFRSYM    DATA     BYTE      IPH
      000000CDH   SFRSYM    DATA     BYTE      SPSTAT
      000000DDH   SFRSYM    DATA     BYTE      T4T3M
      0000009FH   SFRSYM    DATA     BYTE      IRTRIM
      000000C1H   SFRSYM    DATA     BYTE      WDT_CONTR
      000000E9H   SFRSYM    DATA     BYTE      WTST
      000000DFH   SFRSYM    DATA     BYTE      IP3
      000000F4H   SFRSYM    DATA     BYTE      USBCON
      000000B5H   SFRSYM    DATA     BYTE      IP2
      000000FFH   SFRSYM    DATA     BYTE      RSTCFG
      000000C7H   SFRSYM    DATA     BYTE      IAP_CONTR
      000000F9H   SFRSYM    DATA     BYTE      LINICR
      0000008EH   SFRSYM    DATA     BYTE      AUXR
      000000AFH   SFRSYM    DATA     BYTE      IE2
      00000088H   SFRSYM    DATA     BYTE      TCON
      00000089H   SFRSYM    DATA     BYTE      TMOD
L251 LINKER/LOCATER V4.66.93.0                                                        11/20/2024  19:22:33  PAGE 31


      00000098H   SFRSYM    DATA     BYTE      SCON
      000000F1H   SFRSYM    DATA     BYTE      CANICR
      00000087H   SFRSYM    DATA     BYTE      PCON
      000000BCH   SFRSYM    DATA     BYTE      ADC_CONTR
      000000F7H   SFRSYM    DATA     BYTE      ICHECR
      000000E7H   SFRSYM    DATA     BYTE      CMPCR2
      000000E6H   SFRSYM    DATA     BYTE      CMPCR1
      000000DEH   SFRSYM    DATA     BYTE      ADCCFG
      000000B8H   SFRSYM    DATA     BYTE      IP
      0000008FH   SFRSYM    DATA     BYTE      INTCLKO
      000000AEH   SFRSYM    DATA     BYTE      TA
      000000EEH   SFRSYM    DATA     BYTE      IP3H
      000000B6H   SFRSYM    DATA     BYTE      IP2H
      000000A8H   SFRSYM    DATA     BYTE      IE
      000000BBH   SFRSYM    DATA     BYTE      P_SW3
      000000BAH   SFRSYM    DATA     BYTE      P_SW2
      000000A2H   SFRSYM    DATA     BYTE      P_SW1
      000000CEH   SFRSYM    DATA     BYTE      SPCTL
      000000F8H   SFRSYM    DATA     BYTE      P7
      000000A8H.7 SFRSYM    DATA     BIT       EA
      000000E8H   SFRSYM    DATA     BYTE      P6
      000000C8H   SFRSYM    DATA     BYTE      P5
      000000C0H   SFRSYM    DATA     BYTE      P4
      000000C9H   SFRSYM    DATA     BYTE      P5M1
      000000B0H   SFRSYM    DATA     BYTE      P3
      000000B3H   SFRSYM    DATA     BYTE      P4M1
      000000CAH   SFRSYM    DATA     BYTE      P5M0
      000000A0H   SFRSYM    DATA     BYTE      P2
      000000B1H   SFRSYM    DATA     BYTE      P3M1
      000000B4H   SFRSYM    DATA     BYTE      P4M0
      00000090H   SFRSYM    DATA     BYTE      P1
      00000095H   SFRSYM    DATA     BYTE      P2M1
      000000B2H   SFRSYM    DATA     BYTE      P3M0
      00000080H   SFRSYM    DATA     BYTE      P0
      00000091H   SFRSYM    DATA     BYTE      P1M1
      00000096H   SFRSYM    DATA     BYTE      P2M0
      00000092H   SFRSYM    DATA     BYTE      P1M0
      00000093H   SFRSYM    DATA     BYTE      P0M1

      00FF4DABH   BLOCK     CODE     ---       LVL=0
      00001053H   SYMBOL    EDATA    DWORD     clock
      00FF4DAFH   BLOCK     CODE     NEAR LAB  LVL=1
      00001057H   SYMBOL    EDATA    DWORD     temp_sys_clk
      ---         BLOCKEND  ---      ---       LVL=1
      00FF4DABH   LINE      CODE     ---       #35
      00FF4DAFH   LINE      CODE     ---       #36
      00FF4DAFH   LINE      CODE     ---       #37
      00FF4DB5H   LINE      CODE     ---       #40
      00FF4E96H   LINE      CODE     ---       #42
      00FF4E96H   LINE      CODE     ---       #44
      00FF4EA3H   LINE      CODE     ---       #45
      00FF4EB0H   LINE      CODE     ---       #46
      00FF4EBDH   LINE      CODE     ---       #47
      00FF4EC1H   LINE      CODE     ---       #48
      00FF4EC4H   LINE      CODE     ---       #49
      00FF4EC5H   LINE      CODE     ---       #50
      00FF4EC6H   LINE      CODE     ---       #51
      00FF4EC7H   LINE      CODE     ---       #52
      00FF4EC8H   LINE      CODE     ---       #53
      00FF4ED5H   LINE      CODE     ---       #54
      00FF4EDDH   LINE      CODE     ---       #55
      00FF4EE0H   LINE      CODE     ---       #57
      00FF4EE0H   LINE      CODE     ---       #59
      00FF4EEDH   LINE      CODE     ---       #60
      00FF4EFAH   LINE      CODE     ---       #61
L251 LINKER/LOCATER V4.66.93.0                                                        11/20/2024  19:22:33  PAGE 32


      00FF4F07H   LINE      CODE     ---       #62
      00FF4F0BH   LINE      CODE     ---       #63
      00FF4F0EH   LINE      CODE     ---       #64
      00FF4F0FH   LINE      CODE     ---       #65
      00FF4F10H   LINE      CODE     ---       #66
      00FF4F11H   LINE      CODE     ---       #67
      00FF4F12H   LINE      CODE     ---       #68
      00FF4F1FH   LINE      CODE     ---       #69
      00FF4F27H   LINE      CODE     ---       #70
      00FF4F2AH   LINE      CODE     ---       #72
      00FF4F2AH   LINE      CODE     ---       #74
      00FF4F37H   LINE      CODE     ---       #75
      00FF4F44H   LINE      CODE     ---       #76
      00FF4F51H   LINE      CODE     ---       #77
      00FF4F55H   LINE      CODE     ---       #78
      00FF4F58H   LINE      CODE     ---       #79
      00FF4F59H   LINE      CODE     ---       #80
      00FF4F5AH   LINE      CODE     ---       #81
      00FF4F5BH   LINE      CODE     ---       #82
      00FF4F5CH   LINE      CODE     ---       #83
      00FF4F69H   LINE      CODE     ---       #84
      00FF4F71H   LINE      CODE     ---       #85
      00FF4F74H   LINE      CODE     ---       #87
      00FF4F74H   LINE      CODE     ---       #89
      00FF4F81H   LINE      CODE     ---       #90
      00FF4F8EH   LINE      CODE     ---       #91
      00FF4F9BH   LINE      CODE     ---       #92
      00FF4F9FH   LINE      CODE     ---       #93
      00FF4FA0H   LINE      CODE     ---       #94
      00FF4FA1H   LINE      CODE     ---       #95
      00FF4FA2H   LINE      CODE     ---       #96
      00FF4FA3H   LINE      CODE     ---       #97
      00FF4FA6H   LINE      CODE     ---       #98
      00FF4FB3H   LINE      CODE     ---       #99
      00FF4FBBH   LINE      CODE     ---       #100
      00FF4FBEH   LINE      CODE     ---       #102
      00FF4FBEH   LINE      CODE     ---       #104
      00FF4FCBH   LINE      CODE     ---       #105
      00FF4FD8H   LINE      CODE     ---       #106
      00FF4FE5H   LINE      CODE     ---       #107
      00FF4FE9H   LINE      CODE     ---       #108
      00FF4FECH   LINE      CODE     ---       #109
      00FF4FEDH   LINE      CODE     ---       #110
      00FF4FEEH   LINE      CODE     ---       #111
      00FF4FEFH   LINE      CODE     ---       #112
      00FF4FF0H   LINE      CODE     ---       #113
      00FF4FFDH   LINE      CODE     ---       #114
      00FF5005H   LINE      CODE     ---       #115
      00FF5008H   LINE      CODE     ---       #117
      00FF5008H   LINE      CODE     ---       #119
      00FF5015H   LINE      CODE     ---       #120
      00FF5022H   LINE      CODE     ---       #121
      00FF502FH   LINE      CODE     ---       #122
      00FF5033H   LINE      CODE     ---       #123
      00FF5036H   LINE      CODE     ---       #124
      00FF5037H   LINE      CODE     ---       #125
      00FF5038H   LINE      CODE     ---       #126
      00FF5039H   LINE      CODE     ---       #127
      00FF503AH   LINE      CODE     ---       #128
      00FF5047H   LINE      CODE     ---       #129
      00FF504FH   LINE      CODE     ---       #130
      00FF5052H   LINE      CODE     ---       #132
      00FF5052H   LINE      CODE     ---       #134
      00FF505FH   LINE      CODE     ---       #135
      00FF506CH   LINE      CODE     ---       #136
L251 LINKER/LOCATER V4.66.93.0                                                        11/20/2024  19:22:33  PAGE 33


      00FF5079H   LINE      CODE     ---       #137
      00FF507DH   LINE      CODE     ---       #138
      00FF5080H   LINE      CODE     ---       #139
      00FF5081H   LINE      CODE     ---       #140
      00FF5082H   LINE      CODE     ---       #141
      00FF5083H   LINE      CODE     ---       #142
      00FF5084H   LINE      CODE     ---       #143
      00FF5091H   LINE      CODE     ---       #144
      00FF5099H   LINE      CODE     ---       #145
      00FF509CH   LINE      CODE     ---       #147
      00FF509CH   LINE      CODE     ---       #149
      00FF50A9H   LINE      CODE     ---       #150
      00FF50B6H   LINE      CODE     ---       #151
      00FF50C3H   LINE      CODE     ---       #152
      00FF50C7H   LINE      CODE     ---       #153
      00FF50CAH   LINE      CODE     ---       #154
      00FF50CBH   LINE      CODE     ---       #155
      00FF50CCH   LINE      CODE     ---       #156
      00FF50CDH   LINE      CODE     ---       #157
      00FF50CEH   LINE      CODE     ---       #158
      00FF50DBH   LINE      CODE     ---       #159
      00FF50E3H   LINE      CODE     ---       #160
      00FF50E6H   LINE      CODE     ---       #162
      00FF50E6H   LINE      CODE     ---       #164
      00FF50F3H   LINE      CODE     ---       #165
      00FF5100H   LINE      CODE     ---       #166
      00FF510DH   LINE      CODE     ---       #167
      00FF5111H   LINE      CODE     ---       #168
      00FF5114H   LINE      CODE     ---       #169
      00FF5115H   LINE      CODE     ---       #170
      00FF5116H   LINE      CODE     ---       #171
      00FF5117H   LINE      CODE     ---       #172
      00FF5118H   LINE      CODE     ---       #173
      00FF5125H   LINE      CODE     ---       #174
      00FF512DH   LINE      CODE     ---       #175
      00FF5130H   LINE      CODE     ---       #177
      00FF5130H   LINE      CODE     ---       #179
      00FF513DH   LINE      CODE     ---       #180
      00FF514AH   LINE      CODE     ---       #181
      00FF5157H   LINE      CODE     ---       #182
      00FF515BH   LINE      CODE     ---       #183
      00FF515EH   LINE      CODE     ---       #184
      00FF515FH   LINE      CODE     ---       #185
      00FF5160H   LINE      CODE     ---       #186
      00FF5161H   LINE      CODE     ---       #187
      00FF5162H   LINE      CODE     ---       #188
      00FF516FH   LINE      CODE     ---       #189
      00FF5177H   LINE      CODE     ---       #190
      00FF517AH   LINE      CODE     ---       #192
      00FF517AH   LINE      CODE     ---       #194
      00FF5187H   LINE      CODE     ---       #195
      00FF5194H   LINE      CODE     ---       #196
      00FF51A1H   LINE      CODE     ---       #197
      00FF51A5H   LINE      CODE     ---       #198
      00FF51A9H   LINE      CODE     ---       #199
      00FF51AAH   LINE      CODE     ---       #200
      00FF51ABH   LINE      CODE     ---       #201
      00FF51ACH   LINE      CODE     ---       #202
      00FF51ADH   LINE      CODE     ---       #203
      00FF51BAH   LINE      CODE     ---       #204
      00FF51C2H   LINE      CODE     ---       #205
      00FF51C5H   LINE      CODE     ---       #207
      00FF51C5H   LINE      CODE     ---       #209
      00FF51D2H   LINE      CODE     ---       #210
      00FF51DFH   LINE      CODE     ---       #211
L251 LINKER/LOCATER V4.66.93.0                                                        11/20/2024  19:22:33  PAGE 34


      00FF51ECH   LINE      CODE     ---       #212
      00FF51F0H   LINE      CODE     ---       #213
      00FF51F4H   LINE      CODE     ---       #214
      00FF51F5H   LINE      CODE     ---       #215
      00FF51F6H   LINE      CODE     ---       #216
      00FF51F7H   LINE      CODE     ---       #217
      00FF51F8H   LINE      CODE     ---       #218
      00FF5205H   LINE      CODE     ---       #219
      00FF520DH   LINE      CODE     ---       #220
      00FF5210H   LINE      CODE     ---       #222
      00FF5210H   LINE      CODE     ---       #224
      00FF521DH   LINE      CODE     ---       #225
      00FF522AH   LINE      CODE     ---       #226
      00FF5237H   LINE      CODE     ---       #227
      00FF523BH   LINE      CODE     ---       #228
      00FF523FH   LINE      CODE     ---       #229
      00FF5240H   LINE      CODE     ---       #230
      00FF5241H   LINE      CODE     ---       #231
      00FF5242H   LINE      CODE     ---       #232
      00FF5243H   LINE      CODE     ---       #233
      00FF5250H   LINE      CODE     ---       #234
      00FF5258H   LINE      CODE     ---       #235
      00FF525BH   LINE      CODE     ---       #237
      00FF525BH   LINE      CODE     ---       #239
      00FF5268H   LINE      CODE     ---       #240
      00FF5275H   LINE      CODE     ---       #241
      00FF5282H   LINE      CODE     ---       #242
      00FF5286H   LINE      CODE     ---       #243
      00FF528AH   LINE      CODE     ---       #244
      00FF528BH   LINE      CODE     ---       #245
      00FF528CH   LINE      CODE     ---       #246
      00FF528DH   LINE      CODE     ---       #247
      00FF528EH   LINE      CODE     ---       #248
      00FF529BH   LINE      CODE     ---       #249
      00FF52A3H   LINE      CODE     ---       #250
      00FF52A6H   LINE      CODE     ---       #252
      00FF52A6H   LINE      CODE     ---       #254
      00FF52B3H   LINE      CODE     ---       #255
      00FF52C0H   LINE      CODE     ---       #256
      00FF52CDH   LINE      CODE     ---       #257
      00FF52D1H   LINE      CODE     ---       #258
      00FF52D5H   LINE      CODE     ---       #259
      00FF52D6H   LINE      CODE     ---       #260
      00FF52D7H   LINE      CODE     ---       #261
      00FF52D8H   LINE      CODE     ---       #262
      00FF52D9H   LINE      CODE     ---       #263
      00FF52E6H   LINE      CODE     ---       #264
      00FF52EEH   LINE      CODE     ---       #265
      00FF52F1H   LINE      CODE     ---       #267
      00FF52F1H   LINE      CODE     ---       #269
      00FF52FEH   LINE      CODE     ---       #270
      00FF530BH   LINE      CODE     ---       #271
      00FF5318H   LINE      CODE     ---       #272
      00FF531CH   LINE      CODE     ---       #273
      00FF5320H   LINE      CODE     ---       #274
      00FF5321H   LINE      CODE     ---       #275
      00FF5322H   LINE      CODE     ---       #276
      00FF5323H   LINE      CODE     ---       #277
      00FF5324H   LINE      CODE     ---       #278
      00FF5331H   LINE      CODE     ---       #279
      00FF5339H   LINE      CODE     ---       #280
      00FF533CH   LINE      CODE     ---       #282
      00FF533CH   LINE      CODE     ---       #284
      00FF5349H   LINE      CODE     ---       #285
      00FF5356H   LINE      CODE     ---       #286
L251 LINKER/LOCATER V4.66.93.0                                                        11/20/2024  19:22:33  PAGE 35


      00FF5363H   LINE      CODE     ---       #287
      00FF5367H   LINE      CODE     ---       #288
      00FF536BH   LINE      CODE     ---       #289
      00FF536CH   LINE      CODE     ---       #290
      00FF536DH   LINE      CODE     ---       #291
      00FF536EH   LINE      CODE     ---       #292
      00FF536FH   LINE      CODE     ---       #293
      00FF537CH   LINE      CODE     ---       #294
      00FF5384H   LINE      CODE     ---       #295
      00FF5386H   LINE      CODE     ---       #307
      00FF5386H   LINE      CODE     ---       #309
      00FF5393H   LINE      CODE     ---       #310
      00FF53A0H   LINE      CODE     ---       #311
      00FF53ADH   LINE      CODE     ---       #312
      00FF53B1H   LINE      CODE     ---       #313
      00FF53B5H   LINE      CODE     ---       #314
      00FF53B6H   LINE      CODE     ---       #315
      00FF53B7H   LINE      CODE     ---       #316
      00FF53B8H   LINE      CODE     ---       #317
      00FF53B9H   LINE      CODE     ---       #318
      00FF53C6H   LINE      CODE     ---       #319
      00FF53D2H   LINE      CODE     ---       #320
      00FF53D2H   LINE      CODE     ---       #321
      00FF53D2H   LINE      CODE     ---       #323
      00FF53D6H   LINE      CODE     ---       #324
      ---         BLOCKEND  ---      ---       LVL=0

      00FFACE5H   BLOCK     CODE     ---       LVL=0
      00001306H   SYMBOL    EDATA    CHAR      c
      00FFACE5H   LINE      CODE     ---       #333
      00FFACE9H   LINE      CODE     ---       #335
      00FFACF2H   LINE      CODE     ---       #337
      00FFACF6H   LINE      CODE     ---       #338
      ---         BLOCKEND  ---      ---       LVL=0

      00FF0006H   BLOCK     CODE     ---       LVL=0
      00FF0006H   LINE      CODE     ---       #347
      00FF0006H   LINE      CODE     ---       #349
      00FF0009H   LINE      CODE     ---       #350
      ---         BLOCKEND  ---      ---       LVL=0

      00FFAD09H   BLOCK     CODE     ---       LVL=0
      00FFAD09H   LINE      CODE     ---       #385
      00FFAD09H   LINE      CODE     ---       #387
      00FFAD0AH   LINE      CODE     ---       #388
      00FFAD0BH   LINE      CODE     ---       #389
      00FFAD0FH   LINE      CODE     ---       #391
      00FFAD13H   LINE      CODE     ---       #393
      00FFAD17H   LINE      CODE     ---       #395
      00FFAD18H   LINE      CODE     ---       #396
      00FFAD19H   LINE      CODE     ---       #397
      ---         BLOCKEND  ---      ---       LVL=0

      00FFAC85H   BLOCK     CODE     ---       LVL=0
      000011FFH   SYMBOL    EDATA    DWORD     clock
      00FFAC85H   LINE      CODE     ---       #399
      00FFAC89H   LINE      CODE     ---       #401
      00FFAC8DH   LINE      CODE     ---       #409
      00FFAC98H   LINE      CODE     ---       #413
      ---         BLOCKEND  ---      ---       LVL=0

      00FF8C08H   BLOCK     CODE     ---       LVL=0
      00FF8C08H   LINE      CODE     ---       #416
      00FF8C08H   LINE      CODE     ---       #419
      00FF8C0BH   LINE      CODE     ---       #422
L251 LINKER/LOCATER V4.66.93.0                                                        11/20/2024  19:22:33  PAGE 36


      00FF8C0EH   LINE      CODE     ---       #423
      00FF8C11H   LINE      CODE     ---       #424
      00FF8C14H   LINE      CODE     ---       #425
      00FF8C17H   LINE      CODE     ---       #426
      00FF8C1AH   LINE      CODE     ---       #427
      00FF8C1DH   LINE      CODE     ---       #428
      00FF8C20H   LINE      CODE     ---       #429
      00FF8C23H   LINE      CODE     ---       #430
      00FF8C26H   LINE      CODE     ---       #431
      00FF8C29H   LINE      CODE     ---       #432
      00FF8C2CH   LINE      CODE     ---       #433
      00FF8C2FH   LINE      CODE     ---       #452
      00FF8C32H   LINE      CODE     ---       #454
      00FF8C42H   LINE      CODE     ---       #459
      00FF8C45H   LINE      CODE     ---       #460
      00FF8C45H   LINE      CODE     ---       #464
      00FF8C48H   LINE      CODE     ---       #465
      00FF8C4BH   LINE      CODE     ---       #466
      00FF8C4EH   LINE      CODE     ---       #467
      00FF8C51H   LINE      CODE     ---       #468
      00FF8C54H   LINE      CODE     ---       #469
      00FF8C57H   LINE      CODE     ---       #470
      00FF8C5AH   LINE      CODE     ---       #471
      00FF8C5DH   LINE      CODE     ---       #472
      00FF8C60H   LINE      CODE     ---       #474
      00FF8C7BH   LINE      CODE     ---       #475
      00FF8C7EH   LINE      CODE     ---       #476
      ---         BLOCKEND  ---      ---       LVL=0

      ---         MODULE    ---      ---       common
      000012B0H   PUBLIC    EDATA    INT       wireless_type
      000000D0H   SFRSYM    DATA     BYTE      PSW
      0000009DH   SFRSYM    DATA     BYTE      IRCBAND
      00000097H   SFRSYM    DATA     BYTE      AUXR2
      000000EFH   SFRSYM    DATA     BYTE      AUXINTIF
      000000FDH   SFRSYM    DATA     BYTE      S4CON
      000000ACH   SFRSYM    DATA     BYTE      S3CON
      0000009AH   SFRSYM    DATA     BYTE      S2CON
      000000B7H   SFRSYM    DATA     BYTE      IPH
      000000CDH   SFRSYM    DATA     BYTE      SPSTAT
      000000DDH   SFRSYM    DATA     BYTE      T4T3M
      000000C1H   SFRSYM    DATA     BYTE      WDT_CONTR
      000000DFH   SFRSYM    DATA     BYTE      IP3
      000000F4H   SFRSYM    DATA     BYTE      USBCON
      000000B5H   SFRSYM    DATA     BYTE      IP2
      000000FFH   SFRSYM    DATA     BYTE      RSTCFG
      000000C7H   SFRSYM    DATA     BYTE      IAP_CONTR
      000000F9H   SFRSYM    DATA     BYTE      LINICR
      0000008EH   SFRSYM    DATA     BYTE      AUXR
      000000AFH   SFRSYM    DATA     BYTE      IE2
      00000088H   SFRSYM    DATA     BYTE      TCON
      00000089H   SFRSYM    DATA     BYTE      TMOD
      00000098H   SFRSYM    DATA     BYTE      SCON
      000000F1H   SFRSYM    DATA     BYTE      CANICR
      00000087H   SFRSYM    DATA     BYTE      PCON
      000000BCH   SFRSYM    DATA     BYTE      ADC_CONTR
      000000E7H   SFRSYM    DATA     BYTE      CMPCR2
      000000E6H   SFRSYM    DATA     BYTE      CMPCR1
      000000DEH   SFRSYM    DATA     BYTE      ADCCFG
      000000B8H   SFRSYM    DATA     BYTE      IP
      0000008FH   SFRSYM    DATA     BYTE      INTCLKO
      000000EEH   SFRSYM    DATA     BYTE      IP3H
      000000B6H   SFRSYM    DATA     BYTE      IP2H
      000000A8H   SFRSYM    DATA     BYTE      IE
      000000BBH   SFRSYM    DATA     BYTE      P_SW3
L251 LINKER/LOCATER V4.66.93.0                                                        11/20/2024  19:22:33  PAGE 37


      000000BAH   SFRSYM    DATA     BYTE      P_SW2
      000000A2H   SFRSYM    DATA     BYTE      P_SW1
      000000CEH   SFRSYM    DATA     BYTE      SPCTL
      000000F8H   SFRSYM    DATA     BYTE      P7
      000000E8H   SFRSYM    DATA     BYTE      P6
      000000C8H   SFRSYM    DATA     BYTE      P5
      000000C0H   SFRSYM    DATA     BYTE      P4
      000000B0H   SFRSYM    DATA     BYTE      P3
      000000A0H   SFRSYM    DATA     BYTE      P2
      00000090H   SFRSYM    DATA     BYTE      P1
      00000080H   SFRSYM    DATA     BYTE      P0

      ---         MODULE    ---      ---       STC32F_FPMU
      00FFAD60H   PUBLIC    CODE     ---       ?C?CASTF
      00FFAD66H   PUBLIC    CODE     ---       ?C?FCASTI
      00FF005EH   PUBLIC    CODE     ---       ?C?FCASTL
      00FF000EH   PUBLIC    CODE     ---       ?C?FPADD
      00FFAD45H   PUBLIC    CODE     ---       ?C?FPCMP3
      00FF0056H   PUBLIC    CODE     ---       ?C?FPDIV
      00FF001EH   PUBLIC    CODE     ---       ?C?FPMUL
      00FFAD59H   PUBLIC    CODE     ---       ?C?FPNEG
      00FF0016H   PUBLIC    CODE     ---       ?C?FPSUB
      000000E0H   SFRSYM    DATA     BYTE      ACC
      000000EDH   SFRSYM    DATA     BYTE      DMAIR
      00000083H   SFRSYM    DATA     BYTE      DPH
      00000082H   SFRSYM    DATA     BYTE      DPL
      0000001CH   SYMBOL    NUMBER   ---       DMA_FPADD
      00000030H   SYMBOL    NUMBER   ---       DMA_FPATAN
      00000027H   SYMBOL    NUMBER   ---       DMA_FPCLD
      00000032H   SYMBOL    NUMBER   ---       DMA_FPCLEX
      00000021H   SYMBOL    NUMBER   ---       DMA_FPCMP
      0000002EH   SYMBOL    NUMBER   ---       DMA_FPCOS
      00000035H   SYMBOL    NUMBER   ---       DMA_FPCRR
      00000036H   SYMBOL    NUMBER   ---       DMA_FPCRW
      00000023H   SYMBOL    NUMBER   ---       DMA_FPCST
      0000001FH   SYMBOL    NUMBER   ---       DMA_FPDIV
      00000028H   SYMBOL    NUMBER   ---       DMA_FPILD
      00000031H   SYMBOL    NUMBER   ---       DMA_FPINIT
      00000024H   SYMBOL    NUMBER   ---       DMA_FPIST
      00000029H   SYMBOL    NUMBER   ---       DMA_FPLLD
      00000025H   SYMBOL    NUMBER   ---       DMA_FPLST
      0000001EH   SYMBOL    NUMBER   ---       DMA_FPMUL
      0000002DH   SYMBOL    NUMBER   ---       DMA_FPSIN
      00000020H   SYMBOL    NUMBER   ---       DMA_FPSQRT
      00000033H   SYMBOL    NUMBER   ---       DMA_FPSRR
      00000034H   SYMBOL    NUMBER   ---       DMA_FPSRW
      0000001DH   SYMBOL    NUMBER   ---       DMA_FPSUB
      0000002FH   SYMBOL    NUMBER   ---       DMA_FPTAN
      00000022H   SYMBOL    NUMBER   ---       DMA_FPXAM
      00000001H   SYMBOL    NUMBER   ---       FP_CONV_EN
      00000001H   SYMBOL    NUMBER   ---       FP_REGS_EN
      00000001H   SYMBOL    NUMBER   ---       FP_TRIG_EN

      00FF000EH   BLOCK     CODE     NEAR LAB  LVL=0
      00FF000EH   LINE      CODE     ---       #62
      00FF0011H   LINE      CODE     ---       #63
      ---         BLOCKEND  ---      ---       LVL=0

      00FF0016H   BLOCK     CODE     NEAR LAB  LVL=0
      00FF0016H   LINE      CODE     ---       #72
      00FF0019H   LINE      CODE     ---       #73
      ---         BLOCKEND  ---      ---       LVL=0

      00FF001EH   BLOCK     CODE     NEAR LAB  LVL=0
      00FF001EH   LINE      CODE     ---       #82
L251 LINKER/LOCATER V4.66.93.0                                                        11/20/2024  19:22:33  PAGE 38


      00FF0021H   LINE      CODE     ---       #83
      ---         BLOCKEND  ---      ---       LVL=0

      00FF0056H   BLOCK     CODE     NEAR LAB  LVL=0
      00FF0056H   LINE      CODE     ---       #92
      00FF0059H   LINE      CODE     ---       #93
      ---         BLOCKEND  ---      ---       LVL=0

      00FFAD45H   BLOCK     CODE     NEAR LAB  LVL=0
      00FFAD45H   LINE      CODE     ---       #113
      00FFAD48H   LINE      CODE     ---       #114
      00FFAD4AH   LINE      CODE     ---       #115
      00FFAD4CH   LINE      CODE     ---       #116
      00FFAD4EH   LINE      CODE     ---       #117
      00FFAD50H   LINE      CODE     ---       #118
      ---         BLOCKEND  ---      ---       LVL=0

      00FFAD59H   BLOCK     CODE     NEAR LAB  LVL=0
      00FFAD59H   LINE      CODE     ---       #138
      00FFAD5BH   LINE      CODE     ---       #139
      00FFAD5DH   LINE      CODE     ---       #140
      00FFAD5FH   LINE      CODE     ---       #141
      ---         BLOCKEND  ---      ---       LVL=0

      00FFAD60H   BLOCK     CODE     NEAR LAB  LVL=0
      00FFAD60H   LINE      CODE     ---       #213
      00FFAD63H   LINE      CODE     ---       #214
      00FFAD65H   LINE      CODE     ---       #215
      ---         BLOCKEND  ---      ---       LVL=0

      00FFAD66H   BLOCK     CODE     NEAR LAB  LVL=0
      00FFAD66H   LINE      CODE     ---       #235
      00FFAD68H   LINE      CODE     ---       #236
      00FFAD6BH   LINE      CODE     ---       #237
      ---         BLOCKEND  ---      ---       LVL=0

      00FF005EH   BLOCK     CODE     NEAR LAB  LVL=0
      00FF005EH   LINE      CODE     ---       #246
      00FF0061H   LINE      CODE     ---       #247
      ---         BLOCKEND  ---      ---       LVL=0

      ---         MODULE    ---      ---       zf_adc
      00FF9956H   PUBLIC    CODE     ---       adc_once
      00FF8387H   PUBLIC    CODE     ---       adc_init
      00000094H   SFRSYM    DATA     BYTE      P0M0
      000000D0H   SFRSYM    DATA     BYTE      PSW
      0000009DH   SFRSYM    DATA     BYTE      IRCBAND
      00000097H   SFRSYM    DATA     BYTE      AUXR2
      000000EFH   SFRSYM    DATA     BYTE      AUXINTIF
      000000FDH   SFRSYM    DATA     BYTE      S4CON
      000000ACH   SFRSYM    DATA     BYTE      S3CON
      0000009AH   SFRSYM    DATA     BYTE      S2CON
      000000B7H   SFRSYM    DATA     BYTE      IPH
      000000CDH   SFRSYM    DATA     BYTE      SPSTAT
      000000BEH   SFRSYM    DATA     BYTE      ADC_RESL
      000000DDH   SFRSYM    DATA     BYTE      T4T3M
      000000C1H   SFRSYM    DATA     BYTE      WDT_CONTR
      000000DFH   SFRSYM    DATA     BYTE      IP3
      000000F4H   SFRSYM    DATA     BYTE      USBCON
      000000B5H   SFRSYM    DATA     BYTE      IP2
      000000FFH   SFRSYM    DATA     BYTE      RSTCFG
      000000C7H   SFRSYM    DATA     BYTE      IAP_CONTR
      000000F9H   SFRSYM    DATA     BYTE      LINICR
      0000008EH   SFRSYM    DATA     BYTE      AUXR
      000000AFH   SFRSYM    DATA     BYTE      IE2
L251 LINKER/LOCATER V4.66.93.0                                                        11/20/2024  19:22:33  PAGE 39


      00000088H   SFRSYM    DATA     BYTE      TCON
      00000089H   SFRSYM    DATA     BYTE      TMOD
      00000098H   SFRSYM    DATA     BYTE      SCON
      000000F1H   SFRSYM    DATA     BYTE      CANICR
      00000087H   SFRSYM    DATA     BYTE      PCON
      000000BCH   SFRSYM    DATA     BYTE      ADC_CONTR
      000000E7H   SFRSYM    DATA     BYTE      CMPCR2
      000000E6H   SFRSYM    DATA     BYTE      CMPCR1
      000000DEH   SFRSYM    DATA     BYTE      ADCCFG
      000000B8H   SFRSYM    DATA     BYTE      IP
      0000008FH   SFRSYM    DATA     BYTE      INTCLKO
      000000EEH   SFRSYM    DATA     BYTE      IP3H
      000000B6H   SFRSYM    DATA     BYTE      IP2H
      000000BDH   SFRSYM    DATA     BYTE      ADC_RES
      000000A8H   SFRSYM    DATA     BYTE      IE
      000000BBH   SFRSYM    DATA     BYTE      P_SW3
      000000BAH   SFRSYM    DATA     BYTE      P_SW2
      000000A2H   SFRSYM    DATA     BYTE      P_SW1
      000000CEH   SFRSYM    DATA     BYTE      SPCTL
      000000F8H   SFRSYM    DATA     BYTE      P7
      000000E8H   SFRSYM    DATA     BYTE      P6
      000000C8H   SFRSYM    DATA     BYTE      P5
      000000C0H   SFRSYM    DATA     BYTE      P4
      000000B0H   SFRSYM    DATA     BYTE      P3
      000000A0H   SFRSYM    DATA     BYTE      P2
      00000090H   SFRSYM    DATA     BYTE      P1
      00000080H   SFRSYM    DATA     BYTE      P0
      00000091H   SFRSYM    DATA     BYTE      P1M1
      00000092H   SFRSYM    DATA     BYTE      P1M0
      00000093H   SFRSYM    DATA     BYTE      P0M1

      00FF8387H   BLOCK     CODE     ---       LVL=0
      00001203H   SYMBOL    EDATA    INT       adcn
      00001205H   SYMBOL    EDATA    INT       speed
      00FF8387H   LINE      CODE     ---       #32
      00FF838FH   LINE      CODE     ---       #34
      00FF8392H   LINE      CODE     ---       #36
      00FF8395H   LINE      CODE     ---       #37
      00FF839DH   LINE      CODE     ---       #39
      00FF83AFH   LINE      CODE     ---       #42
      00FF83CAH   LINE      CODE     ---       #43
      00FF83E3H   LINE      CODE     ---       #44
      00FF83E5H   LINE      CODE     ---       #45
      00FF83F5H   LINE      CODE     ---       #48
      00FF8410H   LINE      CODE     ---       #49
      00FF8429H   LINE      CODE     ---       #50
      00FF8429H   LINE      CODE     ---       #52
      00FF8438H   LINE      CODE     ---       #54
      00FF843BH   LINE      CODE     ---       #55
      ---         BLOCKEND  ---      ---       LVL=0

      00FF9956H   BLOCK     CODE     ---       LVL=0
      00001123H   SYMBOL    EDATA    INT       adcn
      00001125H   SYMBOL    EDATA    INT       resolution
      00FF995EH   BLOCK     CODE     NEAR LAB  LVL=1
      00001127H   SYMBOL    EDATA    WORD      adc_value
      ---         BLOCKEND  ---      ---       LVL=1
      00FF9956H   LINE      CODE     ---       #66
      00FF995EH   LINE      CODE     ---       #67
      00FF995EH   LINE      CODE     ---       #70
      00FF9961H   LINE      CODE     ---       #71
      00FF9969H   LINE      CODE     ---       #73
      00FF996CH   LINE      CODE     ---       #74
      00FF9971H   LINE      CODE     ---       #75
      00FF9974H   LINE      CODE     ---       #77
L251 LINKER/LOCATER V4.66.93.0                                                        11/20/2024  19:22:33  PAGE 40


      00FF997CH   LINE      CODE     ---       #78
      00FF9984H   LINE      CODE     ---       #79
      00FF9992H   LINE      CODE     ---       #81
      00FF9995H   LINE      CODE     ---       #82
      00FF9998H   LINE      CODE     ---       #84
      00FF99ABH   LINE      CODE     ---       #87
      00FF99ABH   LINE      CODE     ---       #88
      ---         BLOCKEND  ---      ---       LVL=0

      ---         MODULE    ---      ---       zf_delay
      00FFA80EH   PUBLIC    CODE     ---       delay_init
      00FFA407H   PUBLIC    CODE     ---       delay_ms
      00001207H   PUBLIC    EDATA    WORD      zf_delay_ms
      00001209H   PUBLIC    EDATA    WORD      zf_delay_us
      000000D0H   SFRSYM    DATA     BYTE      PSW
      0000009DH   SFRSYM    DATA     BYTE      IRCBAND
      00000097H   SFRSYM    DATA     BYTE      AUXR2
      000000EFH   SFRSYM    DATA     BYTE      AUXINTIF
      000000FDH   SFRSYM    DATA     BYTE      S4CON
      000000ACH   SFRSYM    DATA     BYTE      S3CON
      0000009AH   SFRSYM    DATA     BYTE      S2CON
      000000B7H   SFRSYM    DATA     BYTE      IPH
      000000CDH   SFRSYM    DATA     BYTE      SPSTAT
      000000DDH   SFRSYM    DATA     BYTE      T4T3M
      000000C1H   SFRSYM    DATA     BYTE      WDT_CONTR
      000000DFH   SFRSYM    DATA     BYTE      IP3
      000000F4H   SFRSYM    DATA     BYTE      USBCON
      000000B5H   SFRSYM    DATA     BYTE      IP2
      000000FFH   SFRSYM    DATA     BYTE      RSTCFG
      000000C7H   SFRSYM    DATA     BYTE      IAP_CONTR
      000000F9H   SFRSYM    DATA     BYTE      LINICR
      0000008EH   SFRSYM    DATA     BYTE      AUXR
      000000AFH   SFRSYM    DATA     BYTE      IE2
      00000088H   SFRSYM    DATA     BYTE      TCON
      00000089H   SFRSYM    DATA     BYTE      TMOD
      00000098H   SFRSYM    DATA     BYTE      SCON
      000000F1H   SFRSYM    DATA     BYTE      CANICR
      00000087H   SFRSYM    DATA     BYTE      PCON
      000000BCH   SFRSYM    DATA     BYTE      ADC_CONTR
      000000E7H   SFRSYM    DATA     BYTE      CMPCR2
      000000E6H   SFRSYM    DATA     BYTE      CMPCR1
      000000DEH   SFRSYM    DATA     BYTE      ADCCFG
      000000B8H   SFRSYM    DATA     BYTE      IP
      0000008FH   SFRSYM    DATA     BYTE      INTCLKO
      000000EEH   SFRSYM    DATA     BYTE      IP3H
      000000B6H   SFRSYM    DATA     BYTE      IP2H
      000000A8H   SFRSYM    DATA     BYTE      IE
      000000BBH   SFRSYM    DATA     BYTE      P_SW3
      000000BAH   SFRSYM    DATA     BYTE      P_SW2
      000000A2H   SFRSYM    DATA     BYTE      P_SW1
      000000CEH   SFRSYM    DATA     BYTE      SPCTL
      000000F8H   SFRSYM    DATA     BYTE      P7
      000000E8H   SFRSYM    DATA     BYTE      P6
      000000C8H   SFRSYM    DATA     BYTE      P5
      000000C0H   SFRSYM    DATA     BYTE      P4
      000000B0H   SFRSYM    DATA     BYTE      P3
      000000A0H   SFRSYM    DATA     BYTE      P2
      00000090H   SFRSYM    DATA     BYTE      P1
      00000080H   SFRSYM    DATA     BYTE      P0

      00FFA80EH   BLOCK     CODE     ---       LVL=0
      00FFA80EH   LINE      CODE     ---       #34
      00FFA80EH   LINE      CODE     ---       #36
      00FFA81DH   LINE      CODE     ---       #37
      00FFA830H   LINE      CODE     ---       #38
L251 LINKER/LOCATER V4.66.93.0                                                        11/20/2024  19:22:33  PAGE 41


      ---         BLOCKEND  ---      ---       LVL=0

      00FFA407H   BLOCK     CODE     ---       LVL=0
      0000120BH   SYMBOL    EDATA    WORD      ms
      00FFA40BH   BLOCK     CODE     NEAR LAB  LVL=1
      0000120DH   SYMBOL    EDATA    WORD      i
      ---         BLOCKEND  ---      ---       LVL=1
      00FFA407H   LINE      CODE     ---       #46
      00FFA40BH   LINE      CODE     ---       #47
      00FFA40BH   LINE      CODE     ---       #49
      00FFA40BH   LINE      CODE     ---       #50
      00FFA413H   LINE      CODE     ---       #51
      00FFA427H   LINE      CODE     ---       #52
      00FFA43BH   LINE      CODE     ---       #53
      ---         BLOCKEND  ---      ---       LVL=0
      00001129H   SYMBOL    EDATA    DWORD     us
      0000112DH   SYMBOL    EDATA    WORD      i

      ---         MODULE    ---      ---       zf_eeprom
      00FFAA4AH   PUBLIC    CODE     ---       iap_set_tps
      00FFAB74H   PUBLIC    CODE     ---       eeprom_trig
      00000EBFH   PUBLIC    EDATA    BYTE      ?iap_read_bytes?BYTE
      00000EC9H   PUBLIC    EDATA    BYTE      ?iap_write_bytes?BYTE
      000000D0H   SFRSYM    DATA     BYTE      PSW
      0000009DH   SFRSYM    DATA     BYTE      IRCBAND
      000000D0H.5 SFRSYM    DATA     BIT       F0
      00000097H   SFRSYM    DATA     BYTE      AUXR2
      000000C6H   SFRSYM    DATA     BYTE      IAP_TRIG
      000000EFH   SFRSYM    DATA     BYTE      AUXINTIF
      000000FDH   SFRSYM    DATA     BYTE      S4CON
      000000ACH   SFRSYM    DATA     BYTE      S3CON
      0000009AH   SFRSYM    DATA     BYTE      S2CON
      000000B7H   SFRSYM    DATA     BYTE      IPH
      000000CDH   SFRSYM    DATA     BYTE      SPSTAT
      000000DDH   SFRSYM    DATA     BYTE      T4T3M
      000000C1H   SFRSYM    DATA     BYTE      WDT_CONTR
      000000C2H   SFRSYM    DATA     BYTE      IAP_DATA
      000000DFH   SFRSYM    DATA     BYTE      IP3
      000000F4H   SFRSYM    DATA     BYTE      USBCON
      000000B5H   SFRSYM    DATA     BYTE      IP2
      000000FFH   SFRSYM    DATA     BYTE      RSTCFG
      000000C7H   SFRSYM    DATA     BYTE      IAP_CONTR
      000000F9H   SFRSYM    DATA     BYTE      LINICR
      0000008EH   SFRSYM    DATA     BYTE      AUXR
      000000AFH   SFRSYM    DATA     BYTE      IE2
      00000088H   SFRSYM    DATA     BYTE      TCON
      00000089H   SFRSYM    DATA     BYTE      TMOD
      00000098H   SFRSYM    DATA     BYTE      SCON
      000000F5H   SFRSYM    DATA     BYTE      IAP_TPS
      000000F1H   SFRSYM    DATA     BYTE      CANICR
      00000087H   SFRSYM    DATA     BYTE      PCON
      000000BCH   SFRSYM    DATA     BYTE      ADC_CONTR
      000000E7H   SFRSYM    DATA     BYTE      CMPCR2
      000000E6H   SFRSYM    DATA     BYTE      CMPCR1
      000000C4H   SFRSYM    DATA     BYTE      IAP_ADDRL
      000000C3H   SFRSYM    DATA     BYTE      IAP_ADDRH
      000000F6H   SFRSYM    DATA     BYTE      IAP_ADDRE
      000000DEH   SFRSYM    DATA     BYTE      ADCCFG
      000000B8H   SFRSYM    DATA     BYTE      IP
      0000008FH   SFRSYM    DATA     BYTE      INTCLKO
      000000EEH   SFRSYM    DATA     BYTE      IP3H
      000000B6H   SFRSYM    DATA     BYTE      IP2H
      000000C5H   SFRSYM    DATA     BYTE      IAP_CMD
      000000A8H   SFRSYM    DATA     BYTE      IE
      000000BBH   SFRSYM    DATA     BYTE      P_SW3
L251 LINKER/LOCATER V4.66.93.0                                                        11/20/2024  19:22:33  PAGE 42


      000000BAH   SFRSYM    DATA     BYTE      P_SW2
      000000A2H   SFRSYM    DATA     BYTE      P_SW1
      000000CEH   SFRSYM    DATA     BYTE      SPCTL
      000000F8H   SFRSYM    DATA     BYTE      P7
      000000A8H.7 SFRSYM    DATA     BIT       EA
      000000E8H   SFRSYM    DATA     BYTE      P6
      000000C8H   SFRSYM    DATA     BYTE      P5
      000000C0H   SFRSYM    DATA     BYTE      P4
      000000B0H   SFRSYM    DATA     BYTE      P3
      000000A0H   SFRSYM    DATA     BYTE      P2
      00000090H   SFRSYM    DATA     BYTE      P1
      00000080H   SFRSYM    DATA     BYTE      P0

      00FFAB74H   BLOCK     CODE     ---       LVL=0
      00FFAB74H   LINE      CODE     ---       #30
      00FFAB74H   LINE      CODE     ---       #32
      00FFAB78H   LINE      CODE     ---       #33
      00FFAB7CH   LINE      CODE     ---       #34
      00FFAB80H   LINE      CODE     ---       #37
      00FFAB81H   LINE      CODE     ---       #38
      00FFAB82H   LINE      CODE     ---       #39
      00FFAB83H   LINE      CODE     ---       #40
      00FFAB84H   LINE      CODE     ---       #42
      00FFAB88H   LINE      CODE     ---       #43
      ---         BLOCKEND  ---      ---       LVL=0

      00FFAA4AH   BLOCK     CODE     ---       LVL=0
      00001307H   SYMBOL    EDATA    BYTE      write_time
      00FFAA4AH   LINE      CODE     ---       #91
      00FFAA4AH   LINE      CODE     ---       #92
      00FFAA4AH   LINE      CODE     ---       #94
      00FFAA5DH   LINE      CODE     ---       #95
      00FFAA63H   LINE      CODE     ---       #96
      ---         BLOCKEND  ---      ---       LVL=0
      00000EBFH   SYMBOL    EDATA    DWORD     addr
      00000EC3H   SYMBOL    EDATA    ---       buf
      00000EC7H   SYMBOL    EDATA    WORD      len
      00000EC9H   SYMBOL    EDATA    DWORD     addr
      00000ECDH   SYMBOL    EDATA    ---       buf
      00000ED1H   SYMBOL    EDATA    WORD      len
      0000120FH   SYMBOL    EDATA    DWORD     addr

      ---         MODULE    ---      ---       zf_exti
      000000D0H   SFRSYM    DATA     BYTE      PSW
      0000009DH   SFRSYM    DATA     BYTE      IRCBAND
      00000097H   SFRSYM    DATA     BYTE      AUXR2
      000000EFH   SFRSYM    DATA     BYTE      AUXINTIF
      000000FDH   SFRSYM    DATA     BYTE      S4CON
      000000ACH   SFRSYM    DATA     BYTE      S3CON
      0000009AH   SFRSYM    DATA     BYTE      S2CON
      000000B7H   SFRSYM    DATA     BYTE      IPH
      000000CDH   SFRSYM    DATA     BYTE      SPSTAT
      000000DDH   SFRSYM    DATA     BYTE      T4T3M
      000000C1H   SFRSYM    DATA     BYTE      WDT_CONTR
      00000088H.2 SFRSYM    DATA     BIT       IT1
      000000A8H.2 SFRSYM    DATA     BIT       EX1
      00000088H.0 SFRSYM    DATA     BIT       IT0
      000000A8H.0 SFRSYM    DATA     BIT       EX0
      000000DFH   SFRSYM    DATA     BYTE      IP3
      000000F4H   SFRSYM    DATA     BYTE      USBCON
      000000B5H   SFRSYM    DATA     BYTE      IP2
      000000FFH   SFRSYM    DATA     BYTE      RSTCFG
      000000C7H   SFRSYM    DATA     BYTE      IAP_CONTR
      000000F9H   SFRSYM    DATA     BYTE      LINICR
      0000008EH   SFRSYM    DATA     BYTE      AUXR
L251 LINKER/LOCATER V4.66.93.0                                                        11/20/2024  19:22:33  PAGE 43


      000000AFH   SFRSYM    DATA     BYTE      IE2
      00000088H   SFRSYM    DATA     BYTE      TCON
      00000089H   SFRSYM    DATA     BYTE      TMOD
      00000098H   SFRSYM    DATA     BYTE      SCON
      000000F1H   SFRSYM    DATA     BYTE      CANICR
      00000087H   SFRSYM    DATA     BYTE      PCON
      000000BCH   SFRSYM    DATA     BYTE      ADC_CONTR
      000000E7H   SFRSYM    DATA     BYTE      CMPCR2
      000000E6H   SFRSYM    DATA     BYTE      CMPCR1
      000000DEH   SFRSYM    DATA     BYTE      ADCCFG
      000000B8H   SFRSYM    DATA     BYTE      IP
      0000008FH   SFRSYM    DATA     BYTE      INTCLKO
      000000EEH   SFRSYM    DATA     BYTE      IP3H
      000000B6H   SFRSYM    DATA     BYTE      IP2H
      000000A8H   SFRSYM    DATA     BYTE      IE
      000000BBH   SFRSYM    DATA     BYTE      P_SW3
      000000BAH   SFRSYM    DATA     BYTE      P_SW2
      000000A2H   SFRSYM    DATA     BYTE      P_SW1
      000000CEH   SFRSYM    DATA     BYTE      SPCTL
      000000F8H   SFRSYM    DATA     BYTE      P7
      000000E8H   SFRSYM    DATA     BYTE      P6
      000000C8H   SFRSYM    DATA     BYTE      P5
      000000C0H   SFRSYM    DATA     BYTE      P4
      000000B0H   SFRSYM    DATA     BYTE      P3
      000000A0H   SFRSYM    DATA     BYTE      P2
      00000090H   SFRSYM    DATA     BYTE      P1
      00000080H   SFRSYM    DATA     BYTE      P0
      00001213H   SYMBOL    EDATA    INT       int_n
      00001215H   SYMBOL    EDATA    INT       mode

      ---         MODULE    ---      ---       zf_gpio
      00FF374DH   PUBLIC    CODE     ---       gpio_mode
      00000094H   SFRSYM    DATA     BYTE      P0M0
      000000D0H   SFRSYM    DATA     BYTE      PSW
      0000009DH   SFRSYM    DATA     BYTE      IRCBAND
      00000097H   SFRSYM    DATA     BYTE      AUXR2
      000000EFH   SFRSYM    DATA     BYTE      AUXINTIF
      000000FDH   SFRSYM    DATA     BYTE      S4CON
      000000ACH   SFRSYM    DATA     BYTE      S3CON
      0000009AH   SFRSYM    DATA     BYTE      S2CON
      000000B7H   SFRSYM    DATA     BYTE      IPH
      000000CDH   SFRSYM    DATA     BYTE      SPSTAT
      000000DDH   SFRSYM    DATA     BYTE      T4T3M
      000000C1H   SFRSYM    DATA     BYTE      WDT_CONTR
      000000DFH   SFRSYM    DATA     BYTE      IP3
      000000F4H   SFRSYM    DATA     BYTE      USBCON
      000000B5H   SFRSYM    DATA     BYTE      IP2
      000000FFH   SFRSYM    DATA     BYTE      RSTCFG
      000000C7H   SFRSYM    DATA     BYTE      IAP_CONTR
      000000F9H   SFRSYM    DATA     BYTE      LINICR
      0000008EH   SFRSYM    DATA     BYTE      AUXR
      000000AFH   SFRSYM    DATA     BYTE      IE2
      00000088H   SFRSYM    DATA     BYTE      TCON
      00000089H   SFRSYM    DATA     BYTE      TMOD
      00000098H   SFRSYM    DATA     BYTE      SCON
      000000F1H   SFRSYM    DATA     BYTE      CANICR
      00000087H   SFRSYM    DATA     BYTE      PCON
      000000BCH   SFRSYM    DATA     BYTE      ADC_CONTR
      000000E7H   SFRSYM    DATA     BYTE      CMPCR2
      000000E6H   SFRSYM    DATA     BYTE      CMPCR1
      000000DEH   SFRSYM    DATA     BYTE      ADCCFG
      000000B8H   SFRSYM    DATA     BYTE      IP
      0000008FH   SFRSYM    DATA     BYTE      INTCLKO
      000000EEH   SFRSYM    DATA     BYTE      IP3H
      000000B6H   SFRSYM    DATA     BYTE      IP2H
L251 LINKER/LOCATER V4.66.93.0                                                        11/20/2024  19:22:33  PAGE 44


      000000A8H   SFRSYM    DATA     BYTE      IE
      000000BBH   SFRSYM    DATA     BYTE      P_SW3
      000000BAH   SFRSYM    DATA     BYTE      P_SW2
      000000A2H   SFRSYM    DATA     BYTE      P_SW1
      000000CEH   SFRSYM    DATA     BYTE      SPCTL
      000000F8H   SFRSYM    DATA     BYTE      P7
      000000E1H   SFRSYM    DATA     BYTE      P7M1
      000000E8H   SFRSYM    DATA     BYTE      P6
      000000C8H   SFRSYM    DATA     BYTE      P5
      000000CBH   SFRSYM    DATA     BYTE      P6M1
      000000E2H   SFRSYM    DATA     BYTE      P7M0
      000000C0H   SFRSYM    DATA     BYTE      P4
      000000C9H   SFRSYM    DATA     BYTE      P5M1
      000000CCH   SFRSYM    DATA     BYTE      P6M0
      000000B0H   SFRSYM    DATA     BYTE      P3
      000000B3H   SFRSYM    DATA     BYTE      P4M1
      000000CAH   SFRSYM    DATA     BYTE      P5M0
      000000A0H   SFRSYM    DATA     BYTE      P2
      000000B1H   SFRSYM    DATA     BYTE      P3M1
      000000B4H   SFRSYM    DATA     BYTE      P4M0
      00000090H   SFRSYM    DATA     BYTE      P1
      00000095H   SFRSYM    DATA     BYTE      P2M1
      000000B2H   SFRSYM    DATA     BYTE      P3M0
      00000080H   SFRSYM    DATA     BYTE      P0
      00000091H   SFRSYM    DATA     BYTE      P1M1
      00000096H   SFRSYM    DATA     BYTE      P2M0
      00000092H   SFRSYM    DATA     BYTE      P1M0
      00000093H   SFRSYM    DATA     BYTE      P0M1
      00001217H   SYMBOL    EDATA    INT       pin
      00001219H   SYMBOL    EDATA    INT       pull

      00FF374DH   BLOCK     CODE     ---       LVL=0
      0000121BH   SYMBOL    EDATA    INT       pin
      0000121DH   SYMBOL    EDATA    INT       mode
      00FF374DH   LINE      CODE     ---       #54
      00FF3755H   LINE      CODE     ---       #56
      00FF3762H   LINE      CODE     ---       #58
      00FF3772H   LINE      CODE     ---       #60
      00FF378DH   LINE      CODE     ---       #61
      00FF37A8H   LINE      CODE     ---       #62
      00FF37A8H   LINE      CODE     ---       #63
      00FF37BAH   LINE      CODE     ---       #65
      00FF37D5H   LINE      CODE     ---       #66
      00FF37F0H   LINE      CODE     ---       #67
      00FF37F0H   LINE      CODE     ---       #68
      00FF3802H   LINE      CODE     ---       #70
      00FF381DH   LINE      CODE     ---       #71
      00FF3838H   LINE      CODE     ---       #72
      00FF3838H   LINE      CODE     ---       #74
      00FF384AH   LINE      CODE     ---       #76
      00FF3865H   LINE      CODE     ---       #77
      00FF3880H   LINE      CODE     ---       #78
      00FF3880H   LINE      CODE     ---       #79
      00FF3892H   LINE      CODE     ---       #81
      00FF38ADH   LINE      CODE     ---       #82
      00FF38C8H   LINE      CODE     ---       #83
      00FF38C8H   LINE      CODE     ---       #84
      00FF38DAH   LINE      CODE     ---       #86
      00FF38F5H   LINE      CODE     ---       #87
      00FF3910H   LINE      CODE     ---       #88
      00FF3910H   LINE      CODE     ---       #89
      00FF3922H   LINE      CODE     ---       #91
      00FF393DH   LINE      CODE     ---       #92
      00FF3958H   LINE      CODE     ---       #93
      00FF3958H   LINE      CODE     ---       #94
L251 LINKER/LOCATER V4.66.93.0                                                        11/20/2024  19:22:33  PAGE 45


      00FF396DH   LINE      CODE     ---       #96
      00FF3988H   LINE      CODE     ---       #97
      00FF39A3H   LINE      CODE     ---       #98
      00FF39A6H   LINE      CODE     ---       #100
      00FF39B5H   LINE      CODE     ---       #102
      00FF39C5H   LINE      CODE     ---       #104
      00FF39E0H   LINE      CODE     ---       #105
      00FF39F9H   LINE      CODE     ---       #106
      00FF39F9H   LINE      CODE     ---       #107
      00FF3A0BH   LINE      CODE     ---       #109
      00FF3A26H   LINE      CODE     ---       #110
      00FF3A3FH   LINE      CODE     ---       #111
      00FF3A3FH   LINE      CODE     ---       #112
      00FF3A51H   LINE      CODE     ---       #114
      00FF3A6CH   LINE      CODE     ---       #115
      00FF3A85H   LINE      CODE     ---       #116
      00FF3A85H   LINE      CODE     ---       #118
      00FF3A97H   LINE      CODE     ---       #120
      00FF3AB2H   LINE      CODE     ---       #121
      00FF3ACBH   LINE      CODE     ---       #122
      00FF3ACBH   LINE      CODE     ---       #123
      00FF3ADDH   LINE      CODE     ---       #125
      00FF3AF8H   LINE      CODE     ---       #126
      00FF3B11H   LINE      CODE     ---       #127
      00FF3B11H   LINE      CODE     ---       #128
      00FF3B23H   LINE      CODE     ---       #130
      00FF3B3EH   LINE      CODE     ---       #131
      00FF3B57H   LINE      CODE     ---       #132
      00FF3B57H   LINE      CODE     ---       #133
      00FF3B69H   LINE      CODE     ---       #135
      00FF3B84H   LINE      CODE     ---       #136
      00FF3B9DH   LINE      CODE     ---       #137
      00FF3B9DH   LINE      CODE     ---       #138
      00FF3BB2H   LINE      CODE     ---       #140
      00FF3BCDH   LINE      CODE     ---       #141
      00FF3BE6H   LINE      CODE     ---       #142
      00FF3BE9H   LINE      CODE     ---       #145
      00FF3BF8H   LINE      CODE     ---       #147
      00FF3C08H   LINE      CODE     ---       #149
      00FF3C21H   LINE      CODE     ---       #150
      00FF3C3CH   LINE      CODE     ---       #151
      00FF3C3CH   LINE      CODE     ---       #152
      00FF3C4EH   LINE      CODE     ---       #154
      00FF3C67H   LINE      CODE     ---       #155
      00FF3C82H   LINE      CODE     ---       #156
      00FF3C82H   LINE      CODE     ---       #157
      00FF3C94H   LINE      CODE     ---       #159
      00FF3CADH   LINE      CODE     ---       #160
      00FF3CC8H   LINE      CODE     ---       #161
      00FF3CC8H   LINE      CODE     ---       #163
      00FF3CDAH   LINE      CODE     ---       #165
      00FF3CF3H   LINE      CODE     ---       #166
      00FF3D0EH   LINE      CODE     ---       #167
      00FF3D0EH   LINE      CODE     ---       #168
      00FF3D20H   LINE      CODE     ---       #170
      00FF3D39H   LINE      CODE     ---       #171
      00FF3D54H   LINE      CODE     ---       #172
      00FF3D54H   LINE      CODE     ---       #173
      00FF3D66H   LINE      CODE     ---       #175
      00FF3D7FH   LINE      CODE     ---       #176
      00FF3D9AH   LINE      CODE     ---       #177
      00FF3D9AH   LINE      CODE     ---       #178
      00FF3DACH   LINE      CODE     ---       #180
      00FF3DC5H   LINE      CODE     ---       #181
      00FF3DE0H   LINE      CODE     ---       #182
L251 LINKER/LOCATER V4.66.93.0                                                        11/20/2024  19:22:33  PAGE 46


      00FF3DE0H   LINE      CODE     ---       #183
      00FF3DF5H   LINE      CODE     ---       #185
      00FF3E0EH   LINE      CODE     ---       #186
      00FF3E29H   LINE      CODE     ---       #187
      00FF3E2CH   LINE      CODE     ---       #189
      00FF3E3BH   LINE      CODE     ---       #191
      00FF3E4BH   LINE      CODE     ---       #193
      00FF3E64H   LINE      CODE     ---       #194
      00FF3E7DH   LINE      CODE     ---       #195
      00FF3E7DH   LINE      CODE     ---       #196
      00FF3E8FH   LINE      CODE     ---       #198
      00FF3EA8H   LINE      CODE     ---       #199
      00FF3EC1H   LINE      CODE     ---       #200
      00FF3EC1H   LINE      CODE     ---       #201
      00FF3ED3H   LINE      CODE     ---       #203
      00FF3EECH   LINE      CODE     ---       #204
      00FF3F05H   LINE      CODE     ---       #205
      00FF3F05H   LINE      CODE     ---       #207
      00FF3F17H   LINE      CODE     ---       #209
      00FF3F30H   LINE      CODE     ---       #210
      00FF3F49H   LINE      CODE     ---       #211
      00FF3F49H   LINE      CODE     ---       #212
      00FF3F5BH   LINE      CODE     ---       #214
      00FF3F74H   LINE      CODE     ---       #215
      00FF3F8DH   LINE      CODE     ---       #216
      00FF3F8DH   LINE      CODE     ---       #217
      00FF3F9FH   LINE      CODE     ---       #219
      00FF3FB8H   LINE      CODE     ---       #220
      00FF3FD1H   LINE      CODE     ---       #221
      00FF3FD1H   LINE      CODE     ---       #222
      00FF3FE3H   LINE      CODE     ---       #224
      00FF3FFCH   LINE      CODE     ---       #225
      00FF4015H   LINE      CODE     ---       #226
      00FF4015H   LINE      CODE     ---       #227
      00FF4027H   LINE      CODE     ---       #229
      00FF4040H   LINE      CODE     ---       #230
      00FF4059H   LINE      CODE     ---       #231
      00FF4059H   LINE      CODE     ---       #233
      ---         BLOCKEND  ---      ---       LVL=0

      ---         MODULE    ---      ---       zf_iic
      00FFA665H   PUBLIC    CODE     ---       send_data
      00FFA9F8H   PUBLIC    CODE     ---       recv_data
      00FFAB89H   PUBLIC    CODE     ---       start
      00FF9851H   PUBLIC    CODE     ---       wait
      00FFA898H   PUBLIC    CODE     ---       send_ack
      00FFAB9EH   PUBLIC    CODE     ---       recv_ack
      00FFABB3H   PUBLIC    CODE     ---       stop
      00FFA43CH   PUBLIC    CODE     ---       iic_delay_us
      0000112BH   PUBLIC    EDATA    BYTE      ?iic_init?BYTE
      000000D0H   SFRSYM    DATA     BYTE      PSW
      0000009DH   SFRSYM    DATA     BYTE      IRCBAND
      00000097H   SFRSYM    DATA     BYTE      AUXR2
      000000EFH   SFRSYM    DATA     BYTE      AUXINTIF
      000000FDH   SFRSYM    DATA     BYTE      S4CON
      000000ACH   SFRSYM    DATA     BYTE      S3CON
      0000009AH   SFRSYM    DATA     BYTE      S2CON
      000000B7H   SFRSYM    DATA     BYTE      IPH
      000000CDH   SFRSYM    DATA     BYTE      SPSTAT
      000000DDH   SFRSYM    DATA     BYTE      T4T3M
      000000C1H   SFRSYM    DATA     BYTE      WDT_CONTR
      000000DFH   SFRSYM    DATA     BYTE      IP3
      000000F4H   SFRSYM    DATA     BYTE      USBCON
      000000B5H   SFRSYM    DATA     BYTE      IP2
      000000FFH   SFRSYM    DATA     BYTE      RSTCFG
L251 LINKER/LOCATER V4.66.93.0                                                        11/20/2024  19:22:33  PAGE 47


      000000C7H   SFRSYM    DATA     BYTE      IAP_CONTR
      000000F9H   SFRSYM    DATA     BYTE      LINICR
      0000008EH   SFRSYM    DATA     BYTE      AUXR
      000000AFH   SFRSYM    DATA     BYTE      IE2
      00000088H   SFRSYM    DATA     BYTE      TCON
      00000089H   SFRSYM    DATA     BYTE      TMOD
      00000098H   SFRSYM    DATA     BYTE      SCON
      000000F1H   SFRSYM    DATA     BYTE      CANICR
      00000087H   SFRSYM    DATA     BYTE      PCON
      000000BCH   SFRSYM    DATA     BYTE      ADC_CONTR
      000000E7H   SFRSYM    DATA     BYTE      CMPCR2
      000000E6H   SFRSYM    DATA     BYTE      CMPCR1
      000000DEH   SFRSYM    DATA     BYTE      ADCCFG
      000000B8H   SFRSYM    DATA     BYTE      IP
      0000008FH   SFRSYM    DATA     BYTE      INTCLKO
      000000EEH   SFRSYM    DATA     BYTE      IP3H
      000000B6H   SFRSYM    DATA     BYTE      IP2H
      000000A8H   SFRSYM    DATA     BYTE      IE
      000000BBH   SFRSYM    DATA     BYTE      P_SW3
      000000BAH   SFRSYM    DATA     BYTE      P_SW2
      000000A2H   SFRSYM    DATA     BYTE      P_SW1
      000000CEH   SFRSYM    DATA     BYTE      SPCTL
      000000F8H   SFRSYM    DATA     BYTE      P7
      000000E8H   SFRSYM    DATA     BYTE      P6
      000000C8H   SFRSYM    DATA     BYTE      P5
      000000C0H   SFRSYM    DATA     BYTE      P4
      000000B0H   SFRSYM    DATA     BYTE      P3
      000000A0H   SFRSYM    DATA     BYTE      P2
      00000090H   SFRSYM    DATA     BYTE      P1
      00000080H   SFRSYM    DATA     BYTE      P0

      00FFA43CH   BLOCK     CODE     ---       LVL=0
      0000126BH   SYMBOL    EDATA    WORD      x
      00FFA440H   BLOCK     CODE     NEAR LAB  LVL=1
      0000126DH   SYMBOL    EDATA    BYTE      i
      ---         BLOCKEND  ---      ---       LVL=1
      00FFA43CH   LINE      CODE     ---       #30
      00FFA440H   LINE      CODE     ---       #31
      00FFA440H   LINE      CODE     ---       #33
      00FFA442H   LINE      CODE     ---       #35
      00FFA448H   LINE      CODE     ---       #36
      00FFA45AH   LINE      CODE     ---       #37
      00FFA470H   LINE      CODE     ---       #38
      ---         BLOCKEND  ---      ---       LVL=0

      00FF9851H   BLOCK     CODE     ---       LVL=0
      0000126EH   SYMBOL    EDATA    WORD      count
      00001270H   SYMBOL    EDATA    BYTE      ret
      00FF9851H   LINE      CODE     ---       #47
      00FF9851H   LINE      CODE     ---       #48
      00FF9851H   LINE      CODE     ---       #49
      00FF9857H   LINE      CODE     ---       #50
      00FF985CH   LINE      CODE     ---       #51
      00FF985EH   LINE      CODE     ---       #53
      00FF9865H   LINE      CODE     ---       #54
      00FF987BH   LINE      CODE     ---       #56
      00FF9881H   LINE      CODE     ---       #57
      00FF9883H   LINE      CODE     ---       #58
      00FF9891H   LINE      CODE     ---       #60
      00FF98A3H   LINE      CODE     ---       #61
      00FF98A7H   LINE      CODE     ---       #62
      ---         BLOCKEND  ---      ---       LVL=0

      00FFAB89H   BLOCK     CODE     ---       LVL=0
      00001308H   SYMBOL    EDATA    BYTE      ret
L251 LINKER/LOCATER V4.66.93.0                                                        11/20/2024  19:22:33  PAGE 48


      00FFAB89H   LINE      CODE     ---       #70
      00FFAB89H   LINE      CODE     ---       #71
      00FFAB89H   LINE      CODE     ---       #73
      00FFAB96H   LINE      CODE     ---       #74
      00FFAB9DH   LINE      CODE     ---       #75
      00FFAB9DH   LINE      CODE     ---       #76
      ---         BLOCKEND  ---      ---       LVL=0

      00FFA665H   BLOCK     CODE     ---       LVL=0
      000012B2H   SYMBOL    EDATA    CHAR      dat
      00FFA669H   BLOCK     CODE     NEAR LAB  LVL=1
      000012B3H   SYMBOL    EDATA    BYTE      ret
      ---         BLOCKEND  ---      ---       LVL=1
      00FFA665H   LINE      CODE     ---       #84
      00FFA669H   LINE      CODE     ---       #85
      00FFA669H   LINE      CODE     ---       #87
      00FFA678H   LINE      CODE     ---       #88
      00FFA685H   LINE      CODE     ---       #89
      00FFA68CH   LINE      CODE     ---       #90
      00FFA68CH   LINE      CODE     ---       #91
      ---         BLOCKEND  ---      ---       LVL=0

      00FFAB9EH   BLOCK     CODE     ---       LVL=0
      00001309H   SYMBOL    EDATA    BYTE      ret
      00FFAB9EH   LINE      CODE     ---       #99
      00FFAB9EH   LINE      CODE     ---       #100
      00FFAB9EH   LINE      CODE     ---       #102
      00FFABABH   LINE      CODE     ---       #103
      00FFABB2H   LINE      CODE     ---       #104
      00FFABB2H   LINE      CODE     ---       #105
      ---         BLOCKEND  ---      ---       LVL=0

      00FFA9F8H   BLOCK     CODE     ---       LVL=0
      00FFA9F8H   LINE      CODE     ---       #113
      00FFA9F8H   LINE      CODE     ---       #115
      00FFAA05H   LINE      CODE     ---       #116
      00FFAA08H   LINE      CODE     ---       #117
      00FFAA13H   LINE      CODE     ---       #118
      ---         BLOCKEND  ---      ---       LVL=0

      00FFA898H   BLOCK     CODE     ---       LVL=0
      0000130AH   SYMBOL    EDATA    BYTE      ret
      00FFA898H   LINE      CODE     ---       #126
      00FFA898H   LINE      CODE     ---       #127
      00FFA898H   LINE      CODE     ---       #129
      00FFA8A4H   LINE      CODE     ---       #130
      00FFA8B1H   LINE      CODE     ---       #131
      00FFA8B8H   LINE      CODE     ---       #132
      00FFA8B8H   LINE      CODE     ---       #133
      ---         BLOCKEND  ---      ---       LVL=0

      00FFABB3H   BLOCK     CODE     ---       LVL=0
      0000130BH   SYMBOL    EDATA    BYTE      ret
      00FFABB3H   LINE      CODE     ---       #154
      00FFABB3H   LINE      CODE     ---       #155
      00FFABB3H   LINE      CODE     ---       #157
      00FFABC0H   LINE      CODE     ---       #158
      00FFABC7H   LINE      CODE     ---       #159
      00FFABC7H   LINE      CODE     ---       #160
      ---         BLOCKEND  ---      ---       LVL=0
      0000112FH   SYMBOL    EDATA    INT       iic_n
      00001131H   SYMBOL    EDATA    DWORD     wait_time
      00001271H   SYMBOL    EDATA    BYTE      dev_add
      00001272H   SYMBOL    EDATA    BYTE      reg
      00001273H   SYMBOL    EDATA    BYTE      dat
L251 LINKER/LOCATER V4.66.93.0                                                        11/20/2024  19:22:33  PAGE 49


      00001135H   SYMBOL    EDATA    BYTE      dev_add
      00001136H   SYMBOL    EDATA    BYTE      reg
      00001137H   SYMBOL    EDATA    ---       dat
      000010EBH   SYMBOL    EDATA    BYTE      dev_add
      000010ECH   SYMBOL    EDATA    BYTE      reg
      000010EDH   SYMBOL    EDATA    ---       dat
      000010F1H   SYMBOL    EDATA    BYTE      num
      000012B4H   SYMBOL    EDATA    INT       iic_n

      ---         MODULE    ---      ---       zf_nvic
      000000D0H   SFRSYM    DATA     BYTE      PSW
      0000009DH   SFRSYM    DATA     BYTE      IRCBAND
      00000097H   SFRSYM    DATA     BYTE      AUXR2
      000000EFH   SFRSYM    DATA     BYTE      AUXINTIF
      000000FDH   SFRSYM    DATA     BYTE      S4CON
      000000ACH   SFRSYM    DATA     BYTE      S3CON
      0000009AH   SFRSYM    DATA     BYTE      S2CON
      000000B7H   SFRSYM    DATA     BYTE      IPH
      000000CDH   SFRSYM    DATA     BYTE      SPSTAT
      000000DDH   SFRSYM    DATA     BYTE      T4T3M
      000000C1H   SFRSYM    DATA     BYTE      WDT_CONTR
      000000DFH   SFRSYM    DATA     BYTE      IP3
      000000F4H   SFRSYM    DATA     BYTE      USBCON
      000000B5H   SFRSYM    DATA     BYTE      IP2
      000000FFH   SFRSYM    DATA     BYTE      RSTCFG
      000000C7H   SFRSYM    DATA     BYTE      IAP_CONTR
      000000F9H   SFRSYM    DATA     BYTE      LINICR
      0000008EH   SFRSYM    DATA     BYTE      AUXR
      000000AFH   SFRSYM    DATA     BYTE      IE2
      00000088H   SFRSYM    DATA     BYTE      TCON
      00000089H   SFRSYM    DATA     BYTE      TMOD
      00000098H   SFRSYM    DATA     BYTE      SCON
      000000F1H   SFRSYM    DATA     BYTE      CANICR
      00000087H   SFRSYM    DATA     BYTE      PCON
      000000BCH   SFRSYM    DATA     BYTE      ADC_CONTR
      000000E7H   SFRSYM    DATA     BYTE      CMPCR2
      000000E6H   SFRSYM    DATA     BYTE      CMPCR1
      000000DEH   SFRSYM    DATA     BYTE      ADCCFG
      000000B8H   SFRSYM    DATA     BYTE      IP
      0000008FH   SFRSYM    DATA     BYTE      INTCLKO
      000000EEH   SFRSYM    DATA     BYTE      IP3H
      000000B6H   SFRSYM    DATA     BYTE      IP2H
      000000A8H   SFRSYM    DATA     BYTE      IE
      000000BBH   SFRSYM    DATA     BYTE      P_SW3
      000000BAH   SFRSYM    DATA     BYTE      P_SW2
      000000A2H   SFRSYM    DATA     BYTE      P_SW1
      000000CEH   SFRSYM    DATA     BYTE      SPCTL
      000000F8H   SFRSYM    DATA     BYTE      P7
      000000E8H   SFRSYM    DATA     BYTE      P6
      000000C8H   SFRSYM    DATA     BYTE      P5
      000000C0H   SFRSYM    DATA     BYTE      P4
      000000B0H   SFRSYM    DATA     BYTE      P3
      000000A0H   SFRSYM    DATA     BYTE      P2
      00000090H   SFRSYM    DATA     BYTE      P1
      00000080H   SFRSYM    DATA     BYTE      P0
      00001274H   SYMBOL    EDATA    INT       irqn
      00001276H   SYMBOL    EDATA    BYTE      priority

      ---         MODULE    ---      ---       zf_pwm
      00FF71ADH   PUBLIC    CODE     ---       pwm_duty
      00FF5EEFH   PUBLIC    CODE     ---       pwm_set_gpio
      00FF53D7H   PUBLIC    CODE     ---       pwm_init
      00FFB2A3H   PUBLIC    HCONST   ---       PWM_CCR_ADDR
      00FFB2C3H   PUBLIC    HCONST   ---       PWM_ARR_ADDR
      00FFB2CBH   PUBLIC    HCONST   ---       PWM_CCER_ADDR
L251 LINKER/LOCATER V4.66.93.0                                                        11/20/2024  19:22:33  PAGE 50


      00FFB2DBH   PUBLIC    HCONST   ---       PWM_CCMR_ADDR
      00000C52H   PUBLIC    EDATA    BYTE      ?pwm_init?BYTE
      00000C66H   PUBLIC    EDATA    BYTE      ?pwm_freq?BYTE
      000000D0H   SFRSYM    DATA     BYTE      PSW
      0000009DH   SFRSYM    DATA     BYTE      IRCBAND
      00000097H   SFRSYM    DATA     BYTE      AUXR2
      000000EFH   SFRSYM    DATA     BYTE      AUXINTIF
      000000FDH   SFRSYM    DATA     BYTE      S4CON
      000000ACH   SFRSYM    DATA     BYTE      S3CON
      0000009AH   SFRSYM    DATA     BYTE      S2CON
      000000B7H   SFRSYM    DATA     BYTE      IPH
      000000CDH   SFRSYM    DATA     BYTE      SPSTAT
      000000DDH   SFRSYM    DATA     BYTE      T4T3M
      000000C1H   SFRSYM    DATA     BYTE      WDT_CONTR
      000000DFH   SFRSYM    DATA     BYTE      IP3
      000000F4H   SFRSYM    DATA     BYTE      USBCON
      000000B5H   SFRSYM    DATA     BYTE      IP2
      000000FFH   SFRSYM    DATA     BYTE      RSTCFG
      000000C7H   SFRSYM    DATA     BYTE      IAP_CONTR
      000000F9H   SFRSYM    DATA     BYTE      LINICR
      0000008EH   SFRSYM    DATA     BYTE      AUXR
      000000AFH   SFRSYM    DATA     BYTE      IE2
      00000088H   SFRSYM    DATA     BYTE      TCON
      00000089H   SFRSYM    DATA     BYTE      TMOD
      00000098H   SFRSYM    DATA     BYTE      SCON
      000000F1H   SFRSYM    DATA     BYTE      CANICR
      00000087H   SFRSYM    DATA     BYTE      PCON
      000000BCH   SFRSYM    DATA     BYTE      ADC_CONTR
      000000E7H   SFRSYM    DATA     BYTE      CMPCR2
      000000E6H   SFRSYM    DATA     BYTE      CMPCR1
      000000DEH   SFRSYM    DATA     BYTE      ADCCFG
      000000B8H   SFRSYM    DATA     BYTE      IP
      0000008FH   SFRSYM    DATA     BYTE      INTCLKO
      000000EEH   SFRSYM    DATA     BYTE      IP3H
      000000B6H   SFRSYM    DATA     BYTE      IP2H
      000000A8H   SFRSYM    DATA     BYTE      IE
      000000BBH   SFRSYM    DATA     BYTE      P_SW3
      000000BAH   SFRSYM    DATA     BYTE      P_SW2
      000000A2H   SFRSYM    DATA     BYTE      P_SW1
      000000CEH   SFRSYM    DATA     BYTE      SPCTL
      000000F8H   SFRSYM    DATA     BYTE      P7
      000000E8H   SFRSYM    DATA     BYTE      P6
      000000C8H   SFRSYM    DATA     BYTE      P5
      000000C0H   SFRSYM    DATA     BYTE      P4
      000000B0H   SFRSYM    DATA     BYTE      P3
      000000A0H   SFRSYM    DATA     BYTE      P2
      00000090H   SFRSYM    DATA     BYTE      P1
      00000080H   SFRSYM    DATA     BYTE      P0

      00FF5EEFH   BLOCK     CODE     ---       LVL=0
      000012B6H   SYMBOL    EDATA    INT       pwmch
      00FF5EEFH   LINE      CODE     ---       #49
      00FF5EF3H   LINE      CODE     ---       #51
      00FF6065H   LINE      CODE     ---       #53
      00FF6065H   LINE      CODE     ---       #55
      00FF6070H   LINE      CODE     ---       #56
      00FF6073H   LINE      CODE     ---       #58
      00FF6073H   LINE      CODE     ---       #60
      00FF607EH   LINE      CODE     ---       #61
      00FF6081H   LINE      CODE     ---       #63
      00FF6081H   LINE      CODE     ---       #65
      00FF608CH   LINE      CODE     ---       #66
      00FF608FH   LINE      CODE     ---       #68
      00FF608FH   LINE      CODE     ---       #70
      00FF609AH   LINE      CODE     ---       #71
L251 LINKER/LOCATER V4.66.93.0                                                        11/20/2024  19:22:33  PAGE 51


      00FF609DH   LINE      CODE     ---       #84
      00FF609DH   LINE      CODE     ---       #86
      00FF60A8H   LINE      CODE     ---       #87
      00FF60ABH   LINE      CODE     ---       #89
      00FF60ABH   LINE      CODE     ---       #91
      00FF60B6H   LINE      CODE     ---       #92
      00FF60B9H   LINE      CODE     ---       #94
      00FF60B9H   LINE      CODE     ---       #96
      00FF60C4H   LINE      CODE     ---       #97
      00FF60C7H   LINE      CODE     ---       #99
      00FF60C7H   LINE      CODE     ---       #101
      00FF60D2H   LINE      CODE     ---       #102
      00FF60D5H   LINE      CODE     ---       #115
      00FF60D5H   LINE      CODE     ---       #117
      00FF60E0H   LINE      CODE     ---       #118
      00FF60E3H   LINE      CODE     ---       #120
      00FF60E3H   LINE      CODE     ---       #122
      00FF60EEH   LINE      CODE     ---       #123
      00FF60F1H   LINE      CODE     ---       #125
      00FF60F1H   LINE      CODE     ---       #127
      00FF60FCH   LINE      CODE     ---       #128
      00FF60FFH   LINE      CODE     ---       #130
      00FF60FFH   LINE      CODE     ---       #132
      00FF610AH   LINE      CODE     ---       #133
      00FF610DH   LINE      CODE     ---       #147
      00FF610DH   LINE      CODE     ---       #149
      00FF6118H   LINE      CODE     ---       #150
      00FF611BH   LINE      CODE     ---       #152
      00FF611BH   LINE      CODE     ---       #154
      00FF6126H   LINE      CODE     ---       #155
      00FF6129H   LINE      CODE     ---       #157
      00FF6129H   LINE      CODE     ---       #159
      00FF6134H   LINE      CODE     ---       #160
      00FF6137H   LINE      CODE     ---       #162
      00FF6137H   LINE      CODE     ---       #164
      00FF6142H   LINE      CODE     ---       #165
      00FF6145H   LINE      CODE     ---       #177
      00FF6145H   LINE      CODE     ---       #179
      00FF6150H   LINE      CODE     ---       #180
      00FF6153H   LINE      CODE     ---       #182
      00FF6153H   LINE      CODE     ---       #184
      00FF615EH   LINE      CODE     ---       #185
      00FF6161H   LINE      CODE     ---       #189
      00FF6161H   LINE      CODE     ---       #191
      00FF616CH   LINE      CODE     ---       #192
      00FF616FH   LINE      CODE     ---       #194
      00FF616FH   LINE      CODE     ---       #196
      00FF617AH   LINE      CODE     ---       #197
      00FF617CH   LINE      CODE     ---       #199
      00FF617CH   LINE      CODE     ---       #201
      00FF6185H   LINE      CODE     ---       #202
      00FF6187H   LINE      CODE     ---       #210
      00FF6187H   LINE      CODE     ---       #212
      00FF6192H   LINE      CODE     ---       #213
      00FF6194H   LINE      CODE     ---       #215
      00FF6194H   LINE      CODE     ---       #217
      00FF619FH   LINE      CODE     ---       #218
      00FF61A1H   LINE      CODE     ---       #220
      00FF61A1H   LINE      CODE     ---       #222
      00FF61ACH   LINE      CODE     ---       #223
      00FF61AEH   LINE      CODE     ---       #232
      00FF61AEH   LINE      CODE     ---       #234
      00FF61B9H   LINE      CODE     ---       #235
      00FF61BBH   LINE      CODE     ---       #237
      00FF61BBH   LINE      CODE     ---       #239
L251 LINKER/LOCATER V4.66.93.0                                                        11/20/2024  19:22:33  PAGE 52


      00FF61C6H   LINE      CODE     ---       #240
      00FF61C8H   LINE      CODE     ---       #242
      00FF61C8H   LINE      CODE     ---       #244
      00FF61D3H   LINE      CODE     ---       #245
      00FF61D5H   LINE      CODE     ---       #254
      00FF61D5H   LINE      CODE     ---       #256
      00FF61E0H   LINE      CODE     ---       #257
      00FF61E2H   LINE      CODE     ---       #259
      00FF61E2H   LINE      CODE     ---       #261
      00FF61EDH   LINE      CODE     ---       #262
      00FF61EFH   LINE      CODE     ---       #264
      00FF61EFH   LINE      CODE     ---       #266
      00FF61FAH   LINE      CODE     ---       #267
      00FF61FAH   LINE      CODE     ---       #275
      00FF61FAH   LINE      CODE     ---       #277
      ---         BLOCKEND  ---      ---       LVL=0

      00FF53D7H   BLOCK     CODE     ---       LVL=0
      00000C52H   SYMBOL    EDATA    INT       pwmch
      00000C54H   SYMBOL    EDATA    DWORD     freq
      00000C58H   SYMBOL    EDATA    DWORD     duty
      00FF53DFH   BLOCK     CODE     NEAR LAB  LVL=1
      00000C5CH   SYMBOL    EDATA    DWORD     match_temp
      00000C60H   SYMBOL    EDATA    DWORD     period_temp
      00000C64H   SYMBOL    EDATA    WORD      freq_div
      ---         BLOCKEND  ---      ---       LVL=1
      00FF53D7H   LINE      CODE     ---       #290
      00FF53DFH   LINE      CODE     ---       #291
      00FF53DFH   LINE      CODE     ---       #295
      00FF53E5H   LINE      CODE     ---       #298
      00FF53E8H   LINE      CODE     ---       #301
      00FF53EFH   LINE      CODE     ---       #305
      00FF5402H   LINE      CODE     ---       #306
      00FF5411H   LINE      CODE     ---       #307
      00FF542CH   LINE      CODE     ---       #309
      00FF5436H   LINE      CODE     ---       #311
      00FF545DH   LINE      CODE     ---       #312
      00FF545FH   LINE      CODE     ---       #315
      00FF546DH   LINE      CODE     ---       #316
      00FF546DH   LINE      CODE     ---       #319
      00FF547CH   LINE      CODE     ---       #322
      00FF54ADH   LINE      CODE     ---       #323
      00FF54E4H   LINE      CODE     ---       #326
      00FF5536H   LINE      CODE     ---       #329
      00FF5549H   LINE      CODE     ---       #330
      00FF5558H   LINE      CODE     ---       #332
      00FF5565H   LINE      CODE     ---       #333
      00FF5572H   LINE      CODE     ---       #334
      00FF5575H   LINE      CODE     ---       #337
      00FF55B3H   LINE      CODE     ---       #338
      00FF55E6H   LINE      CODE     ---       #341
      00FF5646H   LINE      CODE     ---       #345
      00FF5659H   LINE      CODE     ---       #346
      00FF5668H   LINE      CODE     ---       #348
      00FF5675H   LINE      CODE     ---       #349
      00FF5682H   LINE      CODE     ---       #350
      00FF5682H   LINE      CODE     ---       #353
      00FF56B4H   LINE      CODE     ---       #354
      00FF56ECH   LINE      CODE     ---       #357
      00FF571AH   LINE      CODE     ---       #358
      00FF574EH   LINE      CODE     ---       #361
      00FF577FH   LINE      CODE     ---       #362
      00FF57B0H   LINE      CODE     ---       #367
      ---         BLOCKEND  ---      ---       LVL=0

L251 LINKER/LOCATER V4.66.93.0                                                        11/20/2024  19:22:33  PAGE 53


      00FF71ADH   BLOCK     CODE     ---       LVL=0
      00000D27H   SYMBOL    EDATA    INT       pwmch
      00000D29H   SYMBOL    EDATA    DWORD     duty
      00FF71B5H   BLOCK     CODE     NEAR LAB  LVL=1
      00000D2DH   SYMBOL    EDATA    DWORD     match_temp
      00000D31H   SYMBOL    EDATA    DWORD     arr
      ---         BLOCKEND  ---      ---       LVL=1
      00FF71ADH   LINE      CODE     ---       #377
      00FF71B5H   LINE      CODE     ---       #378
      00FF71B5H   LINE      CODE     ---       #380
      00FF7221H   LINE      CODE     ---       #384
      00FF722BH   LINE      CODE     ---       #386
      00FF7252H   LINE      CODE     ---       #387
      00FF7254H   LINE      CODE     ---       #390
      00FF7262H   LINE      CODE     ---       #391
      00FF7262H   LINE      CODE     ---       #396
      00FF7290H   LINE      CODE     ---       #397
      00FF72C4H   LINE      CODE     ---       #401
      ---         BLOCKEND  ---      ---       LVL=0
      00000C66H   SYMBOL    EDATA    INT       pwmch
      00000C68H   SYMBOL    EDATA    DWORD     freq
      00000C6CH   SYMBOL    EDATA    DWORD     duty
      00000C70H   SYMBOL    EDATA    DWORD     match_temp
      00000C74H   SYMBOL    EDATA    DWORD     period_temp
      00000C78H   SYMBOL    EDATA    WORD      freq_div

      ---         MODULE    ---      ---       zf_spi
      00FF7E3CH   PUBLIC    CODE     ---       spi_init
      00FFACF7H   PUBLIC    CODE     ---       spi_mosi
      00000D89H   PUBLIC    EDATA    BYTE      ?spi_init?BYTE
      000000CFH   SFRSYM    DATA     BYTE      SPDAT
      000000D0H   SFRSYM    DATA     BYTE      PSW
      0000009DH   SFRSYM    DATA     BYTE      IRCBAND
      00000097H   SFRSYM    DATA     BYTE      AUXR2
      000000EFH   SFRSYM    DATA     BYTE      AUXINTIF
      000000FDH   SFRSYM    DATA     BYTE      S4CON
      000000ACH   SFRSYM    DATA     BYTE      S3CON
      0000009AH   SFRSYM    DATA     BYTE      S2CON
      000000B7H   SFRSYM    DATA     BYTE      IPH
      000000CDH   SFRSYM    DATA     BYTE      SPSTAT
      000000DDH   SFRSYM    DATA     BYTE      T4T3M
      000000C1H   SFRSYM    DATA     BYTE      WDT_CONTR
      000000DFH   SFRSYM    DATA     BYTE      IP3
      000000F4H   SFRSYM    DATA     BYTE      USBCON
      000000B5H   SFRSYM    DATA     BYTE      IP2
      000000FFH   SFRSYM    DATA     BYTE      RSTCFG
      000000C7H   SFRSYM    DATA     BYTE      IAP_CONTR
      000000F9H   SFRSYM    DATA     BYTE      LINICR
      0000008EH   SFRSYM    DATA     BYTE      AUXR
      000000AFH   SFRSYM    DATA     BYTE      IE2
      00000088H   SFRSYM    DATA     BYTE      TCON
      00000089H   SFRSYM    DATA     BYTE      TMOD
      00000098H   SFRSYM    DATA     BYTE      SCON
      000000F1H   SFRSYM    DATA     BYTE      CANICR
      00000087H   SFRSYM    DATA     BYTE      PCON
      000000BCH   SFRSYM    DATA     BYTE      ADC_CONTR
      000000E7H   SFRSYM    DATA     BYTE      CMPCR2
      000000E6H   SFRSYM    DATA     BYTE      CMPCR1
      000000DEH   SFRSYM    DATA     BYTE      ADCCFG
      000000B8H   SFRSYM    DATA     BYTE      IP
      0000008FH   SFRSYM    DATA     BYTE      INTCLKO
      000000EEH   SFRSYM    DATA     BYTE      IP3H
      000000B6H   SFRSYM    DATA     BYTE      IP2H
      000000A8H   SFRSYM    DATA     BYTE      IE
      000000BBH   SFRSYM    DATA     BYTE      P_SW3
L251 LINKER/LOCATER V4.66.93.0                                                        11/20/2024  19:22:33  PAGE 54


      000000BAH   SFRSYM    DATA     BYTE      P_SW2
      000000A2H   SFRSYM    DATA     BYTE      P_SW1
      000000CEH   SFRSYM    DATA     BYTE      SPCTL
      000000F8H   SFRSYM    DATA     BYTE      P7
      000000E8H   SFRSYM    DATA     BYTE      P6
      000000C8H   SFRSYM    DATA     BYTE      P5
      000000C0H   SFRSYM    DATA     BYTE      P4
      000000B0H   SFRSYM    DATA     BYTE      P3
      000000A0H   SFRSYM    DATA     BYTE      P2
      00000090H   SFRSYM    DATA     BYTE      P1
      00000080H   SFRSYM    DATA     BYTE      P0

      00FF7E3CH   BLOCK     CODE     ---       LVL=0
      00000D89H   SYMBOL    EDATA    INT       spi_n
      00000D8BH   SYMBOL    EDATA    INT       sck_pin
      00000D8DH   SYMBOL    EDATA    INT       mosi_pin
      00000D8FH   SYMBOL    EDATA    INT       miso_pin
      00000D91H   SYMBOL    EDATA    BYTE      mode
      00000D92H   SYMBOL    EDATA    INT       mstr
      00000D94H   SYMBOL    EDATA    INT       baud
      00FF7E3CH   LINE      CODE     ---       #39
      00FF7E50H   LINE      CODE     ---       #48
      00FF7E5CH   LINE      CODE     ---       #50
      00FF7E6BH   LINE      CODE     ---       #51
      00FF7E6BH   LINE      CODE     ---       #53
      00FF7E77H   LINE      CODE     ---       #55
      00FF7E86H   LINE      CODE     ---       #56
      00FF7E86H   LINE      CODE     ---       #58
      00FF7E92H   LINE      CODE     ---       #60
      00FF7EA1H   LINE      CODE     ---       #61
      00FF7EA1H   LINE      CODE     ---       #64
      00FF7EA4H   LINE      CODE     ---       #65
      00FF7EBAH   LINE      CODE     ---       #67
      00FF7EBAH   LINE      CODE     ---       #68
      00FF7EBEH   LINE      CODE     ---       #69
      00FF7EC0H   LINE      CODE     ---       #70
      00FF7EC0H   LINE      CODE     ---       #71
      00FF7EC3H   LINE      CODE     ---       #72
      00FF7EC5H   LINE      CODE     ---       #73
      00FF7EC5H   LINE      CODE     ---       #74
      00FF7EC8H   LINE      CODE     ---       #75
      00FF7ECAH   LINE      CODE     ---       #76
      00FF7ECAH   LINE      CODE     ---       #77
      00FF7ECDH   LINE      CODE     ---       #78
      00FF7ECDH   LINE      CODE     ---       #79
      00FF7ECDH   LINE      CODE     ---       #81
      00FF7ED0H   LINE      CODE     ---       #82
      00FF7EDFH   LINE      CODE     ---       #84
      00FF7EDFH   LINE      CODE     ---       #86
      00FF7EE1H   LINE      CODE     ---       #87
      00FF7EE1H   LINE      CODE     ---       #88
      00FF7EE4H   LINE      CODE     ---       #89
      00FF7EE6H   LINE      CODE     ---       #90
      00FF7EE6H   LINE      CODE     ---       #91
      00FF7EE9H   LINE      CODE     ---       #92
      00FF7EEBH   LINE      CODE     ---       #93
      00FF7EEBH   LINE      CODE     ---       #94
      00FF7EEEH   LINE      CODE     ---       #95
      00FF7EEEH   LINE      CODE     ---       #96
      00FF7EEEH   LINE      CODE     ---       #99
      00FF7EF6H   LINE      CODE     ---       #101
      00FF7F00H   LINE      CODE     ---       #103
      00FF7F03H   LINE      CODE     ---       #104
      00FF7F06H   LINE      CODE     ---       #105
      00FF7F06H   LINE      CODE     ---       #109
L251 LINKER/LOCATER V4.66.93.0                                                        11/20/2024  19:22:33  PAGE 55


      00FF7F06H   LINE      CODE     ---       #110
      00FF7F09H   LINE      CODE     ---       #111
      ---         BLOCKEND  ---      ---       LVL=0

      00FFACF7H   BLOCK     CODE     ---       LVL=0
      0000130CH   SYMBOL    EDATA    BYTE      dat
      00FFACF7H   LINE      CODE     ---       #121
      00FFACFBH   LINE      CODE     ---       #123
      00FFACFDH   LINE      CODE     ---       #124
      00FFAD02H   LINE      CODE     ---       #125
      00FFAD06H   LINE      CODE     ---       #126
      00FFAD08H   LINE      CODE     ---       #127
      ---         BLOCKEND  ---      ---       LVL=0
      000012B8H   SYMBOL    EDATA    INT       spi_n
      0000130DH   SYMBOL    EDATA    BYTE      mode

      ---         MODULE    ---      ---       zf_tim
      00FF843CH   PUBLIC    CODE     ---       ctimer_count_read
      00FF7ADEH   PUBLIC    CODE     ---       pit_timer_ms
      00FF9A56H   PUBLIC    CODE     ---       ctimer_count_init
      00FF951BH   PUBLIC    CODE     ---       ctimer_count_clean
      000000D0H   SFRSYM    DATA     BYTE      PSW
      0000009DH   SFRSYM    DATA     BYTE      IRCBAND
      00000097H   SFRSYM    DATA     BYTE      AUXR2
      000000EFH   SFRSYM    DATA     BYTE      AUXINTIF
      000000FDH   SFRSYM    DATA     BYTE      S4CON
      000000ACH   SFRSYM    DATA     BYTE      S3CON
      0000009AH   SFRSYM    DATA     BYTE      S2CON
      000000B7H   SFRSYM    DATA     BYTE      IPH
      000000CDH   SFRSYM    DATA     BYTE      SPSTAT
      000000DDH   SFRSYM    DATA     BYTE      T4T3M
      000000C1H   SFRSYM    DATA     BYTE      WDT_CONTR
      00000088H.6 SFRSYM    DATA     BIT       TR1
      00000088H.4 SFRSYM    DATA     BIT       TR0
      000000D3H   SFRSYM    DATA     BYTE      T4L
      000000D5H   SFRSYM    DATA     BYTE      T3L
      000000D7H   SFRSYM    DATA     BYTE      T2L
      0000008BH   SFRSYM    DATA     BYTE      TL1
      0000008AH   SFRSYM    DATA     BYTE      TL0
      000000D2H   SFRSYM    DATA     BYTE      T4H
      000000D4H   SFRSYM    DATA     BYTE      T3H
      000000D6H   SFRSYM    DATA     BYTE      T2H
      0000008DH   SFRSYM    DATA     BYTE      TH1
      0000008CH   SFRSYM    DATA     BYTE      TH0
      000000DFH   SFRSYM    DATA     BYTE      IP3
      000000F4H   SFRSYM    DATA     BYTE      USBCON
      000000B5H   SFRSYM    DATA     BYTE      IP2
      000000FFH   SFRSYM    DATA     BYTE      RSTCFG
      000000A8H.3 SFRSYM    DATA     BIT       ET1
      000000A8H.1 SFRSYM    DATA     BIT       ET0
      000000C7H   SFRSYM    DATA     BYTE      IAP_CONTR
      000000F9H   SFRSYM    DATA     BYTE      LINICR
      0000008EH   SFRSYM    DATA     BYTE      AUXR
      000000AFH   SFRSYM    DATA     BYTE      IE2
      00000088H   SFRSYM    DATA     BYTE      TCON
      00000089H   SFRSYM    DATA     BYTE      TMOD
      00000098H   SFRSYM    DATA     BYTE      SCON
      000000F1H   SFRSYM    DATA     BYTE      CANICR
      00000087H   SFRSYM    DATA     BYTE      PCON
      000000BCH   SFRSYM    DATA     BYTE      ADC_CONTR
      000000E7H   SFRSYM    DATA     BYTE      CMPCR2
      000000E6H   SFRSYM    DATA     BYTE      CMPCR1
      000000DEH   SFRSYM    DATA     BYTE      ADCCFG
      000000B8H   SFRSYM    DATA     BYTE      IP
      0000008FH   SFRSYM    DATA     BYTE      INTCLKO
L251 LINKER/LOCATER V4.66.93.0                                                        11/20/2024  19:22:33  PAGE 56


      000000EEH   SFRSYM    DATA     BYTE      IP3H
      000000B6H   SFRSYM    DATA     BYTE      IP2H
      000000A8H   SFRSYM    DATA     BYTE      IE
      000000BBH   SFRSYM    DATA     BYTE      P_SW3
      000000BAH   SFRSYM    DATA     BYTE      P_SW2
      000000A2H   SFRSYM    DATA     BYTE      P_SW1
      000000CEH   SFRSYM    DATA     BYTE      SPCTL
      000000F8H   SFRSYM    DATA     BYTE      P7
      000000E8H   SFRSYM    DATA     BYTE      P6
      000000C8H   SFRSYM    DATA     BYTE      P5
      000000C0H   SFRSYM    DATA     BYTE      P4
      000000B0H   SFRSYM    DATA     BYTE      P3
      000000A0H   SFRSYM    DATA     BYTE      P2
      00000090H   SFRSYM    DATA     BYTE      P1
      00000080H   SFRSYM    DATA     BYTE      P0

      00FF9A56H   BLOCK     CODE     ---       LVL=0
      000012BAH   SYMBOL    EDATA    INT       tim_n
      00FF9A56H   LINE      CODE     ---       #39
      00FF9A5AH   LINE      CODE     ---       #42
      00FF9A6EH   LINE      CODE     ---       #44
      00FF9A6EH   LINE      CODE     ---       #46
      00FF9A71H   LINE      CODE     ---       #47
      00FF9A74H   LINE      CODE     ---       #48
      00FF9A77H   LINE      CODE     ---       #49
      00FF9A7AH   LINE      CODE     ---       #50
      00FF9A7CH   LINE      CODE     ---       #53
      00FF9A7CH   LINE      CODE     ---       #55
      00FF9A7FH   LINE      CODE     ---       #56
      00FF9A82H   LINE      CODE     ---       #57
      00FF9A85H   LINE      CODE     ---       #58
      00FF9A88H   LINE      CODE     ---       #59
      00FF9A8AH   LINE      CODE     ---       #62
      00FF9A8AH   LINE      CODE     ---       #64
      00FF9A8DH   LINE      CODE     ---       #65
      00FF9A90H   LINE      CODE     ---       #66
      00FF9A93H   LINE      CODE     ---       #67
      00FF9A95H   LINE      CODE     ---       #70
      00FF9A95H   LINE      CODE     ---       #72
      00FF9A98H   LINE      CODE     ---       #73
      00FF9A9BH   LINE      CODE     ---       #74
      00FF9A9EH   LINE      CODE     ---       #75
      00FF9AA0H   LINE      CODE     ---       #78
      00FF9AA0H   LINE      CODE     ---       #80
      00FF9AA3H   LINE      CODE     ---       #81
      00FF9AA6H   LINE      CODE     ---       #82
      00FF9AA9H   LINE      CODE     ---       #83
      00FF9AA9H   LINE      CODE     ---       #86
      00FF9AA9H   LINE      CODE     ---       #87
      ---         BLOCKEND  ---      ---       LVL=0

      00FF843CH   BLOCK     CODE     ---       LVL=0
      0000121FH   SYMBOL    EDATA    INT       tim_n
      00FF8440H   BLOCK     CODE     NEAR LAB  LVL=1
      00001221H   SYMBOL    EDATA    WORD      dat
      ---         BLOCKEND  ---      ---       LVL=1
      00FF843CH   LINE      CODE     ---       #95
      00FF8440H   LINE      CODE     ---       #96
      00FF8440H   LINE      CODE     ---       #97
      00FF8446H   LINE      CODE     ---       #99
      00FF8461H   LINE      CODE     ---       #101
      00FF8461H   LINE      CODE     ---       #103
      00FF846DH   LINE      CODE     ---       #104
      00FF847BH   LINE      CODE     ---       #105
      00FF847DH   LINE      CODE     ---       #107
L251 LINKER/LOCATER V4.66.93.0                                                        11/20/2024  19:22:33  PAGE 57


      00FF847DH   LINE      CODE     ---       #109
      00FF8489H   LINE      CODE     ---       #110
      00FF8497H   LINE      CODE     ---       #111
      00FF8499H   LINE      CODE     ---       #113
      00FF8499H   LINE      CODE     ---       #115
      00FF84A5H   LINE      CODE     ---       #116
      00FF84B3H   LINE      CODE     ---       #117
      00FF84B5H   LINE      CODE     ---       #119
      00FF84B5H   LINE      CODE     ---       #121
      00FF84C1H   LINE      CODE     ---       #122
      00FF84CFH   LINE      CODE     ---       #123
      00FF84D1H   LINE      CODE     ---       #125
      00FF84D1H   LINE      CODE     ---       #127
      00FF84DDH   LINE      CODE     ---       #128
      00FF84EBH   LINE      CODE     ---       #129
      00FF84EBH   LINE      CODE     ---       #132
      00FF84EBH   LINE      CODE     ---       #133
      00FF84EFH   LINE      CODE     ---       #134
      ---         BLOCKEND  ---      ---       LVL=0

      00FF951BH   BLOCK     CODE     ---       LVL=0
      000012BCH   SYMBOL    EDATA    INT       tim_n
      00FF951BH   LINE      CODE     ---       #143
      00FF951FH   LINE      CODE     ---       #145
      00FF9533H   LINE      CODE     ---       #147
      00FF9533H   LINE      CODE     ---       #149
      00FF9536H   LINE      CODE     ---       #150
      00FF9539H   LINE      CODE     ---       #151
      00FF953CH   LINE      CODE     ---       #152
      00FF953FH   LINE      CODE     ---       #153
      00FF9541H   LINE      CODE     ---       #155
      00FF9541H   LINE      CODE     ---       #157
      00FF9544H   LINE      CODE     ---       #158
      00FF9547H   LINE      CODE     ---       #159
      00FF954AH   LINE      CODE     ---       #160
      00FF954DH   LINE      CODE     ---       #161
      00FF954FH   LINE      CODE     ---       #163
      00FF954FH   LINE      CODE     ---       #165
      00FF9552H   LINE      CODE     ---       #166
      00FF9555H   LINE      CODE     ---       #167
      00FF9558H   LINE      CODE     ---       #168
      00FF955BH   LINE      CODE     ---       #169
      00FF955DH   LINE      CODE     ---       #171
      00FF955DH   LINE      CODE     ---       #173
      00FF9560H   LINE      CODE     ---       #174
      00FF9563H   LINE      CODE     ---       #175
      00FF9566H   LINE      CODE     ---       #176
      00FF9569H   LINE      CODE     ---       #177
      00FF956BH   LINE      CODE     ---       #179
      00FF956BH   LINE      CODE     ---       #181
      00FF956EH   LINE      CODE     ---       #182
      00FF9571H   LINE      CODE     ---       #183
      00FF9574H   LINE      CODE     ---       #184
      00FF9577H   LINE      CODE     ---       #185
      00FF9577H   LINE      CODE     ---       #187
      00FF9577H   LINE      CODE     ---       #188
      ---         BLOCKEND  ---      ---       LVL=0

      00FF7ADEH   BLOCK     CODE     ---       LVL=0
      0000113BH   SYMBOL    EDATA    INT       tim_n
      0000113DH   SYMBOL    EDATA    WORD      time_ms
      00FF7AE6H   BLOCK     CODE     NEAR LAB  LVL=1
      0000113FH   SYMBOL    EDATA    WORD      temp
      ---         BLOCKEND  ---      ---       LVL=1
      00FF7ADEH   LINE      CODE     ---       #198
L251 LINKER/LOCATER V4.66.93.0                                                        11/20/2024  19:22:33  PAGE 58


      00FF7AE6H   LINE      CODE     ---       #199
      00FF7AE6H   LINE      CODE     ---       #201
      00FF7B09H   LINE      CODE     ---       #203
      00FF7B13H   LINE      CODE     ---       #205
      00FF7B17H   LINE      CODE     ---       #206
      00FF7B1DH   LINE      CODE     ---       #207
      00FF7B27H   LINE      CODE     ---       #208
      00FF7B2AH   LINE      CODE     ---       #209
      00FF7B2DH   LINE      CODE     ---       #210
      00FF7B30H   LINE      CODE     ---       #211
      00FF7B3CH   LINE      CODE     ---       #213
      00FF7B40H   LINE      CODE     ---       #214
      00FF7B46H   LINE      CODE     ---       #215
      00FF7B50H   LINE      CODE     ---       #216
      00FF7B53H   LINE      CODE     ---       #217
      00FF7B56H   LINE      CODE     ---       #218
      00FF7B58H   LINE      CODE     ---       #219
      00FF7B64H   LINE      CODE     ---       #221
      00FF7B6AH   LINE      CODE     ---       #222
      00FF7B74H   LINE      CODE     ---       #223
      00FF7B77H   LINE      CODE     ---       #224
      00FF7B7AH   LINE      CODE     ---       #225
      00FF7B7CH   LINE      CODE     ---       #226
      00FF7B88H   LINE      CODE     ---       #228
      00FF7B8EH   LINE      CODE     ---       #229
      00FF7B98H   LINE      CODE     ---       #230
      00FF7B9BH   LINE      CODE     ---       #231
      00FF7B9EH   LINE      CODE     ---       #232
      00FF7BA0H   LINE      CODE     ---       #233
      00FF7BACH   LINE      CODE     ---       #235
      00FF7BB2H   LINE      CODE     ---       #236
      00FF7BBCH   LINE      CODE     ---       #237
      00FF7BBFH   LINE      CODE     ---       #238
      00FF7BC2H   LINE      CODE     ---       #239
      ---         BLOCKEND  ---      ---       LVL=0

      ---         MODULE    ---      ---       zf_uart
      00FF8C7FH   PUBLIC    CODE     ---       uart_putchar
      00FFA4A6H   PUBLIC    CODE     ---       uart_putbuff
      00FF61FBH   PUBLIC    CODE     ---       uart_init
      000011DDH   PUBLIC    EDATA    ---       busy
      00000D35H   PUBLIC    EDATA    BYTE      ?uart_init?BYTE
      00000ED3H   PUBLIC    EDATA    BYTE      ?uart_putbuff?BYTE
      000000D0H   SFRSYM    DATA     BYTE      PSW
      0000009DH   SFRSYM    DATA     BYTE      IRCBAND
      00000097H   SFRSYM    DATA     BYTE      AUXR2
      000000EFH   SFRSYM    DATA     BYTE      AUXINTIF
      000000FDH   SFRSYM    DATA     BYTE      S4CON
      000000ACH   SFRSYM    DATA     BYTE      S3CON
      0000009AH   SFRSYM    DATA     BYTE      S2CON
      000000FEH   SFRSYM    DATA     BYTE      S4BUF
      000000ADH   SFRSYM    DATA     BYTE      S3BUF
      0000009BH   SFRSYM    DATA     BYTE      S2BUF
      000000B7H   SFRSYM    DATA     BYTE      IPH
      000000CDH   SFRSYM    DATA     BYTE      SPSTAT
      000000DDH   SFRSYM    DATA     BYTE      T4T3M
      000000C1H   SFRSYM    DATA     BYTE      WDT_CONTR
      00000088H.6 SFRSYM    DATA     BIT       TR1
      000000D3H   SFRSYM    DATA     BYTE      T4L
      000000D5H   SFRSYM    DATA     BYTE      T3L
      000000D7H   SFRSYM    DATA     BYTE      T2L
      0000008BH   SFRSYM    DATA     BYTE      TL1
      000000D2H   SFRSYM    DATA     BYTE      T4H
      000000D4H   SFRSYM    DATA     BYTE      T3H
      000000D6H   SFRSYM    DATA     BYTE      T2H
L251 LINKER/LOCATER V4.66.93.0                                                        11/20/2024  19:22:33  PAGE 59


      0000008DH   SFRSYM    DATA     BYTE      TH1
      000000DFH   SFRSYM    DATA     BYTE      IP3
      000000F4H   SFRSYM    DATA     BYTE      USBCON
      000000B5H   SFRSYM    DATA     BYTE      IP2
      000000FFH   SFRSYM    DATA     BYTE      RSTCFG
      000000C7H   SFRSYM    DATA     BYTE      IAP_CONTR
      000000F9H   SFRSYM    DATA     BYTE      LINICR
      0000008EH   SFRSYM    DATA     BYTE      AUXR
      000000AFH   SFRSYM    DATA     BYTE      IE2
      00000088H   SFRSYM    DATA     BYTE      TCON
      00000089H   SFRSYM    DATA     BYTE      TMOD
      00000098H   SFRSYM    DATA     BYTE      SCON
      000000F1H   SFRSYM    DATA     BYTE      CANICR
      00000087H   SFRSYM    DATA     BYTE      PCON
      00000099H   SFRSYM    DATA     BYTE      SBUF
      000000BCH   SFRSYM    DATA     BYTE      ADC_CONTR
      000000E7H   SFRSYM    DATA     BYTE      CMPCR2
      000000E6H   SFRSYM    DATA     BYTE      CMPCR1
      000000DEH   SFRSYM    DATA     BYTE      ADCCFG
      000000B8H   SFRSYM    DATA     BYTE      IP
      000000A8H.4 SFRSYM    DATA     BIT       ES
      0000008FH   SFRSYM    DATA     BYTE      INTCLKO
      000000EEH   SFRSYM    DATA     BYTE      IP3H
      000000B6H   SFRSYM    DATA     BYTE      IP2H
      000000A8H   SFRSYM    DATA     BYTE      IE
      000000BBH   SFRSYM    DATA     BYTE      P_SW3
      000000BAH   SFRSYM    DATA     BYTE      P_SW2
      000000A2H   SFRSYM    DATA     BYTE      P_SW1
      000000CEH   SFRSYM    DATA     BYTE      SPCTL
      000000F8H   SFRSYM    DATA     BYTE      P7
      000000E8H   SFRSYM    DATA     BYTE      P6
      000000C8H   SFRSYM    DATA     BYTE      P5
      000000C0H   SFRSYM    DATA     BYTE      P4
      000000C9H   SFRSYM    DATA     BYTE      P5M1
      000000B0H   SFRSYM    DATA     BYTE      P3
      000000CAH   SFRSYM    DATA     BYTE      P5M0
      000000A0H   SFRSYM    DATA     BYTE      P2
      00000090H   SFRSYM    DATA     BYTE      P1
      00000080H   SFRSYM    DATA     BYTE      P0

      00FF61FBH   BLOCK     CODE     ---       LVL=0
      00000D35H   SYMBOL    EDATA    INT       uart_n
      00000D37H   SYMBOL    EDATA    INT       uart_rx_pin
      00000D39H   SYMBOL    EDATA    INT       uart_tx_pin
      00000D3BH   SYMBOL    EDATA    DWORD     baud
      00000D3FH   SYMBOL    EDATA    INT       tim_n
      00FF620BH   BLOCK     CODE     NEAR LAB  LVL=1
      00000D41H   SYMBOL    EDATA    WORD      brt
      ---         BLOCKEND  ---      ---       LVL=1
      00FF61FBH   LINE      CODE     ---       #45
      00FF620BH   LINE      CODE     ---       #46
      00FF620BH   LINE      CODE     ---       #49
      00FF6232H   LINE      CODE     ---       #52
      00FF6254H   LINE      CODE     ---       #54
      00FF6254H   LINE      CODE     ---       #56
      00FF6260H   LINE      CODE     ---       #58
      00FF6263H   LINE      CODE     ---       #59
      00FF6267H   LINE      CODE     ---       #60
      00FF626DH   LINE      CODE     ---       #61
      00FF6277H   LINE      CODE     ---       #62
      00FF627AH   LINE      CODE     ---       #63
      00FF627DH   LINE      CODE     ---       #64
      00FF6282H   LINE      CODE     ---       #65
      00FF6284H   LINE      CODE     ---       #66
      00FF6290H   LINE      CODE     ---       #68
L251 LINKER/LOCATER V4.66.93.0                                                        11/20/2024  19:22:33  PAGE 60


      00FF6293H   LINE      CODE     ---       #69
      00FF6299H   LINE      CODE     ---       #70
      00FF62A3H   LINE      CODE     ---       #71
      00FF62A6H   LINE      CODE     ---       #72
      00FF62A6H   LINE      CODE     ---       #73
      00FF62A9H   LINE      CODE     ---       #74
      00FF62BFH   LINE      CODE     ---       #76
      00FF62C3H   LINE      CODE     ---       #77
      00FF62C5H   LINE      CODE     ---       #78
      00FF62DDH   LINE      CODE     ---       #80
      00FF62E0H   LINE      CODE     ---       #81
      00FF62E2H   LINE      CODE     ---       #82
      00FF62FAH   LINE      CODE     ---       #84
      00FF62FDH   LINE      CODE     ---       #85
      00FF62FFH   LINE      CODE     ---       #86
      00FF6317H   LINE      CODE     ---       #88
      00FF631AH   LINE      CODE     ---       #89
      00FF631AH   LINE      CODE     ---       #90
      00FF631FH   LINE      CODE     ---       #91
      00FF6322H   LINE      CODE     ---       #92
      00FF6325H   LINE      CODE     ---       #95
      00FF6325H   LINE      CODE     ---       #97
      00FF6331H   LINE      CODE     ---       #99
      00FF6334H   LINE      CODE     ---       #100
      00FF633AH   LINE      CODE     ---       #101
      00FF6344H   LINE      CODE     ---       #102
      00FF6347H   LINE      CODE     ---       #103
      00FF6347H   LINE      CODE     ---       #105
      00FF634AH   LINE      CODE     ---       #106
      00FF6362H   LINE      CODE     ---       #108
      00FF6366H   LINE      CODE     ---       #109
      00FF6368H   LINE      CODE     ---       #110
      00FF6380H   LINE      CODE     ---       #112
      00FF6383H   LINE      CODE     ---       #113
      00FF6383H   LINE      CODE     ---       #115
      00FF6386H   LINE      CODE     ---       #116
      00FF638BH   LINE      CODE     ---       #117
      00FF638EH   LINE      CODE     ---       #120
      00FF638EH   LINE      CODE     ---       #122
      00FF639AH   LINE      CODE     ---       #124
      00FF639DH   LINE      CODE     ---       #125
      00FF63A3H   LINE      CODE     ---       #126
      00FF63ADH   LINE      CODE     ---       #127
      00FF63B0H   LINE      CODE     ---       #128
      00FF63B2H   LINE      CODE     ---       #129
      00FF63BEH   LINE      CODE     ---       #131
      00FF63C1H   LINE      CODE     ---       #132
      00FF63C7H   LINE      CODE     ---       #133
      00FF63D1H   LINE      CODE     ---       #134
      00FF63D4H   LINE      CODE     ---       #135
      00FF63D4H   LINE      CODE     ---       #137
      00FF63D7H   LINE      CODE     ---       #138
      00FF63EFH   LINE      CODE     ---       #140
      00FF63F3H   LINE      CODE     ---       #141
      00FF63F5H   LINE      CODE     ---       #142
      00FF640DH   LINE      CODE     ---       #144
      00FF6410H   LINE      CODE     ---       #145
      00FF6410H   LINE      CODE     ---       #147
      00FF6413H   LINE      CODE     ---       #148
      00FF6418H   LINE      CODE     ---       #149
      00FF641BH   LINE      CODE     ---       #152
      00FF641BH   LINE      CODE     ---       #154
      00FF6427H   LINE      CODE     ---       #156
      00FF642AH   LINE      CODE     ---       #157
      00FF6430H   LINE      CODE     ---       #158
L251 LINKER/LOCATER V4.66.93.0                                                        11/20/2024  19:22:33  PAGE 61


      00FF643AH   LINE      CODE     ---       #159
      00FF643EH   LINE      CODE     ---       #160
      00FF6440H   LINE      CODE     ---       #161
      00FF644CH   LINE      CODE     ---       #163
      00FF644FH   LINE      CODE     ---       #164
      00FF6455H   LINE      CODE     ---       #165
      00FF645FH   LINE      CODE     ---       #166
      00FF6462H   LINE      CODE     ---       #167
      00FF6462H   LINE      CODE     ---       #169
      00FF6465H   LINE      CODE     ---       #170
      00FF647DH   LINE      CODE     ---       #172
      00FF6481H   LINE      CODE     ---       #173
      00FF6483H   LINE      CODE     ---       #174
      00FF649BH   LINE      CODE     ---       #176
      00FF649EH   LINE      CODE     ---       #177
      00FF64A2H   LINE      CODE     ---       #178
      00FF64A5H   LINE      CODE     ---       #179
      00FF64A5H   LINE      CODE     ---       #180
      00FF64A8H   LINE      CODE     ---       #181
      00FF64ADH   LINE      CODE     ---       #182
      00FF64ADH   LINE      CODE     ---       #185
      00FF64ADH   LINE      CODE     ---       #187
      ---         BLOCKEND  ---      ---       LVL=0

      00FF8C7FH   BLOCK     CODE     ---       LVL=0
      00001277H   SYMBOL    EDATA    INT       uart_n
      00001279H   SYMBOL    EDATA    BYTE      dat
      00FF8C7FH   LINE      CODE     ---       #196
      00FF8C87H   LINE      CODE     ---       #198
      00FF8C99H   LINE      CODE     ---       #200
      00FF8C99H   LINE      CODE     ---       #201
      00FF8CA2H   LINE      CODE     ---       #202
      00FF8CA8H   LINE      CODE     ---       #203
      00FF8CAEH   LINE      CODE     ---       #204
      00FF8CB0H   LINE      CODE     ---       #205
      00FF8CB0H   LINE      CODE     ---       #206
      00FF8CB9H   LINE      CODE     ---       #207
      00FF8CBFH   LINE      CODE     ---       #208
      00FF8CC5H   LINE      CODE     ---       #209
      00FF8CC7H   LINE      CODE     ---       #210
      00FF8CC7H   LINE      CODE     ---       #211
      00FF8CD0H   LINE      CODE     ---       #212
      00FF8CD6H   LINE      CODE     ---       #213
      00FF8CDCH   LINE      CODE     ---       #214
      00FF8CDEH   LINE      CODE     ---       #215
      00FF8CDEH   LINE      CODE     ---       #216
      00FF8CE7H   LINE      CODE     ---       #217
      00FF8CEDH   LINE      CODE     ---       #218
      00FF8CF3H   LINE      CODE     ---       #219
      00FF8CF3H   LINE      CODE     ---       #220
      00FF8CF3H   LINE      CODE     ---       #221
      ---         BLOCKEND  ---      ---       LVL=0

      00FFA4A6H   BLOCK     CODE     ---       LVL=0
      00000ED3H   SYMBOL    EDATA    INT       uart_n
      00000ED5H   SYMBOL    EDATA    ---       p
      00000ED9H   SYMBOL    EDATA    DWORD     len
      00FFA4A6H   LINE      CODE     ---       #232
      00FFA4AEH   LINE      CODE     ---       #234
      00FFA4D8H   LINE      CODE     ---       #236
      ---         BLOCKEND  ---      ---       LVL=0
      00001141H   SYMBOL    EDATA    INT       uart_n
      00001143H   SYMBOL    EDATA    ---       str

      ---         MODULE    ---      ---       zf_fifo
L251 LINKER/LOCATER V4.66.93.0                                                        11/20/2024  19:22:33  PAGE 62


      00FF57B1H   PUBLIC    CODE     ---       fifo_read_buffer
      00FF5B5DH   PUBLIC    CODE     ---       fifo_write_buffer
      00FFA79FH   PUBLIC    CODE     ---       fifo_used
      00FF8919H   PUBLIC    CODE     ---       fifo_init
      00000C8EH   PUBLIC    EDATA    BYTE      ?fifo_write_buffer?BYTE
      00000DB0H   PUBLIC    EDATA    BYTE      ?fifo_read_element?BYTE
      00000BC7H   PUBLIC    EDATA    BYTE      ?fifo_read_buffer?BYTE
      00000BDFH   PUBLIC    EDATA    BYTE      ?fifo_read_tail_buffer?BYTE
      00000CF8H   PUBLIC    EDATA    BYTE      ?fifo_init?BYTE
      000000D0H   SFRSYM    DATA     BYTE      PSW
      0000009DH   SFRSYM    DATA     BYTE      IRCBAND
      00000097H   SFRSYM    DATA     BYTE      AUXR2
      000000EFH   SFRSYM    DATA     BYTE      AUXINTIF
      000000FDH   SFRSYM    DATA     BYTE      S4CON
      000000ACH   SFRSYM    DATA     BYTE      S3CON
      0000009AH   SFRSYM    DATA     BYTE      S2CON
      000000B7H   SFRSYM    DATA     BYTE      IPH
      000000CDH   SFRSYM    DATA     BYTE      SPSTAT
      000000DDH   SFRSYM    DATA     BYTE      T4T3M
      000000C1H   SFRSYM    DATA     BYTE      WDT_CONTR
      000000DFH   SFRSYM    DATA     BYTE      IP3
      000000F4H   SFRSYM    DATA     BYTE      USBCON
      000000B5H   SFRSYM    DATA     BYTE      IP2
      000000FFH   SFRSYM    DATA     BYTE      RSTCFG
      000000C7H   SFRSYM    DATA     BYTE      IAP_CONTR
      000000F9H   SFRSYM    DATA     BYTE      LINICR
      0000008EH   SFRSYM    DATA     BYTE      AUXR
      000000AFH   SFRSYM    DATA     BYTE      IE2
      00000088H   SFRSYM    DATA     BYTE      TCON
      00000089H   SFRSYM    DATA     BYTE      TMOD
      00000098H   SFRSYM    DATA     BYTE      SCON
      000000F1H   SFRSYM    DATA     BYTE      CANICR
      00000087H   SFRSYM    DATA     BYTE      PCON
      000000BCH   SFRSYM    DATA     BYTE      ADC_CONTR
      000000E7H   SFRSYM    DATA     BYTE      CMPCR2
      000000E6H   SFRSYM    DATA     BYTE      CMPCR1
      000000DEH   SFRSYM    DATA     BYTE      ADCCFG
      000000B8H   SFRSYM    DATA     BYTE      IP
      0000008FH   SFRSYM    DATA     BYTE      INTCLKO
      000000EEH   SFRSYM    DATA     BYTE      IP3H
      000000B6H   SFRSYM    DATA     BYTE      IP2H
      000000A8H   SFRSYM    DATA     BYTE      IE
      000000BBH   SFRSYM    DATA     BYTE      P_SW3
      000000BAH   SFRSYM    DATA     BYTE      P_SW2
      000000A2H   SFRSYM    DATA     BYTE      P_SW1
      000000CEH   SFRSYM    DATA     BYTE      SPCTL
      000000F8H   SFRSYM    DATA     BYTE      P7
      000000E8H   SFRSYM    DATA     BYTE      P6
      000000C8H   SFRSYM    DATA     BYTE      P5
      000000C0H   SFRSYM    DATA     BYTE      P4
      000000B0H   SFRSYM    DATA     BYTE      P3
      000000A0H   SFRSYM    DATA     BYTE      P2
      00000090H   SFRSYM    DATA     BYTE      P1
      00000080H   SFRSYM    DATA     BYTE      P0
      00FF8DDAH   SYMBOL    CODE     ---       fifo_head_offset
      00FF8E4AH   SYMBOL    CODE     ---       fifo_end_offset

      00FF8DDAH   BLOCK     CODE     ---       LVL=0
      0000105BH   SYMBOL    EDATA    ---       fifo
      0000105FH   SYMBOL    EDATA    DWORD     offset
      00FF8DDAH   LINE      CODE     ---       #42
      00FF8DE2H   LINE      CODE     ---       #44
      00FF8DFEH   LINE      CODE     ---       #46
      00FF8E00H   LINE      CODE     ---       #48
      00FF8E27H   LINE      CODE     ---       #49
L251 LINKER/LOCATER V4.66.93.0                                                        11/20/2024  19:22:33  PAGE 63


      00FF8E49H   LINE      CODE     ---       #50
      ---         BLOCKEND  ---      ---       LVL=0

      00FF8E4AH   BLOCK     CODE     ---       LVL=0
      00001063H   SYMBOL    EDATA    ---       fifo
      00001067H   SYMBOL    EDATA    DWORD     offset
      00FF8E4AH   LINE      CODE     ---       #60
      00FF8E52H   LINE      CODE     ---       #62
      00FF8E6EH   LINE      CODE     ---       #64
      00FF8E70H   LINE      CODE     ---       #66
      00FF8E97H   LINE      CODE     ---       #67
      00FF8EB9H   LINE      CODE     ---       #68
      ---         BLOCKEND  ---      ---       LVL=0
      00001147H   SYMBOL    EDATA    ---       fifo
      0000114BH   SYMBOL    EDATA    INT       return_state

      00FFA79FH   BLOCK     CODE     ---       LVL=0
      00001223H   SYMBOL    EDATA    ---       fifo
      00FFA79FH   LINE      CODE     ---       #110
      00FFA7A3H   LINE      CODE     ---       #113
      00FFA7C3H   LINE      CODE     ---       #114
      ---         BLOCKEND  ---      ---       LVL=0
      00000EDDH   SYMBOL    EDATA    ---       fifo
      00000EE1H   SYMBOL    EDATA    DWORD     dat
      00000EE5H   SYMBOL    EDATA    INT       return_state

      00FF5B5DH   BLOCK     CODE     ---       LVL=0
      00000C8EH   SYMBOL    EDATA    ---       fifo
      00000C92H   SYMBOL    EDATA    ---       dat
      00000C96H   SYMBOL    EDATA    DWORD     length
      00FF5B65H   BLOCK     CODE     NEAR LAB  LVL=1
      00000C9AH   SYMBOL    EDATA    INT       return_state
      00000C9CH   SYMBOL    EDATA    DWORD     temp_length
      ---         BLOCKEND  ---      ---       LVL=1
      00FF5B5DH   LINE      CODE     ---       #168
      00FF5B65H   LINE      CODE     ---       #169
      00FF5B65H   LINE      CODE     ---       #171
      00FF5B6BH   LINE      CODE     ---       #172
      00FF5B71H   LINE      CODE     ---       #174
      00FF5B71H   LINE      CODE     ---       #176
      00FF5B79H   LINE      CODE     ---       #178
      00FF5B81H   LINE      CODE     ---       #179
      00FF5B84H   LINE      CODE     ---       #180
      00FF5B84H   LINE      CODE     ---       #181
      00FF5B99H   LINE      CODE     ---       #183
      00FF5BA1H   LINE      CODE     ---       #184
      00FF5BA4H   LINE      CODE     ---       #185
      00FF5BA4H   LINE      CODE     ---       #186
      00FF5BB2H   LINE      CODE     ---       #188
      00FF5BCCH   LINE      CODE     ---       #190
      00FF5BF0H   LINE      CODE     ---       #192
      00FF5BFFH   LINE      CODE     ---       #194
      00FF5C1DH   LINE      CODE     ---       #196
      00FF5C1DH   LINE      CODE     ---       #198
      00FF5C4CH   LINE      CODE     ---       #201
      00FF5C57H   LINE      CODE     ---       #202
      00FF5C94H   LINE      CODE     ---       #206
      00FF5CA5H   LINE      CODE     ---       #207
      00FF5CA8H   LINE      CODE     ---       #208
      00FF5CA8H   LINE      CODE     ---       #210
      00FF5CDBH   LINE      CODE     ---       #213
      00FF5CE6H   LINE      CODE     ---       #214
      00FF5D29H   LINE      CODE     ---       #218
      00FF5D3AH   LINE      CODE     ---       #219
      00FF5D3DH   LINE      CODE     ---       #220
L251 LINKER/LOCATER V4.66.93.0                                                        11/20/2024  19:22:33  PAGE 64


      00FF5D3DH   LINE      CODE     ---       #222
      00FF5D74H   LINE      CODE     ---       #225
      00FF5D7FH   LINE      CODE     ---       #226
      00FF5DC8H   LINE      CODE     ---       #230
      00FF5DD9H   LINE      CODE     ---       #231
      00FF5DD9H   LINE      CODE     ---       #232
      00FF5DD9H   LINE      CODE     ---       #233
      00FF5DDCH   LINE      CODE     ---       #236
      00FF5DF7H   LINE      CODE     ---       #238
      00FF5DF7H   LINE      CODE     ---       #240
      00FF5E26H   LINE      CODE     ---       #243
      00FF5E31H   LINE      CODE     ---       #244
      00FF5E34H   LINE      CODE     ---       #245
      00FF5E34H   LINE      CODE     ---       #247
      00FF5E67H   LINE      CODE     ---       #250
      00FF5E72H   LINE      CODE     ---       #251
      00FF5E74H   LINE      CODE     ---       #252
      00FF5E74H   LINE      CODE     ---       #254
      00FF5EABH   LINE      CODE     ---       #257
      00FF5EB6H   LINE      CODE     ---       #258
      00FF5EB6H   LINE      CODE     ---       #259
      00FF5EB6H   LINE      CODE     ---       #260
      00FF5EB6H   LINE      CODE     ---       #262
      00FF5ED2H   LINE      CODE     ---       #263
      00FF5ED4H   LINE      CODE     ---       #266
      00FF5EDCH   LINE      CODE     ---       #267
      00FF5EDCH   LINE      CODE     ---       #268
      00FF5EEAH   LINE      CODE     ---       #269
      00FF5EEAH   LINE      CODE     ---       #271
      00FF5EEEH   LINE      CODE     ---       #272
      ---         BLOCKEND  ---      ---       LVL=0
      00000DB0H   SYMBOL    EDATA    ---       fifo
      00000DB4H   SYMBOL    EDATA    ---       dat
      00000DB8H   SYMBOL    EDATA    INT       flag
      00000DBAH   SYMBOL    EDATA    INT       return_state

      00FF57B1H   BLOCK     CODE     ---       LVL=0
      00000BC7H   SYMBOL    EDATA    ---       fifo
      00000BCBH   SYMBOL    EDATA    ---       dat
      00000BCFH   SYMBOL    EDATA    ---       length
      00000BD3H   SYMBOL    EDATA    INT       flag
      00FF57B9H   BLOCK     CODE     NEAR LAB  LVL=1
      00000BD5H   SYMBOL    EDATA    INT       return_state
      00000BD7H   SYMBOL    EDATA    DWORD     temp_length
      00000BDBH   SYMBOL    EDATA    DWORD     fifo_data_length
      ---         BLOCKEND  ---      ---       LVL=1
      00FF57B1H   LINE      CODE     ---       #345
      00FF57B9H   LINE      CODE     ---       #346
      00FF57B9H   LINE      CODE     ---       #349
      00FF57BFH   LINE      CODE     ---       #350
      00FF57C5H   LINE      CODE     ---       #351
      00FF57CBH   LINE      CODE     ---       #353
      00FF57CBH   LINE      CODE     ---       #355
      00FF57D3H   LINE      CODE     ---       #357
      00FF57DBH   LINE      CODE     ---       #358
      00FF57DEH   LINE      CODE     ---       #361
      00FF57F3H   LINE      CODE     ---       #363
      00FF5802H   LINE      CODE     ---       #364
      00FF580AH   LINE      CODE     ---       #365
      00FF580DH   LINE      CODE     ---       #366
      00FF580DH   LINE      CODE     ---       #368
      00FF5818H   LINE      CODE     ---       #369
      00FF582BH   LINE      CODE     ---       #371
      00FF583AH   LINE      CODE     ---       #372
      00FF5842H   LINE      CODE     ---       #373
L251 LINKER/LOCATER V4.66.93.0                                                        11/20/2024  19:22:33  PAGE 65


      00FF584AH   LINE      CODE     ---       #375
      00FF5858H   LINE      CODE     ---       #376
      00FF585BH   LINE      CODE     ---       #377
      00FF585BH   LINE      CODE     ---       #380
      00FF5869H   LINE      CODE     ---       #381
      00FF588DH   LINE      CODE     ---       #382
      00FF58A3H   LINE      CODE     ---       #384
      00FF58BEH   LINE      CODE     ---       #386
      00FF58F9H   LINE      CODE     ---       #387
      00FF5938H   LINE      CODE     ---       #388
      00FF5978H   LINE      CODE     ---       #389
      00FF5978H   LINE      CODE     ---       #390
      00FF597BH   LINE      CODE     ---       #393
      00FF5996H   LINE      CODE     ---       #395
      00FF5996H   LINE      CODE     ---       #397
      00FF59C7H   LINE      CODE     ---       #398
      00FF59F8H   LINE      CODE     ---       #399
      00FF59FBH   LINE      CODE     ---       #400
      00FF59FBH   LINE      CODE     ---       #402
      00FF5A30H   LINE      CODE     ---       #403
      00FF5A65H   LINE      CODE     ---       #404
      00FF5A67H   LINE      CODE     ---       #405
      00FF5A67H   LINE      CODE     ---       #407
      00FF5AA0H   LINE      CODE     ---       #408
      00FF5AD9H   LINE      CODE     ---       #409
      00FF5AD9H   LINE      CODE     ---       #410
      00FF5AD9H   LINE      CODE     ---       #411
      00FF5AD9H   LINE      CODE     ---       #412
      00FF5AE7H   LINE      CODE     ---       #413
      00FF5AE7H   LINE      CODE     ---       #415
      00FF5AF1H   LINE      CODE     ---       #417
      00FF5AFDH   LINE      CODE     ---       #419
      00FF5B05H   LINE      CODE     ---       #420
      00FF5B07H   LINE      CODE     ---       #421
      00FF5B07H   LINE      CODE     ---       #422
      00FF5B15H   LINE      CODE     ---       #423
      00FF5B27H   LINE      CODE     ---       #424
      00FF5B4AH   LINE      CODE     ---       #425
      00FF5B58H   LINE      CODE     ---       #426
      00FF5B58H   LINE      CODE     ---       #429
      00FF5B5CH   LINE      CODE     ---       #430
      ---         BLOCKEND  ---      ---       LVL=0
      00000BDFH   SYMBOL    EDATA    ---       fifo
      00000BE3H   SYMBOL    EDATA    ---       dat
      00000BE7H   SYMBOL    EDATA    ---       length
      00000BEBH   SYMBOL    EDATA    INT       flag
      00000BEDH   SYMBOL    EDATA    INT       return_state
      00000BEFH   SYMBOL    EDATA    DWORD     temp_length
      00000BF3H   SYMBOL    EDATA    DWORD     fifo_data_length

      00FF8919H   BLOCK     CODE     ---       LVL=0
      00000CF8H   SYMBOL    EDATA    ---       fifo
      00000CFCH   SYMBOL    EDATA    INT       type
      00000CFEH   SYMBOL    EDATA    ---       buffer_addr
      00000D02H   SYMBOL    EDATA    DWORD     len
      00FF8921H   BLOCK     CODE     NEAR LAB  LVL=1
      00000D06H   SYMBOL    EDATA    INT       return_state
      ---         BLOCKEND  ---      ---       LVL=1
      00FF8919H   LINE      CODE     ---       #538
      00FF8921H   LINE      CODE     ---       #539
      00FF8921H   LINE      CODE     ---       #541
      00FF8927H   LINE      CODE     ---       #542
      00FF8927H   LINE      CODE     ---       #544
      00FF893AH   LINE      CODE     ---       #545
      00FF8942H   LINE      CODE     ---       #546
L251 LINKER/LOCATER V4.66.93.0                                                        11/20/2024  19:22:33  PAGE 66


      00FF894FH   LINE      CODE     ---       #547
      00FF8960H   LINE      CODE     ---       #548
      00FF8971H   LINE      CODE     ---       #549
      00FF8984H   LINE      CODE     ---       #550
      00FF8997H   LINE      CODE     ---       #551
      00FF8997H   LINE      CODE     ---       #552
      00FF899BH   LINE      CODE     ---       #553
      ---         BLOCKEND  ---      ---       LVL=0

      ---         MODULE    ---      ---       globals
      000000D0H   SFRSYM    DATA     BYTE      PSW
      0000009DH   SFRSYM    DATA     BYTE      IRCBAND
      00000097H   SFRSYM    DATA     BYTE      AUXR2
      000000EFH   SFRSYM    DATA     BYTE      AUXINTIF
      000000FDH   SFRSYM    DATA     BYTE      S4CON
      000000ACH   SFRSYM    DATA     BYTE      S3CON
      0000009AH   SFRSYM    DATA     BYTE      S2CON
      000000B7H   SFRSYM    DATA     BYTE      IPH
      000000CDH   SFRSYM    DATA     BYTE      SPSTAT
      000000DDH   SFRSYM    DATA     BYTE      T4T3M
      000000C1H   SFRSYM    DATA     BYTE      WDT_CONTR
      000000DFH   SFRSYM    DATA     BYTE      IP3
      000000F4H   SFRSYM    DATA     BYTE      USBCON
      000000B5H   SFRSYM    DATA     BYTE      IP2
      000000FFH   SFRSYM    DATA     BYTE      RSTCFG
      000000C7H   SFRSYM    DATA     BYTE      IAP_CONTR
      000000F9H   SFRSYM    DATA     BYTE      LINICR
      0000008EH   SFRSYM    DATA     BYTE      AUXR
      000000AFH   SFRSYM    DATA     BYTE      IE2
      00000088H   SFRSYM    DATA     BYTE      TCON
      00000089H   SFRSYM    DATA     BYTE      TMOD
      00000098H   SFRSYM    DATA     BYTE      SCON
      000000F1H   SFRSYM    DATA     BYTE      CANICR
      00000087H   SFRSYM    DATA     BYTE      PCON
      000000BCH   SFRSYM    DATA     BYTE      ADC_CONTR
      000000E7H   SFRSYM    DATA     BYTE      CMPCR2
      000000E6H   SFRSYM    DATA     BYTE      CMPCR1
      000000DEH   SFRSYM    DATA     BYTE      ADCCFG
      000000B8H   SFRSYM    DATA     BYTE      IP
      0000008FH   SFRSYM    DATA     BYTE      INTCLKO
      000000EEH   SFRSYM    DATA     BYTE      IP3H
      000000B6H   SFRSYM    DATA     BYTE      IP2H
      000000A8H   SFRSYM    DATA     BYTE      IE
      000000BBH   SFRSYM    DATA     BYTE      P_SW3
      000000BAH   SFRSYM    DATA     BYTE      P_SW2
      000000A2H   SFRSYM    DATA     BYTE      P_SW1
      000000CEH   SFRSYM    DATA     BYTE      SPCTL
      000000F8H   SFRSYM    DATA     BYTE      P7
      000000E8H   SFRSYM    DATA     BYTE      P6
      000000C8H   SFRSYM    DATA     BYTE      P5
      000000C0H   SFRSYM    DATA     BYTE      P4
      000000B0H   SFRSYM    DATA     BYTE      P3
      000000A0H   SFRSYM    DATA     BYTE      P2
      00000090H   SFRSYM    DATA     BYTE      P1
      00000080H   SFRSYM    DATA     BYTE      P0

      ---         MODULE    ---      ---       SEEKFREE_18TFT
      00FF98A8H   PUBLIC    CODE     ---       lcd_clear_simspi
      00FF98FFH   PUBLIC    CODE     ---       lcd_clear
      00FF9578H   PUBLIC    CODE     ---       lcd_showstr_simspi
      00FF95D5H   PUBLIC    CODE     ---       lcd_showstr
      00FF9CE6H   PUBLIC    CODE     ---       lcd_writeIndex_simspi
      00FF9D32H   PUBLIC    CODE     ---       lcd_writeData_simspi
      00FFABC8H   PUBLIC    CODE     ---       lcd_writeIndex
      00FFABDDH   PUBLIC    CODE     ---       lcd_writeData
L251 LINKER/LOCATER V4.66.93.0                                                        11/20/2024  19:22:33  PAGE 67


      00FF99ACH   PUBLIC    CODE     ---       lcd_writeData_16bit_simspi
      00FF9214H   PUBLIC    CODE     ---       lcd_set_region_simspi
      00FF9278H   PUBLIC    CODE     ---       lcd_set_region
      00FFA593H   PUBLIC    CODE     ---       lcd_writedata_16bit
      00FF7FD5H   PUBLIC    CODE     ---       lcd_showchar_simspi
      00FF8094H   PUBLIC    CODE     ---       lcd_showchar
      00000797H   PUBLIC    EDATA    BYTE      ?lcd_showfloat_simspi?BYTE
      000007C7H   PUBLIC    EDATA    BYTE      ?lcd_showfloat?BYTE
      000000D0H   SFRSYM    DATA     BYTE      PSW
      0000009DH   SFRSYM    DATA     BYTE      IRCBAND
      00000097H   SFRSYM    DATA     BYTE      AUXR2
      000000EFH   SFRSYM    DATA     BYTE      AUXINTIF
      000000FDH   SFRSYM    DATA     BYTE      S4CON
      000000ACH   SFRSYM    DATA     BYTE      S3CON
      0000009AH   SFRSYM    DATA     BYTE      S2CON
      000000B7H   SFRSYM    DATA     BYTE      IPH
      000000CDH   SFRSYM    DATA     BYTE      SPSTAT
      000000DDH   SFRSYM    DATA     BYTE      T4T3M
      000000C1H   SFRSYM    DATA     BYTE      WDT_CONTR
      000000DFH   SFRSYM    DATA     BYTE      IP3
      000000F4H   SFRSYM    DATA     BYTE      USBCON
      000000B5H   SFRSYM    DATA     BYTE      IP2
      000000FFH   SFRSYM    DATA     BYTE      RSTCFG
      000000C7H   SFRSYM    DATA     BYTE      IAP_CONTR
      000000F9H   SFRSYM    DATA     BYTE      LINICR
      0000008EH   SFRSYM    DATA     BYTE      AUXR
      000000AFH   SFRSYM    DATA     BYTE      IE2
      000000A0H.5 SFRSYM    DATA     BIT       P25
      00000088H   SFRSYM    DATA     BYTE      TCON
      00000089H   SFRSYM    DATA     BYTE      TMOD
      000000A0H.3 SFRSYM    DATA     BIT       P23
      00000098H   SFRSYM    DATA     BYTE      SCON
      000000A0H.2 SFRSYM    DATA     BIT       P22
      000000A0H.1 SFRSYM    DATA     BIT       P21
      000000A0H.0 SFRSYM    DATA     BIT       P20
      000000F1H   SFRSYM    DATA     BYTE      CANICR
      00000087H   SFRSYM    DATA     BYTE      PCON
      000000BCH   SFRSYM    DATA     BYTE      ADC_CONTR
      000000E7H   SFRSYM    DATA     BYTE      CMPCR2
      000000E6H   SFRSYM    DATA     BYTE      CMPCR1
      000000DEH   SFRSYM    DATA     BYTE      ADCCFG
      000000B8H   SFRSYM    DATA     BYTE      IP
      0000008FH   SFRSYM    DATA     BYTE      INTCLKO
      000000EEH   SFRSYM    DATA     BYTE      IP3H
      000000B6H   SFRSYM    DATA     BYTE      IP2H
      000000A8H   SFRSYM    DATA     BYTE      IE
      000000BBH   SFRSYM    DATA     BYTE      P_SW3
      000000BAH   SFRSYM    DATA     BYTE      P_SW2
      000000A2H   SFRSYM    DATA     BYTE      P_SW1
      000000CEH   SFRSYM    DATA     BYTE      SPCTL
      000000F8H   SFRSYM    DATA     BYTE      P7
      000000E8H   SFRSYM    DATA     BYTE      P6
      000000C8H   SFRSYM    DATA     BYTE      P5
      000000C0H   SFRSYM    DATA     BYTE      P4
      000000B0H   SFRSYM    DATA     BYTE      P3
      000000A0H   SFRSYM    DATA     BYTE      P2
      00000090H   SFRSYM    DATA     BYTE      P1
      00000080H   SFRSYM    DATA     BYTE      P0

      00FF9CE6H   BLOCK     CODE     ---       LVL=0
      000012BEH   SYMBOL    EDATA    BYTE      dat
      00FF9CEAH   BLOCK     CODE     NEAR LAB  LVL=1
      000012BFH   SYMBOL    EDATA    BYTE      i
      ---         BLOCKEND  ---      ---       LVL=1
      00FF9CE6H   LINE      CODE     ---       #60
L251 LINKER/LOCATER V4.66.93.0                                                        11/20/2024  19:22:33  PAGE 68


      00FF9CEAH   LINE      CODE     ---       #61
      00FF9CEAH   LINE      CODE     ---       #62
      00FF9CF0H   LINE      CODE     ---       #64
      00FF9CF3H   LINE      CODE     ---       #65
      00FF9CF6H   LINE      CODE     ---       #66
      00FF9CF9H   LINE      CODE     ---       #68
      00FF9CFBH   LINE      CODE     ---       #70
      00FF9D07H   LINE      CODE     ---       #71
      00FF9D0AH   LINE      CODE     ---       #72
      00FF9D0DH   LINE      CODE     ---       #74
      00FF9D10H   LINE      CODE     ---       #75
      00FF9D1AH   LINE      CODE     ---       #76
      00FF9D2EH   LINE      CODE     ---       #77
      00FF9D31H   LINE      CODE     ---       #78
      ---         BLOCKEND  ---      ---       LVL=0

      00FF9D32H   BLOCK     CODE     ---       LVL=0
      000012C0H   SYMBOL    EDATA    BYTE      dat
      00FF9D36H   BLOCK     CODE     NEAR LAB  LVL=1
      000012C1H   SYMBOL    EDATA    BYTE      i
      ---         BLOCKEND  ---      ---       LVL=1
      00FF9D32H   LINE      CODE     ---       #87
      00FF9D36H   LINE      CODE     ---       #88
      00FF9D36H   LINE      CODE     ---       #89
      00FF9D3CH   LINE      CODE     ---       #91
      00FF9D3FH   LINE      CODE     ---       #92
      00FF9D42H   LINE      CODE     ---       #93
      00FF9D45H   LINE      CODE     ---       #94
      00FF9D47H   LINE      CODE     ---       #96
      00FF9D53H   LINE      CODE     ---       #97
      00FF9D56H   LINE      CODE     ---       #98
      00FF9D59H   LINE      CODE     ---       #100
      00FF9D5CH   LINE      CODE     ---       #101
      00FF9D66H   LINE      CODE     ---       #102
      00FF9D7AH   LINE      CODE     ---       #103
      00FF9D7DH   LINE      CODE     ---       #104
      ---         BLOCKEND  ---      ---       LVL=0

      00FF99ACH   BLOCK     CODE     ---       LVL=0
      0000127AH   SYMBOL    EDATA    WORD      dat
      00FF99B0H   BLOCK     CODE     NEAR LAB  LVL=1
      0000127CH   SYMBOL    EDATA    BYTE      i
      ---         BLOCKEND  ---      ---       LVL=1
      00FF99ACH   LINE      CODE     ---       #113
      00FF99B0H   LINE      CODE     ---       #114
      00FF99B0H   LINE      CODE     ---       #115
      00FF99B6H   LINE      CODE     ---       #117
      00FF99B9H   LINE      CODE     ---       #118
      00FF99BCH   LINE      CODE     ---       #119
      00FF99BFH   LINE      CODE     ---       #121
      00FF99C1H   LINE      CODE     ---       #123
      00FF99D6H   LINE      CODE     ---       #124
      00FF99D9H   LINE      CODE     ---       #125
      00FF99DCH   LINE      CODE     ---       #127
      00FF99DFH   LINE      CODE     ---       #128
      00FF99E9H   LINE      CODE     ---       #129
      00FF99FDH   LINE      CODE     ---       #131
      00FF9A00H   LINE      CODE     ---       #133
      ---         BLOCKEND  ---      ---       LVL=0

      00FF9214H   BLOCK     CODE     ---       LVL=0
      0000106BH   SYMBOL    EDATA    WORD      x_start
      0000106DH   SYMBOL    EDATA    WORD      y_start
      0000106FH   SYMBOL    EDATA    WORD      x_end
      00001071H   SYMBOL    EDATA    WORD      y_end
L251 LINKER/LOCATER V4.66.93.0                                                        11/20/2024  19:22:33  PAGE 69


      00FF9214H   LINE      CODE     ---       #145
      00FF9224H   LINE      CODE     ---       #163
      00FF9229H   LINE      CODE     ---       #164
      00FF922DH   LINE      CODE     ---       #165
      00FF923AH   LINE      CODE     ---       #166
      00FF923EH   LINE      CODE     ---       #167
      00FF924BH   LINE      CODE     ---       #169
      00FF9250H   LINE      CODE     ---       #170
      00FF9254H   LINE      CODE     ---       #171
      00FF9261H   LINE      CODE     ---       #172
      00FF9265H   LINE      CODE     ---       #173
      00FF9272H   LINE      CODE     ---       #177
      00FF9277H   LINE      CODE     ---       #178
      ---         BLOCKEND  ---      ---       LVL=0

      00FF98A8H   BLOCK     CODE     ---       LVL=0
      00001227H   SYMBOL    EDATA    INT       color
      00FF98ACH   BLOCK     CODE     NEAR LAB  LVL=1
      00001229H   SYMBOL    EDATA    BYTE      i
      0000122AH   SYMBOL    EDATA    BYTE      j
      ---         BLOCKEND  ---      ---       LVL=1
      00FF98A8H   LINE      CODE     ---       #187
      00FF98ACH   LINE      CODE     ---       #188
      00FF98ACH   LINE      CODE     ---       #190
      00FF98BBH   LINE      CODE     ---       #191
      00FF98C2H   LINE      CODE     ---       #192
      00FF98C9H   LINE      CODE     ---       #193
      00FF98FEH   LINE      CODE     ---       #194
      ---         BLOCKEND  ---      ---       LVL=0
      0000114DH   SYMBOL    EDATA    WORD      x
      0000114FH   SYMBOL    EDATA    WORD      y
      00001151H   SYMBOL    EDATA    WORD      color

      00FF7FD5H   BLOCK     CODE     ---       LVL=0
      00001073H   SYMBOL    EDATA    WORD      x
      00001075H   SYMBOL    EDATA    WORD      y
      00001077H   SYMBOL    EDATA    CHAR      dat
      00FF7FE1H   BLOCK     CODE     NEAR LAB  LVL=1
      00001078H   SYMBOL    EDATA    BYTE      i
      00001079H   SYMBOL    EDATA    BYTE      j
      0000107AH   SYMBOL    EDATA    BYTE      temp
      ---         BLOCKEND  ---      ---       LVL=1
      00FF7FD5H   LINE      CODE     ---       #351
      00FF7FE1H   LINE      CODE     ---       #352
      00FF7FE1H   LINE      CODE     ---       #356
      00FF7FE9H   LINE      CODE     ---       #358
      00FF8012H   LINE      CODE     ---       #359
      00FF803AH   LINE      CODE     ---       #360
      00FF8041H   LINE      CODE     ---       #362
      00FF8051H   LINE      CODE     ---       #363
      00FF8058H   LINE      CODE     ---       #364
      00FF8062H   LINE      CODE     ---       #365
      00FF8079H   LINE      CODE     ---       #366
      00FF8093H   LINE      CODE     ---       #367
      ---         BLOCKEND  ---      ---       LVL=0

      00FF9578H   BLOCK     CODE     ---       LVL=0
      00000EE7H   SYMBOL    EDATA    WORD      x
      00000EE9H   SYMBOL    EDATA    WORD      y
      00000EEBH   SYMBOL    EDATA    ---       dat
      00FF9584H   BLOCK     CODE     NEAR LAB  LVL=1
      00000EEFH   SYMBOL    EDATA    WORD      j
      ---         BLOCKEND  ---      ---       LVL=1
      00FF9578H   LINE      CODE     ---       #378
      00FF9584H   LINE      CODE     ---       #379
L251 LINKER/LOCATER V4.66.93.0                                                        11/20/2024  19:22:33  PAGE 70


      00FF9584H   LINE      CODE     ---       #382
      00FF958AH   LINE      CODE     ---       #383
      00FF958CH   LINE      CODE     ---       #385
      00FF95B6H   LINE      CODE     ---       #386
      00FF95C4H   LINE      CODE     ---       #387
      00FF95D4H   LINE      CODE     ---       #388
      ---         BLOCKEND  ---      ---       LVL=0
      00000F69H   SYMBOL    EDATA    WORD      x
      00000F6BH   SYMBOL    EDATA    WORD      y
      00000F6DH   SYMBOL    EDATA    CHAR      dat
      00000F6EH   SYMBOL    EDATA    ---       a
      00000F71H   SYMBOL    EDATA    BYTE      i
      00000F72H   SYMBOL    EDATA    WORD      x
      00000F74H   SYMBOL    EDATA    WORD      y
      00000F76H   SYMBOL    EDATA    BYTE      dat
      00000F77H   SYMBOL    EDATA    ---       a
      00000F7AH   SYMBOL    EDATA    BYTE      i
      00000DBCH   SYMBOL    EDATA    WORD      x
      00000DBEH   SYMBOL    EDATA    WORD      y
      00000DC0H   SYMBOL    EDATA    INT       dat
      00000DC2H   SYMBOL    EDATA    ---       a
      00000DC7H   SYMBOL    EDATA    BYTE      i
      00000DC8H   SYMBOL    EDATA    WORD      x
      00000DCAH   SYMBOL    EDATA    WORD      y
      00000DCCH   SYMBOL    EDATA    WORD      dat
      00000DCEH   SYMBOL    EDATA    ---       a
      00000DD3H   SYMBOL    EDATA    BYTE      i
      00000914H   SYMBOL    EDATA    WORD      x
      00000916H   SYMBOL    EDATA    WORD      y
      00000918H   SYMBOL    EDATA    LONG      dat
      0000091CH   SYMBOL    EDATA    BYTE      num
      0000091DH   SYMBOL    EDATA    ---       buff
      0000093FH   SYMBOL    EDATA    BYTE      length
      00000797H   SYMBOL    EDATA    WORD      x
      00000799H   SYMBOL    EDATA    WORD      y
      0000079BH   SYMBOL    EDATA    FLOAT     dat
      0000079FH   SYMBOL    EDATA    BYTE      num
      000007A0H   SYMBOL    EDATA    BYTE      pointnum
      000007A1H   SYMBOL    EDATA    BYTE      length
      000007A2H   SYMBOL    EDATA    ---       buff
      000007C4H   SYMBOL    EDATA    CHAR      start
      000007C5H   SYMBOL    EDATA    CHAR      end
      000007C6H   SYMBOL    EDATA    CHAR      point

      00FFABC8H   BLOCK     CODE     ---       LVL=0
      0000130EH   SYMBOL    EDATA    BYTE      dat
      00FFABC8H   LINE      CODE     ---       #607
      00FFABCCH   LINE      CODE     ---       #610
      00FFABCFH   LINE      CODE     ---       #611
      00FFABD2H   LINE      CODE     ---       #612
      00FFABD9H   LINE      CODE     ---       #613
      00FFABDCH   LINE      CODE     ---       #614
      ---         BLOCKEND  ---      ---       LVL=0

      00FFABDDH   BLOCK     CODE     ---       LVL=0
      0000130FH   SYMBOL    EDATA    BYTE      dat
      00FFABDDH   LINE      CODE     ---       #623
      00FFABE1H   LINE      CODE     ---       #625
      00FFABE4H   LINE      CODE     ---       #626
      00FFABE7H   LINE      CODE     ---       #627
      00FFABEEH   LINE      CODE     ---       #628
      00FFABF1H   LINE      CODE     ---       #629
      ---         BLOCKEND  ---      ---       LVL=0

      00FFA593H   BLOCK     CODE     ---       LVL=0
L251 LINKER/LOCATER V4.66.93.0                                                        11/20/2024  19:22:33  PAGE 71


      0000122BH   SYMBOL    EDATA    WORD      dat
      00FFA597H   BLOCK     CODE     NEAR LAB  LVL=1
      0000122DH   SYMBOL    EDATA    ---       dat1
      ---         BLOCKEND  ---      ---       LVL=1
      00FFA593H   LINE      CODE     ---       #638
      00FFA597H   LINE      CODE     ---       #639
      00FFA597H   LINE      CODE     ---       #642
      00FFA59DH   LINE      CODE     ---       #643
      00FFA5A5H   LINE      CODE     ---       #645
      00FFA5A8H   LINE      CODE     ---       #646
      00FFA5ABH   LINE      CODE     ---       #647
      00FFA5B2H   LINE      CODE     ---       #648
      00FFA5B9H   LINE      CODE     ---       #649
      00FFA5BCH   LINE      CODE     ---       #651
      ---         BLOCKEND  ---      ---       LVL=0

      00FF9278H   BLOCK     CODE     ---       LVL=0
      0000107BH   SYMBOL    EDATA    WORD      x_start
      0000107DH   SYMBOL    EDATA    WORD      y_start
      0000107FH   SYMBOL    EDATA    WORD      x_end
      00001081H   SYMBOL    EDATA    WORD      y_end
      00FF9278H   LINE      CODE     ---       #663
      00FF9288H   LINE      CODE     ---       #681
      00FF928DH   LINE      CODE     ---       #682
      00FF9291H   LINE      CODE     ---       #683
      00FF929EH   LINE      CODE     ---       #684
      00FF92A2H   LINE      CODE     ---       #685
      00FF92AFH   LINE      CODE     ---       #687
      00FF92B4H   LINE      CODE     ---       #688
      00FF92B8H   LINE      CODE     ---       #689
      00FF92C5H   LINE      CODE     ---       #690
      00FF92C9H   LINE      CODE     ---       #691
      00FF92D6H   LINE      CODE     ---       #695
      00FF92DBH   LINE      CODE     ---       #696
      ---         BLOCKEND  ---      ---       LVL=0

      00FF98FFH   BLOCK     CODE     ---       LVL=0
      0000122FH   SYMBOL    EDATA    INT       color
      00FF9903H   BLOCK     CODE     NEAR LAB  LVL=1
      00001231H   SYMBOL    EDATA    BYTE      i
      00001232H   SYMBOL    EDATA    BYTE      j
      ---         BLOCKEND  ---      ---       LVL=1
      00FF98FFH   LINE      CODE     ---       #705
      00FF9903H   LINE      CODE     ---       #706
      00FF9903H   LINE      CODE     ---       #708
      00FF9912H   LINE      CODE     ---       #709
      00FF9919H   LINE      CODE     ---       #710
      00FF9920H   LINE      CODE     ---       #711
      00FF9955H   LINE      CODE     ---       #712
      ---         BLOCKEND  ---      ---       LVL=0
      00001153H   SYMBOL    EDATA    WORD      x
      00001155H   SYMBOL    EDATA    WORD      y
      00001157H   SYMBOL    EDATA    WORD      color

      00FF8094H   BLOCK     CODE     ---       LVL=0
      00001083H   SYMBOL    EDATA    WORD      x
      00001085H   SYMBOL    EDATA    WORD      y
      00001087H   SYMBOL    EDATA    CHAR      dat
      00FF80A0H   BLOCK     CODE     NEAR LAB  LVL=1
      00001088H   SYMBOL    EDATA    BYTE      i
      00001089H   SYMBOL    EDATA    BYTE      j
      0000108AH   SYMBOL    EDATA    BYTE      temp
      ---         BLOCKEND  ---      ---       LVL=1
      00FF8094H   LINE      CODE     ---       #872
      00FF80A0H   LINE      CODE     ---       #873
L251 LINKER/LOCATER V4.66.93.0                                                        11/20/2024  19:22:33  PAGE 72


      00FF80A0H   LINE      CODE     ---       #877
      00FF80A8H   LINE      CODE     ---       #879
      00FF80D1H   LINE      CODE     ---       #880
      00FF80F9H   LINE      CODE     ---       #881
      00FF8100H   LINE      CODE     ---       #883
      00FF8110H   LINE      CODE     ---       #884
      00FF8117H   LINE      CODE     ---       #885
      00FF8121H   LINE      CODE     ---       #886
      00FF8138H   LINE      CODE     ---       #887
      00FF8152H   LINE      CODE     ---       #888
      ---         BLOCKEND  ---      ---       LVL=0

      00FF95D5H   BLOCK     CODE     ---       LVL=0
      00000EF1H   SYMBOL    EDATA    WORD      x
      00000EF3H   SYMBOL    EDATA    WORD      y
      00000EF5H   SYMBOL    EDATA    ---       dat
      00FF95E1H   BLOCK     CODE     NEAR LAB  LVL=1
      00000EF9H   SYMBOL    EDATA    WORD      j
      ---         BLOCKEND  ---      ---       LVL=1
      00FF95D5H   LINE      CODE     ---       #899
      00FF95E1H   LINE      CODE     ---       #900
      00FF95E1H   LINE      CODE     ---       #903
      00FF95E7H   LINE      CODE     ---       #904
      00FF95E9H   LINE      CODE     ---       #906
      00FF9613H   LINE      CODE     ---       #907
      00FF9621H   LINE      CODE     ---       #908
      00FF9631H   LINE      CODE     ---       #909
      ---         BLOCKEND  ---      ---       LVL=0
      00000F7BH   SYMBOL    EDATA    WORD      x
      00000F7DH   SYMBOL    EDATA    WORD      y
      00000F7FH   SYMBOL    EDATA    CHAR      dat
      00000F80H   SYMBOL    EDATA    ---       a
      00000F83H   SYMBOL    EDATA    BYTE      i
      00000F84H   SYMBOL    EDATA    WORD      x
      00000F86H   SYMBOL    EDATA    WORD      y
      00000F88H   SYMBOL    EDATA    BYTE      dat
      00000F89H   SYMBOL    EDATA    ---       a
      00000F8CH   SYMBOL    EDATA    BYTE      i
      00000DD4H   SYMBOL    EDATA    WORD      x
      00000DD6H   SYMBOL    EDATA    WORD      y
      00000DD8H   SYMBOL    EDATA    INT       dat
      00000DDAH   SYMBOL    EDATA    ---       a
      00000DDFH   SYMBOL    EDATA    BYTE      i
      00000DE0H   SYMBOL    EDATA    WORD      x
      00000DE2H   SYMBOL    EDATA    WORD      y
      00000DE4H   SYMBOL    EDATA    WORD      dat
      00000DE6H   SYMBOL    EDATA    ---       a
      00000DEBH   SYMBOL    EDATA    BYTE      i
      00000940H   SYMBOL    EDATA    WORD      x
      00000942H   SYMBOL    EDATA    WORD      y
      00000944H   SYMBOL    EDATA    LONG      dat
      00000948H   SYMBOL    EDATA    BYTE      num
      00000949H   SYMBOL    EDATA    ---       buff
      0000096BH   SYMBOL    EDATA    BYTE      length
      000007C7H   SYMBOL    EDATA    WORD      x
      000007C9H   SYMBOL    EDATA    WORD      y
      000007CBH   SYMBOL    EDATA    FLOAT     dat
      000007CFH   SYMBOL    EDATA    BYTE      num
      000007D0H   SYMBOL    EDATA    BYTE      pointnum
      000007D1H   SYMBOL    EDATA    BYTE      length
      000007D2H   SYMBOL    EDATA    ---       buff
      000007F4H   SYMBOL    EDATA    CHAR      start
      000007F5H   SYMBOL    EDATA    CHAR      end
      000007F6H   SYMBOL    EDATA    CHAR      point
      00000DECH   SYMBOL    EDATA    ---       p
L251 LINKER/LOCATER V4.66.93.0                                                        11/20/2024  19:22:33  PAGE 73


      00000DF0H   SYMBOL    EDATA    INT       i
      00000DF2H   SYMBOL    EDATA    INT       j
      00000DF4H   SYMBOL    EDATA    INT       k
      00000DF6H   SYMBOL    EDATA    BYTE      picH
      00000DF7H   SYMBOL    EDATA    BYTE      picL

      ---         MODULE    ---      ---       SEEKFREE_BLUETOOTH_CH9141
      00FFAA64H   PUBLIC    CODE     ---       bluetooth_ch9141_uart_callback
      000000D0H   SFRSYM    DATA     BYTE      PSW
      0000009DH   SFRSYM    DATA     BYTE      IRCBAND
      00000097H   SFRSYM    DATA     BYTE      AUXR2
      000000EFH   SFRSYM    DATA     BYTE      AUXINTIF
      000000FDH   SFRSYM    DATA     BYTE      S4CON
      000000ACH   SFRSYM    DATA     BYTE      S3CON
      0000009AH   SFRSYM    DATA     BYTE      S2CON
      000000FEH   SFRSYM    DATA     BYTE      S4BUF
      000000B7H   SFRSYM    DATA     BYTE      IPH
      000000CDH   SFRSYM    DATA     BYTE      SPSTAT
      000000DDH   SFRSYM    DATA     BYTE      T4T3M
      000000C1H   SFRSYM    DATA     BYTE      WDT_CONTR
      000000DFH   SFRSYM    DATA     BYTE      IP3
      000000F4H   SFRSYM    DATA     BYTE      USBCON
      000000B5H   SFRSYM    DATA     BYTE      IP2
      000000FFH   SFRSYM    DATA     BYTE      RSTCFG
      000000C7H   SFRSYM    DATA     BYTE      IAP_CONTR
      000000F9H   SFRSYM    DATA     BYTE      LINICR
      0000008EH   SFRSYM    DATA     BYTE      AUXR
      000000AFH   SFRSYM    DATA     BYTE      IE2
      00000080H.7 SFRSYM    DATA     BIT       P07
      00000088H   SFRSYM    DATA     BYTE      TCON
      00000089H   SFRSYM    DATA     BYTE      TMOD
      00000098H   SFRSYM    DATA     BYTE      SCON
      000000F1H   SFRSYM    DATA     BYTE      CANICR
      00000087H   SFRSYM    DATA     BYTE      PCON
      000000BCH   SFRSYM    DATA     BYTE      ADC_CONTR
      000000E7H   SFRSYM    DATA     BYTE      CMPCR2
      000000E6H   SFRSYM    DATA     BYTE      CMPCR1
      000000DEH   SFRSYM    DATA     BYTE      ADCCFG
      000000B8H   SFRSYM    DATA     BYTE      IP
      0000008FH   SFRSYM    DATA     BYTE      INTCLKO
      000000EEH   SFRSYM    DATA     BYTE      IP3H
      000000B6H   SFRSYM    DATA     BYTE      IP2H
      000000A8H   SFRSYM    DATA     BYTE      IE
      000000BBH   SFRSYM    DATA     BYTE      P_SW3
      000000BAH   SFRSYM    DATA     BYTE      P_SW2
      000000A2H   SFRSYM    DATA     BYTE      P_SW1
      000000CEH   SFRSYM    DATA     BYTE      SPCTL
      000000F8H   SFRSYM    DATA     BYTE      P7
      000000E8H   SFRSYM    DATA     BYTE      P6
      000000C8H   SFRSYM    DATA     BYTE      P5
      000000C0H   SFRSYM    DATA     BYTE      P4
      000000B0H   SFRSYM    DATA     BYTE      P3
      000000A0H   SFRSYM    DATA     BYTE      P2
      00000090H   SFRSYM    DATA     BYTE      P1
      00000080H   SFRSYM    DATA     BYTE      P0
      00000621H   SYMBOL    EDATA    ---       bluetooth_ch9141_buffer
      00000661H   SYMBOL    EDATA    BYTE      bluetooth_ch9141_data
      00000662H   SYMBOL    EDATA    ---       bluetooth_ch9141_fifo

      00FFAA64H   BLOCK     CODE     ---       LVL=0
      00FFAA64H   LINE      CODE     ---       #67
      00FFAA64H   LINE      CODE     ---       #70
      00FFAA6AH   LINE      CODE     ---       #71
      00FFAA7DH   LINE      CODE     ---       #72
      ---         BLOCKEND  ---      ---       LVL=0
L251 LINKER/LOCATER V4.66.93.0                                                        11/20/2024  19:22:33  PAGE 74


      00000EFBH   SYMBOL    EDATA    ---       buff
      00000EFFH   SYMBOL    EDATA    DWORD     len
      00000F03H   SYMBOL    EDATA    WORD      time_count
      00000DF8H   SYMBOL    EDATA    ---       buff
      00000DFCH   SYMBOL    EDATA    DWORD     len
      00000E00H   SYMBOL    EDATA    DWORD     data_len

      ---         MODULE    ---      ---       SEEKFREE_DL1A
      0000127DH   PUBLIC    EDATA    WORD      dl1a_distance_mm
      0000127FH   PUBLIC    EDATA    BYTE      dl1a_finsh_flag
      000000D0H   SFRSYM    DATA     BYTE      PSW
      0000009DH   SFRSYM    DATA     BYTE      IRCBAND
      00000097H   SFRSYM    DATA     BYTE      AUXR2
      000000EFH   SFRSYM    DATA     BYTE      AUXINTIF
      000000FDH   SFRSYM    DATA     BYTE      S4CON
      000000ACH   SFRSYM    DATA     BYTE      S3CON
      0000009AH   SFRSYM    DATA     BYTE      S2CON
      000000B7H   SFRSYM    DATA     BYTE      IPH
      000000CDH   SFRSYM    DATA     BYTE      SPSTAT
      000000DDH   SFRSYM    DATA     BYTE      T4T3M
      000000C1H   SFRSYM    DATA     BYTE      WDT_CONTR
      000000DFH   SFRSYM    DATA     BYTE      IP3
      000000F4H   SFRSYM    DATA     BYTE      USBCON
      000000B5H   SFRSYM    DATA     BYTE      IP2
      000000FFH   SFRSYM    DATA     BYTE      RSTCFG
      000000C7H   SFRSYM    DATA     BYTE      IAP_CONTR
      000000F9H   SFRSYM    DATA     BYTE      LINICR
      0000008EH   SFRSYM    DATA     BYTE      AUXR
      000000AFH   SFRSYM    DATA     BYTE      IE2
      000000B0H.7 SFRSYM    DATA     BIT       P37
      000000B0H.6 SFRSYM    DATA     BIT       P36
      000000C8H.2 SFRSYM    DATA     BIT       P52
      00000088H   SFRSYM    DATA     BYTE      TCON
      00000089H   SFRSYM    DATA     BYTE      TMOD
      00000098H   SFRSYM    DATA     BYTE      SCON
      000000F1H   SFRSYM    DATA     BYTE      CANICR
      00000087H   SFRSYM    DATA     BYTE      PCON
      000000BCH   SFRSYM    DATA     BYTE      ADC_CONTR
      000000E7H   SFRSYM    DATA     BYTE      CMPCR2
      000000E6H   SFRSYM    DATA     BYTE      CMPCR1
      000000DEH   SFRSYM    DATA     BYTE      ADCCFG
      000000B8H   SFRSYM    DATA     BYTE      IP
      0000008FH   SFRSYM    DATA     BYTE      INTCLKO
      000000EEH   SFRSYM    DATA     BYTE      IP3H
      000000B6H   SFRSYM    DATA     BYTE      IP2H
      000000A8H   SFRSYM    DATA     BYTE      IE
      000000BBH   SFRSYM    DATA     BYTE      P_SW3
      000000BAH   SFRSYM    DATA     BYTE      P_SW2
      000000A2H   SFRSYM    DATA     BYTE      P_SW1
      000000CEH   SFRSYM    DATA     BYTE      SPCTL
      000000F8H   SFRSYM    DATA     BYTE      P7
      000000E8H   SFRSYM    DATA     BYTE      P6
      000000C8H   SFRSYM    DATA     BYTE      P5
      000000C0H   SFRSYM    DATA     BYTE      P4
      000000B0H   SFRSYM    DATA     BYTE      P3
      000000A0H   SFRSYM    DATA     BYTE      P2
      00000090H   SFRSYM    DATA     BYTE      P1
      00000080H   SFRSYM    DATA     BYTE      P0
      00FFA68DH   SYMBOL    CODE     ---       dl1a_simiic_sendack
      00FF9BA5H   SYMBOL    CODE     ---       dl1a_timeout_microseconds_to_mclks
      00FF9B52H   SYMBOL    CODE     ---       dl1a_timeout_mclks_to_microseconds
      00FFA1F5H   SYMBOL    CODE     ---       dl1a_set_signal_rate_limit
      00FF906EH   SYMBOL    CODE     ---       dl1a_read_ch
      00FFA5BDH   SYMBOL    CODE     ---       dl1a_decode_timeout
      00FF9F8FH   SYMBOL    CODE     ---       dl1a_send_ch
L251 LINKER/LOCATER V4.66.93.0                                                        11/20/2024  19:22:33  PAGE 75


      00FF6AECH   SYMBOL    CODE     ---       dl1a_get_spad_info
      00FF899CH   SYMBOL    CODE     ---       dl1a_encode_timeout
      00FF8806H   SYMBOL    CODE     ---       dl1a_get_sequence_step_enables
      00FFA8B9H   SYMBOL    CODE     ---       dl1a_sccb_waitack
      00FFA97FH   SYMBOL    CODE     ---       dl1a_simiic_delay
      00FF84F0H   SYMBOL    CODE     ---       dl1a_perform_single_ref_calibration
      00FF6C81H   SYMBOL    CODE     ---       dl1a_get_sequence_step_timeouts
      00FFAC99H   SYMBOL    CODE     ---       dl1a_simiic_start
      00FF91ACH   SYMBOL    CODE     ---       dl1a_simiic_read_regs
      00FF82D1H   SYMBOL    CODE     ---       dl1a_get_measurement_timing_budget
      00FFA0F3H   SYMBOL    CODE     ---       dl1a_simiic_write_dats
      00FFA2EAH   SYMBOL    CODE     ---       dl1a_simiic_read_reg
      00FF6F43H   SYMBOL    CODE     ---       dl1a_set_measurement_timing_budget
      00FFAB32H   SYMBOL    CODE     ---       dl1a_simiic_stop
      00FFA5E7H   SYMBOL    CODE     ---       dl1a_simiic_write_reg
      00FF8B15H   SYMBOL    CODE     ---       dl1a_get_vcsel_pulse_period

      00FFA97FH   BLOCK     CODE     ---       LVL=0
      000012C2H   SYMBOL    EDATA    WORD      j
      00FFA97FH   LINE      CODE     ---       #59
      00FFA97FH   LINE      CODE     ---       #60
      00FFA97FH   LINE      CODE     ---       #61
      00FFA987H   LINE      CODE     ---       #62
      00FFA99DH   LINE      CODE     ---       #63
      ---         BLOCKEND  ---      ---       LVL=0

      00FFAC99H   BLOCK     CODE     ---       LVL=0
      00FFAC99H   LINE      CODE     ---       #66
      00FFAC99H   LINE      CODE     ---       #68
      00FFAC9CH   LINE      CODE     ---       #69
      00FFAC9FH   LINE      CODE     ---       #70
      00FFACA2H   LINE      CODE     ---       #71
      00FFACA5H   LINE      CODE     ---       #72
      00FFACA8H   LINE      CODE     ---       #73
      00FFACABH   LINE      CODE     ---       #74
      ---         BLOCKEND  ---      ---       LVL=0

      00FFAB32H   BLOCK     CODE     ---       LVL=0
      00FFAB32H   LINE      CODE     ---       #77
      00FFAB32H   LINE      CODE     ---       #79
      00FFAB35H   LINE      CODE     ---       #80
      00FFAB38H   LINE      CODE     ---       #81
      00FFAB3BH   LINE      CODE     ---       #82
      00FFAB3EH   LINE      CODE     ---       #83
      00FFAB41H   LINE      CODE     ---       #84
      00FFAB44H   LINE      CODE     ---       #85
      00FFAB47H   LINE      CODE     ---       #86
      ---         BLOCKEND  ---      ---       LVL=0

      00FFA68DH   BLOCK     CODE     ---       LVL=0
      00001310H   SYMBOL    EDATA    BYTE      ack_dat
      00FFA68DH   LINE      CODE     ---       #90
      00FFA691H   LINE      CODE     ---       #92
      00FFA694H   LINE      CODE     ---       #93
      00FFA697H   LINE      CODE     ---       #94
      00FFA6A5H   LINE      CODE     ---       #95
      00FFA6A8H   LINE      CODE     ---       #97
      00FFA6ABH   LINE      CODE     ---       #98
      00FFA6AEH   LINE      CODE     ---       #99
      00FFA6B1H   LINE      CODE     ---       #100
      00FFA6B4H   LINE      CODE     ---       #101
      ---         BLOCKEND  ---      ---       LVL=0

      00FFA8B9H   BLOCK     CODE     ---       LVL=0
      00FFA8B9H   LINE      CODE     ---       #104
L251 LINKER/LOCATER V4.66.93.0                                                        11/20/2024  19:22:33  PAGE 76


      00FFA8B9H   LINE      CODE     ---       #106
      00FFA8BCH   LINE      CODE     ---       #108
      00FFA8BFH   LINE      CODE     ---       #110
      00FFA8C2H   LINE      CODE     ---       #111
      00FFA8C5H   LINE      CODE     ---       #113
      00FFA8C8H   LINE      CODE     ---       #116
      00FFA8CBH   LINE      CODE     ---       #117
      00FFA8CFH   LINE      CODE     ---       #118
      00FFA8CFH   LINE      CODE     ---       #120
      00FFA8D2H   LINE      CODE     ---       #121
      00FFA8D5H   LINE      CODE     ---       #122
      00FFA8D9H   LINE      CODE     ---       #123
      ---         BLOCKEND  ---      ---       LVL=0

      00FF9F8FH   BLOCK     CODE     ---       LVL=0
      000012C4H   SYMBOL    EDATA    BYTE      c
      00FF9F93H   BLOCK     CODE     NEAR LAB  LVL=1
      000012C5H   SYMBOL    EDATA    BYTE      i
      ---         BLOCKEND  ---      ---       LVL=1
      00FF9F8FH   LINE      CODE     ---       #129
      00FF9F93H   LINE      CODE     ---       #130
      00FF9F93H   LINE      CODE     ---       #131
      00FF9F99H   LINE      CODE     ---       #132
      00FF9F9BH   LINE      CODE     ---       #134
      00FF9FA7H   LINE      CODE     ---       #135
      00FF9FAAH   LINE      CODE     ---       #136
      00FF9FB4H   LINE      CODE     ---       #137
      00FF9FB7H   LINE      CODE     ---       #138
      00FF9FBAH   LINE      CODE     ---       #139
      00FF9FBDH   LINE      CODE     ---       #140
      00FF9FC0H   LINE      CODE     ---       #141
      00FF9FD4H   LINE      CODE     ---       #142
      00FF9FD7H   LINE      CODE     ---       #143
      ---         BLOCKEND  ---      ---       LVL=0

      00FF906EH   BLOCK     CODE     ---       LVL=0
      00001280H   SYMBOL    EDATA    BYTE      ack_x
      00FF9072H   BLOCK     CODE     NEAR LAB  LVL=1
      00001281H   SYMBOL    EDATA    BYTE      i
      00001282H   SYMBOL    EDATA    BYTE      c
      ---         BLOCKEND  ---      ---       LVL=1
      00FF906EH   LINE      CODE     ---       #149
      00FF9072H   LINE      CODE     ---       #150
      00FF9072H   LINE      CODE     ---       #153
      00FF9077H   LINE      CODE     ---       #154
      00FF907AH   LINE      CODE     ---       #155
      00FF907DH   LINE      CODE     ---       #156
      00FF9080H   LINE      CODE     ---       #158
      00FF9087H   LINE      CODE     ---       #160
      00FF908AH   LINE      CODE     ---       #161
      00FF908DH   LINE      CODE     ---       #162
      00FF9090H   LINE      CODE     ---       #163
      00FF9093H   LINE      CODE     ---       #164
      00FF9096H   LINE      CODE     ---       #165
      00FF90A0H   LINE      CODE     ---       #166
      00FF90A3H   LINE      CODE     ---       #168
      00FF90AFH   LINE      CODE     ---       #169
      00FF90C6H   LINE      CODE     ---       #172
      00FF90C9H   LINE      CODE     ---       #173
      00FF90CCH   LINE      CODE     ---       #174
      00FF90D3H   LINE      CODE     ---       #176
      00FF90D7H   LINE      CODE     ---       #177
      ---         BLOCKEND  ---      ---       LVL=0

      00FFA0F3H   BLOCK     CODE     ---       LVL=0
L251 LINKER/LOCATER V4.66.93.0                                                        11/20/2024  19:22:33  PAGE 77


      00000F8DH   SYMBOL    EDATA    BYTE      dev_add
      00000F8EH   SYMBOL    EDATA    ---       dat
      00000F92H   SYMBOL    EDATA    DWORD     len
      00FFA0F3H   LINE      CODE     ---       #189
      00FFA0FFH   LINE      CODE     ---       #191
      00FFA102H   LINE      CODE     ---       #192
      00FFA10BH   LINE      CODE     ---       #193
      00FFA10DH   LINE      CODE     ---       #195
      00FFA11DH   LINE      CODE     ---       #196
      00FFA131H   LINE      CODE     ---       #199
      00FFA134H   LINE      CODE     ---       #200
      ---         BLOCKEND  ---      ---       LVL=0

      00FFA5E7H   BLOCK     CODE     ---       LVL=0
      00001283H   SYMBOL    EDATA    BYTE      dev_add
      00001284H   SYMBOL    EDATA    BYTE      reg
      00001285H   SYMBOL    EDATA    BYTE      dat
      00FFA5E7H   LINE      CODE     ---       #212
      00FFA5F3H   LINE      CODE     ---       #214
      00FFA5F6H   LINE      CODE     ---       #215
      00FFA5FFH   LINE      CODE     ---       #216
      00FFA606H   LINE      CODE     ---       #217
      00FFA60DH   LINE      CODE     ---       #218
      00FFA610H   LINE      CODE     ---       #219
      ---         BLOCKEND  ---      ---       LVL=0

      00FFA2EAH   BLOCK     CODE     ---       LVL=0
      00001286H   SYMBOL    EDATA    BYTE      dev_add
      00001287H   SYMBOL    EDATA    BYTE      reg
      00FFA2F2H   BLOCK     CODE     NEAR LAB  LVL=1
      00001288H   SYMBOL    EDATA    BYTE      dat
      ---         BLOCKEND  ---      ---       LVL=1
      00FFA2EAH   LINE      CODE     ---       #230
      00FFA2F2H   LINE      CODE     ---       #231
      00FFA2F2H   LINE      CODE     ---       #233
      00FFA2F5H   LINE      CODE     ---       #234
      00FFA2FEH   LINE      CODE     ---       #235
      00FFA305H   LINE      CODE     ---       #238
      00FFA308H   LINE      CODE     ---       #239
      00FFA315H   LINE      CODE     ---       #240
      00FFA31DH   LINE      CODE     ---       #241
      00FFA320H   LINE      CODE     ---       #243
      00FFA324H   LINE      CODE     ---       #244
      ---         BLOCKEND  ---      ---       LVL=0

      00FF91ACH   BLOCK     CODE     ---       LVL=0
      00000F05H   SYMBOL    EDATA    BYTE      dev_add
      00000F06H   SYMBOL    EDATA    BYTE      reg
      00000F07H   SYMBOL    EDATA    ---       dat_add
      00000F0BH   SYMBOL    EDATA    DWORD     num
      00FF91ACH   LINE      CODE     ---       #257
      00FF91B8H   LINE      CODE     ---       #259
      00FF91BBH   LINE      CODE     ---       #260
      00FF91C4H   LINE      CODE     ---       #261
      00FF91CBH   LINE      CODE     ---       #264
      00FF91CEH   LINE      CODE     ---       #265
      00FF91DBH   LINE      CODE     ---       #266
      00FF91DDH   LINE      CODE     ---       #268
      00FF91E9H   LINE      CODE     ---       #269
      00FF91F3H   LINE      CODE     ---       #270
      00FF9205H   LINE      CODE     ---       #271
      00FF9210H   LINE      CODE     ---       #272
      00FF9213H   LINE      CODE     ---       #273
      ---         BLOCKEND  ---      ---       LVL=0
      00000F0FH   SYMBOL    EDATA    BYTE      dev_add
L251 LINKER/LOCATER V4.66.93.0                                                        11/20/2024  19:22:33  PAGE 78


      00000F10H   SYMBOL    EDATA    BYTE      reg
      00000F11H   SYMBOL    EDATA    ---       dat_add
      00000F15H   SYMBOL    EDATA    DWORD     num

      00FF6AECH   BLOCK     CODE     ---       LVL=0
      00000E04H   SYMBOL    EDATA    ---       index
      00000E08H   SYMBOL    EDATA    ---       type_is_aperture
      00FF6AF4H   BLOCK     CODE     NEAR LAB  LVL=1
      00000E0CH   SYMBOL    EDATA    BYTE      tmp
      00000E0DH   SYMBOL    EDATA    BYTE      return_state
      00000E0EH   SYMBOL    EDATA    WORD      loop_count
      ---         BLOCKEND  ---      ---       LVL=1
      00FF6AECH   LINE      CODE     ---       #334
      00FF6AF4H   LINE      CODE     ---       #335
      00FF6AF4H   LINE      CODE     ---       #336
      00FF6AF9H   LINE      CODE     ---       #337
      00FF6AFEH   LINE      CODE     ---       #338
      00FF6B04H   LINE      CODE     ---       #340
      00FF6B04H   LINE      CODE     ---       #342
      00FF6B0FH   LINE      CODE     ---       #343
      00FF6B1AH   LINE      CODE     ---       #344
      00FF6B23H   LINE      CODE     ---       #346
      00FF6B2EH   LINE      CODE     ---       #347
      00FF6B42H   LINE      CODE     ---       #348
      00FF6B53H   LINE      CODE     ---       #349
      00FF6B5EH   LINE      CODE     ---       #350
      00FF6B69H   LINE      CODE     ---       #352
      00FF6B74H   LINE      CODE     ---       #354
      00FF6B7FH   LINE      CODE     ---       #355
      00FF6B89H   LINE      CODE     ---       #357
      00FF6B8EH   LINE      CODE     ---       #358
      00FF6B90H   LINE      CODE     ---       #360
      00FF6BA4H   LINE      CODE     ---       #361
      00FF6BB2H   LINE      CODE     ---       #362
      00FF6BBEH   LINE      CODE     ---       #364
      00FF6BC4H   LINE      CODE     ---       #365
      00FF6BC6H   LINE      CODE     ---       #366
      00FF6BCFH   LINE      CODE     ---       #369
      00FF6BDBH   LINE      CODE     ---       #371
      00FF6BDBH   LINE      CODE     ---       #372
      00FF6BDBH   LINE      CODE     ---       #373
      00FF6BE6H   LINE      CODE     ---       #374
      00FF6BFAH   LINE      CODE     ---       #376
      00FF6C0AH   LINE      CODE     ---       #377
      00FF6C1EH   LINE      CODE     ---       #379
      00FF6C28H   LINE      CODE     ---       #380
      00FF6C33H   LINE      CODE     ---       #381
      00FF6C47H   LINE      CODE     ---       #382
      00FF6C53H   LINE      CODE     ---       #383
      00FF6C5EH   LINE      CODE     ---       #384
      00FF6C68H   LINE      CODE     ---       #386
      00FF6C72H   LINE      CODE     ---       #387
      00FF6C7CH   LINE      CODE     ---       #388
      00FF6C7CH   LINE      CODE     ---       #390
      00FF6C80H   LINE      CODE     ---       #391
      ---         BLOCKEND  ---      ---       LVL=0

      00FF9B52H   BLOCK     CODE     ---       LVL=0
      000010F2H   SYMBOL    EDATA    WORD      timeout_period_mclks
      000010F4H   SYMBOL    EDATA    BYTE      vcsel_period_pclks
      00FF9B5AH   BLOCK     CODE     NEAR LAB  LVL=1
      000010F5H   SYMBOL    EDATA    DWORD     macro_period_ns
      ---         BLOCKEND  ---      ---       LVL=1
      00FF9B52H   LINE      CODE     ---       #401
      00FF9B5AH   LINE      CODE     ---       #402
L251 LINKER/LOCATER V4.66.93.0                                                        11/20/2024  19:22:33  PAGE 79


      00FF9B5AH   LINE      CODE     ---       #403
      00FF9B81H   LINE      CODE     ---       #405
      00FF9BA4H   LINE      CODE     ---       #406
      ---         BLOCKEND  ---      ---       LVL=0

      00FF9BA5H   BLOCK     CODE     ---       LVL=0
      00000F96H   SYMBOL    EDATA    DWORD     timeout_period_us
      00000F9AH   SYMBOL    EDATA    BYTE      vcsel_period_pclks
      00FF9BADH   BLOCK     CODE     NEAR LAB  LVL=1
      00000F9BH   SYMBOL    EDATA    DWORD     macro_period_ns
      ---         BLOCKEND  ---      ---       LVL=1
      00FF9BA5H   LINE      CODE     ---       #416
      00FF9BADH   LINE      CODE     ---       #417
      00FF9BADH   LINE      CODE     ---       #418
      00FF9BD4H   LINE      CODE     ---       #420
      00FF9BF5H   LINE      CODE     ---       #421
      ---         BLOCKEND  ---      ---       LVL=0

      00FFA5BDH   BLOCK     CODE     ---       LVL=0
      000012C6H   SYMBOL    EDATA    WORD      reg_val
      00FFA5BDH   LINE      CODE     ---       #430
      00FFA5C1H   LINE      CODE     ---       #433
      00FFA5E6H   LINE      CODE     ---       #435
      ---         BLOCKEND  ---      ---       LVL=0

      00FF899CH   BLOCK     CODE     ---       LVL=0
      00000F19H   SYMBOL    EDATA    WORD      timeout_mclks
      00FF89A0H   BLOCK     CODE     NEAR LAB  LVL=1
      00000F1BH   SYMBOL    EDATA    DWORD     ls_byte
      00000F1FH   SYMBOL    EDATA    WORD      ms_byte
      00000F21H   SYMBOL    EDATA    WORD      return_data
      ---         BLOCKEND  ---      ---       LVL=1
      00FF899CH   LINE      CODE     ---       #444
      00FF89A0H   LINE      CODE     ---       #445
      00FF89A0H   LINE      CODE     ---       #446
      00FF89A6H   LINE      CODE     ---       #447
      00FF89ACH   LINE      CODE     ---       #448
      00FF89B2H   LINE      CODE     ---       #450
      00FF89BCH   LINE      CODE     ---       #453
      00FF89CCH   LINE      CODE     ---       #454
      00FF89CEH   LINE      CODE     ---       #456
      00FF89DFH   LINE      CODE     ---       #457
      00FF89EDH   LINE      CODE     ---       #458
      00FF89FEH   LINE      CODE     ---       #459
      00FF8A16H   LINE      CODE     ---       #460
      00FF8A16H   LINE      CODE     ---       #461
      00FF8A1AH   LINE      CODE     ---       #462
      ---         BLOCKEND  ---      ---       LVL=0

      00FF8806H   BLOCK     CODE     ---       LVL=0
      000011E2H   SYMBOL    EDATA    ---       enables
      00FF880AH   BLOCK     CODE     NEAR LAB  LVL=1
      000011E6H   SYMBOL    EDATA    BYTE      sequence_config
      ---         BLOCKEND  ---      ---       LVL=1
      00FF8806H   LINE      CODE     ---       #471
      00FF880AH   LINE      CODE     ---       #472
      00FF880AH   LINE      CODE     ---       #473
      00FF880FH   LINE      CODE     ---       #474
      00FF8823H   LINE      CODE     ---       #476
      00FF8837H   LINE      CODE     ---       #477
      00FF884EH   LINE      CODE     ---       #478
      00FF8864H   LINE      CODE     ---       #479
      00FF887DH   LINE      CODE     ---       #480
      00FF8893H   LINE      CODE     ---       #481
      ---         BLOCKEND  ---      ---       LVL=0
L251 LINKER/LOCATER V4.66.93.0                                                        11/20/2024  19:22:33  PAGE 80



      00FF8B15H   BLOCK     CODE     ---       LVL=0
      00001289H   SYMBOL    EDATA    INT       type
      00FF8B19H   BLOCK     CODE     NEAR LAB  LVL=1
      0000128BH   SYMBOL    EDATA    BYTE      data_buffer
      ---         BLOCKEND  ---      ---       LVL=1
      00FF8B15H   LINE      CODE     ---       #490
      00FF8B19H   LINE      CODE     ---       #491
      00FF8B19H   LINE      CODE     ---       #492
      00FF8B1EH   LINE      CODE     ---       #493
      00FF8B28H   LINE      CODE     ---       #495
      00FF8B3CH   LINE      CODE     ---       #496
      00FF8B4EH   LINE      CODE     ---       #497
      00FF8B50H   LINE      CODE     ---       #498
      00FF8B5CH   LINE      CODE     ---       #500
      00FF8B70H   LINE      CODE     ---       #501
      00FF8B82H   LINE      CODE     ---       #502
      00FF8B84H   LINE      CODE     ---       #505
      00FF8B8AH   LINE      CODE     ---       #506
      00FF8B8AH   LINE      CODE     ---       #507
      00FF8B8EH   LINE      CODE     ---       #508
      ---         BLOCKEND  ---      ---       LVL=0

      00FF6C81H   BLOCK     CODE     ---       LVL=0
      00000E10H   SYMBOL    EDATA    ---       enables
      00000E14H   SYMBOL    EDATA    ---       timeouts
      00FF6C89H   BLOCK     CODE     NEAR LAB  LVL=1
      00000E18H   SYMBOL    EDATA    ---       reg_buffer
      00000E1AH   SYMBOL    EDATA    WORD      reg16_buffer
      ---         BLOCKEND  ---      ---       LVL=1
      00FF6C81H   LINE      CODE     ---       #518
      00FF6C89H   LINE      CODE     ---       #519
      00FF6C89H   LINE      CODE     ---       #521
      00FF6C8FH   LINE      CODE     ---       #523
      00FF6C9DH   LINE      CODE     ---       #525
      00FF6CB1H   LINE      CODE     ---       #526
      00FF6CC6H   LINE      CODE     ---       #527
      00FF6CEAH   LINE      CODE     ---       #529
      00FF6CFEH   LINE      CODE     ---       #530
      00FF6D14H   LINE      CODE     ---       #531
      00FF6D24H   LINE      CODE     ---       #532
      00FF6D4AH   LINE      CODE     ---       #534
      00FF6D5CH   LINE      CODE     ---       #536
      00FF6D70H   LINE      CODE     ---       #537
      00FF6D86H   LINE      CODE     ---       #538
      00FF6D96H   LINE      CODE     ---       #540
      00FF6DA6H   LINE      CODE     ---       #542
      00FF6DC1H   LINE      CODE     ---       #543
      00FF6DC1H   LINE      CODE     ---       #545
      00FF6DE9H   LINE      CODE     ---       #546
      ---         BLOCKEND  ---      ---       LVL=0

      00FF84F0H   BLOCK     CODE     ---       LVL=0
      000011E7H   SYMBOL    EDATA    BYTE      vhv_init_byte
      00FF84F4H   BLOCK     CODE     NEAR LAB  LVL=1
      000011E8H   SYMBOL    EDATA    BYTE      return_state
      000011E9H   SYMBOL    EDATA    BYTE      data_buffer
      000011EAH   SYMBOL    EDATA    WORD      loop_count
      ---         BLOCKEND  ---      ---       LVL=1
      00FF84F0H   LINE      CODE     ---       #555
      00FF84F4H   LINE      CODE     ---       #556
      00FF84F4H   LINE      CODE     ---       #557
      00FF84F9H   LINE      CODE     ---       #558
      00FF84FEH   LINE      CODE     ---       #559
      00FF8504H   LINE      CODE     ---       #560
L251 LINKER/LOCATER V4.66.93.0                                                        11/20/2024  19:22:33  PAGE 81


      00FF8504H   LINE      CODE     ---       #562
      00FF8514H   LINE      CODE     ---       #563
      00FF8528H   LINE      CODE     ---       #564
      00FF852AH   LINE      CODE     ---       #566
      00FF8536H   LINE      CODE     ---       #568
      00FF853CH   LINE      CODE     ---       #569
      00FF853EH   LINE      CODE     ---       #570
      00FF853EH   LINE      CODE     ---       #571
      00FF8558H   LINE      CODE     ---       #573
      00FF856CH   LINE      CODE     ---       #574
      00FF8579H   LINE      CODE     ---       #576
      00FF8582H   LINE      CODE     ---       #578
      00FF8582H   LINE      CODE     ---       #579
      00FF8582H   LINE      CODE     ---       #580
      00FF858DH   LINE      CODE     ---       #581
      00FF8596H   LINE      CODE     ---       #582
      00FF8596H   LINE      CODE     ---       #584
      00FF859AH   LINE      CODE     ---       #585
      ---         BLOCKEND  ---      ---       LVL=0

      00FF6F43H   BLOCK     CODE     ---       LVL=0
      000008B7H   SYMBOL    EDATA    DWORD     budget_us
      00FF6F47H   BLOCK     CODE     NEAR LAB  LVL=1
      000008BBH   SYMBOL    EDATA    BYTE      return_state
      000008BCH   SYMBOL    EDATA    ---       data_buffer
      000008BFH   SYMBOL    EDATA    WORD      dat
      000008C1H   SYMBOL    EDATA    DWORD     used_budget_us
      000008C5H   SYMBOL    EDATA    DWORD     final_range_timeout_us
      000008C9H   SYMBOL    EDATA    WORD      final_range_timeout_mclks
      000008CBH   SYMBOL    EDATA    ---       enables
      000008D0H   SYMBOL    EDATA    ---       timeouts
      ---         BLOCKEND  ---      ---       LVL=1
      00FF6F43H   LINE      CODE     ---       #598
      00FF6F47H   LINE      CODE     ---       #599
      00FF6F47H   LINE      CODE     ---       #600
      00FF6F4CH   LINE      CODE     ---       #602
      00FF6F52H   LINE      CODE     ---       #610
      00FF6F52H   LINE      CODE     ---       #612
      00FF6F5CH   LINE      CODE     ---       #614
      00FF6F62H   LINE      CODE     ---       #615
      00FF6F65H   LINE      CODE     ---       #616
      00FF6F65H   LINE      CODE     ---       #618
      00FF6F6DH   LINE      CODE     ---       #619
      00FF6F74H   LINE      CODE     ---       #620
      00FF6F7FH   LINE      CODE     ---       #622
      00FF6F88H   LINE      CODE     ---       #624
      00FF6F9CH   LINE      CODE     ---       #625
      00FF6F9CH   LINE      CODE     ---       #627
      00FF6FA5H   LINE      CODE     ---       #629
      00FF6FBDH   LINE      CODE     ---       #630
      00FF6FBFH   LINE      CODE     ---       #631
      00FF6FC8H   LINE      CODE     ---       #633
      00FF6FDCH   LINE      CODE     ---       #634
      00FF6FDCH   LINE      CODE     ---       #636
      00FF6FE5H   LINE      CODE     ---       #638
      00FF6FF9H   LINE      CODE     ---       #639
      00FF6FF9H   LINE      CODE     ---       #641
      00FF7005H   LINE      CODE     ---       #646
      00FF7013H   LINE      CODE     ---       #647
      00FF701FH   LINE      CODE     ---       #650
      00FF7025H   LINE      CODE     ---       #651
      00FF7027H   LINE      CODE     ---       #652
      00FF7027H   LINE      CODE     ---       #657
      00FF7035H   LINE      CODE     ---       #658
      00FF7040H   LINE      CODE     ---       #662
L251 LINKER/LOCATER V4.66.93.0                                                        11/20/2024  19:22:33  PAGE 82


      00FF7049H   LINE      CODE     ---       #664
      00FF7057H   LINE      CODE     ---       #665
      00FF7057H   LINE      CODE     ---       #667
      00FF7062H   LINE      CODE     ---       #668
      00FF7068H   LINE      CODE     ---       #669
      00FF7072H   LINE      CODE     ---       #670
      00FF707AH   LINE      CODE     ---       #671
      00FF7087H   LINE      CODE     ---       #672
      00FF7087H   LINE      CODE     ---       #674
      00FF708BH   LINE      CODE     ---       #675
      ---         BLOCKEND  ---      ---       LVL=0

      00FF82D1H   BLOCK     CODE     ---       LVL=0
      00000B00H   SYMBOL    EDATA    ---       enables
      00000B05H   SYMBOL    EDATA    ---       timeouts
      00000B1BH   SYMBOL    EDATA    DWORD     budget_us
      00FF82D1H   LINE      CODE     ---       #684
      00FF82D1H   LINE      CODE     ---       #685
      00FF82D1H   LINE      CODE     ---       #690
      00FF82D9H   LINE      CODE     ---       #692
      00FF82E0H   LINE      CODE     ---       #693
      00FF82EBH   LINE      CODE     ---       #695
      00FF82F4H   LINE      CODE     ---       #697
      00FF8308H   LINE      CODE     ---       #698
      00FF8308H   LINE      CODE     ---       #700
      00FF8311H   LINE      CODE     ---       #702
      00FF8329H   LINE      CODE     ---       #703
      00FF832BH   LINE      CODE     ---       #704
      00FF8334H   LINE      CODE     ---       #706
      00FF8348H   LINE      CODE     ---       #707
      00FF8348H   LINE      CODE     ---       #709
      00FF8351H   LINE      CODE     ---       #711
      00FF8365H   LINE      CODE     ---       #712
      00FF8365H   LINE      CODE     ---       #714
      00FF836EH   LINE      CODE     ---       #716
      00FF8382H   LINE      CODE     ---       #717
      00FF8382H   LINE      CODE     ---       #719
      00FF8386H   LINE      CODE     ---       #720
      ---         BLOCKEND  ---      ---       LVL=0

      00FFA1F5H   BLOCK     CODE     ---       LVL=0
      00000F9FH   SYMBOL    EDATA    FLOAT     limit_mcps
      00FFA1F9H   BLOCK     CODE     NEAR LAB  LVL=1
      00000FA3H   SYMBOL    EDATA    ---       data_buffer
      00000FA6H   SYMBOL    EDATA    WORD      limit_mcps_16bit
      ---         BLOCKEND  ---      ---       LVL=1
      00FFA1F5H   LINE      CODE     ---       #733
      00FFA1F9H   LINE      CODE     ---       #734
      00FFA1F9H   LINE      CODE     ---       #736
      00FFA20DH   LINE      CODE     ---       #740
      00FFA213H   LINE      CODE     ---       #741
      00FFA21DH   LINE      CODE     ---       #742
      00FFA225H   LINE      CODE     ---       #744
      00FFA232H   LINE      CODE     ---       #745
      ---         BLOCKEND  ---      ---       LVL=0
      0000128CH   SYMBOL    EDATA    ---       reg_databuffer
      00000C3DH   SYMBOL    EDATA    DWORD     measurement_timing_budget_us
      00000C41H   SYMBOL    EDATA    BYTE      stop_variable
      00000C42H   SYMBOL    EDATA    BYTE      return_state
      00000C43H   SYMBOL    EDATA    BYTE      reg_data_buffer
      00000C44H   SYMBOL    EDATA    ---       ref_spad_map
      00000C4AH   SYMBOL    EDATA    ---       data_buffer
      00000C51H   SYMBOL    EDATA    BYTE      i

      ---         MODULE    ---      ---       SEEKFREE_DL1B
L251 LINKER/LOCATER V4.66.93.0                                                        11/20/2024  19:22:33  PAGE 83


      00FF8B8FH   PUBLIC    CODE     ---       dl1b_iic_transfer_8bit_array
      00001233H   PUBLIC    EDATA    WORD      dl1b_distance_mm
      00001235H   PUBLIC    EDATA    BYTE      dl1b_finsh_flag
      00001236H   PUBLIC    EDATA    BYTE      dl1b_init_flag
      00000D08H   PUBLIC    EDATA    BYTE      ?dl1b_iic_transfer_8bit_array?BYTE
      000000D0H   SFRSYM    DATA     BYTE      PSW
      0000009DH   SFRSYM    DATA     BYTE      IRCBAND
      00000097H   SFRSYM    DATA     BYTE      AUXR2
      000000EFH   SFRSYM    DATA     BYTE      AUXINTIF
      000000FDH   SFRSYM    DATA     BYTE      S4CON
      000000ACH   SFRSYM    DATA     BYTE      S3CON
      0000009AH   SFRSYM    DATA     BYTE      S2CON
      000000B7H   SFRSYM    DATA     BYTE      IPH
      000000CDH   SFRSYM    DATA     BYTE      SPSTAT
      000000DDH   SFRSYM    DATA     BYTE      T4T3M
      000000C1H   SFRSYM    DATA     BYTE      WDT_CONTR
      000000DFH   SFRSYM    DATA     BYTE      IP3
      000000F4H   SFRSYM    DATA     BYTE      USBCON
      000000B5H   SFRSYM    DATA     BYTE      IP2
      000000FFH   SFRSYM    DATA     BYTE      RSTCFG
      000000C7H   SFRSYM    DATA     BYTE      IAP_CONTR
      000000F9H   SFRSYM    DATA     BYTE      LINICR
      0000008EH   SFRSYM    DATA     BYTE      AUXR
      000000AFH   SFRSYM    DATA     BYTE      IE2
      000000B0H.7 SFRSYM    DATA     BIT       P37
      000000B0H.6 SFRSYM    DATA     BIT       P36
      000000C8H.2 SFRSYM    DATA     BIT       P52
      00000088H   SFRSYM    DATA     BYTE      TCON
      00000089H   SFRSYM    DATA     BYTE      TMOD
      00000098H   SFRSYM    DATA     BYTE      SCON
      000000F1H   SFRSYM    DATA     BYTE      CANICR
      00000087H   SFRSYM    DATA     BYTE      PCON
      000000BCH   SFRSYM    DATA     BYTE      ADC_CONTR
      000000E7H   SFRSYM    DATA     BYTE      CMPCR2
      000000E6H   SFRSYM    DATA     BYTE      CMPCR1
      000000DEH   SFRSYM    DATA     BYTE      ADCCFG
      000000B8H   SFRSYM    DATA     BYTE      IP
      0000008FH   SFRSYM    DATA     BYTE      INTCLKO
      000000EEH   SFRSYM    DATA     BYTE      IP3H
      000000B6H   SFRSYM    DATA     BYTE      IP2H
      000000A8H   SFRSYM    DATA     BYTE      IE
      000000BBH   SFRSYM    DATA     BYTE      P_SW3
      000000BAH   SFRSYM    DATA     BYTE      P_SW2
      000000A2H   SFRSYM    DATA     BYTE      P_SW1
      000000CEH   SFRSYM    DATA     BYTE      SPCTL
      000000F8H   SFRSYM    DATA     BYTE      P7
      000000E8H   SFRSYM    DATA     BYTE      P6
      000000C8H   SFRSYM    DATA     BYTE      P5
      000000C0H   SFRSYM    DATA     BYTE      P4
      000000B0H   SFRSYM    DATA     BYTE      P3
      000000A0H   SFRSYM    DATA     BYTE      P2
      00000090H   SFRSYM    DATA     BYTE      P1
      00000080H   SFRSYM    DATA     BYTE      P0
      00FFA6B5H   SYMBOL    CODE     ---       dl1b_simiic_sendack
      00FF90D8H   SYMBOL    CODE     ---       dl1b_read_ch
      00FF9FD8H   SYMBOL    CODE     ---       dl1b_send_ch
      00FFA8DAH   SYMBOL    CODE     ---       dl1b_sccb_waitack
      00FF0026H   SYMBOL    CODE     ---       dl1b_simiic_delay
      00FFACACH   SYMBOL    CODE     ---       dl1b_simiic_start
      00FFAB48H   SYMBOL    CODE     ---       dl1b_simiic_stop

      00FF0026H   BLOCK     CODE     ---       LVL=0
      000012C8H   SYMBOL    EDATA    WORD      j
      00FF0026H   LINE      CODE     ---       #58
      00FF0026H   LINE      CODE     ---       #59
L251 LINKER/LOCATER V4.66.93.0                                                        11/20/2024  19:22:33  PAGE 84


      00FF0026H   LINE      CODE     ---       #60
      00FF002CH   LINE      CODE     ---       #61
      00FF0042H   LINE      CODE     ---       #62
      ---         BLOCKEND  ---      ---       LVL=0

      00FFACACH   BLOCK     CODE     ---       LVL=0
      00FFACACH   LINE      CODE     ---       #65
      00FFACACH   LINE      CODE     ---       #67
      00FFACAFH   LINE      CODE     ---       #68
      00FFACB2H   LINE      CODE     ---       #69
      00FFACB5H   LINE      CODE     ---       #70
      00FFACB8H   LINE      CODE     ---       #71
      00FFACBBH   LINE      CODE     ---       #72
      00FFACBEH   LINE      CODE     ---       #73
      ---         BLOCKEND  ---      ---       LVL=0

      00FFAB48H   BLOCK     CODE     ---       LVL=0
      00FFAB48H   LINE      CODE     ---       #76
      00FFAB48H   LINE      CODE     ---       #78
      00FFAB4BH   LINE      CODE     ---       #79
      00FFAB4EH   LINE      CODE     ---       #80
      00FFAB51H   LINE      CODE     ---       #81
      00FFAB54H   LINE      CODE     ---       #82
      00FFAB57H   LINE      CODE     ---       #83
      00FFAB5AH   LINE      CODE     ---       #84
      00FFAB5DH   LINE      CODE     ---       #85
      ---         BLOCKEND  ---      ---       LVL=0

      00FFA6B5H   BLOCK     CODE     ---       LVL=0
      00001311H   SYMBOL    EDATA    BYTE      ack_dat
      00FFA6B5H   LINE      CODE     ---       #89
      00FFA6B9H   LINE      CODE     ---       #91
      00FFA6BCH   LINE      CODE     ---       #92
      00FFA6BFH   LINE      CODE     ---       #93
      00FFA6CDH   LINE      CODE     ---       #94
      00FFA6D0H   LINE      CODE     ---       #96
      00FFA6D3H   LINE      CODE     ---       #97
      00FFA6D6H   LINE      CODE     ---       #98
      00FFA6D9H   LINE      CODE     ---       #99
      00FFA6DCH   LINE      CODE     ---       #100
      ---         BLOCKEND  ---      ---       LVL=0

      00FFA8DAH   BLOCK     CODE     ---       LVL=0
      00FFA8DAH   LINE      CODE     ---       #103
      00FFA8DAH   LINE      CODE     ---       #105
      00FFA8DDH   LINE      CODE     ---       #107
      00FFA8E0H   LINE      CODE     ---       #109
      00FFA8E3H   LINE      CODE     ---       #110
      00FFA8E6H   LINE      CODE     ---       #112
      00FFA8E9H   LINE      CODE     ---       #115
      00FFA8ECH   LINE      CODE     ---       #116
      00FFA8F0H   LINE      CODE     ---       #117
      00FFA8F0H   LINE      CODE     ---       #119
      00FFA8F3H   LINE      CODE     ---       #120
      00FFA8F6H   LINE      CODE     ---       #121
      00FFA8FAH   LINE      CODE     ---       #122
      ---         BLOCKEND  ---      ---       LVL=0

      00FF9FD8H   BLOCK     CODE     ---       LVL=0
      000012CAH   SYMBOL    EDATA    BYTE      c
      00FF9FDCH   BLOCK     CODE     NEAR LAB  LVL=1
      000012CBH   SYMBOL    EDATA    BYTE      i
      ---         BLOCKEND  ---      ---       LVL=1
      00FF9FD8H   LINE      CODE     ---       #128
      00FF9FDCH   LINE      CODE     ---       #129
L251 LINKER/LOCATER V4.66.93.0                                                        11/20/2024  19:22:33  PAGE 85


      00FF9FDCH   LINE      CODE     ---       #130
      00FF9FE2H   LINE      CODE     ---       #131
      00FF9FE4H   LINE      CODE     ---       #133
      00FF9FF0H   LINE      CODE     ---       #134
      00FF9FF3H   LINE      CODE     ---       #135
      00FF9FFDH   LINE      CODE     ---       #136
      00FFA000H   LINE      CODE     ---       #137
      00FFA003H   LINE      CODE     ---       #138
      00FFA006H   LINE      CODE     ---       #139
      00FFA009H   LINE      CODE     ---       #140
      00FFA01DH   LINE      CODE     ---       #141
      00FFA020H   LINE      CODE     ---       #142
      ---         BLOCKEND  ---      ---       LVL=0

      00FF90D8H   BLOCK     CODE     ---       LVL=0
      0000128FH   SYMBOL    EDATA    BYTE      ack_x
      00FF90DCH   BLOCK     CODE     NEAR LAB  LVL=1
      00001290H   SYMBOL    EDATA    BYTE      i
      00001291H   SYMBOL    EDATA    BYTE      c
      ---         BLOCKEND  ---      ---       LVL=1
      00FF90D8H   LINE      CODE     ---       #148
      00FF90DCH   LINE      CODE     ---       #149
      00FF90DCH   LINE      CODE     ---       #152
      00FF90E1H   LINE      CODE     ---       #153
      00FF90E4H   LINE      CODE     ---       #154
      00FF90E7H   LINE      CODE     ---       #155
      00FF90EAH   LINE      CODE     ---       #157
      00FF90F1H   LINE      CODE     ---       #159
      00FF90F4H   LINE      CODE     ---       #160
      00FF90F7H   LINE      CODE     ---       #161
      00FF90FAH   LINE      CODE     ---       #162
      00FF90FDH   LINE      CODE     ---       #163
      00FF9100H   LINE      CODE     ---       #164
      00FF910AH   LINE      CODE     ---       #165
      00FF910DH   LINE      CODE     ---       #167
      00FF9119H   LINE      CODE     ---       #168
      00FF9130H   LINE      CODE     ---       #171
      00FF9133H   LINE      CODE     ---       #172
      00FF9136H   LINE      CODE     ---       #173
      00FF913DH   LINE      CODE     ---       #175
      00FF9141H   LINE      CODE     ---       #176
      ---         BLOCKEND  ---      ---       LVL=0

      00FF8B8FH   BLOCK     CODE     ---       LVL=0
      00000D08H   SYMBOL    EDATA    ---       write_data
      00000D0CH   SYMBOL    EDATA    DWORD     write_len
      00000D10H   SYMBOL    EDATA    ---       read_data
      00000D14H   SYMBOL    EDATA    DWORD     read_len
      00FF8B8FH   LINE      CODE     ---       #189
      00FF8B97H   LINE      CODE     ---       #192
      00FF8B9AH   LINE      CODE     ---       #193
      00FF8B9FH   LINE      CODE     ---       #194
      00FF8BA1H   LINE      CODE     ---       #196
      00FF8BB1H   LINE      CODE     ---       #197
      00FF8BC5H   LINE      CODE     ---       #198
      00FF8BC8H   LINE      CODE     ---       #199
      00FF8BCDH   LINE      CODE     ---       #200
      00FF8BCFH   LINE      CODE     ---       #203
      00FF8BF0H   LINE      CODE     ---       #204
      00FF8C04H   LINE      CODE     ---       #205
      00FF8C07H   LINE      CODE     ---       #206
      ---         BLOCKEND  ---      ---       LVL=0
      000011ECH   SYMBOL    EDATA    ---       data_buffer
      000011EFH   SYMBOL    EDATA    INT       dl1b_distance_temp
      000004D4H   SYMBOL    EDATA    BYTE      return_state
L251 LINKER/LOCATER V4.66.93.0                                                        11/20/2024  19:22:33  PAGE 86


      000004D5H   SYMBOL    EDATA    ---       data_buffer
      0000055EH   SYMBOL    EDATA    WORD      time_out_count

      ---         MODULE    ---      ---       SEEKFREE_FONT
      00FF212DH   PUBLIC    CODE     ---       ascii_font_8x16
      00FF271DH   PUBLIC    CODE     ---       oled_8x16
      00FF2D0DH   PUBLIC    CODE     ---       tft_ascii
      00FF32FDH   PUBLIC    CODE     ---       ascii_font_6x8
      00FF3525H   PUBLIC    CODE     ---       oled_6x8
      000000D0H   SFRSYM    DATA     BYTE      PSW
      0000009DH   SFRSYM    DATA     BYTE      IRCBAND
      00000097H   SFRSYM    DATA     BYTE      AUXR2
      000000EFH   SFRSYM    DATA     BYTE      AUXINTIF
      000000FDH   SFRSYM    DATA     BYTE      S4CON
      000000ACH   SFRSYM    DATA     BYTE      S3CON
      0000009AH   SFRSYM    DATA     BYTE      S2CON
      000000B7H   SFRSYM    DATA     BYTE      IPH
      000000CDH   SFRSYM    DATA     BYTE      SPSTAT
      000000DDH   SFRSYM    DATA     BYTE      T4T3M
      000000C1H   SFRSYM    DATA     BYTE      WDT_CONTR
      000000DFH   SFRSYM    DATA     BYTE      IP3
      000000F4H   SFRSYM    DATA     BYTE      USBCON
      000000B5H   SFRSYM    DATA     BYTE      IP2
      000000FFH   SFRSYM    DATA     BYTE      RSTCFG
      000000C7H   SFRSYM    DATA     BYTE      IAP_CONTR
      000000F9H   SFRSYM    DATA     BYTE      LINICR
      0000008EH   SFRSYM    DATA     BYTE      AUXR
      000000AFH   SFRSYM    DATA     BYTE      IE2
      00000088H   SFRSYM    DATA     BYTE      TCON
      00000089H   SFRSYM    DATA     BYTE      TMOD
      00000098H   SFRSYM    DATA     BYTE      SCON
      000000F1H   SFRSYM    DATA     BYTE      CANICR
      00000087H   SFRSYM    DATA     BYTE      PCON
      000000BCH   SFRSYM    DATA     BYTE      ADC_CONTR
      000000E7H   SFRSYM    DATA     BYTE      CMPCR2
      000000E6H   SFRSYM    DATA     BYTE      CMPCR1
      000000DEH   SFRSYM    DATA     BYTE      ADCCFG
      000000B8H   SFRSYM    DATA     BYTE      IP
      0000008FH   SFRSYM    DATA     BYTE      INTCLKO
      000000EEH   SFRSYM    DATA     BYTE      IP3H
      000000B6H   SFRSYM    DATA     BYTE      IP2H
      000000A8H   SFRSYM    DATA     BYTE      IE
      000000BBH   SFRSYM    DATA     BYTE      P_SW3
      000000BAH   SFRSYM    DATA     BYTE      P_SW2
      000000A2H   SFRSYM    DATA     BYTE      P_SW1
      000000CEH   SFRSYM    DATA     BYTE      SPCTL
      000000F8H   SFRSYM    DATA     BYTE      P7
      000000E8H   SFRSYM    DATA     BYTE      P6
      000000C8H   SFRSYM    DATA     BYTE      P5
      000000C0H   SFRSYM    DATA     BYTE      P4
      000000B0H   SFRSYM    DATA     BYTE      P3
      000000A0H   SFRSYM    DATA     BYTE      P2
      00000090H   SFRSYM    DATA     BYTE      P1
      00000080H   SFRSYM    DATA     BYTE      P0

      ---         MODULE    ---      ---       SEEKFREE_FUNCTION
      00FF64AEH   PUBLIC    CODE     ---       func_double_to_str
      00FF474AH   PUBLIC    CODE     ---       zf_sprintf
      00FF859BH   PUBLIC    CODE     ---       func_uint_to_str
      00FF77EEH   PUBLIC    CODE     ---       func_int_to_str
      000005EAH   PUBLIC    EDATA    BYTE      ?zf_sprintf?BYTE
      000000D0H   SFRSYM    DATA     BYTE      PSW
      0000009DH   SFRSYM    DATA     BYTE      IRCBAND
      00000097H   SFRSYM    DATA     BYTE      AUXR2
      000000EFH   SFRSYM    DATA     BYTE      AUXINTIF
L251 LINKER/LOCATER V4.66.93.0                                                        11/20/2024  19:22:33  PAGE 87


      000000FDH   SFRSYM    DATA     BYTE      S4CON
      000000ACH   SFRSYM    DATA     BYTE      S3CON
      0000009AH   SFRSYM    DATA     BYTE      S2CON
      000000B7H   SFRSYM    DATA     BYTE      IPH
      000000CDH   SFRSYM    DATA     BYTE      SPSTAT
      000000DDH   SFRSYM    DATA     BYTE      T4T3M
      000000C1H   SFRSYM    DATA     BYTE      WDT_CONTR
      000000DFH   SFRSYM    DATA     BYTE      IP3
      000000F4H   SFRSYM    DATA     BYTE      USBCON
      000000B5H   SFRSYM    DATA     BYTE      IP2
      000000FFH   SFRSYM    DATA     BYTE      RSTCFG
      000000C7H   SFRSYM    DATA     BYTE      IAP_CONTR
      000000F9H   SFRSYM    DATA     BYTE      LINICR
      0000008EH   SFRSYM    DATA     BYTE      AUXR
      000000AFH   SFRSYM    DATA     BYTE      IE2
      00000088H   SFRSYM    DATA     BYTE      TCON
      00000089H   SFRSYM    DATA     BYTE      TMOD
      00000098H   SFRSYM    DATA     BYTE      SCON
      000000F1H   SFRSYM    DATA     BYTE      CANICR
      00000087H   SFRSYM    DATA     BYTE      PCON
      000000BCH   SFRSYM    DATA     BYTE      ADC_CONTR
      000000E7H   SFRSYM    DATA     BYTE      CMPCR2
      000000E6H   SFRSYM    DATA     BYTE      CMPCR1
      000000DEH   SFRSYM    DATA     BYTE      ADCCFG
      000000B8H   SFRSYM    DATA     BYTE      IP
      0000008FH   SFRSYM    DATA     BYTE      INTCLKO
      000000EEH   SFRSYM    DATA     BYTE      IP3H
      000000B6H   SFRSYM    DATA     BYTE      IP2H
      000000A8H   SFRSYM    DATA     BYTE      IE
      000000BBH   SFRSYM    DATA     BYTE      P_SW3
      000000BAH   SFRSYM    DATA     BYTE      P_SW2
      000000A2H   SFRSYM    DATA     BYTE      P_SW1
      000000CEH   SFRSYM    DATA     BYTE      SPCTL
      000000F8H   SFRSYM    DATA     BYTE      P7
      000000E8H   SFRSYM    DATA     BYTE      P6
      000000C8H   SFRSYM    DATA     BYTE      P5
      000000C0H   SFRSYM    DATA     BYTE      P4
      000000B0H   SFRSYM    DATA     BYTE      P3
      000000A0H   SFRSYM    DATA     BYTE      P2
      00000090H   SFRSYM    DATA     BYTE      P1
      00000080H   SFRSYM    DATA     BYTE      P0
      00FF72C5H   SYMBOL    CODE     ---       number_conversion_ascii
      00FF86DEH   SYMBOL    CODE     ---       printf_reverse_order
      00FFB400H   SYMBOL    HCONST   ---       ?tpl?0001
      0000108BH   SYMBOL    EDATA    DWORD     num1
      0000108FH   SYMBOL    EDATA    DWORD     num2
      00001237H   SYMBOL    EDATA    LONG      t
      00000FA8H   SYMBOL    EDATA    ---       str
      00000FACH   SYMBOL    EDATA    BYTE      sign
      00000FADH   SYMBOL    EDATA    LONG      temp

      00FF77EEH   BLOCK     CODE     ---       LVL=0
      00000B3EH   SYMBOL    EDATA    ---       str
      00000B42H   SYMBOL    EDATA    LONG      number
      00FF77F6H   BLOCK     CODE     NEAR LAB  LVL=1
      00000B46H   SYMBOL    EDATA    ---       data_temp
      00000B56H   SYMBOL    EDATA    BYTE      dat_bit
      00000B57H   SYMBOL    EDATA    LONG      number_temp
      ---         BLOCKEND  ---      ---       LVL=1
      00FF77EEH   LINE      CODE     ---       #129
      00FF77F6H   LINE      CODE     ---       #130
      00FF77F6H   LINE      CODE     ---       #132
      00FF77FBH   LINE      CODE     ---       #133
      00FF7801H   LINE      CODE     ---       #135
      00FF7801H   LINE      CODE     ---       #137
L251 LINKER/LOCATER V4.66.93.0                                                        11/20/2024  19:22:33  PAGE 88


      00FF780CH   LINE      CODE     ---       #139
      00FF780CH   LINE      CODE     ---       #140
      00FF780CH   LINE      CODE     ---       #142
      00FF7816H   LINE      CODE     ---       #144
      00FF7829H   LINE      CODE     ---       #145
      00FF783BH   LINE      CODE     ---       #146
      00FF783DH   LINE      CODE     ---       #147
      00FF7845H   LINE      CODE     ---       #149
      00FF784EH   LINE      CODE     ---       #150
      00FF7851H   LINE      CODE     ---       #151
      00FF7851H   LINE      CODE     ---       #153
      00FF7853H   LINE      CODE     ---       #155
      00FF7862H   LINE      CODE     ---       #156
      00FF7896H   LINE      CODE     ---       #157
      00FF78A5H   LINE      CODE     ---       #158
      00FF78ADH   LINE      CODE     ---       #159
      00FF78AFH   LINE      CODE     ---       #161
      00FF78D7H   LINE      CODE     ---       #162
      00FF78E3H   LINE      CODE     ---       #163
      00FF78ECH   LINE      CODE     ---       #164
      00FF78ECH   LINE      CODE     ---       #165
      ---         BLOCKEND  ---      ---       LVL=0
      00001093H   SYMBOL    EDATA    ---       str
      00001097H   SYMBOL    EDATA    DWORD     temp

      00FF859BH   BLOCK     CODE     ---       LVL=0
      00000B95H   SYMBOL    EDATA    ---       str
      00000B99H   SYMBOL    EDATA    DWORD     number
      00FF85A3H   BLOCK     CODE     NEAR LAB  LVL=1
      00000B9DH   SYMBOL    EDATA    ---       data_temp
      00000BADH   SYMBOL    EDATA    BYTE      dat_bit
      ---         BLOCKEND  ---      ---       LVL=1
      00FF859BH   LINE      CODE     ---       #203
      00FF85A3H   LINE      CODE     ---       #204
      00FF85A3H   LINE      CODE     ---       #207
      00FF85A8H   LINE      CODE     ---       #209
      00FF85A8H   LINE      CODE     ---       #211
      00FF85B3H   LINE      CODE     ---       #213
      00FF85B3H   LINE      CODE     ---       #214
      00FF85B3H   LINE      CODE     ---       #216
      00FF85BBH   LINE      CODE     ---       #218
      00FF85C4H   LINE      CODE     ---       #219
      00FF85C6H   LINE      CODE     ---       #220
      00FF85C6H   LINE      CODE     ---       #222
      00FF85C8H   LINE      CODE     ---       #224
      00FF85EDH   LINE      CODE     ---       #225
      00FF85FCH   LINE      CODE     ---       #226
      00FF8604H   LINE      CODE     ---       #227
      00FF8606H   LINE      CODE     ---       #229
      00FF862EH   LINE      CODE     ---       #230
      00FF863AH   LINE      CODE     ---       #231
      00FF8643H   LINE      CODE     ---       #232
      00FF8643H   LINE      CODE     ---       #233
      ---         BLOCKEND  ---      ---       LVL=0
      00000CD6H   SYMBOL    EDATA    ---       str
      00000CDAH   SYMBOL    EDATA    BYTE      sign
      00000CDBH   SYMBOL    EDATA    FLOAT     temp
      00000CDFH   SYMBOL    EDATA    FLOAT     temp_point
      00000CE3H   SYMBOL    EDATA    FLOAT     point_bit
      00000A1CH   SYMBOL    EDATA    ---       str
      00000A20H   SYMBOL    EDATA    FLOAT     number
      00000A24H   SYMBOL    EDATA    BYTE      point_bit
      00000A25H   SYMBOL    EDATA    INT       data_int
      00000A27H   SYMBOL    EDATA    INT       data_float
      00000A29H   SYMBOL    EDATA    ---       data_temp
L251 LINKER/LOCATER V4.66.93.0                                                        11/20/2024  19:22:33  PAGE 89


      00000A39H   SYMBOL    EDATA    ---       data_temp_point
      00000A45H   SYMBOL    EDATA    BYTE      dat_bit
      00000CE7H   SYMBOL    EDATA    ---       str
      00000CEBH   SYMBOL    EDATA    BYTE      sign
      00000CECH   SYMBOL    EDATA    FLOAT     temp
      00000CF0H   SYMBOL    EDATA    FLOAT     temp_point
      00000CF4H   SYMBOL    EDATA    FLOAT     point_bit

      00FF64AEH   BLOCK     CODE     ---       LVL=0
      0000075FH   SYMBOL    EDATA    ---       str
      00000763H   SYMBOL    EDATA    FLOAT     number
      00000767H   SYMBOL    EDATA    BYTE      point_bit
      00FF64BAH   BLOCK     CODE     NEAR LAB  LVL=1
      00000768H   SYMBOL    EDATA    INT       data_int
      0000076AH   SYMBOL    EDATA    INT       data_float
      0000076CH   SYMBOL    EDATA    ---       data_temp
      00000784H   SYMBOL    EDATA    ---       data_temp_point
      00000796H   SYMBOL    EDATA    BYTE      dat_bit
      ---         BLOCKEND  ---      ---       LVL=1
      00FF64AEH   LINE      CODE     ---       #449
      00FF64BAH   LINE      CODE     ---       #450
      00FF64BAH   LINE      CODE     ---       #452
      00FF64C0H   LINE      CODE     ---       #453
      00FF64C6H   LINE      CODE     ---       #456
      00FF64CEH   LINE      CODE     ---       #458
      00FF64CEH   LINE      CODE     ---       #460
      00FF64D9H   LINE      CODE     ---       #462
      00FF64D9H   LINE      CODE     ---       #463
      00FF64D9H   LINE      CODE     ---       #466
      00FF64E4H   LINE      CODE     ---       #467
      00FF64EFH   LINE      CODE     ---       #469
      00FF6502H   LINE      CODE     ---       #470
      00FF6504H   LINE      CODE     ---       #471
      00FF650CH   LINE      CODE     ---       #473
      00FF651FH   LINE      CODE     ---       #474
      00FF6532H   LINE      CODE     ---       #475
      00FF653BH   LINE      CODE     ---       #476
      00FF653EH   LINE      CODE     ---       #477
      00FF653EH   LINE      CODE     ---       #480
      00FF6554H   LINE      CODE     ---       #481
      00FF6556H   LINE      CODE     ---       #483
      00FF6567H   LINE      CODE     ---       #484
      00FF657BH   LINE      CODE     ---       #485
      00FF6586H   LINE      CODE     ---       #488
      00FF658BH   LINE      CODE     ---       #489
      00FF658BH   LINE      CODE     ---       #491
      00FF65B3H   LINE      CODE     ---       #492
      00FF65C2H   LINE      CODE     ---       #493
      00FF65CCH   LINE      CODE     ---       #494
      00FF65CEH   LINE      CODE     ---       #496
      00FF6627H   LINE      CODE     ---       #497
      00FF6633H   LINE      CODE     ---       #498
      00FF663CH   LINE      CODE     ---       #501
      00FF6648H   LINE      CODE     ---       #503
      00FF664DH   LINE      CODE     ---       #504
      00FF6660H   LINE      CODE     ---       #505
      00FF666AH   LINE      CODE     ---       #506
      00FF6676H   LINE      CODE     ---       #509
      00FF6678H   LINE      CODE     ---       #511
      00FF66A0H   LINE      CODE     ---       #512
      00FF66AFH   LINE      CODE     ---       #513
      00FF66BBH   LINE      CODE     ---       #514
      00FF66C4H   LINE      CODE     ---       #515
      00FF66C6H   LINE      CODE     ---       #517
      00FF671FH   LINE      CODE     ---       #518
L251 LINKER/LOCATER V4.66.93.0                                                        11/20/2024  19:22:33  PAGE 90


      00FF672BH   LINE      CODE     ---       #519
      00FF6734H   LINE      CODE     ---       #520
      00FF6734H   LINE      CODE     ---       #521
      00FF6734H   LINE      CODE     ---       #523
      ---         BLOCKEND  ---      ---       LVL=0
      00000D43H   SYMBOL    EDATA    ---       str
      00000D47H   SYMBOL    EDATA    DWORD     str_len
      00000D4BH   SYMBOL    EDATA    DWORD     result_data
      00000D4FH   SYMBOL    EDATA    BYTE      temp
      00000D50H   SYMBOL    EDATA    BYTE      flag
      00000A98H   SYMBOL    EDATA    ---       str
      00000A9CH   SYMBOL    EDATA    DWORD     number
      00000AA0H   SYMBOL    EDATA    ---       hex_index
      00000AB0H   SYMBOL    EDATA    ---       data_temp
      00000ABCH   SYMBOL    EDATA    BYTE      dat_bit

      00FF72C5H   BLOCK     CODE     ---       LVL=0
      00000C7AH   SYMBOL    EDATA    DWORD     dat
      00000C7EH   SYMBOL    EDATA    ---       p
      00000C82H   SYMBOL    EDATA    BYTE      neg_type
      00000C83H   SYMBOL    EDATA    BYTE      radix
      00FF72D1H   BLOCK     CODE     NEAR LAB  LVL=1
      00000C84H   SYMBOL    EDATA    LONG      neg_dat
      00000C88H   SYMBOL    EDATA    DWORD     pos_dat
      00000C8CH   SYMBOL    EDATA    BYTE      temp_data
      00000C8DH   SYMBOL    EDATA    BYTE      valid_num
      ---         BLOCKEND  ---      ---       LVL=1
      00FF72C5H   LINE      CODE     ---       #639
      00FF72D1H   LINE      CODE     ---       #640
      00FF72D1H   LINE      CODE     ---       #643
      00FF72D6H   LINE      CODE     ---       #644
      00FF72DBH   LINE      CODE     ---       #646
      00FF72E4H   LINE      CODE     ---       #648
      00FF72ECH   LINE      CODE     ---       #649
      00FF72F2H   LINE      CODE     ---       #651
      00FF7304H   LINE      CODE     ---       #652
      00FF7304H   LINE      CODE     ---       #653
      00FF7304H   LINE      CODE     ---       #655
      00FF7320H   LINE      CODE     ---       #656
      00FF7333H   LINE      CODE     ---       #657
      00FF7340H   LINE      CODE     ---       #659
      00FF7348H   LINE      CODE     ---       #661
      00FF7348H   LINE      CODE     ---       #662
      00FF7348H   LINE      CODE     ---       #663
      00FF7352H   LINE      CODE     ---       #664
      00FF7354H   LINE      CODE     ---       #665
      00FF7357H   LINE      CODE     ---       #668
      00FF735FH   LINE      CODE     ---       #669
      00FF735FH   LINE      CODE     ---       #671
      00FF7374H   LINE      CODE     ---       #672
      00FF737EH   LINE      CODE     ---       #674
      00FF738AH   LINE      CODE     ---       #675
      00FF738CH   LINE      CODE     ---       #678
      00FF7398H   LINE      CODE     ---       #679
      00FF7398H   LINE      CODE     ---       #681
      00FF73A3H   LINE      CODE     ---       #683
      00FF73B6H   LINE      CODE     ---       #684
      00FF73C3H   LINE      CODE     ---       #686
      00FF73CBH   LINE      CODE     ---       #688
      00FF73CBH   LINE      CODE     ---       #689
      00FF73CBH   LINE      CODE     ---       #690
      00FF73D5H   LINE      CODE     ---       #691
      00FF73D7H   LINE      CODE     ---       #692
      00FF73D7H   LINE      CODE     ---       #693
      00FF73DBH   LINE      CODE     ---       #694
L251 LINKER/LOCATER V4.66.93.0                                                        11/20/2024  19:22:33  PAGE 91


      ---         BLOCKEND  ---      ---       LVL=0

      00FF86DEH   BLOCK     CODE     ---       LVL=0
      00000D96H   SYMBOL    EDATA    ---       d_buff
      00000D9AH   SYMBOL    EDATA    DWORD     len
      00FF86E6H   BLOCK     CODE     NEAR LAB  LVL=1
      00000D9EH   SYMBOL    EDATA    DWORD     i
      00000DA2H   SYMBOL    EDATA    CHAR      temp_data
      ---         BLOCKEND  ---      ---       LVL=1
      00FF86DEH   LINE      CODE     ---       #704
      00FF86E6H   LINE      CODE     ---       #705
      00FF86E6H   LINE      CODE     ---       #708
      00FF86EEH   LINE      CODE     ---       #710
      00FF870DH   LINE      CODE     ---       #711
      00FF8737H   LINE      CODE     ---       #712
      00FF874AH   LINE      CODE     ---       #713
      00FF8772H   LINE      CODE     ---       #714
      ---         BLOCKEND  ---      ---       LVL=0

      00FF474AH   BLOCK     CODE     ---       LVL=0
      000005EAH   SYMBOL    EDATA    ---       buff
      000005EEH   SYMBOL    EDATA    ---       format
      00FF4752H   BLOCK     CODE     NEAR LAB  LVL=1
      000005F2H   SYMBOL    EDATA    DWORD     buff_len
      000005F6H   SYMBOL    EDATA    ---       arg
      00FF4767H   BLOCK     CODE     NEAR LAB  LVL=2
      000005FAH   SYMBOL    EDATA    CHAR      ret
      00FF489CH   BLOCK     CODE     NEAR LAB  LVL=3
      000005FBH   SYMBOL    EDATA    CHAR      ch
      ---         BLOCKEND  ---      ---       LVL=3
      00FF48DBH   BLOCK     CODE     NEAR LAB  LVL=3
      000005FBH   SYMBOL    EDATA    ---       vstr
      0000061CH   SYMBOL    EDATA    LONG      ival
      00000620H   SYMBOL    EDATA    BYTE      vlen
      ---         BLOCKEND  ---      ---       LVL=3
      00FF497CH   BLOCK     CODE     NEAR LAB  LVL=3
      000005FBH   SYMBOL    EDATA    ---       vstr
      0000061CH   SYMBOL    EDATA    FLOAT     ival
      00000620H   SYMBOL    EDATA    BYTE      vlen
      ---         BLOCKEND  ---      ---       LVL=3
      00FF4B1DH   BLOCK     CODE     NEAR LAB  LVL=3
      000005FBH   SYMBOL    EDATA    ---       vstr
      0000061CH   SYMBOL    EDATA    DWORD     ival
      00000620H   SYMBOL    EDATA    BYTE      vlen
      ---         BLOCKEND  ---      ---       LVL=3
      00FF4B95H   BLOCK     CODE     NEAR LAB  LVL=3
      000005FBH   SYMBOL    EDATA    ---       vstr
      0000061CH   SYMBOL    EDATA    DWORD     ival
      00000620H   SYMBOL    EDATA    BYTE      vlen
      ---         BLOCKEND  ---      ---       LVL=3
      00FF4C0DH   BLOCK     CODE     NEAR LAB  LVL=3
      000005FBH   SYMBOL    EDATA    ---       vstr
      0000061CH   SYMBOL    EDATA    DWORD     ival
      00000620H   SYMBOL    EDATA    BYTE      vlen
      ---         BLOCKEND  ---      ---       LVL=3
      00FF4C85H   BLOCK     CODE     NEAR LAB  LVL=3
      000005FBH   SYMBOL    EDATA    ---       pc
      ---         BLOCKEND  ---      ---       LVL=3
      00FF4CDFH   BLOCK     CODE     NEAR LAB  LVL=3
      000005FBH   SYMBOL    EDATA    ---       vstr
      0000061CH   SYMBOL    EDATA    DWORD     ival
      ---         BLOCKEND  ---      ---       LVL=3
      ---         BLOCKEND  ---      ---       LVL=2
      ---         BLOCKEND  ---      ---       LVL=1
      00FF474AH   LINE      CODE     ---       #725
L251 LINKER/LOCATER V4.66.93.0                                                        11/20/2024  19:22:33  PAGE 92


      00FF4752H   LINE      CODE     ---       #726
      00FF4752H   LINE      CODE     ---       #727
      00FF4758H   LINE      CODE     ---       #729
      00FF4764H   LINE      CODE     ---       #731
      00FF4767H   LINE      CODE     ---       #732
      00FF4767H   LINE      CODE     ---       #733
      00FF4772H   LINE      CODE     ---       #734
      00FF477EH   LINE      CODE     ---       #736
      00FF4899H   LINE      CODE     ---       #738
      00FF4899H   LINE      CODE     ---       #742
      00FF489CH   LINE      CODE     ---       #745
      00FF489CH   LINE      CODE     ---       #746
      00FF489CH   LINE      CODE     ---       #747
      00FF48B5H   LINE      CODE     ---       #748
      00FF48C0H   LINE      CODE     ---       #749
      00FF48CAH   LINE      CODE     ---       #750
      00FF48D8H   LINE      CODE     ---       #752
      00FF48DBH   LINE      CODE     ---       #755
      00FF48DBH   LINE      CODE     ---       #756
      00FF48DBH   LINE      CODE     ---       #757
      00FF48DBH   LINE      CODE     ---       #759
      00FF48F4H   LINE      CODE     ---       #760
      00FF490BH   LINE      CODE     ---       #762
      00FF4915H   LINE      CODE     ---       #764
      00FF4926H   LINE      CODE     ---       #765
      00FF4933H   LINE      CODE     ---       #766
      00FF4933H   LINE      CODE     ---       #767
      00FF4942H   LINE      CODE     ---       #768
      00FF4957H   LINE      CODE     ---       #769
      00FF4967H   LINE      CODE     ---       #770
      00FF4979H   LINE      CODE     ---       #773
      00FF497CH   LINE      CODE     ---       #775
      00FF497CH   LINE      CODE     ---       #776
      00FF497CH   LINE      CODE     ---       #777
      00FF497CH   LINE      CODE     ---       #779
      00FF4995H   LINE      CODE     ---       #780
      00FF49AFH   LINE      CODE     ---       #782
      00FF49BAH   LINE      CODE     ---       #784
      00FF49CBH   LINE      CODE     ---       #785
      00FF49D8H   LINE      CODE     ---       #786
      00FF49D8H   LINE      CODE     ---       #787
      00FF49E7H   LINE      CODE     ---       #788
      00FF49FCH   LINE      CODE     ---       #789
      00FF4A0CH   LINE      CODE     ---       #790
      00FF4A1EH   LINE      CODE     ---       #792
      00FF4A42H   LINE      CODE     ---       #793
      00FF4A46H   LINE      CODE     ---       #795
      00FF4A60H   LINE      CODE     ---       #796
      00FF4A62H   LINE      CODE     ---       #799
      00FF4A86H   LINE      CODE     ---       #800
      00FF4A8CH   LINE      CODE     ---       #801
      00FF4A8CH   LINE      CODE     ---       #803
      00FF4A8EH   LINE      CODE     ---       #805
      00FF4A9FH   LINE      CODE     ---       #806
      00FF4AACH   LINE      CODE     ---       #807
      00FF4AB6H   LINE      CODE     ---       #809
      00FF4AC7H   LINE      CODE     ---       #810
      00FF4AD4H   LINE      CODE     ---       #812
      00FF4AE3H   LINE      CODE     ---       #813
      00FF4AF8H   LINE      CODE     ---       #814
      00FF4B08H   LINE      CODE     ---       #815
      00FF4B1AH   LINE      CODE     ---       #817
      00FF4B1DH   LINE      CODE     ---       #820
      00FF4B1DH   LINE      CODE     ---       #821
      00FF4B1DH   LINE      CODE     ---       #823
L251 LINKER/LOCATER V4.66.93.0                                                        11/20/2024  19:22:33  PAGE 93


      00FF4B36H   LINE      CODE     ---       #824
      00FF4B4CH   LINE      CODE     ---       #826
      00FF4B5BH   LINE      CODE     ---       #827
      00FF4B70H   LINE      CODE     ---       #828
      00FF4B80H   LINE      CODE     ---       #829
      00FF4B92H   LINE      CODE     ---       #830
      00FF4B95H   LINE      CODE     ---       #832
      00FF4B95H   LINE      CODE     ---       #833
      00FF4B95H   LINE      CODE     ---       #835
      00FF4BAEH   LINE      CODE     ---       #836
      00FF4BC4H   LINE      CODE     ---       #838
      00FF4BD3H   LINE      CODE     ---       #839
      00FF4BE8H   LINE      CODE     ---       #840
      00FF4BF8H   LINE      CODE     ---       #841
      00FF4C0AH   LINE      CODE     ---       #843
      00FF4C0DH   LINE      CODE     ---       #845
      00FF4C0DH   LINE      CODE     ---       #846
      00FF4C0DH   LINE      CODE     ---       #847
      00FF4C0DH   LINE      CODE     ---       #849
      00FF4C26H   LINE      CODE     ---       #850
      00FF4C3CH   LINE      CODE     ---       #852
      00FF4C4BH   LINE      CODE     ---       #853
      00FF4C60H   LINE      CODE     ---       #854
      00FF4C70H   LINE      CODE     ---       #855
      00FF4C82H   LINE      CODE     ---       #856
      00FF4C85H   LINE      CODE     ---       #859
      00FF4C85H   LINE      CODE     ---       #860
      00FF4C85H   LINE      CODE     ---       #861
      00FF4C9EH   LINE      CODE     ---       #862
      00FF4CA0H   LINE      CODE     ---       #864
      00FF4CAEH   LINE      CODE     ---       #865
      00FF4CB8H   LINE      CODE     ---       #866
      00FF4CC6H   LINE      CODE     ---       #867
      00FF4CD0H   LINE      CODE     ---       #868
      00FF4CDCH   LINE      CODE     ---       #869
      00FF4CDFH   LINE      CODE     ---       #871
      00FF4CDFH   LINE      CODE     ---       #872
      00FF4CDFH   LINE      CODE     ---       #874
      00FF4CF8H   LINE      CODE     ---       #876
      00FF4D0AH   LINE      CODE     ---       #878
      00FF4D15H   LINE      CODE     ---       #879
      00FF4D28H   LINE      CODE     ---       #880
      00FF4D34H   LINE      CODE     ---       #881
      00FF4D42H   LINE      CODE     ---       #883
      00FF4D44H   LINE      CODE     ---       #886
      00FF4D44H   LINE      CODE     ---       #888
      00FF4D4DH   LINE      CODE     ---       #889
      00FF4D57H   LINE      CODE     ---       #890
      00FF4D65H   LINE      CODE     ---       #891
      00FF4D67H   LINE      CODE     ---       #893
      00FF4D67H   LINE      CODE     ---       #894
      00FF4D67H   LINE      CODE     ---       #895
      00FF4D67H   LINE      CODE     ---       #898
      00FF4D75H   LINE      CODE     ---       #899
      00FF4D7FH   LINE      CODE     ---       #900
      00FF4D8DH   LINE      CODE     ---       #901
      00FF4D8DH   LINE      CODE     ---       #902
      00FF4D97H   LINE      CODE     ---       #903
      00FF4DA6H   LINE      CODE     ---       #906
      00FF4DAAH   LINE      CODE     ---       #907
      ---         BLOCKEND  ---      ---       LVL=0

      ---         MODULE    ---      ---       SEEKFREE_ICM20602
      00000E1CH   PUBLIC    EDATA    INT       icm20602_acc_x
      00000E1EH   PUBLIC    EDATA    INT       icm20602_acc_y
L251 LINKER/LOCATER V4.66.93.0                                                        11/20/2024  19:22:33  PAGE 94


      00000E20H   PUBLIC    EDATA    INT       icm20602_acc_z
      00000E22H   PUBLIC    EDATA    INT       icm20602_gyro_x
      00000E24H   PUBLIC    EDATA    INT       icm20602_gyro_y
      00000E26H   PUBLIC    EDATA    INT       icm20602_gyro_z
      000000D0H   SFRSYM    DATA     BYTE      PSW
      0000009DH   SFRSYM    DATA     BYTE      IRCBAND
      00000097H   SFRSYM    DATA     BYTE      AUXR2
      000000EFH   SFRSYM    DATA     BYTE      AUXINTIF
      000000FDH   SFRSYM    DATA     BYTE      S4CON
      000000ACH   SFRSYM    DATA     BYTE      S3CON
      0000009AH   SFRSYM    DATA     BYTE      S2CON
      000000B7H   SFRSYM    DATA     BYTE      IPH
      000000CDH   SFRSYM    DATA     BYTE      SPSTAT
      000000DDH   SFRSYM    DATA     BYTE      T4T3M
      000000C1H   SFRSYM    DATA     BYTE      WDT_CONTR
      000000DFH   SFRSYM    DATA     BYTE      IP3
      000000F4H   SFRSYM    DATA     BYTE      USBCON
      000000B5H   SFRSYM    DATA     BYTE      IP2
      000000FFH   SFRSYM    DATA     BYTE      RSTCFG
      000000C7H   SFRSYM    DATA     BYTE      IAP_CONTR
      000000F9H   SFRSYM    DATA     BYTE      LINICR
      0000008EH   SFRSYM    DATA     BYTE      AUXR
      000000AFH   SFRSYM    DATA     BYTE      IE2
      000000C0H.3 SFRSYM    DATA     BIT       P43
      000000C0H.2 SFRSYM    DATA     BIT       P42
      00000088H   SFRSYM    DATA     BYTE      TCON
      00000089H   SFRSYM    DATA     BYTE      TMOD
      000000C0H.1 SFRSYM    DATA     BIT       P41
      00000098H   SFRSYM    DATA     BYTE      SCON
      000000C0H.0 SFRSYM    DATA     BIT       P40
      000000F1H   SFRSYM    DATA     BYTE      CANICR
      00000087H   SFRSYM    DATA     BYTE      PCON
      000000BCH   SFRSYM    DATA     BYTE      ADC_CONTR
      000000E7H   SFRSYM    DATA     BYTE      CMPCR2
      000000E6H   SFRSYM    DATA     BYTE      CMPCR1
      000000DEH   SFRSYM    DATA     BYTE      ADCCFG
      000000B8H   SFRSYM    DATA     BYTE      IP
      0000008FH   SFRSYM    DATA     BYTE      INTCLKO
      000000EEH   SFRSYM    DATA     BYTE      IP3H
      000000B6H   SFRSYM    DATA     BYTE      IP2H
      000000A8H   SFRSYM    DATA     BYTE      IE
      000000BBH   SFRSYM    DATA     BYTE      P_SW3
      000000BAH   SFRSYM    DATA     BYTE      P_SW2
      000000A2H   SFRSYM    DATA     BYTE      P_SW1
      000000CEH   SFRSYM    DATA     BYTE      SPCTL
      000000F8H   SFRSYM    DATA     BYTE      P7
      000000E8H   SFRSYM    DATA     BYTE      P6
      000000C8H   SFRSYM    DATA     BYTE      P5
      000000C0H   SFRSYM    DATA     BYTE      P4
      000000B0H   SFRSYM    DATA     BYTE      P3
      000000A0H   SFRSYM    DATA     BYTE      P2
      00000090H   SFRSYM    DATA     BYTE      P1
      00000080H   SFRSYM    DATA     BYTE      P0
      00FFA99EH   SYMBOL    CODE     ---       icm20602_read_register
      00FFAA7EH   SYMBOL    CODE     ---       icm20602_write_register
      00FF9746H   SYMBOL    CODE     ---       icm20602_simspi_wr_byte
      00FF9C98H   SYMBOL    CODE     ---       icm20602_self_check
      00FF9BF6H   SYMBOL    CODE     ---       icm20602_simspi_r_reg_bytes
      00FFA705H   SYMBOL    CODE     ---       icm20602_simspi_r_reg_byte
      00FFAA14H   SYMBOL    CODE     ---       icm20602_simspi_w_reg_byte
      00FFA753H   SYMBOL    CODE     ---       icm20602_read_registers

      00FF9746H   BLOCK     CODE     ---       LVL=0
      000012CCH   SYMBOL    EDATA    BYTE      byte
      00FF974AH   BLOCK     CODE     NEAR LAB  LVL=1
L251 LINKER/LOCATER V4.66.93.0                                                        11/20/2024  19:22:33  PAGE 95


      000012CDH   SYMBOL    EDATA    BYTE      i
      ---         BLOCKEND  ---      ---       LVL=1
      00FF9746H   LINE      CODE     ---       #278
      00FF974AH   LINE      CODE     ---       #279
      00FF974AH   LINE      CODE     ---       #282
      00FF9751H   LINE      CODE     ---       #284
      00FF975FH   LINE      CODE     ---       #285
      00FF9769H   LINE      CODE     ---       #286
      00FF976CH   LINE      CODE     ---       #287
      00FF976FH   LINE      CODE     ---       #289
      00FF9772H   LINE      CODE     ---       #290
      00FF9775H   LINE      CODE     ---       #291
      00FF9783H   LINE      CODE     ---       #292
      00FF979AH   LINE      CODE     ---       #293
      00FF979EH   LINE      CODE     ---       #294
      ---         BLOCKEND  ---      ---       LVL=0

      00FFAA14H   BLOCK     CODE     ---       LVL=0
      000012CEH   SYMBOL    EDATA    BYTE      cmd
      000012CFH   SYMBOL    EDATA    BYTE      val
      00FFAA14H   LINE      CODE     ---       #302
      00FFAA1CH   LINE      CODE     ---       #305
      00FFAA20H   LINE      CODE     ---       #306
      00FFAA27H   LINE      CODE     ---       #307
      00FFAA2EH   LINE      CODE     ---       #309
      ---         BLOCKEND  ---      ---       LVL=0

      00FFA705H   BLOCK     CODE     ---       LVL=0
      000011F1H   SYMBOL    EDATA    BYTE      cmd
      000011F2H   SYMBOL    EDATA    ---       val
      00FFA705H   LINE      CODE     ---       #340
      00FFA70DH   LINE      CODE     ---       #343
      00FFA719H   LINE      CODE     ---       #344
      00FFA720H   LINE      CODE     ---       #345
      00FFA72BH   LINE      CODE     ---       #347
      ---         BLOCKEND  ---      ---       LVL=0

      00FF9BF6H   BLOCK     CODE     ---       LVL=0
      00000DA3H   SYMBOL    EDATA    BYTE      cmd
      00000DA4H   SYMBOL    EDATA    ---       val
      00000DA8H   SYMBOL    EDATA    DWORD     num
      00FF9C02H   BLOCK     CODE     NEAR LAB  LVL=1
      00000DACH   SYMBOL    EDATA    DWORD     i
      ---         BLOCKEND  ---      ---       LVL=1
      00FF9BF6H   LINE      CODE     ---       #357
      00FF9C02H   LINE      CODE     ---       #358
      00FF9C02H   LINE      CODE     ---       #359
      00FF9C08H   LINE      CODE     ---       #360
      00FF9C14H   LINE      CODE     ---       #361
      00FF9C1BH   LINE      CODE     ---       #363
      00FF9C1DH   LINE      CODE     ---       #365
      00FF9C32H   LINE      CODE     ---       #366
      00FF9C46H   LINE      CODE     ---       #367
      ---         BLOCKEND  ---      ---       LVL=0

      00FFAA7EH   BLOCK     CODE     ---       LVL=0
      000012D0H   SYMBOL    EDATA    BYTE      reg
      000012D1H   SYMBOL    EDATA    BYTE      dat
      00FFAA7EH   LINE      CODE     ---       #378
      00FFAA86H   LINE      CODE     ---       #380
      00FFAA89H   LINE      CODE     ---       #381
      00FFAA94H   LINE      CODE     ---       #382
      00FFAA97H   LINE      CODE     ---       #383
      ---         BLOCKEND  ---      ---       LVL=0

L251 LINKER/LOCATER V4.66.93.0                                                        11/20/2024  19:22:33  PAGE 96


      00FFA99EH   BLOCK     CODE     ---       LVL=0
      000012D2H   SYMBOL    EDATA    BYTE      reg
      00FFA9A2H   BLOCK     CODE     NEAR LAB  LVL=1
      000012D3H   SYMBOL    EDATA    BYTE      dat
      ---         BLOCKEND  ---      ---       LVL=1
      00FFA99EH   LINE      CODE     ---       #407
      00FFA9A2H   LINE      CODE     ---       #408
      00FFA9A2H   LINE      CODE     ---       #410
      00FFA9A5H   LINE      CODE     ---       #411
      00FFA9B4H   LINE      CODE     ---       #412
      00FFA9B7H   LINE      CODE     ---       #413
      00FFA9BBH   LINE      CODE     ---       #414
      ---         BLOCKEND  ---      ---       LVL=0

      00FFA753H   BLOCK     CODE     ---       LVL=0
      00000FB1H   SYMBOL    EDATA    BYTE      reg
      00000FB2H   SYMBOL    EDATA    ---       dat
      00000FB6H   SYMBOL    EDATA    DWORD     len
      00FFA753H   LINE      CODE     ---       #425
      00FFA75FH   LINE      CODE     ---       #427
      00FFA762H   LINE      CODE     ---       #428
      00FFA775H   LINE      CODE     ---       #429
      00FFA778H   LINE      CODE     ---       #430
      ---         BLOCKEND  ---      ---       LVL=0

      00FF9C98H   BLOCK     CODE     ---       LVL=0
      0000123BH   SYMBOL    EDATA    BYTE      dat
      0000123CH   SYMBOL    EDATA    BYTE      return_state
      0000123DH   SYMBOL    EDATA    WORD      timeout_count
      00FF9C98H   LINE      CODE     ---       #442
      00FF9C98H   LINE      CODE     ---       #443
      00FF9C98H   LINE      CODE     ---       #444
      00FF9CA2H   LINE      CODE     ---       #445
      00FF9CA8H   LINE      CODE     ---       #447
      00FF9CAAH   LINE      CODE     ---       #449
      00FF9CC0H   LINE      CODE     ---       #451
      00FF9CC6H   LINE      CODE     ---       #452
      00FF9CC8H   LINE      CODE     ---       #453
      00FF9CC8H   LINE      CODE     ---       #454
      00FF9CD1H   LINE      CODE     ---       #456
      00FF9CD8H   LINE      CODE     ---       #457
      00FF9CE1H   LINE      CODE     ---       #458
      00FF9CE5H   LINE      CODE     ---       #459
      ---         BLOCKEND  ---      ---       LVL=0
      00001159H   SYMBOL    EDATA    ---       dat
      0000115FH   SYMBOL    EDATA    ---       dat
      00001165H   SYMBOL    EDATA    INT       acc_value
      00001167H   SYMBOL    EDATA    FLOAT     acc_data
      0000116BH   SYMBOL    EDATA    INT       gyro_value
      0000116DH   SYMBOL    EDATA    FLOAT     gyro_data
      0000123FH   SYMBOL    EDATA    BYTE      val
      00001240H   SYMBOL    EDATA    BYTE      return_state
      00001241H   SYMBOL    EDATA    WORD      timeout_count

      ---         MODULE    ---      ---       SEEKFREE_IMU660RA
      00000E28H   PUBLIC    EDATA    INT       imu660ra_acc_x
      00000E2AH   PUBLIC    EDATA    INT       imu660ra_acc_y
      00000E2CH   PUBLIC    EDATA    INT       imu660ra_acc_z
      00000E2EH   PUBLIC    EDATA    INT       imu660ra_gyro_x
      00000E30H   PUBLIC    EDATA    INT       imu660ra_gyro_y
      00000E32H   PUBLIC    EDATA    INT       imu660ra_gyro_z
      000000D0H   SFRSYM    DATA     BYTE      PSW
      0000009DH   SFRSYM    DATA     BYTE      IRCBAND
      00000097H   SFRSYM    DATA     BYTE      AUXR2
      000000EFH   SFRSYM    DATA     BYTE      AUXINTIF
L251 LINKER/LOCATER V4.66.93.0                                                        11/20/2024  19:22:33  PAGE 97


      000000FDH   SFRSYM    DATA     BYTE      S4CON
      000000ACH   SFRSYM    DATA     BYTE      S3CON
      0000009AH   SFRSYM    DATA     BYTE      S2CON
      000000B7H   SFRSYM    DATA     BYTE      IPH
      000000CDH   SFRSYM    DATA     BYTE      SPSTAT
      000000DDH   SFRSYM    DATA     BYTE      T4T3M
      000000C1H   SFRSYM    DATA     BYTE      WDT_CONTR
      000000DFH   SFRSYM    DATA     BYTE      IP3
      000000F4H   SFRSYM    DATA     BYTE      USBCON
      000000B5H   SFRSYM    DATA     BYTE      IP2
      000000FFH   SFRSYM    DATA     BYTE      RSTCFG
      000000C7H   SFRSYM    DATA     BYTE      IAP_CONTR
      000000F9H   SFRSYM    DATA     BYTE      LINICR
      0000008EH   SFRSYM    DATA     BYTE      AUXR
      000000AFH   SFRSYM    DATA     BYTE      IE2
      000000C0H.3 SFRSYM    DATA     BIT       P43
      000000C0H.2 SFRSYM    DATA     BIT       P42
      00000088H   SFRSYM    DATA     BYTE      TCON
      00000089H   SFRSYM    DATA     BYTE      TMOD
      000000C0H.1 SFRSYM    DATA     BIT       P41
      00000098H   SFRSYM    DATA     BYTE      SCON
      000000C0H.0 SFRSYM    DATA     BIT       P40
      000000F1H   SFRSYM    DATA     BYTE      CANICR
      00000087H   SFRSYM    DATA     BYTE      PCON
      000000BCH   SFRSYM    DATA     BYTE      ADC_CONTR
      000000E7H   SFRSYM    DATA     BYTE      CMPCR2
      000000E6H   SFRSYM    DATA     BYTE      CMPCR1
      000000DEH   SFRSYM    DATA     BYTE      ADCCFG
      000000B8H   SFRSYM    DATA     BYTE      IP
      0000008FH   SFRSYM    DATA     BYTE      INTCLKO
      000000EEH   SFRSYM    DATA     BYTE      IP3H
      000000B6H   SFRSYM    DATA     BYTE      IP2H
      000000A8H   SFRSYM    DATA     BYTE      IE
      000000BBH   SFRSYM    DATA     BYTE      P_SW3
      000000BAH   SFRSYM    DATA     BYTE      P_SW2
      000000A2H   SFRSYM    DATA     BYTE      P_SW1
      000000CEH   SFRSYM    DATA     BYTE      SPCTL
      000000F8H   SFRSYM    DATA     BYTE      P7
      000000E8H   SFRSYM    DATA     BYTE      P6
      000000C8H   SFRSYM    DATA     BYTE      P5
      000000C0H   SFRSYM    DATA     BYTE      P4
      000000B0H   SFRSYM    DATA     BYTE      P3
      000000A0H   SFRSYM    DATA     BYTE      P2
      00000090H   SFRSYM    DATA     BYTE      P1
      00000080H   SFRSYM    DATA     BYTE      P0
      00FFA854H   SYMBOL    CODE     ---       imu660ra_read_register
      00FFA876H   SYMBOL    CODE     ---       imu660ra_write_registers
      00FFAA98H   SYMBOL    CODE     ---       imu660ra_write_register
      00FF979FH   SYMBOL    CODE     ---       imu660ra_simspi_wr_byte
      00FF9EAEH   SYMBOL    CODE     ---       imu660ra_self_check
      00FF9EF9H   SYMBOL    CODE     ---       imu660ra_simspi_r_reg_bytes
      00FFA233H   SYMBOL    CODE     ---       imu660ra_simspi_w_reg_bytes
      00FFAA2FH   SYMBOL    CODE     ---       imu660ra_simspi_w_reg_byte

      00FF979FH   BLOCK     CODE     ---       LVL=0
      000012D4H   SYMBOL    EDATA    BYTE      byte
      00FF97A3H   BLOCK     CODE     NEAR LAB  LVL=1
      000012D5H   SYMBOL    EDATA    BYTE      i
      ---         BLOCKEND  ---      ---       LVL=1
      00FF979FH   LINE      CODE     ---       #310
      00FF97A3H   LINE      CODE     ---       #311
      00FF97A3H   LINE      CODE     ---       #314
      00FF97AAH   LINE      CODE     ---       #316
      00FF97B8H   LINE      CODE     ---       #317
      00FF97C2H   LINE      CODE     ---       #318
L251 LINKER/LOCATER V4.66.93.0                                                        11/20/2024  19:22:33  PAGE 98


      00FF97C5H   LINE      CODE     ---       #319
      00FF97C8H   LINE      CODE     ---       #320
      00FF97CBH   LINE      CODE     ---       #321
      00FF97CEH   LINE      CODE     ---       #323
      00FF97DCH   LINE      CODE     ---       #324
      00FF97F3H   LINE      CODE     ---       #325
      00FF97F7H   LINE      CODE     ---       #326
      ---         BLOCKEND  ---      ---       LVL=0

      00FFAA2FH   BLOCK     CODE     ---       LVL=0
      000012D6H   SYMBOL    EDATA    BYTE      cmd
      000012D7H   SYMBOL    EDATA    BYTE      val
      00FFAA2FH   LINE      CODE     ---       #334
      00FFAA37H   LINE      CODE     ---       #336
      00FFAA3BH   LINE      CODE     ---       #337
      00FFAA42H   LINE      CODE     ---       #338
      00FFAA49H   LINE      CODE     ---       #339
      ---         BLOCKEND  ---      ---       LVL=0

      00FFA233H   BLOCK     CODE     ---       LVL=0
      00000FBAH   SYMBOL    EDATA    BYTE      cmd
      00000FBBH   SYMBOL    EDATA    ---       dat_addr
      00000FBFH   SYMBOL    EDATA    DWORD     len
      00FFA233H   LINE      CODE     ---       #349
      00FFA23FH   LINE      CODE     ---       #351
      00FFA243H   LINE      CODE     ---       #352
      00FFA24AH   LINE      CODE     ---       #353
      00FFA24CH   LINE      CODE     ---       #355
      00FFA25CH   LINE      CODE     ---       #356
      00FFA270H   LINE      CODE     ---       #357
      ---         BLOCKEND  ---      ---       LVL=0

      00FF9EF9H   BLOCK     CODE     ---       LVL=0
      00000FC3H   SYMBOL    EDATA    BYTE      cmd
      00000FC4H   SYMBOL    EDATA    ---       val
      00000FC8H   SYMBOL    EDATA    DWORD     num
      00FF9EF9H   LINE      CODE     ---       #383
      00FF9F05H   LINE      CODE     ---       #385
      00FF9F11H   LINE      CODE     ---       #386
      00FF9F18H   LINE      CODE     ---       #388
      00FF9F1AH   LINE      CODE     ---       #390
      00FF9F2FH   LINE      CODE     ---       #391
      00FF9F43H   LINE      CODE     ---       #392
      ---         BLOCKEND  ---      ---       LVL=0

      00FFAA98H   BLOCK     CODE     ---       LVL=0
      000012D8H   SYMBOL    EDATA    BYTE      reg
      000012D9H   SYMBOL    EDATA    BYTE      dat
      00FFAA98H   LINE      CODE     ---       #403
      00FFAAA0H   LINE      CODE     ---       #405
      00FFAAA3H   LINE      CODE     ---       #406
      00FFAAAEH   LINE      CODE     ---       #407
      00FFAAB1H   LINE      CODE     ---       #408
      ---         BLOCKEND  ---      ---       LVL=0

      00FFA876H   BLOCK     CODE     ---       LVL=0
      00000FCCH   SYMBOL    EDATA    BYTE      reg
      00000FCDH   SYMBOL    EDATA    ---       dat
      00000FD1H   SYMBOL    EDATA    DWORD     len
      00FFA876H   LINE      CODE     ---       #418
      00FFA882H   LINE      CODE     ---       #420
      00FFA885H   LINE      CODE     ---       #422
      00FFA894H   LINE      CODE     ---       #423
      00FFA897H   LINE      CODE     ---       #424
      ---         BLOCKEND  ---      ---       LVL=0
L251 LINKER/LOCATER V4.66.93.0                                                        11/20/2024  19:22:33  PAGE 99



      00FFA854H   BLOCK     CODE     ---       LVL=0
      00001292H   SYMBOL    EDATA    BYTE      reg
      00FFA858H   BLOCK     CODE     NEAR LAB  LVL=1
      00001293H   SYMBOL    EDATA    ---       dat
      ---         BLOCKEND  ---      ---       LVL=1
      00FFA854H   LINE      CODE     ---       #433
      00FFA858H   LINE      CODE     ---       #434
      00FFA858H   LINE      CODE     ---       #436
      00FFA85BH   LINE      CODE     ---       #437
      00FFA86EH   LINE      CODE     ---       #438
      00FFA871H   LINE      CODE     ---       #439
      00FFA875H   LINE      CODE     ---       #440
      ---         BLOCKEND  ---      ---       LVL=0
      00000FD5H   SYMBOL    EDATA    BYTE      reg
      00000FD6H   SYMBOL    EDATA    ---       dat
      00000FDAH   SYMBOL    EDATA    DWORD     len

      00FF9EAEH   BLOCK     CODE     ---       LVL=0
      00001243H   SYMBOL    EDATA    BYTE      dat
      00001244H   SYMBOL    EDATA    BYTE      return_state
      00001245H   SYMBOL    EDATA    WORD      timeout_count
      00FF9EAEH   LINE      CODE     ---       #466
      00FF9EAEH   LINE      CODE     ---       #467
      00FF9EAEH   LINE      CODE     ---       #468
      00FF9EB8H   LINE      CODE     ---       #469
      00FF9EBEH   LINE      CODE     ---       #470
      00FF9EBEH   LINE      CODE     ---       #472
      00FF9ED4H   LINE      CODE     ---       #474
      00FF9EDAH   LINE      CODE     ---       #475
      00FF9EDCH   LINE      CODE     ---       #476
      00FF9EDCH   LINE      CODE     ---       #477
      00FF9EE4H   LINE      CODE     ---       #478
      00FF9EEBH   LINE      CODE     ---       #479
      00FF9EF4H   LINE      CODE     ---       #480
      00FF9EF8H   LINE      CODE     ---       #481
      ---         BLOCKEND  ---      ---       LVL=0
      000010F9H   SYMBOL    EDATA    ---       dat
      00001100H   SYMBOL    EDATA    ---       dat
      00001171H   SYMBOL    EDATA    INT       acc_value
      00001173H   SYMBOL    EDATA    FLOAT     acc_dat
      00001177H   SYMBOL    EDATA    INT       gyro_value
      00001179H   SYMBOL    EDATA    FLOAT     gyro_dat
      00001312H   SYMBOL    EDATA    BYTE      return_state

      ---         MODULE    ---      ---       SEEKFREE_IMU963RA
      00000CA0H   PUBLIC    EDATA    INT       imu963ra_acc_x
      00000CA2H   PUBLIC    EDATA    INT       imu963ra_acc_y
      00000CA4H   PUBLIC    EDATA    INT       imu963ra_acc_z
      00000CA6H   PUBLIC    EDATA    INT       imu963ra_mag_x
      00000CA8H   PUBLIC    EDATA    INT       imu963ra_mag_y
      00000CAAH   PUBLIC    EDATA    INT       imu963ra_mag_z
      00000CACH   PUBLIC    EDATA    INT       imu963ra_gyro_x
      00000CAEH   PUBLIC    EDATA    INT       imu963ra_gyro_y
      00000CB0H   PUBLIC    EDATA    INT       imu963ra_gyro_z
      000000D0H   SFRSYM    DATA     BYTE      PSW
      0000009DH   SFRSYM    DATA     BYTE      IRCBAND
      00000097H   SFRSYM    DATA     BYTE      AUXR2
      000000EFH   SFRSYM    DATA     BYTE      AUXINTIF
      000000FDH   SFRSYM    DATA     BYTE      S4CON
      000000ACH   SFRSYM    DATA     BYTE      S3CON
      0000009AH   SFRSYM    DATA     BYTE      S2CON
      000000B7H   SFRSYM    DATA     BYTE      IPH
      000000CDH   SFRSYM    DATA     BYTE      SPSTAT
      000000DDH   SFRSYM    DATA     BYTE      T4T3M
L251 LINKER/LOCATER V4.66.93.0                                                        11/20/2024  19:22:33  PAGE 100


      000000C1H   SFRSYM    DATA     BYTE      WDT_CONTR
      000000DFH   SFRSYM    DATA     BYTE      IP3
      000000F4H   SFRSYM    DATA     BYTE      USBCON
      000000B5H   SFRSYM    DATA     BYTE      IP2
      000000FFH   SFRSYM    DATA     BYTE      RSTCFG
      000000C7H   SFRSYM    DATA     BYTE      IAP_CONTR
      000000F9H   SFRSYM    DATA     BYTE      LINICR
      0000008EH   SFRSYM    DATA     BYTE      AUXR
      000000AFH   SFRSYM    DATA     BYTE      IE2
      000000C0H.3 SFRSYM    DATA     BIT       P43
      000000C0H.2 SFRSYM    DATA     BIT       P42
      00000088H   SFRSYM    DATA     BYTE      TCON
      00000089H   SFRSYM    DATA     BYTE      TMOD
      000000C0H.1 SFRSYM    DATA     BIT       P41
      00000098H   SFRSYM    DATA     BYTE      SCON
      000000C0H.0 SFRSYM    DATA     BIT       P40
      000000F1H   SFRSYM    DATA     BYTE      CANICR
      00000087H   SFRSYM    DATA     BYTE      PCON
      000000BCH   SFRSYM    DATA     BYTE      ADC_CONTR
      000000E7H   SFRSYM    DATA     BYTE      CMPCR2
      000000E6H   SFRSYM    DATA     BYTE      CMPCR1
      000000DEH   SFRSYM    DATA     BYTE      ADCCFG
      000000B8H   SFRSYM    DATA     BYTE      IP
      0000008FH   SFRSYM    DATA     BYTE      INTCLKO
      000000EEH   SFRSYM    DATA     BYTE      IP3H
      000000B6H   SFRSYM    DATA     BYTE      IP2H
      000000A8H   SFRSYM    DATA     BYTE      IE
      000000BBH   SFRSYM    DATA     BYTE      P_SW3
      000000BAH   SFRSYM    DATA     BYTE      P_SW2
      000000A2H   SFRSYM    DATA     BYTE      P_SW1
      000000CEH   SFRSYM    DATA     BYTE      SPCTL
      000000F8H   SFRSYM    DATA     BYTE      P7
      000000E8H   SFRSYM    DATA     BYTE      P6
      000000C8H   SFRSYM    DATA     BYTE      P5
      000000C0H   SFRSYM    DATA     BYTE      P4
      000000B0H   SFRSYM    DATA     BYTE      P3
      000000A0H   SFRSYM    DATA     BYTE      P2
      00000090H   SFRSYM    DATA     BYTE      P1
      00000080H   SFRSYM    DATA     BYTE      P0
      00FF97F8H   SYMBOL    CODE     ---       imu963ra_simspi_wr_byte
      00FF8F96H   SYMBOL    CODE     ---       imu963ra_read_mag_register
      00FFA360H   SYMBOL    CODE     ---       imu963ra_connect_mag
      00FFA779H   SYMBOL    CODE     ---       imu963ra_read_acc_gyro_registers
      00FF8A1BH   SYMBOL    CODE     ---       imu963ra_write_mag_register
      00FFA831H   SYMBOL    CODE     ---       imu963ra_read_acc_gyro_register
      00FF9F44H   SYMBOL    CODE     ---       imu963ra_simspi_r_reg_bytes
      00FFA539H   SYMBOL    CODE     ---       imu963ra_simspi_r_reg_byte
      00FF9C47H   SYMBOL    CODE     ---       imu963ra_mag_self_check
      00FFAAB2H   SYMBOL    CODE     ---       imu963ra_write_acc_gyro_register
      00FFA8FBH   SYMBOL    CODE     ---       imu963ra_simspi_w_reg_byte

      00FF97F8H   BLOCK     CODE     ---       LVL=0
      000012DAH   SYMBOL    EDATA    BYTE      byte
      00FF97FCH   BLOCK     CODE     NEAR LAB  LVL=1
      000012DBH   SYMBOL    EDATA    BYTE      i
      ---         BLOCKEND  ---      ---       LVL=1
      00FF97F8H   LINE      CODE     ---       #344
      00FF97FCH   LINE      CODE     ---       #345
      00FF97FCH   LINE      CODE     ---       #348
      00FF9803H   LINE      CODE     ---       #350
      00FF9811H   LINE      CODE     ---       #351
      00FF981BH   LINE      CODE     ---       #352
      00FF981EH   LINE      CODE     ---       #353
      00FF9821H   LINE      CODE     ---       #355
      00FF9824H   LINE      CODE     ---       #356
L251 LINKER/LOCATER V4.66.93.0                                                        11/20/2024  19:22:33  PAGE 101


      00FF9827H   LINE      CODE     ---       #357
      00FF9835H   LINE      CODE     ---       #358
      00FF984CH   LINE      CODE     ---       #359
      00FF9850H   LINE      CODE     ---       #360
      ---         BLOCKEND  ---      ---       LVL=0

      00FFA8FBH   BLOCK     CODE     ---       LVL=0
      000012DCH   SYMBOL    EDATA    BYTE      cmd
      000012DDH   SYMBOL    EDATA    BYTE      val
      00FFA8FBH   LINE      CODE     ---       #368
      00FFA903H   LINE      CODE     ---       #370
      00FFA906H   LINE      CODE     ---       #371
      00FFA90AH   LINE      CODE     ---       #372
      00FFA911H   LINE      CODE     ---       #373
      00FFA918H   LINE      CODE     ---       #374
      00FFA91BH   LINE      CODE     ---       #375
      ---         BLOCKEND  ---      ---       LVL=0

      00FFA539H   BLOCK     CODE     ---       LVL=0
      000011F6H   SYMBOL    EDATA    BYTE      cmd
      000011F7H   SYMBOL    EDATA    ---       val
      00FFA539H   LINE      CODE     ---       #406
      00FFA541H   LINE      CODE     ---       #408
      00FFA544H   LINE      CODE     ---       #409
      00FFA550H   LINE      CODE     ---       #410
      00FFA557H   LINE      CODE     ---       #411
      00FFA562H   LINE      CODE     ---       #412
      00FFA565H   LINE      CODE     ---       #413
      ---         BLOCKEND  ---      ---       LVL=0

      00FF9F44H   BLOCK     CODE     ---       LVL=0
      00000FDEH   SYMBOL    EDATA    BYTE      cmd
      00000FDFH   SYMBOL    EDATA    ---       val
      00000FE3H   SYMBOL    EDATA    DWORD     num
      00FF9F44H   LINE      CODE     ---       #423
      00FF9F50H   LINE      CODE     ---       #426
      00FF9F5CH   LINE      CODE     ---       #427
      00FF9F63H   LINE      CODE     ---       #429
      00FF9F65H   LINE      CODE     ---       #431
      00FF9F7AH   LINE      CODE     ---       #432
      00FF9F8EH   LINE      CODE     ---       #433
      ---         BLOCKEND  ---      ---       LVL=0

      00FFAAB2H   BLOCK     CODE     ---       LVL=0
      000012DEH   SYMBOL    EDATA    BYTE      reg
      000012DFH   SYMBOL    EDATA    BYTE      dat
      00FFAAB2H   LINE      CODE     ---       #445
      00FFAABAH   LINE      CODE     ---       #447
      00FFAABDH   LINE      CODE     ---       #448
      00FFAAC8H   LINE      CODE     ---       #450
      00FFAACBH   LINE      CODE     ---       #451
      ---         BLOCKEND  ---      ---       LVL=0

      00FFA831H   BLOCK     CODE     ---       LVL=0
      000012E0H   SYMBOL    EDATA    BYTE      reg
      00FFA835H   BLOCK     CODE     NEAR LAB  LVL=1
      000012E1H   SYMBOL    EDATA    BYTE      dat
      ---         BLOCKEND  ---      ---       LVL=1
      00FFA831H   LINE      CODE     ---       #460
      00FFA835H   LINE      CODE     ---       #461
      00FFA835H   LINE      CODE     ---       #462
      00FFA83AH   LINE      CODE     ---       #463
      00FFA83DH   LINE      CODE     ---       #464
      00FFA84CH   LINE      CODE     ---       #465
      00FFA84FH   LINE      CODE     ---       #466
L251 LINKER/LOCATER V4.66.93.0                                                        11/20/2024  19:22:33  PAGE 102


      00FFA853H   LINE      CODE     ---       #467
      ---         BLOCKEND  ---      ---       LVL=0

      00FFA779H   BLOCK     CODE     ---       LVL=0
      00000FE7H   SYMBOL    EDATA    BYTE      reg
      00000FE8H   SYMBOL    EDATA    ---       dat
      00000FECH   SYMBOL    EDATA    DWORD     len
      00FFA779H   LINE      CODE     ---       #478
      00FFA785H   LINE      CODE     ---       #480
      00FFA788H   LINE      CODE     ---       #481
      00FFA79BH   LINE      CODE     ---       #483
      00FFA79EH   LINE      CODE     ---       #484
      ---         BLOCKEND  ---      ---       LVL=0

      00FF8A1BH   BLOCK     CODE     ---       LVL=0
      0000117DH   SYMBOL    EDATA    BYTE      addr
      0000117EH   SYMBOL    EDATA    BYTE      reg
      0000117FH   SYMBOL    EDATA    BYTE      dat
      00FF8A27H   BLOCK     CODE     NEAR LAB  LVL=1
      00001180H   SYMBOL    EDATA    BYTE      return_state
      00001181H   SYMBOL    EDATA    WORD      timeout_count
      ---         BLOCKEND  ---      ---       LVL=1
      00FF8A1BH   LINE      CODE     ---       #496
      00FF8A27H   LINE      CODE     ---       #497
      00FF8A27H   LINE      CODE     ---       #498
      00FF8A2CH   LINE      CODE     ---       #499
      00FF8A32H   LINE      CODE     ---       #501
      00FF8A3CH   LINE      CODE     ---       #502
      00FF8A43H   LINE      CODE     ---       #503
      00FF8A4CH   LINE      CODE     ---       #504
      00FF8A55H   LINE      CODE     ---       #505
      00FF8A5EH   LINE      CODE     ---       #506
      00FF8A66H   LINE      CODE     ---       #509
      00FF8A68H   LINE      CODE     ---       #511
      00FF8A7EH   LINE      CODE     ---       #513
      00FF8A84H   LINE      CODE     ---       #514
      00FF8A86H   LINE      CODE     ---       #515
      00FF8A86H   LINE      CODE     ---       #516
      00FF8A8DH   LINE      CODE     ---       #517
      00FF8A95H   LINE      CODE     ---       #518
      00FF8A99H   LINE      CODE     ---       #519
      ---         BLOCKEND  ---      ---       LVL=0

      00FF8F96H   BLOCK     CODE     ---       LVL=0
      00001247H   SYMBOL    EDATA    BYTE      addr
      00001248H   SYMBOL    EDATA    BYTE      reg
      00FF8F9EH   BLOCK     CODE     NEAR LAB  LVL=1
      00001249H   SYMBOL    EDATA    WORD      timeout_count
      ---         BLOCKEND  ---      ---       LVL=1
      00FF8F96H   LINE      CODE     ---       #529
      00FF8F9EH   LINE      CODE     ---       #530
      00FF8F9EH   LINE      CODE     ---       #531
      00FF8FA4H   LINE      CODE     ---       #533
      00FF8FAEH   LINE      CODE     ---       #534
      00FF8FBCH   LINE      CODE     ---       #535
      00FF8FC5H   LINE      CODE     ---       #536
      00FF8FCDH   LINE      CODE     ---       #537
      00FF8FD5H   LINE      CODE     ---       #540
      00FF8FD7H   LINE      CODE     ---       #542
      00FF8FEDH   LINE      CODE     ---       #544
      00FF8FEDH   LINE      CODE     ---       #545
      00FF8FEDH   LINE      CODE     ---       #546
      00FF8FF4H   LINE      CODE     ---       #547
      00FF8FFCH   LINE      CODE     ---       #549
      00FF9001H   LINE      CODE     ---       #550
L251 LINKER/LOCATER V4.66.93.0                                                        11/20/2024  19:22:33  PAGE 103


      ---         BLOCKEND  ---      ---       LVL=0

      00FFA360H   BLOCK     CODE     ---       LVL=0
      000012E2H   SYMBOL    EDATA    BYTE      addr
      000012E3H   SYMBOL    EDATA    BYTE      reg
      00FFA360H   LINE      CODE     ---       #560
      00FFA368H   LINE      CODE     ---       #562
      00FFA372H   LINE      CODE     ---       #564
      00FFA380H   LINE      CODE     ---       #565
      00FFA389H   LINE      CODE     ---       #566
      00FFA391H   LINE      CODE     ---       #567
      00FFA399H   LINE      CODE     ---       #568
      ---         BLOCKEND  ---      ---       LVL=0
      0000124BH   SYMBOL    EDATA    BYTE      return_state
      0000124CH   SYMBOL    EDATA    BYTE      dat
      0000124DH   SYMBOL    EDATA    WORD      timeout_count

      00FF9C47H   BLOCK     CODE     ---       LVL=0
      0000124FH   SYMBOL    EDATA    BYTE      return_state
      00001250H   SYMBOL    EDATA    BYTE      dat
      00001251H   SYMBOL    EDATA    WORD      timeout_count
      00FF9C47H   LINE      CODE     ---       #604
      00FF9C47H   LINE      CODE     ---       #605
      00FF9C47H   LINE      CODE     ---       #606
      00FF9C4CH   LINE      CODE     ---       #607
      00FF9C51H   LINE      CODE     ---       #608
      00FF9C57H   LINE      CODE     ---       #610
      00FF9C59H   LINE      CODE     ---       #612
      00FF9C6FH   LINE      CODE     ---       #614
      00FF9C75H   LINE      CODE     ---       #615
      00FF9C77H   LINE      CODE     ---       #616
      00FF9C77H   LINE      CODE     ---       #617
      00FF9C83H   LINE      CODE     ---       #618
      00FF9C8AH   LINE      CODE     ---       #619
      00FF9C93H   LINE      CODE     ---       #620
      00FF9C97H   LINE      CODE     ---       #621
      ---         BLOCKEND  ---      ---       LVL=0
      00001183H   SYMBOL    EDATA    ---       dat
      00001189H   SYMBOL    EDATA    ---       dat
      00001107H   SYMBOL    EDATA    BYTE      temp_status
      00001108H   SYMBOL    EDATA    ---       dat
      0000118FH   SYMBOL    EDATA    INT       acc_value
      00001191H   SYMBOL    EDATA    FLOAT     acc_dat
      00001195H   SYMBOL    EDATA    INT       gyro_value
      00001197H   SYMBOL    EDATA    FLOAT     gyro_dat
      0000119BH   SYMBOL    EDATA    INT       mag_value
      0000119DH   SYMBOL    EDATA    FLOAT     mag_dat
      00001313H   SYMBOL    EDATA    BYTE      return_state

      ---         MODULE    ---      ---       SEEKFREE_IPS114_SPI
      00FFA611H   PUBLIC    CODE     ---       ips114_writedata_16bit
      00FF8153H   PUBLIC    CODE     ---       ips114_showchar_simspi
      00FF8212H   PUBLIC    CODE     ---       ips114_showchar
      00FF93A1H   PUBLIC    CODE     ---       ips114_clear_simspi
      00FF9400H   PUBLIC    CODE     ---       ips114_clear
      00FF9A01H   PUBLIC    CODE     ---       ips114_writeDatai_16bit_simspi
      00FF9D7EH   PUBLIC    CODE     ---       ips114_writeIndex_simspi
      00FF9DCAH   PUBLIC    CODE     ---       ips114_writeData_simspi
      00FFABF2H   PUBLIC    CODE     ---       ips114_writeIndex
      00FFAC07H   PUBLIC    CODE     ---       ips114_writeData
      00FF9AAAH   PUBLIC    CODE     ---       ips114_set_region_simspi
      00FF9AFEH   PUBLIC    CODE     ---       ips114_set_region
      000007F7H   PUBLIC    EDATA    BYTE      ?ips114_showfloat_simspi?BYTE
      00000827H   PUBLIC    EDATA    BYTE      ?ips114_showfloat?BYTE
      000000D0H   SFRSYM    DATA     BYTE      PSW
L251 LINKER/LOCATER V4.66.93.0                                                        11/20/2024  19:22:33  PAGE 104


      0000009DH   SFRSYM    DATA     BYTE      IRCBAND
      00000097H   SFRSYM    DATA     BYTE      AUXR2
      000000EFH   SFRSYM    DATA     BYTE      AUXINTIF
      000000FDH   SFRSYM    DATA     BYTE      S4CON
      000000ACH   SFRSYM    DATA     BYTE      S3CON
      0000009AH   SFRSYM    DATA     BYTE      S2CON
      000000B7H   SFRSYM    DATA     BYTE      IPH
      000000CDH   SFRSYM    DATA     BYTE      SPSTAT
      000000DDH   SFRSYM    DATA     BYTE      T4T3M
      000000C1H   SFRSYM    DATA     BYTE      WDT_CONTR
      000000DFH   SFRSYM    DATA     BYTE      IP3
      000000F4H   SFRSYM    DATA     BYTE      USBCON
      000000B5H   SFRSYM    DATA     BYTE      IP2
      000000FFH   SFRSYM    DATA     BYTE      RSTCFG
      000000C7H   SFRSYM    DATA     BYTE      IAP_CONTR
      000000F9H   SFRSYM    DATA     BYTE      LINICR
      0000008EH   SFRSYM    DATA     BYTE      AUXR
      000000AFH   SFRSYM    DATA     BYTE      IE2
      000000A0H.7 SFRSYM    DATA     BIT       P27
      000000A0H.5 SFRSYM    DATA     BIT       P25
      00000088H   SFRSYM    DATA     BYTE      TCON
      00000089H   SFRSYM    DATA     BYTE      TMOD
      000000A0H.3 SFRSYM    DATA     BIT       P23
      00000098H   SFRSYM    DATA     BYTE      SCON
      000000A0H.2 SFRSYM    DATA     BIT       P22
      000000A0H.1 SFRSYM    DATA     BIT       P21
      000000A0H.0 SFRSYM    DATA     BIT       P20
      000000F1H   SFRSYM    DATA     BYTE      CANICR
      00000087H   SFRSYM    DATA     BYTE      PCON
      000000BCH   SFRSYM    DATA     BYTE      ADC_CONTR
      000000E7H   SFRSYM    DATA     BYTE      CMPCR2
      000000E6H   SFRSYM    DATA     BYTE      CMPCR1
      000000DEH   SFRSYM    DATA     BYTE      ADCCFG
      000000B8H   SFRSYM    DATA     BYTE      IP
      0000008FH   SFRSYM    DATA     BYTE      INTCLKO
      000000EEH   SFRSYM    DATA     BYTE      IP3H
      000000B6H   SFRSYM    DATA     BYTE      IP2H
      000000A8H   SFRSYM    DATA     BYTE      IE
      000000BBH   SFRSYM    DATA     BYTE      P_SW3
      000000BAH   SFRSYM    DATA     BYTE      P_SW2
      000000A2H   SFRSYM    DATA     BYTE      P_SW1
      000000CEH   SFRSYM    DATA     BYTE      SPCTL
      000000F8H   SFRSYM    DATA     BYTE      P7
      000000E8H   SFRSYM    DATA     BYTE      P6
      000000C8H   SFRSYM    DATA     BYTE      P5
      000000C0H   SFRSYM    DATA     BYTE      P4
      000000B0H   SFRSYM    DATA     BYTE      P3
      000000A0H   SFRSYM    DATA     BYTE      P2
      00000090H   SFRSYM    DATA     BYTE      P1
      00000080H   SFRSYM    DATA     BYTE      P0

      00FF9D7EH   BLOCK     CODE     ---       LVL=0
      000012E4H   SYMBOL    EDATA    BYTE      dat
      00FF9D82H   BLOCK     CODE     NEAR LAB  LVL=1
      000012E5H   SYMBOL    EDATA    BYTE      i
      ---         BLOCKEND  ---      ---       LVL=1
      00FF9D7EH   LINE      CODE     ---       #61
      00FF9D82H   LINE      CODE     ---       #62
      00FF9D82H   LINE      CODE     ---       #63
      00FF9D88H   LINE      CODE     ---       #64
      00FF9D8BH   LINE      CODE     ---       #65
      00FF9D8EH   LINE      CODE     ---       #67
      00FF9D91H   LINE      CODE     ---       #69
      00FF9D93H   LINE      CODE     ---       #71
      00FF9D9FH   LINE      CODE     ---       #72
L251 LINKER/LOCATER V4.66.93.0                                                        11/20/2024  19:22:33  PAGE 105


      00FF9DA2H   LINE      CODE     ---       #73
      00FF9DA5H   LINE      CODE     ---       #75
      00FF9DA8H   LINE      CODE     ---       #76
      00FF9DB2H   LINE      CODE     ---       #77
      00FF9DC6H   LINE      CODE     ---       #78
      00FF9DC9H   LINE      CODE     ---       #79
      ---         BLOCKEND  ---      ---       LVL=0

      00FF9DCAH   BLOCK     CODE     ---       LVL=0
      000012E6H   SYMBOL    EDATA    BYTE      dat
      00FF9DCEH   BLOCK     CODE     NEAR LAB  LVL=1
      000012E7H   SYMBOL    EDATA    BYTE      i
      ---         BLOCKEND  ---      ---       LVL=1
      00FF9DCAH   LINE      CODE     ---       #88
      00FF9DCEH   LINE      CODE     ---       #89
      00FF9DCEH   LINE      CODE     ---       #90
      00FF9DD4H   LINE      CODE     ---       #91
      00FF9DD7H   LINE      CODE     ---       #92
      00FF9DDAH   LINE      CODE     ---       #94
      00FF9DDDH   LINE      CODE     ---       #96
      00FF9DDFH   LINE      CODE     ---       #98
      00FF9DEBH   LINE      CODE     ---       #99
      00FF9DEEH   LINE      CODE     ---       #100
      00FF9DF1H   LINE      CODE     ---       #102
      00FF9DF4H   LINE      CODE     ---       #103
      00FF9DFEH   LINE      CODE     ---       #104
      00FF9E12H   LINE      CODE     ---       #105
      00FF9E15H   LINE      CODE     ---       #106
      ---         BLOCKEND  ---      ---       LVL=0

      00FF9A01H   BLOCK     CODE     ---       LVL=0
      00001295H   SYMBOL    EDATA    WORD      dat
      00FF9A05H   BLOCK     CODE     NEAR LAB  LVL=1
      00001297H   SYMBOL    EDATA    BYTE      i
      ---         BLOCKEND  ---      ---       LVL=1
      00FF9A01H   LINE      CODE     ---       #115
      00FF9A05H   LINE      CODE     ---       #116
      00FF9A05H   LINE      CODE     ---       #117
      00FF9A0BH   LINE      CODE     ---       #118
      00FF9A0EH   LINE      CODE     ---       #119
      00FF9A11H   LINE      CODE     ---       #120
      00FF9A14H   LINE      CODE     ---       #121
      00FF9A16H   LINE      CODE     ---       #123
      00FF9A2BH   LINE      CODE     ---       #124
      00FF9A2EH   LINE      CODE     ---       #125
      00FF9A31H   LINE      CODE     ---       #127
      00FF9A34H   LINE      CODE     ---       #128
      00FF9A3EH   LINE      CODE     ---       #129
      00FF9A52H   LINE      CODE     ---       #130
      00FF9A55H   LINE      CODE     ---       #131
      ---         BLOCKEND  ---      ---       LVL=0

      00FF9AAAH   BLOCK     CODE     ---       LVL=0
      0000109BH   SYMBOL    EDATA    WORD      x1
      0000109DH   SYMBOL    EDATA    WORD      y1
      0000109FH   SYMBOL    EDATA    WORD      x2
      000010A1H   SYMBOL    EDATA    WORD      y2
      00FF9AAAH   LINE      CODE     ---       #240
      00FF9ABAH   LINE      CODE     ---       #274
      00FF9ABFH   LINE      CODE     ---       #275
      00FF9ACCH   LINE      CODE     ---       #276
      00FF9AD9H   LINE      CODE     ---       #277
      00FF9ADEH   LINE      CODE     ---       #278
      00FF9AEBH   LINE      CODE     ---       #279
      00FF9AF8H   LINE      CODE     ---       #280
L251 LINKER/LOCATER V4.66.93.0                                                        11/20/2024  19:22:33  PAGE 106


      00FF9AFDH   LINE      CODE     ---       #283
      ---         BLOCKEND  ---      ---       LVL=0

      00FF93A1H   BLOCK     CODE     ---       LVL=0
      000011A1H   SYMBOL    EDATA    WORD      color
      00FF93A5H   BLOCK     CODE     NEAR LAB  LVL=1
      000011A3H   SYMBOL    EDATA    WORD      i
      000011A5H   SYMBOL    EDATA    WORD      j
      ---         BLOCKEND  ---      ---       LVL=1
      00FF93A1H   LINE      CODE     ---       #292
      00FF93A5H   LINE      CODE     ---       #293
      00FF93A5H   LINE      CODE     ---       #295
      00FF93B4H   LINE      CODE     ---       #296
      00FF93BCH   LINE      CODE     ---       #298
      00FF93C4H   LINE      CODE     ---       #300
      00FF93CBH   LINE      CODE     ---       #301
      00FF93E5H   LINE      CODE     ---       #302
      00FF93FFH   LINE      CODE     ---       #303
      ---         BLOCKEND  ---      ---       LVL=0
      000011A7H   SYMBOL    EDATA    WORD      x
      000011A9H   SYMBOL    EDATA    WORD      y
      000011ABH   SYMBOL    EDATA    WORD      color

      00FF8153H   BLOCK     CODE     ---       LVL=0
      000010A3H   SYMBOL    EDATA    WORD      x
      000010A5H   SYMBOL    EDATA    WORD      y
      000010A7H   SYMBOL    EDATA    CHAR      dat
      00FF815FH   BLOCK     CODE     NEAR LAB  LVL=1
      000010A8H   SYMBOL    EDATA    BYTE      i
      000010A9H   SYMBOL    EDATA    BYTE      j
      000010AAH   SYMBOL    EDATA    BYTE      temp
      ---         BLOCKEND  ---      ---       LVL=1
      00FF8153H   LINE      CODE     ---       #331
      00FF815FH   LINE      CODE     ---       #332
      00FF815FH   LINE      CODE     ---       #336
      00FF8167H   LINE      CODE     ---       #338
      00FF8190H   LINE      CODE     ---       #339
      00FF81B8H   LINE      CODE     ---       #340
      00FF81BFH   LINE      CODE     ---       #342
      00FF81C6H   LINE      CODE     ---       #344
      00FF81CDH   LINE      CODE     ---       #345
      00FF81CFH   LINE      CODE     ---       #346
      00FF81D6H   LINE      CODE     ---       #347
      00FF81E0H   LINE      CODE     ---       #348
      00FF81F7H   LINE      CODE     ---       #349
      00FF8211H   LINE      CODE     ---       #350
      ---         BLOCKEND  ---      ---       LVL=0
      00000F23H   SYMBOL    EDATA    WORD      x
      00000F25H   SYMBOL    EDATA    WORD      y
      00000F27H   SYMBOL    EDATA    ---       dat
      00000F2BH   SYMBOL    EDATA    WORD      j
      00000FF0H   SYMBOL    EDATA    WORD      x
      00000FF2H   SYMBOL    EDATA    WORD      y
      00000FF4H   SYMBOL    EDATA    CHAR      dat
      00000FF5H   SYMBOL    EDATA    ---       a
      00000FF8H   SYMBOL    EDATA    BYTE      i
      00000FF9H   SYMBOL    EDATA    WORD      x
      00000FFBH   SYMBOL    EDATA    WORD      y
      00000FFDH   SYMBOL    EDATA    BYTE      dat
      00000FFEH   SYMBOL    EDATA    ---       a
      00001001H   SYMBOL    EDATA    BYTE      i
      00000E34H   SYMBOL    EDATA    WORD      x
      00000E36H   SYMBOL    EDATA    WORD      y
      00000E38H   SYMBOL    EDATA    INT       dat
      00000E3AH   SYMBOL    EDATA    ---       a
L251 LINKER/LOCATER V4.66.93.0                                                        11/20/2024  19:22:33  PAGE 107


      00000E3FH   SYMBOL    EDATA    BYTE      i
      00000E40H   SYMBOL    EDATA    WORD      x
      00000E42H   SYMBOL    EDATA    WORD      y
      00000E44H   SYMBOL    EDATA    WORD      dat
      00000E46H   SYMBOL    EDATA    ---       a
      00000E4BH   SYMBOL    EDATA    BYTE      i
      0000096CH   SYMBOL    EDATA    WORD      x
      0000096EH   SYMBOL    EDATA    WORD      y
      00000970H   SYMBOL    EDATA    LONG      dat
      00000974H   SYMBOL    EDATA    BYTE      num
      00000975H   SYMBOL    EDATA    ---       buff
      00000997H   SYMBOL    EDATA    BYTE      length
      000007F7H   SYMBOL    EDATA    WORD      x
      000007F9H   SYMBOL    EDATA    WORD      y
      000007FBH   SYMBOL    EDATA    FLOAT     dat
      000007FFH   SYMBOL    EDATA    BYTE      num
      00000800H   SYMBOL    EDATA    BYTE      pointnum
      00000801H   SYMBOL    EDATA    BYTE      length
      00000802H   SYMBOL    EDATA    ---       buff
      00000824H   SYMBOL    EDATA    CHAR      start
      00000825H   SYMBOL    EDATA    CHAR      end
      00000826H   SYMBOL    EDATA    CHAR      point

      00FFABF2H   BLOCK     CODE     ---       LVL=0
      00001314H   SYMBOL    EDATA    BYTE      dat
      00FFABF2H   LINE      CODE     ---       #594
      00FFABF6H   LINE      CODE     ---       #596
      00FFABF9H   LINE      CODE     ---       #597
      00FFABFCH   LINE      CODE     ---       #599
      00FFAC03H   LINE      CODE     ---       #600
      00FFAC06H   LINE      CODE     ---       #601
      ---         BLOCKEND  ---      ---       LVL=0

      00FFAC07H   BLOCK     CODE     ---       LVL=0
      00001315H   SYMBOL    EDATA    BYTE      dat
      00FFAC07H   LINE      CODE     ---       #610
      00FFAC0BH   LINE      CODE     ---       #612
      00FFAC0EH   LINE      CODE     ---       #613
      00FFAC11H   LINE      CODE     ---       #615
      00FFAC18H   LINE      CODE     ---       #616
      00FFAC1BH   LINE      CODE     ---       #617
      ---         BLOCKEND  ---      ---       LVL=0

      00FFA611H   BLOCK     CODE     ---       LVL=0
      00001253H   SYMBOL    EDATA    WORD      dat
      00FFA615H   BLOCK     CODE     NEAR LAB  LVL=1
      00001255H   SYMBOL    EDATA    ---       dat1
      ---         BLOCKEND  ---      ---       LVL=1
      00FFA611H   LINE      CODE     ---       #626
      00FFA615H   LINE      CODE     ---       #627
      00FFA615H   LINE      CODE     ---       #629
      00FFA61BH   LINE      CODE     ---       #630
      00FFA623H   LINE      CODE     ---       #631
      00FFA626H   LINE      CODE     ---       #632
      00FFA629H   LINE      CODE     ---       #633
      00FFA630H   LINE      CODE     ---       #634
      00FFA637H   LINE      CODE     ---       #635
      00FFA63AH   LINE      CODE     ---       #636
      ---         BLOCKEND  ---      ---       LVL=0

      00FF9AFEH   BLOCK     CODE     ---       LVL=0
      000010ABH   SYMBOL    EDATA    WORD      x1
      000010ADH   SYMBOL    EDATA    WORD      y1
      000010AFH   SYMBOL    EDATA    WORD      x2
      000010B1H   SYMBOL    EDATA    WORD      y2
L251 LINKER/LOCATER V4.66.93.0                                                        11/20/2024  19:22:33  PAGE 108


      00FF9AFEH   LINE      CODE     ---       #747
      00FF9B0EH   LINE      CODE     ---       #781
      00FF9B13H   LINE      CODE     ---       #782
      00FF9B20H   LINE      CODE     ---       #783
      00FF9B2DH   LINE      CODE     ---       #784
      00FF9B32H   LINE      CODE     ---       #785
      00FF9B3FH   LINE      CODE     ---       #786
      00FF9B4CH   LINE      CODE     ---       #787
      00FF9B51H   LINE      CODE     ---       #790
      ---         BLOCKEND  ---      ---       LVL=0

      00FF9400H   BLOCK     CODE     ---       LVL=0
      000011ADH   SYMBOL    EDATA    WORD      color
      00FF9404H   BLOCK     CODE     NEAR LAB  LVL=1
      000011AFH   SYMBOL    EDATA    WORD      i
      000011B1H   SYMBOL    EDATA    WORD      j
      ---         BLOCKEND  ---      ---       LVL=1
      00FF9400H   LINE      CODE     ---       #799
      00FF9404H   LINE      CODE     ---       #800
      00FF9404H   LINE      CODE     ---       #802
      00FF9413H   LINE      CODE     ---       #803
      00FF941BH   LINE      CODE     ---       #805
      00FF9423H   LINE      CODE     ---       #807
      00FF942AH   LINE      CODE     ---       #808
      00FF9444H   LINE      CODE     ---       #809
      00FF945EH   LINE      CODE     ---       #810
      ---         BLOCKEND  ---      ---       LVL=0
      000011B3H   SYMBOL    EDATA    WORD      x
      000011B5H   SYMBOL    EDATA    WORD      y
      000011B7H   SYMBOL    EDATA    WORD      color

      00FF8212H   BLOCK     CODE     ---       LVL=0
      000010B3H   SYMBOL    EDATA    WORD      x
      000010B5H   SYMBOL    EDATA    WORD      y
      000010B7H   SYMBOL    EDATA    CHAR      dat
      00FF821EH   BLOCK     CODE     NEAR LAB  LVL=1
      000010B8H   SYMBOL    EDATA    BYTE      i
      000010B9H   SYMBOL    EDATA    BYTE      j
      000010BAH   SYMBOL    EDATA    BYTE      temp
      ---         BLOCKEND  ---      ---       LVL=1
      00FF8212H   LINE      CODE     ---       #838
      00FF821EH   LINE      CODE     ---       #839
      00FF821EH   LINE      CODE     ---       #843
      00FF8226H   LINE      CODE     ---       #845
      00FF824FH   LINE      CODE     ---       #846
      00FF8277H   LINE      CODE     ---       #847
      00FF827EH   LINE      CODE     ---       #849
      00FF8285H   LINE      CODE     ---       #851
      00FF828CH   LINE      CODE     ---       #852
      00FF828EH   LINE      CODE     ---       #853
      00FF8295H   LINE      CODE     ---       #854
      00FF829FH   LINE      CODE     ---       #855
      00FF82B6H   LINE      CODE     ---       #856
      00FF82D0H   LINE      CODE     ---       #857
      ---         BLOCKEND  ---      ---       LVL=0
      00000F2DH   SYMBOL    EDATA    WORD      x
      00000F2FH   SYMBOL    EDATA    WORD      y
      00000F31H   SYMBOL    EDATA    ---       dat
      00000F35H   SYMBOL    EDATA    WORD      j
      00001002H   SYMBOL    EDATA    WORD      x
      00001004H   SYMBOL    EDATA    WORD      y
      00001006H   SYMBOL    EDATA    CHAR      dat
      00001007H   SYMBOL    EDATA    ---       a
      0000100AH   SYMBOL    EDATA    BYTE      i
      0000100BH   SYMBOL    EDATA    WORD      x
L251 LINKER/LOCATER V4.66.93.0                                                        11/20/2024  19:22:33  PAGE 109


      0000100DH   SYMBOL    EDATA    WORD      y
      0000100FH   SYMBOL    EDATA    BYTE      dat
      00001010H   SYMBOL    EDATA    ---       a
      00001013H   SYMBOL    EDATA    BYTE      i
      00000E4CH   SYMBOL    EDATA    WORD      x
      00000E4EH   SYMBOL    EDATA    WORD      y
      00000E50H   SYMBOL    EDATA    INT       dat
      00000E52H   SYMBOL    EDATA    ---       a
      00000E57H   SYMBOL    EDATA    BYTE      i
      00000E58H   SYMBOL    EDATA    WORD      x
      00000E5AH   SYMBOL    EDATA    WORD      y
      00000E5CH   SYMBOL    EDATA    WORD      dat
      00000E5EH   SYMBOL    EDATA    ---       a
      00000E63H   SYMBOL    EDATA    BYTE      i
      00000998H   SYMBOL    EDATA    WORD      x
      0000099AH   SYMBOL    EDATA    WORD      y
      0000099CH   SYMBOL    EDATA    LONG      dat
      000009A0H   SYMBOL    EDATA    BYTE      num
      000009A1H   SYMBOL    EDATA    ---       buff
      000009C3H   SYMBOL    EDATA    BYTE      length
      00000827H   SYMBOL    EDATA    WORD      x
      00000829H   SYMBOL    EDATA    WORD      y
      0000082BH   SYMBOL    EDATA    FLOAT     dat
      0000082FH   SYMBOL    EDATA    BYTE      num
      00000830H   SYMBOL    EDATA    BYTE      pointnum
      00000831H   SYMBOL    EDATA    BYTE      length
      00000832H   SYMBOL    EDATA    ---       buff
      00000854H   SYMBOL    EDATA    CHAR      start
      00000855H   SYMBOL    EDATA    CHAR      end
      00000856H   SYMBOL    EDATA    CHAR      point

      ---         MODULE    ---      ---       SEEKFREE_IPS200_SPI
      00FFA566H   PUBLIC    CODE     ---       ips200_draw_point
      00FF8773H   PUBLIC    CODE     ---       ips200_show_string
      00FF6735H   PUBLIC    CODE     ---       ips200_show_char
      00FFAC1CH   PUBLIC    CODE     ---       ips200_set_color
      00FFA91CH   PUBLIC    CODE     ---       ips200_write_16bit_data_spi
      00FF6926H   PUBLIC    CODE     ---       ips200_init_spi
      00FFA39AH   PUBLIC    CODE     ---       ips200_set_dir
      00FF8F29H   PUBLIC    CODE     ---       ips200_clear
      00FFAD51H   PUBLIC    CODE     ---       ips200_write_8bit_data_spi
      00000C27H   PUBLIC    EDATA    BYTE      ?ips200_draw_line?BYTE
      00000ABDH   PUBLIC    EDATA    BYTE      ?ips200_show_float?BYTE
      00000AE0H   PUBLIC    EDATA    BYTE      ?ips200_show_wave?BYTE
      00000BAEH   PUBLIC    EDATA    BYTE      ?ips200_show_chinese?BYTE
      000000D0H   SFRSYM    DATA     BYTE      PSW
      0000009DH   SFRSYM    DATA     BYTE      IRCBAND
      00000097H   SFRSYM    DATA     BYTE      AUXR2
      000000EFH   SFRSYM    DATA     BYTE      AUXINTIF
      000000FDH   SFRSYM    DATA     BYTE      S4CON
      000000ACH   SFRSYM    DATA     BYTE      S3CON
      0000009AH   SFRSYM    DATA     BYTE      S2CON
      000000B7H   SFRSYM    DATA     BYTE      IPH
      000000CDH   SFRSYM    DATA     BYTE      SPSTAT
      000000DDH   SFRSYM    DATA     BYTE      T4T3M
      000000C1H   SFRSYM    DATA     BYTE      WDT_CONTR
      000000DFH   SFRSYM    DATA     BYTE      IP3
      000000F4H   SFRSYM    DATA     BYTE      USBCON
      000000B5H   SFRSYM    DATA     BYTE      IP2
      000000FFH   SFRSYM    DATA     BYTE      RSTCFG
      000000C7H   SFRSYM    DATA     BYTE      IAP_CONTR
      000000F9H   SFRSYM    DATA     BYTE      LINICR
      0000008EH   SFRSYM    DATA     BYTE      AUXR
      000000AFH   SFRSYM    DATA     BYTE      IE2
      000000A0H.7 SFRSYM    DATA     BIT       P27
L251 LINKER/LOCATER V4.66.93.0                                                        11/20/2024  19:22:33  PAGE 110


      00000088H   SFRSYM    DATA     BYTE      TCON
      00000089H   SFRSYM    DATA     BYTE      TMOD
      00000098H   SFRSYM    DATA     BYTE      SCON
      000000A0H.2 SFRSYM    DATA     BIT       P22
      000000A0H.1 SFRSYM    DATA     BIT       P21
      000000A0H.0 SFRSYM    DATA     BIT       P20
      000000F1H   SFRSYM    DATA     BYTE      CANICR
      00000087H   SFRSYM    DATA     BYTE      PCON
      000000BCH   SFRSYM    DATA     BYTE      ADC_CONTR
      000000E7H   SFRSYM    DATA     BYTE      CMPCR2
      000000E6H   SFRSYM    DATA     BYTE      CMPCR1
      000000DEH   SFRSYM    DATA     BYTE      ADCCFG
      000000B8H   SFRSYM    DATA     BYTE      IP
      0000008FH   SFRSYM    DATA     BYTE      INTCLKO
      000000EEH   SFRSYM    DATA     BYTE      IP3H
      000000B6H   SFRSYM    DATA     BYTE      IP2H
      000000A8H   SFRSYM    DATA     BYTE      IE
      000000BBH   SFRSYM    DATA     BYTE      P_SW3
      000000BAH   SFRSYM    DATA     BYTE      P_SW2
      000000A2H   SFRSYM    DATA     BYTE      P_SW1
      000000CEH   SFRSYM    DATA     BYTE      SPCTL
      000000F8H   SFRSYM    DATA     BYTE      P7
      000000E8H   SFRSYM    DATA     BYTE      P6
      000000C8H   SFRSYM    DATA     BYTE      P5
      000000C0H   SFRSYM    DATA     BYTE      P4
      000000B0H   SFRSYM    DATA     BYTE      P3
      000000A0H   SFRSYM    DATA     BYTE      P2
      00000090H   SFRSYM    DATA     BYTE      P1
      00000080H   SFRSYM    DATA     BYTE      P0
      00FFA9BCH   SYMBOL    CODE     ---       ips200_write_command
      00FFAC31H   SYMBOL    CODE     ---       ips200_write_8bit_data
      00FFAC46H   SYMBOL    CODE     ---       ips200_write_16bit_data
      00FFA2AEH   SYMBOL    CODE     ---       ips200_set_region
      00000D51H   SYMBOL    EDATA    WORD      ips200_pencolor
      00000D53H   SYMBOL    EDATA    WORD      ips200_bgcolor
      00000D55H   SYMBOL    EDATA    INT       ips200_display_font
      00000D57H   SYMBOL    EDATA    INT       ips200_display_dir
      00000D59H   SYMBOL    EDATA    WORD      ips200_x_max
      00000D5BH   SYMBOL    EDATA    INT       ips200_display_type
      00000D5DH   SYMBOL    EDATA    WORD      ips200_y_max

      00FFAD51H   BLOCK     CODE     ---       LVL=0
      00001316H   SYMBOL    EDATA    BYTE      dat
      00FFAD51H   LINE      CODE     ---       #62
      00FFAD55H   LINE      CODE     ---       #64
      00FFAD58H   LINE      CODE     ---       #66
      ---         BLOCKEND  ---      ---       LVL=0

      00FFA91CH   BLOCK     CODE     ---       LVL=0
      00001257H   SYMBOL    EDATA    WORD      dat
      00FFA920H   BLOCK     CODE     NEAR LAB  LVL=1
      00001259H   SYMBOL    EDATA    ---       dat1
      ---         BLOCKEND  ---      ---       LVL=1
      00FFA91CH   LINE      CODE     ---       #75
      00FFA920H   LINE      CODE     ---       #76
      00FFA920H   LINE      CODE     ---       #78
      00FFA926H   LINE      CODE     ---       #79
      00FFA92EH   LINE      CODE     ---       #81
      00FFA935H   LINE      CODE     ---       #82
      00FFA93CH   LINE      CODE     ---       #83
      ---         BLOCKEND  ---      ---       LVL=0

      00FFA9BCH   BLOCK     CODE     ---       LVL=0
      00001317H   SYMBOL    EDATA    BYTE      command
      00FFA9BCH   LINE      CODE     ---       #93
L251 LINKER/LOCATER V4.66.93.0                                                        11/20/2024  19:22:33  PAGE 111


      00FFA9C0H   LINE      CODE     ---       #96
      00FFA9C3H   LINE      CODE     ---       #97
      00FFA9C6H   LINE      CODE     ---       #98
      00FFA9C9H   LINE      CODE     ---       #99
      00FFA9D0H   LINE      CODE     ---       #100
      00FFA9D3H   LINE      CODE     ---       #101
      00FFA9D6H   LINE      CODE     ---       #102
      00FFA9D9H   LINE      CODE     ---       #104
      ---         BLOCKEND  ---      ---       LVL=0

      00FFAC31H   BLOCK     CODE     ---       LVL=0
      00001318H   SYMBOL    EDATA    BYTE      dat
      00FFAC31H   LINE      CODE     ---       #113
      00FFAC35H   LINE      CODE     ---       #115
      00FFAC38H   LINE      CODE     ---       #116
      00FFAC3BH   LINE      CODE     ---       #117
      00FFAC42H   LINE      CODE     ---       #118
      00FFAC45H   LINE      CODE     ---       #119
      ---         BLOCKEND  ---      ---       LVL=0

      00FFAC46H   BLOCK     CODE     ---       LVL=0
      000012E8H   SYMBOL    EDATA    WORD      dat
      00FFAC46H   LINE      CODE     ---       #128
      00FFAC4AH   LINE      CODE     ---       #130
      00FFAC4DH   LINE      CODE     ---       #131
      00FFAC50H   LINE      CODE     ---       #132
      00FFAC57H   LINE      CODE     ---       #133
      00FFAC5AH   LINE      CODE     ---       #134
      ---         BLOCKEND  ---      ---       LVL=0

      00FFA2AEH   BLOCK     CODE     ---       LVL=0
      000010BBH   SYMBOL    EDATA    WORD      x1
      000010BDH   SYMBOL    EDATA    WORD      y1
      000010BFH   SYMBOL    EDATA    WORD      x2
      000010C1H   SYMBOL    EDATA    WORD      y2
      00FFA2AEH   LINE      CODE     ---       #146
      00FFA2BEH   LINE      CODE     ---       #150
      00FFA2C3H   LINE      CODE     ---       #151
      00FFA2CAH   LINE      CODE     ---       #152
      00FFA2D1H   LINE      CODE     ---       #154
      00FFA2D6H   LINE      CODE     ---       #155
      00FFA2DDH   LINE      CODE     ---       #156
      00FFA2E4H   LINE      CODE     ---       #158
      00FFA2E9H   LINE      CODE     ---       #159
      ---         BLOCKEND  ---      ---       LVL=0

      00FF8F29H   BLOCK     CODE     ---       LVL=0
      0000125BH   SYMBOL    EDATA    WORD      i
      0000125DH   SYMBOL    EDATA    WORD      j
      00FF8F29H   LINE      CODE     ---       #169
      00FF8F29H   LINE      CODE     ---       #170
      00FF8F29H   LINE      CODE     ---       #172
      00FF8F2CH   LINE      CODE     ---       #174
      00FF8F47H   LINE      CODE     ---       #175
      00FF8F4FH   LINE      CODE     ---       #177
      00FF8F57H   LINE      CODE     ---       #179
      00FF8F5EH   LINE      CODE     ---       #180
      00FF8F78H   LINE      CODE     ---       #181
      00FF8F92H   LINE      CODE     ---       #183
      00FF8F95H   LINE      CODE     ---       #185
      ---         BLOCKEND  ---      ---       LVL=0
      000011B9H   SYMBOL    EDATA    WORD      color
      000011BBH   SYMBOL    EDATA    WORD      i
      000011BDH   SYMBOL    EDATA    WORD      j

L251 LINKER/LOCATER V4.66.93.0                                                        11/20/2024  19:22:33  PAGE 112


      00FFA39AH   BLOCK     CODE     ---       LVL=0
      000012EAH   SYMBOL    EDATA    INT       dir
      00FFA39AH   LINE      CODE     ---       #220
      00FFA39EH   LINE      CODE     ---       #222
      00FFA3A2H   LINE      CODE     ---       #223
      00FFA3AEH   LINE      CODE     ---       #225
      00FFA3B6H   LINE      CODE     ---       #226
      00FFA3BEH   LINE      CODE     ---       #227
      00FFA3C0H   LINE      CODE     ---       #230
      00FFA3C8H   LINE      CODE     ---       #231
      00FFA3D0H   LINE      CODE     ---       #232
      00FFA3D0H   LINE      CODE     ---       #233
      ---         BLOCKEND  ---      ---       LVL=0
      000012ECH   SYMBOL    EDATA    INT       font

      00FFAC1CH   BLOCK     CODE     ---       LVL=0
      0000125FH   SYMBOL    EDATA    WORD      pen
      00001261H   SYMBOL    EDATA    WORD      bgcolor
      00FFAC1CH   LINE      CODE     ---       #255
      00FFAC24H   LINE      CODE     ---       #257
      00FFAC28H   LINE      CODE     ---       #258
      00FFAC30H   LINE      CODE     ---       #259
      ---         BLOCKEND  ---      ---       LVL=0

      00FFA566H   BLOCK     CODE     ---       LVL=0
      000011BFH   SYMBOL    EDATA    WORD      x
      000011C1H   SYMBOL    EDATA    WORD      y
      000011C3H   SYMBOL    EDATA    WORD      color
      00FFA566H   LINE      CODE     ---       #270
      00FFA572H   LINE      CODE     ---       #274
      00FFA575H   LINE      CODE     ---       #276
      00FFA588H   LINE      CODE     ---       #277
      00FFA58FH   LINE      CODE     ---       #279
      00FFA592H   LINE      CODE     ---       #281
      ---         BLOCKEND  ---      ---       LVL=0
      00000C27H   SYMBOL    EDATA    WORD      x_start
      00000C29H   SYMBOL    EDATA    WORD      y_start
      00000C2BH   SYMBOL    EDATA    WORD      x_end
      00000C2DH   SYMBOL    EDATA    WORD      y_end
      00000C2FH   SYMBOL    EDATA    WORD      color
      00000C31H   SYMBOL    EDATA    INT       x_dir
      00000C33H   SYMBOL    EDATA    INT       y_dir
      00000C35H   SYMBOL    EDATA    FLOAT     temp_rate
      00000C39H   SYMBOL    EDATA    FLOAT     temp_b

      00FF6735H   BLOCK     CODE     ---       LVL=0
      00001014H   SYMBOL    EDATA    WORD      x
      00001016H   SYMBOL    EDATA    WORD      y
      00001018H   SYMBOL    EDATA    CHAR      dat
      00FF6741H   BLOCK     CODE     NEAR LAB  LVL=1
      00001019H   SYMBOL    EDATA    BYTE      i
      0000101AH   SYMBOL    EDATA    BYTE      j
      0000101BH   SYMBOL    EDATA    BYTE      temp_top
      0000101CH   SYMBOL    EDATA    BYTE      temp_bottom
      ---         BLOCKEND  ---      ---       LVL=1
      00FF6735H   LINE      CODE     ---       #349
      00FF6741H   LINE      CODE     ---       #350
      00FF6741H   LINE      CODE     ---       #355
      00FF6744H   LINE      CODE     ---       #357
      00FF6756H   LINE      CODE     ---       #359
      00FF6756H   LINE      CODE     ---       #360
      00FF675EH   LINE      CODE     ---       #362
      00FF6787H   LINE      CODE     ---       #364
      00FF67ADH   LINE      CODE     ---       #365
      00FF67B4H   LINE      CODE     ---       #367
L251 LINKER/LOCATER V4.66.93.0                                                        11/20/2024  19:22:33  PAGE 113


      00FF67BBH   LINE      CODE     ---       #369
      00FF67C2H   LINE      CODE     ---       #370
      00FF67C4H   LINE      CODE     ---       #373
      00FF67CBH   LINE      CODE     ---       #374
      00FF67CBH   LINE      CODE     ---       #375
      00FF67D5H   LINE      CODE     ---       #376
      00FF67ECH   LINE      CODE     ---       #377
      00FF6806H   LINE      CODE     ---       #378
      00FF6809H   LINE      CODE     ---       #379
      00FF6809H   LINE      CODE     ---       #380
      00FF6811H   LINE      CODE     ---       #382
      00FF683AH   LINE      CODE     ---       #384
      00FF6862H   LINE      CODE     ---       #385
      00FF688AH   LINE      CODE     ---       #386
      00FF6891H   LINE      CODE     ---       #388
      00FF6898H   LINE      CODE     ---       #390
      00FF689FH   LINE      CODE     ---       #391
      00FF68A1H   LINE      CODE     ---       #394
      00FF68A8H   LINE      CODE     ---       #395
      00FF68A8H   LINE      CODE     ---       #396
      00FF68B2H   LINE      CODE     ---       #397
      00FF68C9H   LINE      CODE     ---       #398
      00FF68D0H   LINE      CODE     ---       #400
      00FF68D7H   LINE      CODE     ---       #402
      00FF68DEH   LINE      CODE     ---       #403
      00FF68E0H   LINE      CODE     ---       #406
      00FF68E7H   LINE      CODE     ---       #407
      00FF68E7H   LINE      CODE     ---       #408
      00FF68F1H   LINE      CODE     ---       #409
      00FF6908H   LINE      CODE     ---       #410
      00FF6922H   LINE      CODE     ---       #411
      00FF6922H   LINE      CODE     ---       #412
      00FF6922H   LINE      CODE     ---       #414
      00FF6922H   LINE      CODE     ---       #415
      00FF6922H   LINE      CODE     ---       #417
      00FF6925H   LINE      CODE     ---       #419
      ---         BLOCKEND  ---      ---       LVL=0

      00FF8773H   BLOCK     CODE     ---       LVL=0
      00000F37H   SYMBOL    EDATA    WORD      x
      00000F39H   SYMBOL    EDATA    WORD      y
      00000F3BH   SYMBOL    EDATA    ---       dat
      00FF877FH   BLOCK     CODE     NEAR LAB  LVL=1
      00000F3FH   SYMBOL    EDATA    WORD      j
      ---         BLOCKEND  ---      ---       LVL=1
      00FF8773H   LINE      CODE     ---       #430
      00FF877FH   LINE      CODE     ---       #431
      00FF877FH   LINE      CODE     ---       #433
      00FF8785H   LINE      CODE     ---       #434
      00FF8787H   LINE      CODE     ---       #436
      00FF8793H   LINE      CODE     ---       #438
      00FF8793H   LINE      CODE     ---       #439
      00FF87B5H   LINE      CODE     ---       #440
      00FF87C3H   LINE      CODE     ---       #441
      00FF87C5H   LINE      CODE     ---       #442
      00FF87C5H   LINE      CODE     ---       #443
      00FF87E7H   LINE      CODE     ---       #444
      00FF87F5H   LINE      CODE     ---       #445
      00FF87F5H   LINE      CODE     ---       #446
      00FF87F5H   LINE      CODE     ---       #448
      00FF87F5H   LINE      CODE     ---       #449
      00FF87F5H   LINE      CODE     ---       #450
      00FF8805H   LINE      CODE     ---       #451
      ---         BLOCKEND  ---      ---       LVL=0
      00000B5BH   SYMBOL    EDATA    WORD      x
L251 LINKER/LOCATER V4.66.93.0                                                        11/20/2024  19:22:33  PAGE 114


      00000B5DH   SYMBOL    EDATA    WORD      y
      00000B5FH   SYMBOL    EDATA    LONG      dat
      00000B63H   SYMBOL    EDATA    BYTE      num
      00000B64H   SYMBOL    EDATA    LONG      dat_temp
      00000B68H   SYMBOL    EDATA    LONG      offset
      00000B6CH   SYMBOL    EDATA    ---       data_buffer
      00000B78H   SYMBOL    EDATA    WORD      x
      00000B7AH   SYMBOL    EDATA    WORD      y
      00000B7CH   SYMBOL    EDATA    DWORD     dat
      00000B80H   SYMBOL    EDATA    BYTE      num
      00000B81H   SYMBOL    EDATA    DWORD     dat_temp
      00000B85H   SYMBOL    EDATA    LONG      offset
      00000B89H   SYMBOL    EDATA    ---       data_buffer
      00000ABDH   SYMBOL    EDATA    WORD      x
      00000ABFH   SYMBOL    EDATA    WORD      y
      00000AC1H   SYMBOL    EDATA    FLOAT     dat
      00000AC5H   SYMBOL    EDATA    BYTE      num
      00000AC6H   SYMBOL    EDATA    BYTE      pointnum
      00000AC7H   SYMBOL    EDATA    FLOAT     dat_temp
      00000ACBH   SYMBOL    EDATA    FLOAT     offset
      00000ACFH   SYMBOL    EDATA    ---       data_buffer
      00000AE0H   SYMBOL    EDATA    WORD      x
      00000AE2H   SYMBOL    EDATA    WORD      y
      00000AE4H   SYMBOL    EDATA    ---       wave
      00000AE8H   SYMBOL    EDATA    WORD      width
      00000AEAH   SYMBOL    EDATA    WORD      value_max
      00000AECH   SYMBOL    EDATA    WORD      dis_width
      00000AEEH   SYMBOL    EDATA    WORD      dis_value_max
      00000AF0H   SYMBOL    EDATA    DWORD     i
      00000AF4H   SYMBOL    EDATA    DWORD     j
      00000AF8H   SYMBOL    EDATA    DWORD     width_index
      00000AFCH   SYMBOL    EDATA    DWORD     value_max_index
      00000BAEH   SYMBOL    EDATA    WORD      x
      00000BB0H   SYMBOL    EDATA    WORD      y
      00000BB2H   SYMBOL    EDATA    BYTE      size
      00000BB3H   SYMBOL    EDATA    ---       chinese_buffer
      00000BB7H   SYMBOL    EDATA    BYTE      number
      00000BB8H   SYMBOL    EDATA    WORD      color
      00000BBAH   SYMBOL    EDATA    INT       i
      00000BBCH   SYMBOL    EDATA    INT       j
      00000BBEH   SYMBOL    EDATA    INT       k
      00000BC0H   SYMBOL    EDATA    BYTE      temp
      00000BC1H   SYMBOL    EDATA    BYTE      temp1
      00000BC2H   SYMBOL    EDATA    BYTE      temp2
      00000BC3H   SYMBOL    EDATA    ---       p_data

      00FF6926H   BLOCK     CODE     ---       LVL=0
      00FF6926H   LINE      CODE     ---       #660
      00FF6926H   LINE      CODE     ---       #662
      00FF6929H   LINE      CODE     ---       #663
      00FF692CH   LINE      CODE     ---       #664
      00FF692FH   LINE      CODE     ---       #667
      00FF6951H   LINE      CODE     ---       #672
      00FF6958H   LINE      CODE     ---       #673
      00FF6963H   LINE      CODE     ---       #676
      00FF6966H   LINE      CODE     ---       #677
      00FF6969H   LINE      CODE     ---       #678
      00FF6970H   LINE      CODE     ---       #679
      00FF6973H   LINE      CODE     ---       #680
      00FF697AH   LINE      CODE     ---       #683
      00FF697DH   LINE      CODE     ---       #685
      00FF6982H   LINE      CODE     ---       #686
      00FF6989H   LINE      CODE     ---       #688
      00FF698EH   LINE      CODE     ---       #689
      00FF6998H   LINE      CODE     ---       #691
L251 LINKER/LOCATER V4.66.93.0                                                        11/20/2024  19:22:33  PAGE 115


      00FF699CH   LINE      CODE     ---       #692
      00FF699EH   LINE      CODE     ---       #693
      00FF69AAH   LINE      CODE     ---       #695
      00FF69AFH   LINE      CODE     ---       #696
      00FF69B1H   LINE      CODE     ---       #697
      00FF69BDH   LINE      CODE     ---       #699
      00FF69C2H   LINE      CODE     ---       #700
      00FF69C4H   LINE      CODE     ---       #703
      00FF69C9H   LINE      CODE     ---       #704
      00FF69C9H   LINE      CODE     ---       #706
      00FF69CEH   LINE      CODE     ---       #707
      00FF69D3H   LINE      CODE     ---       #709
      00FF69D8H   LINE      CODE     ---       #710
      00FF69DDH   LINE      CODE     ---       #711
      00FF69E2H   LINE      CODE     ---       #712
      00FF69E6H   LINE      CODE     ---       #713
      00FF69EBH   LINE      CODE     ---       #714
      00FF69F0H   LINE      CODE     ---       #716
      00FF69F5H   LINE      CODE     ---       #717
      00FF69FAH   LINE      CODE     ---       #719
      00FF69FFH   LINE      CODE     ---       #720
      00FF6A04H   LINE      CODE     ---       #722
      00FF6A09H   LINE      CODE     ---       #723
      00FF6A0EH   LINE      CODE     ---       #725
      00FF6A13H   LINE      CODE     ---       #726
      00FF6A18H   LINE      CODE     ---       #728
      00FF6A1DH   LINE      CODE     ---       #729
      00FF6A22H   LINE      CODE     ---       #731
      00FF6A27H   LINE      CODE     ---       #732
      00FF6A2CH   LINE      CODE     ---       #734
      00FF6A31H   LINE      CODE     ---       #735
      00FF6A36H   LINE      CODE     ---       #737
      00FF6A3BH   LINE      CODE     ---       #738
      00FF6A40H   LINE      CODE     ---       #739
      00FF6A45H   LINE      CODE     ---       #741
      00FF6A4AH   LINE      CODE     ---       #742
      00FF6A4FH   LINE      CODE     ---       #743
      00FF6A54H   LINE      CODE     ---       #744
      00FF6A59H   LINE      CODE     ---       #745
      00FF6A5EH   LINE      CODE     ---       #746
      00FF6A63H   LINE      CODE     ---       #747
      00FF6A68H   LINE      CODE     ---       #748
      00FF6A6DH   LINE      CODE     ---       #749
      00FF6A72H   LINE      CODE     ---       #750
      00FF6A77H   LINE      CODE     ---       #751
      00FF6A7CH   LINE      CODE     ---       #752
      00FF6A81H   LINE      CODE     ---       #753
      00FF6A86H   LINE      CODE     ---       #754
      00FF6A8BH   LINE      CODE     ---       #755
      00FF6A90H   LINE      CODE     ---       #757
      00FF6A95H   LINE      CODE     ---       #758
      00FF6A9AH   LINE      CODE     ---       #759
      00FF6A9FH   LINE      CODE     ---       #760
      00FF6AA4H   LINE      CODE     ---       #761
      00FF6AA9H   LINE      CODE     ---       #762
      00FF6AAEH   LINE      CODE     ---       #763
      00FF6AB3H   LINE      CODE     ---       #764
      00FF6AB8H   LINE      CODE     ---       #765
      00FF6ABDH   LINE      CODE     ---       #766
      00FF6AC2H   LINE      CODE     ---       #767
      00FF6AC7H   LINE      CODE     ---       #768
      00FF6ACCH   LINE      CODE     ---       #769
      00FF6AD1H   LINE      CODE     ---       #770
      00FF6AD6H   LINE      CODE     ---       #771
      00FF6ADBH   LINE      CODE     ---       #773
L251 LINKER/LOCATER V4.66.93.0                                                        11/20/2024  19:22:33  PAGE 116


      00FF6AE0H   LINE      CODE     ---       #775
      00FF6AE5H   LINE      CODE     ---       #777
      00FF6AE8H   LINE      CODE     ---       #780
      00FF6AEBH   LINE      CODE     ---       #781
      ---         BLOCKEND  ---      ---       LVL=0

      ---         MODULE    ---      ---       SEEKFREE_MPU6050
      00FF9002H   PUBLIC    CODE     ---       mpu6050_simiic_read_regs
      00FFA325H   PUBLIC    CODE     ---       mpu6050_simiic_read_reg
      00000E64H   PUBLIC    EDATA    INT       mpu6050_acc_x
      00000E66H   PUBLIC    EDATA    INT       mpu6050_acc_y
      00000E68H   PUBLIC    EDATA    INT       mpu6050_acc_z
      00000E6AH   PUBLIC    EDATA    INT       mpu6050_gyro_x
      00000E6CH   PUBLIC    EDATA    INT       mpu6050_gyro_y
      00000E6EH   PUBLIC    EDATA    INT       mpu6050_gyro_z
      000000D0H   SFRSYM    DATA     BYTE      PSW
      0000009DH   SFRSYM    DATA     BYTE      IRCBAND
      00000097H   SFRSYM    DATA     BYTE      AUXR2
      000000EFH   SFRSYM    DATA     BYTE      AUXINTIF
      000000FDH   SFRSYM    DATA     BYTE      S4CON
      000000ACH   SFRSYM    DATA     BYTE      S3CON
      0000009AH   SFRSYM    DATA     BYTE      S2CON
      000000B7H   SFRSYM    DATA     BYTE      IPH
      000000CDH   SFRSYM    DATA     BYTE      SPSTAT
      000000DDH   SFRSYM    DATA     BYTE      T4T3M
      000000C1H   SFRSYM    DATA     BYTE      WDT_CONTR
      000000DFH   SFRSYM    DATA     BYTE      IP3
      000000F4H   SFRSYM    DATA     BYTE      USBCON
      000000B5H   SFRSYM    DATA     BYTE      IP2
      000000FFH   SFRSYM    DATA     BYTE      RSTCFG
      000000C7H   SFRSYM    DATA     BYTE      IAP_CONTR
      000000F9H   SFRSYM    DATA     BYTE      LINICR
      0000008EH   SFRSYM    DATA     BYTE      AUXR
      000000AFH   SFRSYM    DATA     BYTE      IE2
      00000088H   SFRSYM    DATA     BYTE      TCON
      00000089H   SFRSYM    DATA     BYTE      TMOD
      000000C0H.1 SFRSYM    DATA     BIT       P41
      00000098H   SFRSYM    DATA     BYTE      SCON
      000000C0H.0 SFRSYM    DATA     BIT       P40
      000000F1H   SFRSYM    DATA     BYTE      CANICR
      00000087H   SFRSYM    DATA     BYTE      PCON
      000000BCH   SFRSYM    DATA     BYTE      ADC_CONTR
      000000E7H   SFRSYM    DATA     BYTE      CMPCR2
      000000E6H   SFRSYM    DATA     BYTE      CMPCR1
      000000DEH   SFRSYM    DATA     BYTE      ADCCFG
      000000B8H   SFRSYM    DATA     BYTE      IP
      0000008FH   SFRSYM    DATA     BYTE      INTCLKO
      000000EEH   SFRSYM    DATA     BYTE      IP3H
      000000B6H   SFRSYM    DATA     BYTE      IP2H
      000000A8H   SFRSYM    DATA     BYTE      IE
      000000BBH   SFRSYM    DATA     BYTE      P_SW3
      000000BAH   SFRSYM    DATA     BYTE      P_SW2
      000000A2H   SFRSYM    DATA     BYTE      P_SW1
      000000CEH   SFRSYM    DATA     BYTE      SPCTL
      000000F8H   SFRSYM    DATA     BYTE      P7
      000000E8H   SFRSYM    DATA     BYTE      P6
      000000C8H   SFRSYM    DATA     BYTE      P5
      000000C0H   SFRSYM    DATA     BYTE      P4
      000000B0H   SFRSYM    DATA     BYTE      P3
      000000A0H   SFRSYM    DATA     BYTE      P2
      00000090H   SFRSYM    DATA     BYTE      P1
      00000080H   SFRSYM    DATA     BYTE      P0
      00FFACBFH   SYMBOL    CODE     ---       mpu6050_simiic_start
      00FFAB5EH   SYMBOL    CODE     ---       mpu6050_simiic_stop
      00FFA63BH   SYMBOL    CODE     ---       mpu6050_simiic_write_reg
L251 LINKER/LOCATER V4.66.93.0                                                        11/20/2024  19:22:33  PAGE 117


      00FFA6DDH   SYMBOL    CODE     ---       mpu6050_simiic_sendack
      00FF9142H   SYMBOL    CODE     ---       mpu6050_read_ch
      00FFA021H   SYMBOL    CODE     ---       mpu6050_send_ch
      00FFA93DH   SYMBOL    CODE     ---       mpu6050_sccb_waitack
      00FF0066H   SYMBOL    CODE     ---       mpu6050_simiic_delay

      00FF0066H   BLOCK     CODE     ---       LVL=0
      000012EEH   SYMBOL    EDATA    WORD      j
      00FF0066H   LINE      CODE     ---       #52
      00FF0066H   LINE      CODE     ---       #53
      00FF0066H   LINE      CODE     ---       #54
      00FF006CH   LINE      CODE     ---       #55
      00FF0082H   LINE      CODE     ---       #56
      ---         BLOCKEND  ---      ---       LVL=0

      00FFACBFH   BLOCK     CODE     ---       LVL=0
      00FFACBFH   LINE      CODE     ---       #59
      00FFACBFH   LINE      CODE     ---       #61
      00FFACC2H   LINE      CODE     ---       #62
      00FFACC5H   LINE      CODE     ---       #63
      00FFACC8H   LINE      CODE     ---       #64
      00FFACCBH   LINE      CODE     ---       #65
      00FFACCEH   LINE      CODE     ---       #66
      00FFACD1H   LINE      CODE     ---       #67
      ---         BLOCKEND  ---      ---       LVL=0

      00FFAB5EH   BLOCK     CODE     ---       LVL=0
      00FFAB5EH   LINE      CODE     ---       #70
      00FFAB5EH   LINE      CODE     ---       #72
      00FFAB61H   LINE      CODE     ---       #73
      00FFAB64H   LINE      CODE     ---       #74
      00FFAB67H   LINE      CODE     ---       #75
      00FFAB6AH   LINE      CODE     ---       #76
      00FFAB6DH   LINE      CODE     ---       #77
      00FFAB70H   LINE      CODE     ---       #78
      00FFAB73H   LINE      CODE     ---       #79
      ---         BLOCKEND  ---      ---       LVL=0

      00FFA6DDH   BLOCK     CODE     ---       LVL=0
      00001319H   SYMBOL    EDATA    BYTE      ack_dat
      00FFA6DDH   LINE      CODE     ---       #83
      00FFA6E1H   LINE      CODE     ---       #85
      00FFA6E4H   LINE      CODE     ---       #86
      00FFA6E7H   LINE      CODE     ---       #87
      00FFA6F5H   LINE      CODE     ---       #88
      00FFA6F8H   LINE      CODE     ---       #90
      00FFA6FBH   LINE      CODE     ---       #91
      00FFA6FEH   LINE      CODE     ---       #92
      00FFA701H   LINE      CODE     ---       #93
      00FFA704H   LINE      CODE     ---       #94
      ---         BLOCKEND  ---      ---       LVL=0

      00FFA93DH   BLOCK     CODE     ---       LVL=0
      00FFA93DH   LINE      CODE     ---       #97
      00FFA93DH   LINE      CODE     ---       #99
      00FFA940H   LINE      CODE     ---       #101
      00FFA943H   LINE      CODE     ---       #103
      00FFA946H   LINE      CODE     ---       #104
      00FFA949H   LINE      CODE     ---       #106
      00FFA94CH   LINE      CODE     ---       #109
      00FFA94FH   LINE      CODE     ---       #110
      00FFA953H   LINE      CODE     ---       #111
      00FFA953H   LINE      CODE     ---       #113
      00FFA956H   LINE      CODE     ---       #114
      00FFA959H   LINE      CODE     ---       #115
L251 LINKER/LOCATER V4.66.93.0                                                        11/20/2024  19:22:33  PAGE 118


      00FFA95DH   LINE      CODE     ---       #116
      ---         BLOCKEND  ---      ---       LVL=0

      00FFA021H   BLOCK     CODE     ---       LVL=0
      000012F0H   SYMBOL    EDATA    BYTE      c
      00FFA025H   BLOCK     CODE     NEAR LAB  LVL=1
      000012F1H   SYMBOL    EDATA    BYTE      i
      ---         BLOCKEND  ---      ---       LVL=1
      00FFA021H   LINE      CODE     ---       #122
      00FFA025H   LINE      CODE     ---       #123
      00FFA025H   LINE      CODE     ---       #124
      00FFA02BH   LINE      CODE     ---       #125
      00FFA02DH   LINE      CODE     ---       #127
      00FFA039H   LINE      CODE     ---       #128
      00FFA03CH   LINE      CODE     ---       #129
      00FFA046H   LINE      CODE     ---       #130
      00FFA049H   LINE      CODE     ---       #131
      00FFA04CH   LINE      CODE     ---       #132
      00FFA04FH   LINE      CODE     ---       #133
      00FFA052H   LINE      CODE     ---       #134
      00FFA066H   LINE      CODE     ---       #135
      00FFA069H   LINE      CODE     ---       #136
      ---         BLOCKEND  ---      ---       LVL=0

      00FF9142H   BLOCK     CODE     ---       LVL=0
      00001298H   SYMBOL    EDATA    BYTE      ack_x
      00FF9146H   BLOCK     CODE     NEAR LAB  LVL=1
      00001299H   SYMBOL    EDATA    BYTE      i
      0000129AH   SYMBOL    EDATA    BYTE      c
      ---         BLOCKEND  ---      ---       LVL=1
      00FF9142H   LINE      CODE     ---       #142
      00FF9146H   LINE      CODE     ---       #143
      00FF9146H   LINE      CODE     ---       #146
      00FF914BH   LINE      CODE     ---       #147
      00FF914EH   LINE      CODE     ---       #148
      00FF9151H   LINE      CODE     ---       #149
      00FF9154H   LINE      CODE     ---       #151
      00FF915BH   LINE      CODE     ---       #153
      00FF915EH   LINE      CODE     ---       #154
      00FF9161H   LINE      CODE     ---       #155
      00FF9164H   LINE      CODE     ---       #156
      00FF9167H   LINE      CODE     ---       #157
      00FF916AH   LINE      CODE     ---       #158
      00FF9174H   LINE      CODE     ---       #159
      00FF9177H   LINE      CODE     ---       #161
      00FF9183H   LINE      CODE     ---       #162
      00FF919AH   LINE      CODE     ---       #165
      00FF919DH   LINE      CODE     ---       #166
      00FF91A0H   LINE      CODE     ---       #167
      00FF91A7H   LINE      CODE     ---       #169
      00FF91ABH   LINE      CODE     ---       #170
      ---         BLOCKEND  ---      ---       LVL=0

      00FFA63BH   BLOCK     CODE     ---       LVL=0
      0000129BH   SYMBOL    EDATA    BYTE      dev_add
      0000129CH   SYMBOL    EDATA    BYTE      reg
      0000129DH   SYMBOL    EDATA    BYTE      dat
      00FFA63BH   LINE      CODE     ---       #182
      00FFA647H   LINE      CODE     ---       #184
      00FFA64AH   LINE      CODE     ---       #185
      00FFA653H   LINE      CODE     ---       #186
      00FFA65AH   LINE      CODE     ---       #187
      00FFA661H   LINE      CODE     ---       #188
      00FFA664H   LINE      CODE     ---       #189
      ---         BLOCKEND  ---      ---       LVL=0
L251 LINKER/LOCATER V4.66.93.0                                                        11/20/2024  19:22:33  PAGE 119



      00FFA325H   BLOCK     CODE     ---       LVL=0
      0000129EH   SYMBOL    EDATA    BYTE      dev_add
      0000129FH   SYMBOL    EDATA    BYTE      reg
      00FFA32DH   BLOCK     CODE     NEAR LAB  LVL=1
      000012A0H   SYMBOL    EDATA    BYTE      dat
      ---         BLOCKEND  ---      ---       LVL=1
      00FFA325H   LINE      CODE     ---       #200
      00FFA32DH   LINE      CODE     ---       #201
      00FFA32DH   LINE      CODE     ---       #203
      00FFA330H   LINE      CODE     ---       #204
      00FFA339H   LINE      CODE     ---       #205
      00FFA340H   LINE      CODE     ---       #208
      00FFA343H   LINE      CODE     ---       #209
      00FFA350H   LINE      CODE     ---       #210
      00FFA358H   LINE      CODE     ---       #211
      00FFA35BH   LINE      CODE     ---       #213
      00FFA35FH   LINE      CODE     ---       #214
      ---         BLOCKEND  ---      ---       LVL=0

      00FF9002H   BLOCK     CODE     ---       LVL=0
      0000110EH   SYMBOL    EDATA    BYTE      dev_add
      0000110FH   SYMBOL    EDATA    BYTE      reg
      00001110H   SYMBOL    EDATA    ---       dat_add
      00001114H   SYMBOL    EDATA    BYTE      num
      00FF9002H   LINE      CODE     ---       #227
      00FF9012H   LINE      CODE     ---       #229
      00FF9015H   LINE      CODE     ---       #230
      00FF901EH   LINE      CODE     ---       #231
      00FF9025H   LINE      CODE     ---       #234
      00FF9028H   LINE      CODE     ---       #235
      00FF9035H   LINE      CODE     ---       #236
      00FF9037H   LINE      CODE     ---       #238
      00FF9043H   LINE      CODE     ---       #239
      00FF904DH   LINE      CODE     ---       #240
      00FF905FH   LINE      CODE     ---       #241
      00FF906AH   LINE      CODE     ---       #242
      00FF906DH   LINE      CODE     ---       #243
      ---         BLOCKEND  ---      ---       LVL=0
      000011C5H   SYMBOL    EDATA    ---       dat
      000011CBH   SYMBOL    EDATA    ---       dat

      ---         MODULE    ---      ---       SEEKFREE_OLED
      00FF8EBAH   PUBLIC    CODE     ---       oled_hexascii_spi
      00FFA471H   PUBLIC    CODE     ---       oled_set_pos
      00FF9E16H   PUBLIC    CODE     ---       oled_wrcmd
      00FF9E62H   PUBLIC    CODE     ---       oled_wrdat
      00FF9632H   PUBLIC    CODE     ---       oled_fill
      00FFA3D1H   PUBLIC    CODE     ---       oled_set_pos_spi
      00FF7C9AH   PUBLIC    CODE     ---       oled_p6x8str
      00FFAC5BH   PUBLIC    CODE     ---       oled_wrcmd_spi
      00FFAC70H   PUBLIC    CODE     ---       oled_wrdat_spi
      00FF968FH   PUBLIC    CODE     ---       oled_fill_spi
      00FF7D6BH   PUBLIC    CODE     ---       oled_p6x8str_spi
      00000857H   PUBLIC    EDATA    BYTE      ?oled_printf_float?BYTE
      00000887H   PUBLIC    EDATA    BYTE      ?oled_printf_float_spi?BYTE
      000000D0H   SFRSYM    DATA     BYTE      PSW
      0000009DH   SFRSYM    DATA     BYTE      IRCBAND
      00000097H   SFRSYM    DATA     BYTE      AUXR2
      000000EFH   SFRSYM    DATA     BYTE      AUXINTIF
      000000FDH   SFRSYM    DATA     BYTE      S4CON
      000000ACH   SFRSYM    DATA     BYTE      S3CON
      0000009AH   SFRSYM    DATA     BYTE      S2CON
      000000B7H   SFRSYM    DATA     BYTE      IPH
      000000CDH   SFRSYM    DATA     BYTE      SPSTAT
L251 LINKER/LOCATER V4.66.93.0                                                        11/20/2024  19:22:33  PAGE 120


      000000DDH   SFRSYM    DATA     BYTE      T4T3M
      000000C1H   SFRSYM    DATA     BYTE      WDT_CONTR
      000000DFH   SFRSYM    DATA     BYTE      IP3
      000000F4H   SFRSYM    DATA     BYTE      USBCON
      000000B5H   SFRSYM    DATA     BYTE      IP2
      000000FFH   SFRSYM    DATA     BYTE      RSTCFG
      000000C7H   SFRSYM    DATA     BYTE      IAP_CONTR
      000000F9H   SFRSYM    DATA     BYTE      LINICR
      0000008EH   SFRSYM    DATA     BYTE      AUXR
      000000AFH   SFRSYM    DATA     BYTE      IE2
      000000A0H.5 SFRSYM    DATA     BIT       P25
      00000088H   SFRSYM    DATA     BYTE      TCON
      00000089H   SFRSYM    DATA     BYTE      TMOD
      000000A0H.3 SFRSYM    DATA     BIT       P23
      00000098H   SFRSYM    DATA     BYTE      SCON
      000000A0H.2 SFRSYM    DATA     BIT       P22
      000000A0H.1 SFRSYM    DATA     BIT       P21
      000000A0H.0 SFRSYM    DATA     BIT       P20
      000000F1H   SFRSYM    DATA     BYTE      CANICR
      00000087H   SFRSYM    DATA     BYTE      PCON
      000000BCH   SFRSYM    DATA     BYTE      ADC_CONTR
      000000E7H   SFRSYM    DATA     BYTE      CMPCR2
      000000E6H   SFRSYM    DATA     BYTE      CMPCR1
      000000DEH   SFRSYM    DATA     BYTE      ADCCFG
      000000B8H   SFRSYM    DATA     BYTE      IP
      0000008FH   SFRSYM    DATA     BYTE      INTCLKO
      000000EEH   SFRSYM    DATA     BYTE      IP3H
      000000B6H   SFRSYM    DATA     BYTE      IP2H
      000000A8H   SFRSYM    DATA     BYTE      IE
      000000BBH   SFRSYM    DATA     BYTE      P_SW3
      000000BAH   SFRSYM    DATA     BYTE      P_SW2
      000000A2H   SFRSYM    DATA     BYTE      P_SW1
      000000CEH   SFRSYM    DATA     BYTE      SPCTL
      000000F8H   SFRSYM    DATA     BYTE      P7
      000000E8H   SFRSYM    DATA     BYTE      P6
      000000C8H   SFRSYM    DATA     BYTE      P5
      000000C0H   SFRSYM    DATA     BYTE      P4
      000000B0H   SFRSYM    DATA     BYTE      P3
      000000A0H   SFRSYM    DATA     BYTE      P2
      00000090H   SFRSYM    DATA     BYTE      P1
      00000080H   SFRSYM    DATA     BYTE      P0

      00FF9E62H   BLOCK     CODE     ---       LVL=0
      000012F2H   SYMBOL    EDATA    BYTE      dat
      00FF9E66H   BLOCK     CODE     NEAR LAB  LVL=1
      000012F3H   SYMBOL    EDATA    BYTE      i
      ---         BLOCKEND  ---      ---       LVL=1
      00FF9E62H   LINE      CODE     ---       #47
      00FF9E66H   LINE      CODE     ---       #48
      00FF9E66H   LINE      CODE     ---       #49
      00FF9E6CH   LINE      CODE     ---       #51
      00FF9E6FH   LINE      CODE     ---       #52
      00FF9E72H   LINE      CODE     ---       #53
      00FF9E75H   LINE      CODE     ---       #54
      00FF9E77H   LINE      CODE     ---       #56
      00FF9E83H   LINE      CODE     ---       #57
      00FF9E86H   LINE      CODE     ---       #58
      00FF9E89H   LINE      CODE     ---       #60
      00FF9E8CH   LINE      CODE     ---       #61
      00FF9E96H   LINE      CODE     ---       #62
      00FF9EAAH   LINE      CODE     ---       #63
      00FF9EADH   LINE      CODE     ---       #64
      ---         BLOCKEND  ---      ---       LVL=0

      00FF9E16H   BLOCK     CODE     ---       LVL=0
L251 LINKER/LOCATER V4.66.93.0                                                        11/20/2024  19:22:33  PAGE 121


      000012F4H   SYMBOL    EDATA    BYTE      cmd
      00FF9E1AH   BLOCK     CODE     NEAR LAB  LVL=1
      000012F5H   SYMBOL    EDATA    BYTE      i
      ---         BLOCKEND  ---      ---       LVL=1
      00FF9E16H   LINE      CODE     ---       #98
      00FF9E1AH   LINE      CODE     ---       #99
      00FF9E1AH   LINE      CODE     ---       #100
      00FF9E20H   LINE      CODE     ---       #102
      00FF9E23H   LINE      CODE     ---       #103
      00FF9E26H   LINE      CODE     ---       #104
      00FF9E29H   LINE      CODE     ---       #106
      00FF9E2BH   LINE      CODE     ---       #108
      00FF9E37H   LINE      CODE     ---       #109
      00FF9E3AH   LINE      CODE     ---       #110
      00FF9E3DH   LINE      CODE     ---       #112
      00FF9E40H   LINE      CODE     ---       #113
      00FF9E4AH   LINE      CODE     ---       #114
      00FF9E5EH   LINE      CODE     ---       #115
      00FF9E61H   LINE      CODE     ---       #116
      ---         BLOCKEND  ---      ---       LVL=0
      000010C3H   SYMBOL    EDATA    WORD      hex
      000010C5H   SYMBOL    EDATA    ---       Print
      000010C9H   SYMBOL    EDATA    BYTE      hexcheck
      000010CAH   SYMBOL    EDATA    BYTE      TEMP

      00FFA471H   BLOCK     CODE     ---       LVL=0
      000012F6H   SYMBOL    EDATA    BYTE      x
      000012F7H   SYMBOL    EDATA    BYTE      y
      00FFA471H   LINE      CODE     ---       #205
      00FFA479H   LINE      CODE     ---       #207
      00FFA484H   LINE      CODE     ---       #208
      00FFA49AH   LINE      CODE     ---       #209
      00FFA4A5H   LINE      CODE     ---       #210
      ---         BLOCKEND  ---      ---       LVL=0

      00FF9632H   BLOCK     CODE     ---       LVL=0
      000012A1H   SYMBOL    EDATA    BYTE      bmp_data
      00FF9636H   BLOCK     CODE     NEAR LAB  LVL=1
      000012A2H   SYMBOL    EDATA    BYTE      y
      000012A3H   SYMBOL    EDATA    BYTE      x
      ---         BLOCKEND  ---      ---       LVL=1
      00FF9632H   LINE      CODE     ---       #219
      00FF9636H   LINE      CODE     ---       #220
      00FF9636H   LINE      CODE     ---       #223
      00FF963DH   LINE      CODE     ---       #225
      00FF9648H   LINE      CODE     ---       #226
      00FF964DH   LINE      CODE     ---       #227
      00FF9652H   LINE      CODE     ---       #228
      00FF9677H   LINE      CODE     ---       #229
      00FF968EH   LINE      CODE     ---       #230
      ---         BLOCKEND  ---      ---       LVL=0
      000012A4H   SYMBOL    EDATA    BYTE      x
      000012A5H   SYMBOL    EDATA    BYTE      y
      000012A6H   SYMBOL    EDATA    BYTE      data1
      000012F8H   SYMBOL    EDATA    BYTE      x
      000012F9H   SYMBOL    EDATA    BYTE      y

      00FF7C9AH   BLOCK     CODE     ---       LVL=0
      0000101DH   SYMBOL    EDATA    BYTE      x
      0000101EH   SYMBOL    EDATA    BYTE      y
      0000101FH   SYMBOL    EDATA    ---       ch
      00FF7CA6H   BLOCK     CODE     NEAR LAB  LVL=1
      00001023H   SYMBOL    EDATA    BYTE      c
      00001024H   SYMBOL    EDATA    BYTE      i
      00001025H   SYMBOL    EDATA    BYTE      j
L251 LINKER/LOCATER V4.66.93.0                                                        11/20/2024  19:22:33  PAGE 122


      ---         BLOCKEND  ---      ---       LVL=1
      00FF7C9AH   LINE      CODE     ---       #279
      00FF7CA6H   LINE      CODE     ---       #280
      00FF7CA6H   LINE      CODE     ---       #281
      00FF7CB5H   LINE      CODE     ---       #282
      00FF7CB8H   LINE      CODE     ---       #284
      00FF7CD3H   LINE      CODE     ---       #285
      00FF7CEFH   LINE      CODE     ---       #286
      00FF7CFAH   LINE      CODE     ---       #287
      00FF7D3AH   LINE      CODE     ---       #288
      00FF7D46H   LINE      CODE     ---       #289
      00FF7D53H   LINE      CODE     ---       #290
      00FF7D6AH   LINE      CODE     ---       #291
      ---         BLOCKEND  ---      ---       LVL=0
      00001026H   SYMBOL    EDATA    BYTE      x
      00001027H   SYMBOL    EDATA    BYTE      y
      00001028H   SYMBOL    EDATA    ---       ch
      0000102CH   SYMBOL    EDATA    BYTE      c
      0000102DH   SYMBOL    EDATA    BYTE      i
      0000102EH   SYMBOL    EDATA    BYTE      j
      00000E88H   SYMBOL    EDATA    BYTE      x
      00000E89H   SYMBOL    EDATA    BYTE      y
      00000E8AH   SYMBOL    EDATA    WORD      num
      00000E8CH   SYMBOL    EDATA    ---       ch
      00000E93H   SYMBOL    EDATA    BYTE      x
      00000E94H   SYMBOL    EDATA    BYTE      y
      00000E95H   SYMBOL    EDATA    INT       num
      00000E97H   SYMBOL    EDATA    ---       ch
      000009C4H   SYMBOL    EDATA    WORD      x
      000009C6H   SYMBOL    EDATA    WORD      y
      000009C8H   SYMBOL    EDATA    LONG      dat
      000009CCH   SYMBOL    EDATA    BYTE      num
      000009CDH   SYMBOL    EDATA    ---       buff
      000009EFH   SYMBOL    EDATA    BYTE      length
      00000857H   SYMBOL    EDATA    WORD      x
      00000859H   SYMBOL    EDATA    WORD      y
      0000085BH   SYMBOL    EDATA    FLOAT     dat
      0000085FH   SYMBOL    EDATA    BYTE      num
      00000860H   SYMBOL    EDATA    BYTE      pointnum
      00000861H   SYMBOL    EDATA    BYTE      length
      00000862H   SYMBOL    EDATA    ---       buff
      00000884H   SYMBOL    EDATA    CHAR      start
      00000885H   SYMBOL    EDATA    CHAR      end
      00000886H   SYMBOL    EDATA    CHAR      point
      00000CB2H   SYMBOL    EDATA    WORD      high
      00000CB4H   SYMBOL    EDATA    WORD      width
      00000CB6H   SYMBOL    EDATA    ---       p
      00000CBAH   SYMBOL    EDATA    BYTE      value
      00000CBBH   SYMBOL    EDATA    WORD      i
      00000CBDH   SYMBOL    EDATA    WORD      j
      00000CBFH   SYMBOL    EDATA    WORD      temp
      00000CC1H   SYMBOL    EDATA    WORD      temp1
      00000CC3H   SYMBOL    EDATA    BYTE      dat
      00000D5FH   SYMBOL    EDATA    BYTE      x
      00000D60H   SYMBOL    EDATA    BYTE      y
      00000D61H   SYMBOL    EDATA    BYTE      size
      00000D62H   SYMBOL    EDATA    ---       p
      00000D66H   SYMBOL    EDATA    BYTE      len
      00000D67H   SYMBOL    EDATA    WORD      i
      00000D69H   SYMBOL    EDATA    WORD      j
      00000D6BH   SYMBOL    EDATA    WORD      k

      00FFAC70H   BLOCK     CODE     ---       LVL=0
      0000131AH   SYMBOL    EDATA    BYTE      dat
      00FFAC70H   LINE      CODE     ---       #534
L251 LINKER/LOCATER V4.66.93.0                                                        11/20/2024  19:22:33  PAGE 123


      00FFAC74H   LINE      CODE     ---       #536
      00FFAC77H   LINE      CODE     ---       #537
      00FFAC7AH   LINE      CODE     ---       #538
      00FFAC81H   LINE      CODE     ---       #539
      00FFAC84H   LINE      CODE     ---       #542
      ---         BLOCKEND  ---      ---       LVL=0

      00FFAC5BH   BLOCK     CODE     ---       LVL=0
      0000131BH   SYMBOL    EDATA    BYTE      cmd
      00FFAC5BH   LINE      CODE     ---       #576
      00FFAC5FH   LINE      CODE     ---       #578
      00FFAC62H   LINE      CODE     ---       #579
      00FFAC65H   LINE      CODE     ---       #580
      00FFAC6CH   LINE      CODE     ---       #581
      00FFAC6FH   LINE      CODE     ---       #582
      ---         BLOCKEND  ---      ---       LVL=0

      00FF8EBAH   BLOCK     CODE     ---       LVL=0
      000010CBH   SYMBOL    EDATA    WORD      hex
      000010CDH   SYMBOL    EDATA    ---       Print
      00FF8EC2H   BLOCK     CODE     NEAR LAB  LVL=1
      000010D1H   SYMBOL    EDATA    BYTE      hexcheck
      000010D2H   SYMBOL    EDATA    BYTE      TEMP
      ---         BLOCKEND  ---      ---       LVL=1
      00FF8EBAH   LINE      CODE     ---       #591
      00FF8EC2H   LINE      CODE     ---       #592
      00FF8EC2H   LINE      CODE     ---       #595
      00FF8EC8H   LINE      CODE     ---       #596
      00FF8ED8H   LINE      CODE     ---       #597
      00FF8EDAH   LINE      CODE     ---       #599
      00FF8EE6H   LINE      CODE     ---       #600
      00FF8EF6H   LINE      CODE     ---       #601
      00FF8F04H   LINE      CODE     ---       #602
      00FF8F1FH   LINE      CODE     ---       #603
      00FF8F28H   LINE      CODE     ---       #605
      ---         BLOCKEND  ---      ---       LVL=0

      00FFA3D1H   BLOCK     CODE     ---       LVL=0
      000012FAH   SYMBOL    EDATA    BYTE      x
      000012FBH   SYMBOL    EDATA    BYTE      y
      00FFA3D1H   LINE      CODE     ---       #672
      00FFA3D9H   LINE      CODE     ---       #676
      00FFA3E4H   LINE      CODE     ---       #677
      00FFA3FBH   LINE      CODE     ---       #678
      00FFA406H   LINE      CODE     ---       #679
      ---         BLOCKEND  ---      ---       LVL=0

      00FF968FH   BLOCK     CODE     ---       LVL=0
      000012A7H   SYMBOL    EDATA    BYTE      bmp_data
      00FF9693H   BLOCK     CODE     NEAR LAB  LVL=1
      000012A8H   SYMBOL    EDATA    BYTE      y
      000012A9H   SYMBOL    EDATA    BYTE      x
      ---         BLOCKEND  ---      ---       LVL=1
      00FF968FH   LINE      CODE     ---       #688
      00FF9693H   LINE      CODE     ---       #689
      00FF9693H   LINE      CODE     ---       #692
      00FF969AH   LINE      CODE     ---       #694
      00FF96A5H   LINE      CODE     ---       #695
      00FF96AAH   LINE      CODE     ---       #696
      00FF96AFH   LINE      CODE     ---       #697
      00FF96D4H   LINE      CODE     ---       #698
      00FF96EBH   LINE      CODE     ---       #699
      ---         BLOCKEND  ---      ---       LVL=0
      000012AAH   SYMBOL    EDATA    BYTE      x
      000012ABH   SYMBOL    EDATA    BYTE      y
L251 LINKER/LOCATER V4.66.93.0                                                        11/20/2024  19:22:33  PAGE 124


      000012ACH   SYMBOL    EDATA    BYTE      data1
      000012FCH   SYMBOL    EDATA    BYTE      x
      000012FDH   SYMBOL    EDATA    BYTE      y

      00FF7D6BH   BLOCK     CODE     ---       LVL=0
      0000102FH   SYMBOL    EDATA    BYTE      x
      00001030H   SYMBOL    EDATA    BYTE      y
      00001031H   SYMBOL    EDATA    ---       ch
      00FF7D77H   BLOCK     CODE     NEAR LAB  LVL=1
      00001035H   SYMBOL    EDATA    BYTE      c
      00001036H   SYMBOL    EDATA    BYTE      i
      00001037H   SYMBOL    EDATA    BYTE      j
      ---         BLOCKEND  ---      ---       LVL=1
      00FF7D6BH   LINE      CODE     ---       #748
      00FF7D77H   LINE      CODE     ---       #749
      00FF7D77H   LINE      CODE     ---       #750
      00FF7D86H   LINE      CODE     ---       #751
      00FF7D89H   LINE      CODE     ---       #753
      00FF7DA4H   LINE      CODE     ---       #754
      00FF7DC0H   LINE      CODE     ---       #755
      00FF7DCBH   LINE      CODE     ---       #756
      00FF7E0BH   LINE      CODE     ---       #757
      00FF7E17H   LINE      CODE     ---       #758
      00FF7E24H   LINE      CODE     ---       #759
      00FF7E3BH   LINE      CODE     ---       #760
      ---         BLOCKEND  ---      ---       LVL=0
      00001038H   SYMBOL    EDATA    BYTE      x
      00001039H   SYMBOL    EDATA    BYTE      y
      0000103AH   SYMBOL    EDATA    ---       ch
      0000103EH   SYMBOL    EDATA    BYTE      c
      0000103FH   SYMBOL    EDATA    BYTE      i
      00001040H   SYMBOL    EDATA    BYTE      j
      00000E9EH   SYMBOL    EDATA    BYTE      x
      00000E9FH   SYMBOL    EDATA    BYTE      y
      00000EA0H   SYMBOL    EDATA    WORD      num
      00000EA2H   SYMBOL    EDATA    ---       ch
      00000EA9H   SYMBOL    EDATA    BYTE      x
      00000EAAH   SYMBOL    EDATA    BYTE      y
      00000EABH   SYMBOL    EDATA    INT       num
      00000EADH   SYMBOL    EDATA    ---       ch
      000009F0H   SYMBOL    EDATA    WORD      x
      000009F2H   SYMBOL    EDATA    WORD      y
      000009F4H   SYMBOL    EDATA    LONG      dat
      000009F8H   SYMBOL    EDATA    BYTE      num
      000009F9H   SYMBOL    EDATA    ---       buff
      00000A1BH   SYMBOL    EDATA    BYTE      length
      00000887H   SYMBOL    EDATA    WORD      x
      00000889H   SYMBOL    EDATA    WORD      y
      0000088BH   SYMBOL    EDATA    FLOAT     dat
      0000088FH   SYMBOL    EDATA    BYTE      num
      00000890H   SYMBOL    EDATA    BYTE      pointnum
      00000891H   SYMBOL    EDATA    BYTE      length
      00000892H   SYMBOL    EDATA    ---       buff
      000008B4H   SYMBOL    EDATA    CHAR      start
      000008B5H   SYMBOL    EDATA    CHAR      end
      000008B6H   SYMBOL    EDATA    CHAR      point
      00000CC4H   SYMBOL    EDATA    WORD      high
      00000CC6H   SYMBOL    EDATA    WORD      width
      00000CC8H   SYMBOL    EDATA    ---       p
      00000CCCH   SYMBOL    EDATA    BYTE      value
      00000CCDH   SYMBOL    EDATA    WORD      i
      00000CCFH   SYMBOL    EDATA    WORD      j
      00000CD1H   SYMBOL    EDATA    WORD      temp
      00000CD3H   SYMBOL    EDATA    WORD      temp1
      00000CD5H   SYMBOL    EDATA    BYTE      dat
L251 LINKER/LOCATER V4.66.93.0                                                        11/20/2024  19:22:33  PAGE 125


      00000D6DH   SYMBOL    EDATA    BYTE      x
      00000D6EH   SYMBOL    EDATA    BYTE      y
      00000D6FH   SYMBOL    EDATA    BYTE      size
      00000D70H   SYMBOL    EDATA    ---       p
      00000D74H   SYMBOL    EDATA    BYTE      len
      00000D75H   SYMBOL    EDATA    WORD      i
      00000D77H   SYMBOL    EDATA    WORD      j
      00000D79H   SYMBOL    EDATA    WORD      k

      ---         MODULE    ---      ---       SEEKFREE_TSL1401
      00000008H   PUBLIC    EDATA    BYTE      tsl1401_finish_flag
      00000009H   PUBLIC    EDATA    ---       ccd_data_ch1
      00000109H   PUBLIC    EDATA    ---       ccd_data_ch2
      000000D0H   SFRSYM    DATA     BYTE      PSW
      0000009DH   SFRSYM    DATA     BYTE      IRCBAND
      00000097H   SFRSYM    DATA     BYTE      AUXR2
      000000EFH   SFRSYM    DATA     BYTE      AUXINTIF
      000000FDH   SFRSYM    DATA     BYTE      S4CON
      000000ACH   SFRSYM    DATA     BYTE      S3CON
      0000009AH   SFRSYM    DATA     BYTE      S2CON
      000000B7H   SFRSYM    DATA     BYTE      IPH
      000000CDH   SFRSYM    DATA     BYTE      SPSTAT
      000000DDH   SFRSYM    DATA     BYTE      T4T3M
      000000C1H   SFRSYM    DATA     BYTE      WDT_CONTR
      000000DFH   SFRSYM    DATA     BYTE      IP3
      000000F4H   SFRSYM    DATA     BYTE      USBCON
      000000B5H   SFRSYM    DATA     BYTE      IP2
      000000FFH   SFRSYM    DATA     BYTE      RSTCFG
      000000C7H   SFRSYM    DATA     BYTE      IAP_CONTR
      000000F9H   SFRSYM    DATA     BYTE      LINICR
      0000008EH   SFRSYM    DATA     BYTE      AUXR
      000000AFH   SFRSYM    DATA     BYTE      IE2
      00000080H.7 SFRSYM    DATA     BIT       P07
      00000088H   SFRSYM    DATA     BYTE      TCON
      00000089H   SFRSYM    DATA     BYTE      TMOD
      00000098H   SFRSYM    DATA     BYTE      SCON
      00000080H.2 SFRSYM    DATA     BIT       P02
      000000F1H   SFRSYM    DATA     BYTE      CANICR
      00000087H   SFRSYM    DATA     BYTE      PCON
      000000BCH   SFRSYM    DATA     BYTE      ADC_CONTR
      000000E7H   SFRSYM    DATA     BYTE      CMPCR2
      000000E6H   SFRSYM    DATA     BYTE      CMPCR1
      000000DEH   SFRSYM    DATA     BYTE      ADCCFG
      000000B8H   SFRSYM    DATA     BYTE      IP
      0000008FH   SFRSYM    DATA     BYTE      INTCLKO
      000000EEH   SFRSYM    DATA     BYTE      IP3H
      000000B6H   SFRSYM    DATA     BYTE      IP2H
      000000A8H   SFRSYM    DATA     BYTE      IE
      000000BBH   SFRSYM    DATA     BYTE      P_SW3
      000000BAH   SFRSYM    DATA     BYTE      P_SW2
      000000A2H   SFRSYM    DATA     BYTE      P_SW1
      000000CEH   SFRSYM    DATA     BYTE      SPCTL
      000000F8H   SFRSYM    DATA     BYTE      P7
      000000E8H   SFRSYM    DATA     BYTE      P6
      000000C8H   SFRSYM    DATA     BYTE      P5
      000000C0H   SFRSYM    DATA     BYTE      P4
      000000B0H   SFRSYM    DATA     BYTE      P3
      000000A0H   SFRSYM    DATA     BYTE      P2
      00000090H   SFRSYM    DATA     BYTE      P1
      00000080H   SFRSYM    DATA     BYTE      P0
      00001115H   SYMBOL    EDATA    INT       uart_n
      00001117H   SYMBOL    EDATA    ---       dat
      0000111BH   SYMBOL    EDATA    BYTE      i
      0000131CH   SYMBOL    EDATA    BYTE      i

L251 LINKER/LOCATER V4.66.93.0                                                        11/20/2024  19:22:33  PAGE 126


      ---         MODULE    ---      ---       SEEKFREE_VIRSCO
      00FF8644H   PUBLIC    CODE     ---       CRC_CHECK
      00000F41H   PUBLIC    EDATA    ---       virtual_scope_data
      00000D7BH   PUBLIC    EDATA    BYTE      ?data_conversion?BYTE
      000000D0H   SFRSYM    DATA     BYTE      PSW
      0000009DH   SFRSYM    DATA     BYTE      IRCBAND
      00000097H   SFRSYM    DATA     BYTE      AUXR2
      000000EFH   SFRSYM    DATA     BYTE      AUXINTIF
      000000FDH   SFRSYM    DATA     BYTE      S4CON
      000000ACH   SFRSYM    DATA     BYTE      S3CON
      0000009AH   SFRSYM    DATA     BYTE      S2CON
      000000B7H   SFRSYM    DATA     BYTE      IPH
      000000CDH   SFRSYM    DATA     BYTE      SPSTAT
      000000DDH   SFRSYM    DATA     BYTE      T4T3M
      000000C1H   SFRSYM    DATA     BYTE      WDT_CONTR
      000000DFH   SFRSYM    DATA     BYTE      IP3
      000000F4H   SFRSYM    DATA     BYTE      USBCON
      000000B5H   SFRSYM    DATA     BYTE      IP2
      000000FFH   SFRSYM    DATA     BYTE      RSTCFG
      000000C7H   SFRSYM    DATA     BYTE      IAP_CONTR
      000000F9H   SFRSYM    DATA     BYTE      LINICR
      0000008EH   SFRSYM    DATA     BYTE      AUXR
      000000AFH   SFRSYM    DATA     BYTE      IE2
      00000088H   SFRSYM    DATA     BYTE      TCON
      00000089H   SFRSYM    DATA     BYTE      TMOD
      00000098H   SFRSYM    DATA     BYTE      SCON
      000000F1H   SFRSYM    DATA     BYTE      CANICR
      00000087H   SFRSYM    DATA     BYTE      PCON
      000000BCH   SFRSYM    DATA     BYTE      ADC_CONTR
      000000E7H   SFRSYM    DATA     BYTE      CMPCR2
      000000E6H   SFRSYM    DATA     BYTE      CMPCR1
      000000DEH   SFRSYM    DATA     BYTE      ADCCFG
      000000B8H   SFRSYM    DATA     BYTE      IP
      0000008FH   SFRSYM    DATA     BYTE      INTCLKO
      000000EEH   SFRSYM    DATA     BYTE      IP3H
      000000B6H   SFRSYM    DATA     BYTE      IP2H
      000000A8H   SFRSYM    DATA     BYTE      IE
      000000BBH   SFRSYM    DATA     BYTE      P_SW3
      000000BAH   SFRSYM    DATA     BYTE      P_SW2
      000000A2H   SFRSYM    DATA     BYTE      P_SW1
      000000CEH   SFRSYM    DATA     BYTE      SPCTL
      000000F8H   SFRSYM    DATA     BYTE      P7
      000000E8H   SFRSYM    DATA     BYTE      P6
      000000C8H   SFRSYM    DATA     BYTE      P5
      000000C0H   SFRSYM    DATA     BYTE      P4
      000000B0H   SFRSYM    DATA     BYTE      P3
      000000A0H   SFRSYM    DATA     BYTE      P2
      00000090H   SFRSYM    DATA     BYTE      P1
      00000080H   SFRSYM    DATA     BYTE      P0

      00FF8644H   BLOCK     CODE     ---       LVL=0
      00001041H   SYMBOL    EDATA    ---       Buf
      00001045H   SYMBOL    EDATA    BYTE      CRC_CNT
      00FF864CH   BLOCK     CODE     NEAR LAB  LVL=1
      00001046H   SYMBOL    EDATA    WORD      CRC_Temp
      00001048H   SYMBOL    EDATA    BYTE      i
      00001049H   SYMBOL    EDATA    BYTE      j
      ---         BLOCKEND  ---      ---       LVL=1
      00FF8644H   LINE      CODE     ---       #38
      00FF864CH   LINE      CODE     ---       #39
      00FF864CH   LINE      CODE     ---       #42
      00FF8654H   LINE      CODE     ---       #44
      00FF865BH   LINE      CODE     ---       #45
      00FF8676H   LINE      CODE     ---       #46
      00FF867DH   LINE      CODE     ---       #47
L251 LINKER/LOCATER V4.66.93.0                                                        11/20/2024  19:22:33  PAGE 127


      00FF868DH   LINE      CODE     ---       #48
      00FF869FH   LINE      CODE     ---       #50
      00FF86A9H   LINE      CODE     ---       #51
      00FF86C0H   LINE      CODE     ---       #52
      00FF86D9H   LINE      CODE     ---       #53
      00FF86DDH   LINE      CODE     ---       #54
      ---         BLOCKEND  ---      ---       LVL=0
      00000D7BH   SYMBOL    EDATA    INT       data1
      00000D7DH   SYMBOL    EDATA    INT       data2
      00000D7FH   SYMBOL    EDATA    INT       data3
      00000D81H   SYMBOL    EDATA    INT       data4
      00000D83H   SYMBOL    EDATA    ---       dat
      00000D87H   SYMBOL    EDATA    WORD      CRC16

      ---         MODULE    ---      ---       SEEKFREE_WIRELESS
      00FFA50BH   PUBLIC    CODE     ---       wireless_uart_read_buff
      00FF8CF4H   PUBLIC    CODE     ---       wireless_uart_send_buff
      00FFAACCH   PUBLIC    CODE     ---       wireless_uart_callback
      00FFA0AFH   PUBLIC    CODE     ---       wireless_uart_init
      00FFA95EH   PUBLIC    CODE     ---       wireless_uart_send_byte
      000000D0H   SFRSYM    DATA     BYTE      PSW
      0000009DH   SFRSYM    DATA     BYTE      IRCBAND
      00000097H   SFRSYM    DATA     BYTE      AUXR2
      000000EFH   SFRSYM    DATA     BYTE      AUXINTIF
      000000FDH   SFRSYM    DATA     BYTE      S4CON
      000000ACH   SFRSYM    DATA     BYTE      S3CON
      0000009AH   SFRSYM    DATA     BYTE      S2CON
      000000FEH   SFRSYM    DATA     BYTE      S4BUF
      000000B7H   SFRSYM    DATA     BYTE      IPH
      000000CDH   SFRSYM    DATA     BYTE      SPSTAT
      000000DDH   SFRSYM    DATA     BYTE      T4T3M
      000000C1H   SFRSYM    DATA     BYTE      WDT_CONTR
      000000DFH   SFRSYM    DATA     BYTE      IP3
      000000F4H   SFRSYM    DATA     BYTE      USBCON
      000000B5H   SFRSYM    DATA     BYTE      IP2
      000000FFH   SFRSYM    DATA     BYTE      RSTCFG
      000000C7H   SFRSYM    DATA     BYTE      IAP_CONTR
      000000F9H   SFRSYM    DATA     BYTE      LINICR
      0000008EH   SFRSYM    DATA     BYTE      AUXR
      000000AFH   SFRSYM    DATA     BYTE      IE2
      00000080H.7 SFRSYM    DATA     BIT       P07
      00000088H   SFRSYM    DATA     BYTE      TCON
      00000089H   SFRSYM    DATA     BYTE      TMOD
      00000098H   SFRSYM    DATA     BYTE      SCON
      000000F1H   SFRSYM    DATA     BYTE      CANICR
      00000087H   SFRSYM    DATA     BYTE      PCON
      000000BCH   SFRSYM    DATA     BYTE      ADC_CONTR
      000000E7H   SFRSYM    DATA     BYTE      CMPCR2
      000000E6H   SFRSYM    DATA     BYTE      CMPCR1
      000000DEH   SFRSYM    DATA     BYTE      ADCCFG
      000000B8H   SFRSYM    DATA     BYTE      IP
      0000008FH   SFRSYM    DATA     BYTE      INTCLKO
      000000EEH   SFRSYM    DATA     BYTE      IP3H
      000000B6H   SFRSYM    DATA     BYTE      IP2H
      000000A8H   SFRSYM    DATA     BYTE      IE
      000000BBH   SFRSYM    DATA     BYTE      P_SW3
      000000BAH   SFRSYM    DATA     BYTE      P_SW2
      000000A2H   SFRSYM    DATA     BYTE      P_SW1
      000000CEH   SFRSYM    DATA     BYTE      SPCTL
      000000F8H   SFRSYM    DATA     BYTE      P7
      000000E8H   SFRSYM    DATA     BYTE      P6
      000000C8H   SFRSYM    DATA     BYTE      P5
      000000C0H   SFRSYM    DATA     BYTE      P4
      000000B0H   SFRSYM    DATA     BYTE      P3
      000000A0H   SFRSYM    DATA     BYTE      P2
L251 LINKER/LOCATER V4.66.93.0                                                        11/20/2024  19:22:33  PAGE 128


      00000090H   SFRSYM    DATA     BYTE      P1
      00000080H   SFRSYM    DATA     BYTE      P0
      00000679H   SYMBOL    EDATA    BYTE      wireless_uart_data
      0000067AH   SYMBOL    EDATA    ---       wireless_uart_fifo
      00000691H   SYMBOL    EDATA    ---       wireless_uart_buffer

      00FFAACCH   BLOCK     CODE     ---       LVL=0
      00FFAACCH   LINE      CODE     ---       #48
      00FFAACCH   LINE      CODE     ---       #51
      00FFAAD2H   LINE      CODE     ---       #52
      00FFAAE5H   LINE      CODE     ---       #53
      ---         BLOCKEND  ---      ---       LVL=0

      00FFA95EH   BLOCK     CODE     ---       LVL=0
      0000131DH   SYMBOL    EDATA    BYTE      dat
      00FFA95EH   LINE      CODE     ---       #64
      00FFA962H   LINE      CODE     ---       #66
      00FFA96BH   LINE      CODE     ---       #68
      00FFA97EH   LINE      CODE     ---       #69
      ---         BLOCKEND  ---      ---       LVL=0

      00FF8CF4H   BLOCK     CODE     ---       LVL=0
      000010D3H   SYMBOL    EDATA    ---       buff
      000010D7H   SYMBOL    EDATA    DWORD     len
      00FF8CF4H   LINE      CODE     ---       #81
      00FF8CFCH   LINE      CODE     ---       #83
      00FF8CFEH   LINE      CODE     ---       #85
      00FF8D07H   LINE      CODE     ---       #87
      00FF8D0DH   LINE      CODE     ---       #88
      00FF8D0DH   LINE      CODE     ---       #90
      00FF8D20H   LINE      CODE     ---       #92
      00FF8D2CH   LINE      CODE     ---       #93
      00FF8D3AH   LINE      CODE     ---       #94
      00FF8D44H   LINE      CODE     ---       #96
      00FF8D4DH   LINE      CODE     ---       #98
      00FF8D53H   LINE      CODE     ---       #99
      00FF8D53H   LINE      CODE     ---       #101
      00FF8D66H   LINE      CODE     ---       #103
      00FF8D68H   LINE      CODE     ---       #104
      ---         BLOCKEND  ---      ---       LVL=0

      00FFA50BH   BLOCK     CODE     ---       LVL=0
      00000E70H   SYMBOL    EDATA    ---       buff
      00000E74H   SYMBOL    EDATA    DWORD     len
      00FFA513H   BLOCK     CODE     NEAR LAB  LVL=1
      00000E78H   SYMBOL    EDATA    DWORD     data_len
      ---         BLOCKEND  ---      ---       LVL=1
      00FFA50BH   LINE      CODE     ---       #115
      00FFA513H   LINE      CODE     ---       #116
      00FFA513H   LINE      CODE     ---       #117
      00FFA51BH   LINE      CODE     ---       #118
      00FFA534H   LINE      CODE     ---       #119
      00FFA538H   LINE      CODE     ---       #120
      ---         BLOCKEND  ---      ---       LVL=0

      00FFA0AFH   BLOCK     CODE     ---       LVL=0
      00FFA0AFH   LINE      CODE     ---       #133
      00FFA0AFH   LINE      CODE     ---       #135
      00FFA0B2H   LINE      CODE     ---       #136
      00FFA0BAH   LINE      CODE     ---       #138
      00FFA0D3H   LINE      CODE     ---       #139
      00FFA0F2H   LINE      CODE     ---       #141
      ---         BLOCKEND  ---      ---       LVL=0

      ---         MODULE    ---      ---       isr
L251 LINKER/LOCATER V4.66.93.0                                                        11/20/2024  19:22:33  PAGE 129


      00FFA135H   PUBLIC    CODE     ---       UART1_Isr
      00FF945FH   PUBLIC    CODE     ---       UART2_Isr
      00FFAAE6H   PUBLIC    CODE     ---       UART3_Isr
      00FF94BDH   PUBLIC    CODE     ---       UART4_Isr
      00FF0086H   PUBLIC    CODE     ---       INT0_Isr
      00FF000AH   PUBLIC    CODE     ---       INT1_Isr
      00FF008EH   PUBLIC    CODE     ---       INT2_Isr
      00FF0096H   PUBLIC    CODE     ---       INT3_Isr
      00FF009EH   PUBLIC    CODE     ---       INT4_Isr
      00FF0012H   PUBLIC    CODE     ---       TM0_Isr
      00FF001AH   PUBLIC    CODE     ---       TM1_Isr
      00FFAD6CH   PUBLIC    CODE     ---       TM2_Isr
      00FFAD70H   PUBLIC    CODE     ---       TM3_Isr
      00FFAD74H   PUBLIC    CODE     ---       TM4_Isr
      000000D0H   SFRSYM    DATA     BYTE      PSW
      0000009DH   SFRSYM    DATA     BYTE      IRCBAND
      00000097H   SFRSYM    DATA     BYTE      AUXR2
      000000EFH   SFRSYM    DATA     BYTE      AUXINTIF
      000000FDH   SFRSYM    DATA     BYTE      S4CON
      000000ACH   SFRSYM    DATA     BYTE      S3CON
      0000009AH   SFRSYM    DATA     BYTE      S2CON
      000000B7H   SFRSYM    DATA     BYTE      IPH
      000000CDH   SFRSYM    DATA     BYTE      SPSTAT
      000000DDH   SFRSYM    DATA     BYTE      T4T3M
      000000C1H   SFRSYM    DATA     BYTE      WDT_CONTR
      000000DFH   SFRSYM    DATA     BYTE      IP3
      000000F4H   SFRSYM    DATA     BYTE      USBCON
      000000B5H   SFRSYM    DATA     BYTE      IP2
      000000FFH   SFRSYM    DATA     BYTE      RSTCFG
      000000C7H   SFRSYM    DATA     BYTE      IAP_CONTR
      000000F9H   SFRSYM    DATA     BYTE      LINICR
      0000008EH   SFRSYM    DATA     BYTE      AUXR
      000000AFH   SFRSYM    DATA     BYTE      IE2
      000000C8H.2 SFRSYM    DATA     BIT       P52
      00000088H   SFRSYM    DATA     BYTE      TCON
      00000089H   SFRSYM    DATA     BYTE      TMOD
      00000098H   SFRSYM    DATA     BYTE      SCON
      000000F1H   SFRSYM    DATA     BYTE      CANICR
      00000087H   SFRSYM    DATA     BYTE      PCON
      00000099H   SFRSYM    DATA     BYTE      SBUF
      000000BCH   SFRSYM    DATA     BYTE      ADC_CONTR
      000000E7H   SFRSYM    DATA     BYTE      CMPCR2
      000000E6H   SFRSYM    DATA     BYTE      CMPCR1
      000000DEH   SFRSYM    DATA     BYTE      ADCCFG
      000000B8H   SFRSYM    DATA     BYTE      IP
      0000008FH   SFRSYM    DATA     BYTE      INTCLKO
      000000EEH   SFRSYM    DATA     BYTE      IP3H
      000000B6H   SFRSYM    DATA     BYTE      IP2H
      000000A8H   SFRSYM    DATA     BYTE      IE
      000000BBH   SFRSYM    DATA     BYTE      P_SW3
      000000BAH   SFRSYM    DATA     BYTE      P_SW2
      000000A2H   SFRSYM    DATA     BYTE      P_SW1
      000000CEH   SFRSYM    DATA     BYTE      SPCTL
      000000F8H   SFRSYM    DATA     BYTE      P7
      000000E8H   SFRSYM    DATA     BYTE      P6
      000000C8H   SFRSYM    DATA     BYTE      P5
      000000C0H   SFRSYM    DATA     BYTE      P4
      000000B0H   SFRSYM    DATA     BYTE      P3
      000000A0H   SFRSYM    DATA     BYTE      P2
      00000090H   SFRSYM    DATA     BYTE      P1
      00000080H   SFRSYM    DATA     BYTE      P0

      00FFA135H   BLOCK     CODE     ---       LVL=0
      00FFA137H   BLOCK     CODE     NEAR LAB  LVL=1
      0000131EH   SYMBOL    EDATA    BYTE      res
L251 LINKER/LOCATER V4.66.93.0                                                        11/20/2024  19:22:33  PAGE 130


      0000131FH   SYMBOL    EDATA    BYTE      dwon_count
      ---         BLOCKEND  ---      ---       LVL=1
      00FFA135H   LINE      CODE     ---       #22
      00FFA137H   LINE      CODE     ---       #23
      00FFA137H   LINE      CODE     ---       #26
      00FFA13CH   LINE      CODE     ---       #28
      00FFA13FH   LINE      CODE     ---       #29
      00FFA144H   LINE      CODE     ---       #30
      00FFA144H   LINE      CODE     ---       #31
      00FFA149H   LINE      CODE     ---       #33
      00FFA14CH   LINE      CODE     ---       #34
      00FFA152H   LINE      CODE     ---       #36
      00FFA157H   LINE      CODE     ---       #38
      00FFA169H   LINE      CODE     ---       #39
      00FFA16DH   LINE      CODE     ---       #40
      00FFA16FH   LINE      CODE     ---       #43
      00FFA174H   LINE      CODE     ---       #44
      00FFA174H   LINE      CODE     ---       #45
      ---         BLOCKEND  ---      ---       LVL=0

      00FF945FH   BLOCK     CODE     ---       LVL=0
      00FF945FH   LINE      CODE     ---       #49
      00FF9473H   LINE      CODE     ---       #51
      00FF9478H   LINE      CODE     ---       #53
      00FF947BH   LINE      CODE     ---       #54
      00FF9480H   LINE      CODE     ---       #55
      00FF9480H   LINE      CODE     ---       #56
      00FF9485H   LINE      CODE     ---       #58
      00FF9488H   LINE      CODE     ---       #60
      00FF9494H   LINE      CODE     ---       #62
      00FF9497H   LINE      CODE     ---       #63
      00FF9499H   LINE      CODE     ---       #64
      00FF94A5H   LINE      CODE     ---       #66
      00FF94A8H   LINE      CODE     ---       #67
      00FF94A8H   LINE      CODE     ---       #70
      ---         BLOCKEND  ---      ---       LVL=0

      00FFAAE6H   BLOCK     CODE     ---       LVL=0
      00FFAAE6H   LINE      CODE     ---       #74
      00FFAAE8H   LINE      CODE     ---       #76
      00FFAAEDH   LINE      CODE     ---       #78
      00FFAAF0H   LINE      CODE     ---       #79
      00FFAAF5H   LINE      CODE     ---       #80
      00FFAAF5H   LINE      CODE     ---       #81
      00FFAAFAH   LINE      CODE     ---       #83
      00FFAAFDH   LINE      CODE     ---       #86
      ---         BLOCKEND  ---      ---       LVL=0

      00FF94BDH   BLOCK     CODE     ---       LVL=0
      00FF94BDH   LINE      CODE     ---       #91
      00FF94D1H   LINE      CODE     ---       #93
      00FF94D6H   LINE      CODE     ---       #95
      00FF94D9H   LINE      CODE     ---       #96
      00FF94DEH   LINE      CODE     ---       #97
      00FF94DEH   LINE      CODE     ---       #98
      00FF94E3H   LINE      CODE     ---       #100
      00FF94E6H   LINE      CODE     ---       #102
      00FF94F2H   LINE      CODE     ---       #104
      00FF94F5H   LINE      CODE     ---       #105
      00FF94F7H   LINE      CODE     ---       #106
      00FF9503H   LINE      CODE     ---       #108
      00FF9506H   LINE      CODE     ---       #109
      00FF9506H   LINE      CODE     ---       #111
      ---         BLOCKEND  ---      ---       LVL=0

L251 LINKER/LOCATER V4.66.93.0                                                        11/20/2024  19:22:33  PAGE 131


      00FF0086H   BLOCK     CODE     ---       LVL=0
      00FF0086H   LINE      CODE     ---       #114
      00FF0086H   LINE      CODE     ---       #116
      00FF0089H   LINE      CODE     ---       #117
      ---         BLOCKEND  ---      ---       LVL=0

      00FF000AH   BLOCK     CODE     ---       LVL=0
      00FF000AH   LINE      CODE     ---       #118
      00FF000AH   LINE      CODE     ---       #121
      ---         BLOCKEND  ---      ---       LVL=0

      00FF008EH   BLOCK     CODE     ---       LVL=0
      00FF008EH   LINE      CODE     ---       #122
      00FF008EH   LINE      CODE     ---       #124
      00FF0091H   LINE      CODE     ---       #125
      ---         BLOCKEND  ---      ---       LVL=0

      00FF0096H   BLOCK     CODE     ---       LVL=0
      00FF0096H   LINE      CODE     ---       #126
      00FF0096H   LINE      CODE     ---       #128
      00FF0099H   LINE      CODE     ---       #129
      ---         BLOCKEND  ---      ---       LVL=0

      00FF009EH   BLOCK     CODE     ---       LVL=0
      00FF009EH   LINE      CODE     ---       #131
      00FF009EH   LINE      CODE     ---       #133
      00FF00A1H   LINE      CODE     ---       #134
      ---         BLOCKEND  ---      ---       LVL=0

      00FF0012H   BLOCK     CODE     ---       LVL=0
      00FF0012H   LINE      CODE     ---       #136
      00FF0012H   LINE      CODE     ---       #139
      ---         BLOCKEND  ---      ---       LVL=0

      00FF001AH   BLOCK     CODE     ---       LVL=0
      00FF001AH   LINE      CODE     ---       #140
      00FF001AH   LINE      CODE     ---       #143
      ---         BLOCKEND  ---      ---       LVL=0

      00FFAD6CH   BLOCK     CODE     ---       LVL=0
      00FFAD6CH   LINE      CODE     ---       #144
      00FFAD6CH   LINE      CODE     ---       #146
      00FFAD6FH   LINE      CODE     ---       #148
      ---         BLOCKEND  ---      ---       LVL=0

      00FFAD70H   BLOCK     CODE     ---       LVL=0
      00FFAD70H   LINE      CODE     ---       #149
      00FFAD70H   LINE      CODE     ---       #151
      00FFAD73H   LINE      CODE     ---       #153
      ---         BLOCKEND  ---      ---       LVL=0

      00FFAD74H   BLOCK     CODE     ---       LVL=0
      00FFAD74H   LINE      CODE     ---       #155
      00FFAD74H   LINE      CODE     ---       #157
      00FFAD77H   LINE      CODE     ---       #160
      ---         BLOCKEND  ---      ---       LVL=0

      ---         MODULE    ---      ---       main
      00FFA72CH   PUBLIC    CODE     ---       main
      00FF8D69H   PUBLIC    CODE     ---       code_entrance
      000012ADH   PUBLIC    EDATA    BYTE      dir
      000012AEH   PUBLIC    EDATA    INT       duty
      000000D0H   SFRSYM    DATA     BYTE      PSW
      0000009DH   SFRSYM    DATA     BYTE      IRCBAND
      00000097H   SFRSYM    DATA     BYTE      AUXR2
L251 LINKER/LOCATER V4.66.93.0                                                        11/20/2024  19:22:33  PAGE 132


      000000EFH   SFRSYM    DATA     BYTE      AUXINTIF
      000000FDH   SFRSYM    DATA     BYTE      S4CON
      000000ACH   SFRSYM    DATA     BYTE      S3CON
      0000009AH   SFRSYM    DATA     BYTE      S2CON
      000000B7H   SFRSYM    DATA     BYTE      IPH
      000000CDH   SFRSYM    DATA     BYTE      SPSTAT
      000000DDH   SFRSYM    DATA     BYTE      T4T3M
      000000C1H   SFRSYM    DATA     BYTE      WDT_CONTR
      000000DFH   SFRSYM    DATA     BYTE      IP3
      000000F4H   SFRSYM    DATA     BYTE      USBCON
      000000B5H   SFRSYM    DATA     BYTE      IP2
      000000FFH   SFRSYM    DATA     BYTE      RSTCFG
      000000C7H   SFRSYM    DATA     BYTE      IAP_CONTR
      000000F9H   SFRSYM    DATA     BYTE      LINICR
      0000008EH   SFRSYM    DATA     BYTE      AUXR
      000000AFH   SFRSYM    DATA     BYTE      IE2
      00000088H   SFRSYM    DATA     BYTE      TCON
      00000089H   SFRSYM    DATA     BYTE      TMOD
      00000098H   SFRSYM    DATA     BYTE      SCON
      000000F1H   SFRSYM    DATA     BYTE      CANICR
      00000087H   SFRSYM    DATA     BYTE      PCON
      000000BCH   SFRSYM    DATA     BYTE      ADC_CONTR
      000000E7H   SFRSYM    DATA     BYTE      CMPCR2
      000000E6H   SFRSYM    DATA     BYTE      CMPCR1
      000000DEH   SFRSYM    DATA     BYTE      ADCCFG
      000000B8H   SFRSYM    DATA     BYTE      IP
      0000008FH   SFRSYM    DATA     BYTE      INTCLKO
      000000EEH   SFRSYM    DATA     BYTE      IP3H
      000000B6H   SFRSYM    DATA     BYTE      IP2H
      000000A8H   SFRSYM    DATA     BYTE      IE
      000000BBH   SFRSYM    DATA     BYTE      P_SW3
      000000BAH   SFRSYM    DATA     BYTE      P_SW2
      000000A2H   SFRSYM    DATA     BYTE      P_SW1
      000000CEH   SFRSYM    DATA     BYTE      SPCTL
      000000F8H   SFRSYM    DATA     BYTE      P7
      000000E8H   SFRSYM    DATA     BYTE      P6
      000000C8H   SFRSYM    DATA     BYTE      P5
      000000C0H   SFRSYM    DATA     BYTE      P4
      000000B0H   SFRSYM    DATA     BYTE      P3
      000000A0H   SFRSYM    DATA     BYTE      P2
      00000090H   SFRSYM    DATA     BYTE      P1
      00000080H   SFRSYM    DATA     BYTE      P0

      00FFA72CH   BLOCK     CODE     ---       LVL=0
      00FFA72CH   LINE      CODE     ---       #32
      00FFA72CH   LINE      CODE     ---       #34
      00FFA737H   LINE      CODE     ---       #35
      00FFA73AH   LINE      CODE     ---       #38
      00FFA73DH   LINE      CODE     ---       #39
      00FFA740H   LINE      CODE     ---       #40
      00FFA743H   LINE      CODE     ---       #41
      00FFA746H   LINE      CODE     ---       #42
      00FFA749H   LINE      CODE     ---       #43
      00FFA74CH   LINE      CODE     ---       #44
      00FFA74FH   LINE      CODE     ---       #46
      00FFA752H   LINE      CODE     ---       #47
      ---         BLOCKEND  ---      ---       LVL=0

      00FF8D69H   BLOCK     CODE     ---       LVL=0
      0000071DH   SYMBOL    EDATA    ---       str
      0000075DH   SYMBOL    EDATA    INT       recv
      00FF8D69H   LINE      CODE     ---       #49
      00FF8D69H   LINE      CODE     ---       #50
      00FF8D69H   LINE      CODE     ---       #52
      00FF8D71H   LINE      CODE     ---       #53
L251 LINKER/LOCATER V4.66.93.0                                                        11/20/2024  19:22:33  PAGE 133


      00FF8D74H   LINE      CODE     ---       #54
      00FF8D83H   LINE      CODE     ---       #55
      00FF8D93H   LINE      CODE     ---       #56
      00FF8D93H   LINE      CODE     ---       #58
      00FF8D9AH   LINE      CODE     ---       #59
      00FF8DA6H   LINE      CODE     ---       #60
      00FF8DB9H   LINE      CODE     ---       #62
      00FF8DC8H   LINE      CODE     ---       #63
      00FF8DD7H   LINE      CODE     ---       #64
      00FF8DD9H   LINE      CODE     ---       #66
      ---         BLOCKEND  ---      ---       LVL=0

      ---         MODULE    ---      ---       seekfree_assistant
      00FF75ECH   PUBLIC    CODE     ---       seekfree_assistant_camera_dot_send
      00FF76EDH   PUBLIC    CODE     ---       seekfree_assistant_camera_data_send
      00000211H   PUBLIC    EDATA    ---       seekfree_assistant_oscilloscope_data
      0000024CH   PUBLIC    EDATA    ---       seekfree_assistant_parameter_update_flag
      00000254H   PUBLIC    EDATA    ---       seekfree_assistant_parameter
      00000D18H   PUBLIC    EDATA    BYTE      ?seekfree_assistant_camera_data_send?BYTE
      00000F4BH   PUBLIC    EDATA    BYTE      ?seekfree_assistant_camera_information_config?BYTE
      00000B1FH   PUBLIC    EDATA    BYTE      ?seekfree_assistant_camera_boundary_config?BYTE
      000000D0H   SFRSYM    DATA     BYTE      PSW
      0000009DH   SFRSYM    DATA     BYTE      IRCBAND
      00000097H   SFRSYM    DATA     BYTE      AUXR2
      000000EFH   SFRSYM    DATA     BYTE      AUXINTIF
      000000FDH   SFRSYM    DATA     BYTE      S4CON
      000000ACH   SFRSYM    DATA     BYTE      S3CON
      0000009AH   SFRSYM    DATA     BYTE      S2CON
      000000B7H   SFRSYM    DATA     BYTE      IPH
      000000CDH   SFRSYM    DATA     BYTE      SPSTAT
      000000DDH   SFRSYM    DATA     BYTE      T4T3M
      000000C1H   SFRSYM    DATA     BYTE      WDT_CONTR
      000000DFH   SFRSYM    DATA     BYTE      IP3
      000000F4H   SFRSYM    DATA     BYTE      USBCON
      000000B5H   SFRSYM    DATA     BYTE      IP2
      000000FFH   SFRSYM    DATA     BYTE      RSTCFG
      000000C7H   SFRSYM    DATA     BYTE      IAP_CONTR
      000000F9H   SFRSYM    DATA     BYTE      LINICR
      0000008EH   SFRSYM    DATA     BYTE      AUXR
      000000AFH   SFRSYM    DATA     BYTE      IE2
      00000088H   SFRSYM    DATA     BYTE      TCON
      00000089H   SFRSYM    DATA     BYTE      TMOD
      00000098H   SFRSYM    DATA     BYTE      SCON
      000000F1H   SFRSYM    DATA     BYTE      CANICR
      00000087H   SFRSYM    DATA     BYTE      PCON
      000000BCH   SFRSYM    DATA     BYTE      ADC_CONTR
      000000E7H   SFRSYM    DATA     BYTE      CMPCR2
      000000E6H   SFRSYM    DATA     BYTE      CMPCR1
      000000DEH   SFRSYM    DATA     BYTE      ADCCFG
      000000B8H   SFRSYM    DATA     BYTE      IP
      0000008FH   SFRSYM    DATA     BYTE      INTCLKO
      000000EEH   SFRSYM    DATA     BYTE      IP3H
      000000B6H   SFRSYM    DATA     BYTE      IP2H
      000000A8H   SFRSYM    DATA     BYTE      IE
      000000BBH   SFRSYM    DATA     BYTE      P_SW3
      000000BAH   SFRSYM    DATA     BYTE      P_SW2
      000000A2H   SFRSYM    DATA     BYTE      P_SW1
      000000CEH   SFRSYM    DATA     BYTE      SPCTL
      000000F8H   SFRSYM    DATA     BYTE      P7
      000000E8H   SFRSYM    DATA     BYTE      P6
      000000C8H   SFRSYM    DATA     BYTE      P5
      000000C0H   SFRSYM    DATA     BYTE      P4
      000000B0H   SFRSYM    DATA     BYTE      P3
      000000A0H   SFRSYM    DATA     BYTE      P2
      00000090H   SFRSYM    DATA     BYTE      P1
L251 LINKER/LOCATER V4.66.93.0                                                        11/20/2024  19:22:33  PAGE 134


      00000080H   SFRSYM    DATA     BYTE      P0
      00FFA177H   SYMBOL    CODE     ---       seekfree_assistant_sum
      00000209H   SYMBOL    EDATA    ---       seekfree_assistant_camera_dot_data
      00000235H   SYMBOL    EDATA    ---       seekfree_assistant_fifo
      00000274H   SYMBOL    EDATA    ---       seekfree_assistant_camera_buffer
      000002BEH   SYMBOL    EDATA    ---       seekfree_assistant_camera_data
      000002C6H   SYMBOL    EDATA    ---       seekfree_assistant_buffer

      00FFA177H   BLOCK     CODE     ---       LVL=0
      0000104AH   SYMBOL    EDATA    ---       buffer
      0000104EH   SYMBOL    EDATA    DWORD     length
      00FFA17FH   BLOCK     CODE     NEAR LAB  LVL=1
      00001052H   SYMBOL    EDATA    BYTE      temp_sum
      ---         BLOCKEND  ---      ---       LVL=1
      00FFA177H   LINE      CODE     ---       #39
      00FFA17FH   LINE      CODE     ---       #40
      00FFA17FH   LINE      CODE     ---       #41
      00FFA184H   LINE      CODE     ---       #43
      00FFA186H   LINE      CODE     ---       #45
      00FFA19DH   LINE      CODE     ---       #46
      00FFA1B1H   LINE      CODE     ---       #48
      00FFA1B5H   LINE      CODE     ---       #49
      ---         BLOCKEND  ---      ---       LVL=0

      00FF76EDH   BLOCK     CODE     ---       LVL=0
      00000D18H   SYMBOL    EDATA    INT       camera_type
      00000D1AH   SYMBOL    EDATA    ---       image_addr
      00000D1EH   SYMBOL    EDATA    BYTE      boundary_num
      00000D1FH   SYMBOL    EDATA    WORD      width
      00000D21H   SYMBOL    EDATA    WORD      height
      00FF76FDH   BLOCK     CODE     NEAR LAB  LVL=1
      00000D23H   SYMBOL    EDATA    DWORD     image_size
      ---         BLOCKEND  ---      ---       LVL=1
      00FF76EDH   LINE      CODE     ---       #61
      00FF76FDH   LINE      CODE     ---       #62
      00FF76FDH   LINE      CODE     ---       #63
      00FF7703H   LINE      CODE     ---       #65
      00FF7709H   LINE      CODE     ---       #66
      00FF770FH   LINE      CODE     ---       #67
      00FF7743H   LINE      CODE     ---       #69
      00FF7749H   LINE      CODE     ---       #70
      00FF7763H   LINE      CODE     ---       #71
      00FF777DH   LINE      CODE     ---       #74
      00FF778BH   LINE      CODE     ---       #77
      00FF779BH   LINE      CODE     ---       #79
      00FF779BH   LINE      CODE     ---       #81
      00FF77B1H   LINE      CODE     ---       #82
      00FF77B3H   LINE      CODE     ---       #84
      00FF77B3H   LINE      CODE     ---       #86
      00FF77C3H   LINE      CODE     ---       #87
      00FF77C5H   LINE      CODE     ---       #89
      00FF77C5H   LINE      CODE     ---       #91
      00FF77D7H   LINE      CODE     ---       #92
      00FF77D7H   LINE      CODE     ---       #93
      00FF77D7H   LINE      CODE     ---       #96
      00FF77DFH   LINE      CODE     ---       #98
      00FF77EDH   LINE      CODE     ---       #99
      ---         BLOCKEND  ---      ---       LVL=0
      00000F4BH   SYMBOL    EDATA    INT       camera_type
      00000F4DH   SYMBOL    EDATA    ---       image_addr
      00000F51H   SYMBOL    EDATA    WORD      width
      00000F53H   SYMBOL    EDATA    WORD      height
      00000A46H   SYMBOL    EDATA    ---       seekfree_assistant_oscilloscope
      00000A4AH   SYMBOL    EDATA    BYTE      packet_size
      00000A4BH   SYMBOL    EDATA    BYTE      i
L251 LINKER/LOCATER V4.66.93.0                                                        11/20/2024  19:22:33  PAGE 135


      00000A4CH   SYMBOL    EDATA    ---       temp_oscilloscope

      00FF75ECH   BLOCK     CODE     ---       LVL=0
      0000111CH   SYMBOL    EDATA    ---       buffer
      00FF75F0H   BLOCK     CODE     NEAR LAB  LVL=1
      00001120H   SYMBOL    EDATA    BYTE      i
      00001121H   SYMBOL    EDATA    WORD      dot_bytes
      ---         BLOCKEND  ---      ---       LVL=1
      00FF75ECH   LINE      CODE     ---       #167
      00FF75F0H   LINE      CODE     ---       #168
      00FF75F0H   LINE      CODE     ---       #170
      00FF75F6H   LINE      CODE     ---       #172
      00FF75FEH   LINE      CODE     ---       #173
      00FF7614H   LINE      CODE     ---       #174
      00FF7626H   LINE      CODE     ---       #176
      00FF7634H   LINE      CODE     ---       #177
      00FF7634H   LINE      CODE     ---       #180
      00FF7642H   LINE      CODE     ---       #182
      00FF764AH   LINE      CODE     ---       #185
      00FF7668H   LINE      CODE     ---       #187
      00FF768EH   LINE      CODE     ---       #188
      00FF768EH   LINE      CODE     ---       #191
      00FF76ACH   LINE      CODE     ---       #195
      00FF76D2H   LINE      CODE     ---       #196
      00FF76ECH   LINE      CODE     ---       #198
      ---         BLOCKEND  ---      ---       LVL=0
      00000B1FH   SYMBOL    EDATA    INT       boundary_type
      00000B21H   SYMBOL    EDATA    WORD      dot_num
      00000B23H   SYMBOL    EDATA    ---       dot_x1
      00000B27H   SYMBOL    EDATA    ---       dot_x2
      00000B2BH   SYMBOL    EDATA    ---       dot_x3
      00000B2FH   SYMBOL    EDATA    ---       dot_y1
      00000B33H   SYMBOL    EDATA    ---       dot_y2
      00000B37H   SYMBOL    EDATA    ---       dot_y3
      00000B3BH   SYMBOL    EDATA    BYTE      i
      00000B3CH   SYMBOL    EDATA    BYTE      boundary_num
      00000B3DH   SYMBOL    EDATA    BYTE      boundary_data_type
      00000447H   SYMBOL    EDATA    BYTE      temp_sum
      00000448H   SYMBOL    EDATA    DWORD     read_length
      0000044CH   SYMBOL    EDATA    ---       receive_packet
      00000450H   SYMBOL    EDATA    ---       temp_buffer
      000004D0H   SYMBOL    EDATA    DWORD     i

      ---         MODULE    ---      ---       seekfree_assistant_inface
      00001263H   PUBLIC    EDATA    ---       seekfree_assistant_receive
      00001265H   PUBLIC    EDATA    ---       seekfree_assistant_transfer
      000000D0H   SFRSYM    DATA     BYTE      PSW
      0000009DH   SFRSYM    DATA     BYTE      IRCBAND
      00000097H   SFRSYM    DATA     BYTE      AUXR2
      000000EFH   SFRSYM    DATA     BYTE      AUXINTIF
      000000FDH   SFRSYM    DATA     BYTE      S4CON
      000000ACH   SFRSYM    DATA     BYTE      S3CON
      0000009AH   SFRSYM    DATA     BYTE      S2CON
      000000B7H   SFRSYM    DATA     BYTE      IPH
      000000CDH   SFRSYM    DATA     BYTE      SPSTAT
      000000DDH   SFRSYM    DATA     BYTE      T4T3M
      000000C1H   SFRSYM    DATA     BYTE      WDT_CONTR
      000000DFH   SFRSYM    DATA     BYTE      IP3
      000000F4H   SFRSYM    DATA     BYTE      USBCON
      000000B5H   SFRSYM    DATA     BYTE      IP2
      000000FFH   SFRSYM    DATA     BYTE      RSTCFG
      000000C7H   SFRSYM    DATA     BYTE      IAP_CONTR
      000000F9H   SFRSYM    DATA     BYTE      LINICR
      0000008EH   SFRSYM    DATA     BYTE      AUXR
      000000AFH   SFRSYM    DATA     BYTE      IE2
L251 LINKER/LOCATER V4.66.93.0                                                        11/20/2024  19:22:33  PAGE 136


      00000088H   SFRSYM    DATA     BYTE      TCON
      00000089H   SFRSYM    DATA     BYTE      TMOD
      00000098H   SFRSYM    DATA     BYTE      SCON
      000000F1H   SFRSYM    DATA     BYTE      CANICR
      00000087H   SFRSYM    DATA     BYTE      PCON
      000000BCH   SFRSYM    DATA     BYTE      ADC_CONTR
      000000E7H   SFRSYM    DATA     BYTE      CMPCR2
      000000E6H   SFRSYM    DATA     BYTE      CMPCR1
      000000DEH   SFRSYM    DATA     BYTE      ADCCFG
      000000B8H   SFRSYM    DATA     BYTE      IP
      0000008FH   SFRSYM    DATA     BYTE      INTCLKO
      000000EEH   SFRSYM    DATA     BYTE      IP3H
      000000B6H   SFRSYM    DATA     BYTE      IP2H
      000000A8H   SFRSYM    DATA     BYTE      IE
      000000BBH   SFRSYM    DATA     BYTE      P_SW3
      000000BAH   SFRSYM    DATA     BYTE      P_SW2
      000000A2H   SFRSYM    DATA     BYTE      P_SW1
      000000CEH   SFRSYM    DATA     BYTE      SPCTL
      000000F8H   SFRSYM    DATA     BYTE      P7
      000000E8H   SFRSYM    DATA     BYTE      P6
      000000C8H   SFRSYM    DATA     BYTE      P5
      000000C0H   SFRSYM    DATA     BYTE      P4
      000000B0H   SFRSYM    DATA     BYTE      P3
      000000A0H   SFRSYM    DATA     BYTE      P2
      00000090H   SFRSYM    DATA     BYTE      P1
      00000080H   SFRSYM    DATA     BYTE      P0

      ---         MODULE    ---      ---       drv8701_dual
      00FF7BC3H   PUBLIC    CODE     ---       drv8701_control
      00FFA271H   PUBLIC    CODE     ---       drv8701_init
      00FFA06AH   PUBLIC    CODE     ---       drv8701_stop
      000000D0H   SFRSYM    DATA     BYTE      PSW
      0000009DH   SFRSYM    DATA     BYTE      IRCBAND
      00000097H   SFRSYM    DATA     BYTE      AUXR2
      000000EFH   SFRSYM    DATA     BYTE      AUXINTIF
      000000FDH   SFRSYM    DATA     BYTE      S4CON
      000000ACH   SFRSYM    DATA     BYTE      S3CON
      0000009AH   SFRSYM    DATA     BYTE      S2CON
      000000B7H   SFRSYM    DATA     BYTE      IPH
      000000CDH   SFRSYM    DATA     BYTE      SPSTAT
      000000DDH   SFRSYM    DATA     BYTE      T4T3M
      000000C1H   SFRSYM    DATA     BYTE      WDT_CONTR
      000000DFH   SFRSYM    DATA     BYTE      IP3
      000000F4H   SFRSYM    DATA     BYTE      USBCON
      000000B5H   SFRSYM    DATA     BYTE      IP2
      000000FFH   SFRSYM    DATA     BYTE      RSTCFG
      000000C7H   SFRSYM    DATA     BYTE      IAP_CONTR
      000000F9H   SFRSYM    DATA     BYTE      LINICR
      0000008EH   SFRSYM    DATA     BYTE      AUXR
      000000AFH   SFRSYM    DATA     BYTE      IE2
      000000A0H.4 SFRSYM    DATA     BIT       P24
      00000088H   SFRSYM    DATA     BYTE      TCON
      00000089H   SFRSYM    DATA     BYTE      TMOD
      00000098H   SFRSYM    DATA     BYTE      SCON
      000000F1H   SFRSYM    DATA     BYTE      CANICR
      00000087H   SFRSYM    DATA     BYTE      PCON
      00000090H.0 SFRSYM    DATA     BIT       P10
      000000BCH   SFRSYM    DATA     BYTE      ADC_CONTR
      000000E7H   SFRSYM    DATA     BYTE      CMPCR2
      000000E6H   SFRSYM    DATA     BYTE      CMPCR1
      000000DEH   SFRSYM    DATA     BYTE      ADCCFG
      000000B8H   SFRSYM    DATA     BYTE      IP
      0000008FH   SFRSYM    DATA     BYTE      INTCLKO
      000000EEH   SFRSYM    DATA     BYTE      IP3H
      000000B6H   SFRSYM    DATA     BYTE      IP2H
L251 LINKER/LOCATER V4.66.93.0                                                        11/20/2024  19:22:33  PAGE 137


      000000A8H   SFRSYM    DATA     BYTE      IE
      000000BBH   SFRSYM    DATA     BYTE      P_SW3
      000000BAH   SFRSYM    DATA     BYTE      P_SW2
      000000A2H   SFRSYM    DATA     BYTE      P_SW1
      000000CEH   SFRSYM    DATA     BYTE      SPCTL
      000000F8H   SFRSYM    DATA     BYTE      P7
      000000E8H   SFRSYM    DATA     BYTE      P6
      000000C8H   SFRSYM    DATA     BYTE      P5
      000000C0H   SFRSYM    DATA     BYTE      P4
      000000B0H   SFRSYM    DATA     BYTE      P3
      000000A0H   SFRSYM    DATA     BYTE      P2
      00000090H   SFRSYM    DATA     BYTE      P1
      00000080H   SFRSYM    DATA     BYTE      P0

      00FFA271H   BLOCK     CODE     ---       LVL=0
      00FFA271H   LINE      CODE     ---       #31
      00FFA271H   LINE      CODE     ---       #34
      00FFA282H   LINE      CODE     ---       #35
      00FFA293H   LINE      CODE     ---       #38
      00FFA2A0H   LINE      CODE     ---       #39
      00FFA2ADH   LINE      CODE     ---       #40
      ---         BLOCKEND  ---      ---       LVL=0

      00FF7BC3H   BLOCK     CODE     ---       LVL=0
      000011D1H   SYMBOL    EDATA    INT       motor_select
      000011D3H   SYMBOL    EDATA    LONG      speed
      00FF7BC3H   LINE      CODE     ---       #47
      00FF7BCBH   LINE      CODE     ---       #49
      00FF7BD5H   LINE      CODE     ---       #51
      00FF7BDDH   LINE      CODE     ---       #52
      00FF7BDFH   LINE      CODE     ---       #53
      00FF7BE9H   LINE      CODE     ---       #55
      00FF7BF1H   LINE      CODE     ---       #56
      00FF7BF1H   LINE      CODE     ---       #57
      00FF7C07H   LINE      CODE     ---       #58
      00FF7C1DH   LINE      CODE     ---       #60
      00FF7C27H   LINE      CODE     ---       #62
      00FF7C2AH   LINE      CODE     ---       #63
      00FF7C35H   LINE      CODE     ---       #64
      00FF7C37H   LINE      CODE     ---       #67
      00FF7C3AH   LINE      CODE     ---       #68
      00FF7C4FH   LINE      CODE     ---       #69
      00FF7C4FH   LINE      CODE     ---       #70
      00FF7C4FH   LINE      CODE     ---       #71
      00FF7C67H   LINE      CODE     ---       #73
      00FF7C71H   LINE      CODE     ---       #75
      00FF7C74H   LINE      CODE     ---       #76
      00FF7C7FH   LINE      CODE     ---       #77
      00FF7C81H   LINE      CODE     ---       #80
      00FF7C84H   LINE      CODE     ---       #81
      00FF7C99H   LINE      CODE     ---       #82
      00FF7C99H   LINE      CODE     ---       #83
      ---         BLOCKEND  ---      ---       LVL=0

      00FFA06AH   BLOCK     CODE     ---       LVL=0
      000012FEH   SYMBOL    EDATA    INT       motor_select
      00FFA06AH   LINE      CODE     ---       #90
      00FFA06EH   LINE      CODE     ---       #92
      00FFA084H   LINE      CODE     ---       #94
      00FFA08DH   LINE      CODE     ---       #95
      00FFA08DH   LINE      CODE     ---       #97
      00FFA0A5H   LINE      CODE     ---       #99
      00FFA0AEH   LINE      CODE     ---       #100
      ---         BLOCKEND  ---      ---       LVL=0

L251 LINKER/LOCATER V4.66.93.0                                                        11/20/2024  19:22:33  PAGE 138


      ---         MODULE    ---      ---       servo
      00FF96ECH   PUBLIC    CODE     ---       servo_set_position
      00FFAB1AH   PUBLIC    CODE     ---       servo_init
      00000EB4H   PUBLIC    EDATA    CHAR      servo_position
      00000EB7H   PUBLIC    EDATA    FLOAT     servo_Kd
      00000EBBH   PUBLIC    EDATA    FLOAT     servo_Kp
      000000D0H   SFRSYM    DATA     BYTE      PSW
      0000009DH   SFRSYM    DATA     BYTE      IRCBAND
      00000097H   SFRSYM    DATA     BYTE      AUXR2
      000000EFH   SFRSYM    DATA     BYTE      AUXINTIF
      000000FDH   SFRSYM    DATA     BYTE      S4CON
      000000ACH   SFRSYM    DATA     BYTE      S3CON
      0000009AH   SFRSYM    DATA     BYTE      S2CON
      000000B7H   SFRSYM    DATA     BYTE      IPH
      000000CDH   SFRSYM    DATA     BYTE      SPSTAT
      000000DDH   SFRSYM    DATA     BYTE      T4T3M
      000000C1H   SFRSYM    DATA     BYTE      WDT_CONTR
      000000DFH   SFRSYM    DATA     BYTE      IP3
      000000F4H   SFRSYM    DATA     BYTE      USBCON
      000000B5H   SFRSYM    DATA     BYTE      IP2
      000000FFH   SFRSYM    DATA     BYTE      RSTCFG
      000000C7H   SFRSYM    DATA     BYTE      IAP_CONTR
      000000F9H   SFRSYM    DATA     BYTE      LINICR
      0000008EH   SFRSYM    DATA     BYTE      AUXR
      000000AFH   SFRSYM    DATA     BYTE      IE2
      00000088H   SFRSYM    DATA     BYTE      TCON
      00000089H   SFRSYM    DATA     BYTE      TMOD
      00000098H   SFRSYM    DATA     BYTE      SCON
      000000F1H   SFRSYM    DATA     BYTE      CANICR
      00000087H   SFRSYM    DATA     BYTE      PCON
      000000BCH   SFRSYM    DATA     BYTE      ADC_CONTR
      000000E7H   SFRSYM    DATA     BYTE      CMPCR2
      000000E6H   SFRSYM    DATA     BYTE      CMPCR1
      000000DEH   SFRSYM    DATA     BYTE      ADCCFG
      000000B8H   SFRSYM    DATA     BYTE      IP
      0000008FH   SFRSYM    DATA     BYTE      INTCLKO
      000000EEH   SFRSYM    DATA     BYTE      IP3H
      000000B6H   SFRSYM    DATA     BYTE      IP2H
      000000A8H   SFRSYM    DATA     BYTE      IE
      000000BBH   SFRSYM    DATA     BYTE      P_SW3
      000000BAH   SFRSYM    DATA     BYTE      P_SW2
      000000A2H   SFRSYM    DATA     BYTE      P_SW1
      000000CEH   SFRSYM    DATA     BYTE      SPCTL
      000000F8H   SFRSYM    DATA     BYTE      P7
      000000E8H   SFRSYM    DATA     BYTE      P6
      000000C8H   SFRSYM    DATA     BYTE      P5
      000000C0H   SFRSYM    DATA     BYTE      P4
      000000B0H   SFRSYM    DATA     BYTE      P3
      000000A0H   SFRSYM    DATA     BYTE      P2
      00000090H   SFRSYM    DATA     BYTE      P1
      00000080H   SFRSYM    DATA     BYTE      P0
      00000EB5H   SYMBOL    EDATA    INT       previous_error

      00FFAB1AH   BLOCK     CODE     ---       LVL=0
      00001267H   SYMBOL    EDATA    DWORD     duty
      00FFAB1AH   LINE      CODE     ---       #42
      00FFAB1AH   LINE      CODE     ---       #43
      00FFAB1AH   LINE      CODE     ---       #44
      00FFAB22H   LINE      CODE     ---       #45
      00FFAB31H   LINE      CODE     ---       #46
      ---         BLOCKEND  ---      ---       LVL=0

      00FF96ECH   BLOCK     CODE     ---       LVL=0
      000011D7H   SYMBOL    EDATA    INT       angle
      00FF96F0H   BLOCK     CODE     NEAR LAB  LVL=1
L251 LINKER/LOCATER V4.66.93.0                                                        11/20/2024  19:22:33  PAGE 139


      000011D9H   SYMBOL    EDATA    DWORD     pulseWide
      ---         BLOCKEND  ---      ---       LVL=1
      00FF96ECH   LINE      CODE     ---       #56
      00FF96F0H   LINE      CODE     ---       #57
      00FF96F0H   LINE      CODE     ---       #58
      00FF96F8H   LINE      CODE     ---       #59
      00FF9704H   LINE      CODE     ---       #61
      00FF970CH   LINE      CODE     ---       #62
      00FF970CH   LINE      CODE     ---       #63
      00FF9718H   LINE      CODE     ---       #65
      00FF9720H   LINE      CODE     ---       #66
      00FF9720H   LINE      CODE     ---       #67
      00FF9732H   LINE      CODE     ---       #68
      00FF973DH   LINE      CODE     ---       #69
      00FF9745H   LINE      CODE     ---       #70
      ---         BLOCKEND  ---      ---       LVL=0

      ---         MODULE    ---      ---       battery
      00FFAD1AH   PUBLIC    CODE     ---       Beep_init
      00FF9340H   PUBLIC    CODE     ---       get_battery_percentage
      00FFAD29H   PUBLIC    CODE     ---       Beep_set
      00FF92DCH   PUBLIC    CODE     ---       get_battery_voltage
      00000F55H   PUBLIC    EDATA    WORD      battery_percentage
      00000F57H   PUBLIC    EDATA    DWORD     temp
      00000F5BH   PUBLIC    EDATA    WORD      ad_result
      00000F5DH   PUBLIC    EDATA    WORD      battery_voltage
      000000D0H   SFRSYM    DATA     BYTE      PSW
      0000009DH   SFRSYM    DATA     BYTE      IRCBAND
      00000097H   SFRSYM    DATA     BYTE      AUXR2
      000000EFH   SFRSYM    DATA     BYTE      AUXINTIF
      000000FDH   SFRSYM    DATA     BYTE      S4CON
      000000ACH   SFRSYM    DATA     BYTE      S3CON
      0000009AH   SFRSYM    DATA     BYTE      S2CON
      000000B7H   SFRSYM    DATA     BYTE      IPH
      000000CDH   SFRSYM    DATA     BYTE      SPSTAT
      000000DDH   SFRSYM    DATA     BYTE      T4T3M
      000000C1H   SFRSYM    DATA     BYTE      WDT_CONTR
      000000DFH   SFRSYM    DATA     BYTE      IP3
      000000F4H   SFRSYM    DATA     BYTE      USBCON
      000000B5H   SFRSYM    DATA     BYTE      IP2
      000000FFH   SFRSYM    DATA     BYTE      RSTCFG
      000000C7H   SFRSYM    DATA     BYTE      IAP_CONTR
      000000F9H   SFRSYM    DATA     BYTE      LINICR
      0000008EH   SFRSYM    DATA     BYTE      AUXR
      000000AFH   SFRSYM    DATA     BYTE      IE2
      00000088H   SFRSYM    DATA     BYTE      TCON
      00000089H   SFRSYM    DATA     BYTE      TMOD
      000000B0H.2 SFRSYM    DATA     BIT       P32
      00000098H   SFRSYM    DATA     BYTE      SCON
      000000F1H   SFRSYM    DATA     BYTE      CANICR
      00000087H   SFRSYM    DATA     BYTE      PCON
      000000BCH   SFRSYM    DATA     BYTE      ADC_CONTR
      000000E7H   SFRSYM    DATA     BYTE      CMPCR2
      000000E6H   SFRSYM    DATA     BYTE      CMPCR1
      000000DEH   SFRSYM    DATA     BYTE      ADCCFG
      000000B8H   SFRSYM    DATA     BYTE      IP
      0000008FH   SFRSYM    DATA     BYTE      INTCLKO
      000000EEH   SFRSYM    DATA     BYTE      IP3H
      000000B6H   SFRSYM    DATA     BYTE      IP2H
      000000A8H   SFRSYM    DATA     BYTE      IE
      000000BBH   SFRSYM    DATA     BYTE      P_SW3
      000000BAH   SFRSYM    DATA     BYTE      P_SW2
      000000A2H   SFRSYM    DATA     BYTE      P_SW1
      000000CEH   SFRSYM    DATA     BYTE      SPCTL
      000000F8H   SFRSYM    DATA     BYTE      P7
L251 LINKER/LOCATER V4.66.93.0                                                        11/20/2024  19:22:33  PAGE 140


      000000E8H   SFRSYM    DATA     BYTE      P6
      000000C8H   SFRSYM    DATA     BYTE      P5
      000000C0H   SFRSYM    DATA     BYTE      P4
      000000B0H   SFRSYM    DATA     BYTE      P3
      000000A0H   SFRSYM    DATA     BYTE      P2
      00000090H   SFRSYM    DATA     BYTE      P1
      00000080H   SFRSYM    DATA     BYTE      P0

      00FFAD1AH   BLOCK     CODE     ---       LVL=0
      00FFAD1AH   LINE      CODE     ---       #36
      00FFAD1AH   LINE      CODE     ---       #37
      00FFAD25H   LINE      CODE     ---       #38
      00FFAD28H   LINE      CODE     ---       #39
      ---         BLOCKEND  ---      ---       LVL=0

      00FFAD29H   BLOCK     CODE     ---       LVL=0
      00001320H   SYMBOL    EDATA    BYTE      status
      00FFAD29H   LINE      CODE     ---       #48
      00FFAD2DH   LINE      CODE     ---       #49
      00FFAD36H   LINE      CODE     ---       #50
      ---         BLOCKEND  ---      ---       LVL=0

      00FF92DCH   BLOCK     CODE     ---       LVL=0
      00FF92DCH   LINE      CODE     ---       #69
      00FF92DCH   LINE      CODE     ---       #70
      00FF92E9H   LINE      CODE     ---       #71
      00FF92FEH   LINE      CODE     ---       #72
      00FF930AH   LINE      CODE     ---       #73
      00FF930CH   LINE      CODE     ---       #74
      00FF931FH   LINE      CODE     ---       #75
      00FF9326H   LINE      CODE     ---       #76
      00FF932FH   LINE      CODE     ---       #78
      00FF933BH   LINE      CODE     ---       #80
      00FF933FH   LINE      CODE     ---       #81
      ---         BLOCKEND  ---      ---       LVL=0

      00FF9340H   BLOCK     CODE     ---       LVL=0
      000010DBH   SYMBOL    EDATA    INT       max_voltage
      000010DDH   SYMBOL    EDATA    INT       min_voltage
      000010DFH   SYMBOL    EDATA    INT       current_voltage
      000010E1H   SYMBOL    EDATA    INT       percentage
      00FF9340H   LINE      CODE     ---       #83
      00FF9340H   LINE      CODE     ---       #84
      00FF9348H   LINE      CODE     ---       #85
      00FF9350H   LINE      CODE     ---       #86
      00FF9357H   LINE      CODE     ---       #87
      00FF9378H   LINE      CODE     ---       #88
      00FF9384H   LINE      CODE     ---       #89
      00FF938CH   LINE      CODE     ---       #90
      00FF938CH   LINE      CODE     ---       #91
      00FF9396H   LINE      CODE     ---       #92
      00FF939CH   LINE      CODE     ---       #93
      00FF939CH   LINE      CODE     ---       #94
      00FF93A0H   LINE      CODE     ---       #95
      ---         BLOCKEND  ---      ---       LVL=0

      ---         MODULE    ---      ---       encoder
      00FFACD2H   PUBLIC    CODE     ---       clear_encoder_distance
      00FF8A9AH   PUBLIC    CODE     ---       encoder_read1
      00FF8894H   PUBLIC    CODE     ---       encoder_read2
      00FFA9DAH   PUBLIC    CODE     ---       get_encoder_distance
      00FF0046H   PUBLIC    CODE     ---       encoder_init
      000000D0H   SFRSYM    DATA     BYTE      PSW
      0000009DH   SFRSYM    DATA     BYTE      IRCBAND
      00000097H   SFRSYM    DATA     BYTE      AUXR2
L251 LINKER/LOCATER V4.66.93.0                                                        11/20/2024  19:22:33  PAGE 141


      000000EFH   SFRSYM    DATA     BYTE      AUXINTIF
      000000FDH   SFRSYM    DATA     BYTE      S4CON
      000000ACH   SFRSYM    DATA     BYTE      S3CON
      0000009AH   SFRSYM    DATA     BYTE      S2CON
      000000B7H   SFRSYM    DATA     BYTE      IPH
      000000CDH   SFRSYM    DATA     BYTE      SPSTAT
      000000DDH   SFRSYM    DATA     BYTE      T4T3M
      000000C1H   SFRSYM    DATA     BYTE      WDT_CONTR
      000000DFH   SFRSYM    DATA     BYTE      IP3
      000000F4H   SFRSYM    DATA     BYTE      USBCON
      000000B5H   SFRSYM    DATA     BYTE      IP2
      000000FFH   SFRSYM    DATA     BYTE      RSTCFG
      000000C7H   SFRSYM    DATA     BYTE      IAP_CONTR
      000000F9H   SFRSYM    DATA     BYTE      LINICR
      0000008EH   SFRSYM    DATA     BYTE      AUXR
      000000AFH   SFRSYM    DATA     BYTE      IE2
      000000B0H.5 SFRSYM    DATA     BIT       P35
      000000C8H.3 SFRSYM    DATA     BIT       P53
      00000088H   SFRSYM    DATA     BYTE      TCON
      00000089H   SFRSYM    DATA     BYTE      TMOD
      00000098H   SFRSYM    DATA     BYTE      SCON
      000000F1H   SFRSYM    DATA     BYTE      CANICR
      00000087H   SFRSYM    DATA     BYTE      PCON
      000000BCH   SFRSYM    DATA     BYTE      ADC_CONTR
      000000E7H   SFRSYM    DATA     BYTE      CMPCR2
      000000E6H   SFRSYM    DATA     BYTE      CMPCR1
      000000DEH   SFRSYM    DATA     BYTE      ADCCFG
      000000B8H   SFRSYM    DATA     BYTE      IP
      0000008FH   SFRSYM    DATA     BYTE      INTCLKO
      000000EEH   SFRSYM    DATA     BYTE      IP3H
      000000B6H   SFRSYM    DATA     BYTE      IP2H
      000000A8H   SFRSYM    DATA     BYTE      IE
      000000BBH   SFRSYM    DATA     BYTE      P_SW3
      000000BAH   SFRSYM    DATA     BYTE      P_SW2
      000000A2H   SFRSYM    DATA     BYTE      P_SW1
      000000CEH   SFRSYM    DATA     BYTE      SPCTL
      000000F8H   SFRSYM    DATA     BYTE      P7
      000000E8H   SFRSYM    DATA     BYTE      P6
      000000C8H   SFRSYM    DATA     BYTE      P5
      000000C0H   SFRSYM    DATA     BYTE      P4
      000000B0H   SFRSYM    DATA     BYTE      P3
      000000A0H   SFRSYM    DATA     BYTE      P2
      00000090H   SFRSYM    DATA     BYTE      P1
      00000080H   SFRSYM    DATA     BYTE      P0
      00000E7CH   SYMBOL    EDATA    DWORD     TravelDistance
      00000E80H   SYMBOL    EDATA    DWORD     TravelDistanceL
      00000E84H   SYMBOL    EDATA    DWORD     TravelDistanceR

      00FF0046H   BLOCK     CODE     ---       LVL=0
      00FF0046H   LINE      CODE     ---       #30
      00FF0046H   LINE      CODE     ---       #33
      00FF004BH   LINE      CODE     ---       #35
      00FF0052H   LINE      CODE     ---       #36
      ---         BLOCKEND  ---      ---       LVL=0

      00FF8A9AH   BLOCK     CODE     ---       LVL=0
      00001300H   SYMBOL    EDATA    INT       dat
      00FF8A9AH   LINE      CODE     ---       #45
      00FF8A9AH   LINE      CODE     ---       #46
      00FF8A9AH   LINE      CODE     ---       #48
      00FF8AA3H   LINE      CODE     ---       #50
      00FF8AACH   LINE      CODE     ---       #51
      00FF8AAEH   LINE      CODE     ---       #54
      00FF8ABDH   LINE      CODE     ---       #55
      00FF8ABDH   LINE      CODE     ---       #56
L251 LINKER/LOCATER V4.66.93.0                                                        11/20/2024  19:22:33  PAGE 142


      00FF8ACFH   LINE      CODE     ---       #57
      00FF8AD4H   LINE      CODE     ---       #58
      00FF8ADBH   LINE      CODE     ---       #59
      00FF8AE4H   LINE      CODE     ---       #61
      00FF8AEDH   LINE      CODE     ---       #62
      00FF8AEFH   LINE      CODE     ---       #65
      00FF8AFEH   LINE      CODE     ---       #66
      00FF8AFEH   LINE      CODE     ---       #67
      00FF8B10H   LINE      CODE     ---       #68
      00FF8B14H   LINE      CODE     ---       #69
      ---         BLOCKEND  ---      ---       LVL=0

      00FF8894H   BLOCK     CODE     ---       LVL=0
      00001302H   SYMBOL    EDATA    INT       dat
      00FF8894H   LINE      CODE     ---       #78
      00FF8894H   LINE      CODE     ---       #79
      00FF8894H   LINE      CODE     ---       #81
      00FF889DH   LINE      CODE     ---       #83
      00FF88A8H   LINE      CODE     ---       #84
      00FF88AAH   LINE      CODE     ---       #87
      00FF88BBH   LINE      CODE     ---       #88
      00FF88BBH   LINE      CODE     ---       #89
      00FF88CDH   LINE      CODE     ---       #90
      00FF88D4H   LINE      CODE     ---       #91
      00FF88DBH   LINE      CODE     ---       #92
      00FF88E4H   LINE      CODE     ---       #94
      00FF88EFH   LINE      CODE     ---       #95
      00FF88F1H   LINE      CODE     ---       #98
      00FF8902H   LINE      CODE     ---       #99
      00FF8902H   LINE      CODE     ---       #100
      00FF8914H   LINE      CODE     ---       #101
      00FF8918H   LINE      CODE     ---       #102
      ---         BLOCKEND  ---      ---       LVL=0

      00FFA9DAH   BLOCK     CODE     ---       LVL=0
      00FFA9DAH   LINE      CODE     ---       #111
      00FFA9DAH   LINE      CODE     ---       #113
      00FFA9DDH   LINE      CODE     ---       #114
      00FFA9E0H   LINE      CODE     ---       #115
      00FFA9F7H   LINE      CODE     ---       #116
      00FFA9F7H   LINE      CODE     ---       #117
      ---         BLOCKEND  ---      ---       LVL=0

      00FFACD2H   BLOCK     CODE     ---       LVL=0
      00FFACD2H   LINE      CODE     ---       #124
      00FFACD2H   LINE      CODE     ---       #126
      00FFACD8H   LINE      CODE     ---       #127
      00FFACDEH   LINE      CODE     ---       #128
      00FFACE4H   LINE      CODE     ---       #129
      ---         BLOCKEND  ---      ---       LVL=0

      ---         MODULE    ---      ---       line
      00FFA7C4H   PUBLIC    CODE     ---       Line_init
      00FF7F0AH   PUBLIC    CODE     ---       Line_read_raw
      00FF6DEAH   PUBLIC    CODE     ---       Remote_Stop
      000010E3H   PUBLIC    EDATA    ---       adc_value
      000000D0H   SFRSYM    DATA     BYTE      PSW
      0000009DH   SFRSYM    DATA     BYTE      IRCBAND
      00000097H   SFRSYM    DATA     BYTE      AUXR2
      000000EFH   SFRSYM    DATA     BYTE      AUXINTIF
      000000FDH   SFRSYM    DATA     BYTE      S4CON
      000000ACH   SFRSYM    DATA     BYTE      S3CON
      0000009AH   SFRSYM    DATA     BYTE      S2CON
      000000B7H   SFRSYM    DATA     BYTE      IPH
      000000CDH   SFRSYM    DATA     BYTE      SPSTAT
L251 LINKER/LOCATER V4.66.93.0                                                        11/20/2024  19:22:33  PAGE 143


      000000DDH   SFRSYM    DATA     BYTE      T4T3M
      000000C1H   SFRSYM    DATA     BYTE      WDT_CONTR
      000000DFH   SFRSYM    DATA     BYTE      IP3
      000000F4H   SFRSYM    DATA     BYTE      USBCON
      000000B5H   SFRSYM    DATA     BYTE      IP2
      000000FFH   SFRSYM    DATA     BYTE      RSTCFG
      000000C7H   SFRSYM    DATA     BYTE      IAP_CONTR
      000000F9H   SFRSYM    DATA     BYTE      LINICR
      0000008EH   SFRSYM    DATA     BYTE      AUXR
      000000AFH   SFRSYM    DATA     BYTE      IE2
      00000088H   SFRSYM    DATA     BYTE      TCON
      00000089H   SFRSYM    DATA     BYTE      TMOD
      00000098H   SFRSYM    DATA     BYTE      SCON
      000000F1H   SFRSYM    DATA     BYTE      CANICR
      00000087H   SFRSYM    DATA     BYTE      PCON
      000000BCH   SFRSYM    DATA     BYTE      ADC_CONTR
      000000E7H   SFRSYM    DATA     BYTE      CMPCR2
      000000E6H   SFRSYM    DATA     BYTE      CMPCR1
      000000DEH   SFRSYM    DATA     BYTE      ADCCFG
      000000B8H   SFRSYM    DATA     BYTE      IP
      0000008FH   SFRSYM    DATA     BYTE      INTCLKO
      000000EEH   SFRSYM    DATA     BYTE      IP3H
      000000B6H   SFRSYM    DATA     BYTE      IP2H
      000000A8H   SFRSYM    DATA     BYTE      IE
      000000BBH   SFRSYM    DATA     BYTE      P_SW3
      000000BAH   SFRSYM    DATA     BYTE      P_SW2
      000000A2H   SFRSYM    DATA     BYTE      P_SW1
      000000CEH   SFRSYM    DATA     BYTE      SPCTL
      000000F8H   SFRSYM    DATA     BYTE      P7
      000000E8H   SFRSYM    DATA     BYTE      P6
      000000C8H   SFRSYM    DATA     BYTE      P5
      000000C0H   SFRSYM    DATA     BYTE      P4
      000000B0H   SFRSYM    DATA     BYTE      P3
      000000A0H   SFRSYM    DATA     BYTE      P2
      00000090H   SFRSYM    DATA     BYTE      P1
      00000080H   SFRSYM    DATA     BYTE      P0

      00FFA7C4H   BLOCK     CODE     ---       LVL=0
      00FFA7C4H   LINE      CODE     ---       #15
      00FFA7C4H   LINE      CODE     ---       #17
      00FFA7CDH   LINE      CODE     ---       #18
      00FFA7D6H   LINE      CODE     ---       #19
      00FFA7DFH   LINE      CODE     ---       #20
      00FFA7E8H   LINE      CODE     ---       #21
      ---         BLOCKEND  ---      ---       LVL=0

      00FF7F0AH   BLOCK     CODE     ---       LVL=0
      00000F5FH   SYMBOL    EDATA    INT       i
      00000F61H   SYMBOL    EDATA    INT       filter_buffer1
      00000F63H   SYMBOL    EDATA    INT       filter_buffer2
      00000F65H   SYMBOL    EDATA    INT       filter_buffer3
      00000F67H   SYMBOL    EDATA    INT       filter_buffer4
      00FF7F0AH   LINE      CODE     ---       #28
      00FF7F0AH   LINE      CODE     ---       #29
      00FF7F0AH   LINE      CODE     ---       #31
      00FF7F10H   LINE      CODE     ---       #32
      00FF7F16H   LINE      CODE     ---       #33
      00FF7F1CH   LINE      CODE     ---       #34
      00FF7F22H   LINE      CODE     ---       #35
      00FF7F2AH   LINE      CODE     ---       #37
      00FF7F3FH   LINE      CODE     ---       #38
      00FF7F54H   LINE      CODE     ---       #39
      00FF7F69H   LINE      CODE     ---       #40
      00FF7F7EH   LINE      CODE     ---       #41
      00FF7F98H   LINE      CODE     ---       #43
L251 LINKER/LOCATER V4.66.93.0                                                        11/20/2024  19:22:33  PAGE 144


      00FF7FA7H   LINE      CODE     ---       #44
      00FF7FB6H   LINE      CODE     ---       #45
      00FF7FC5H   LINE      CODE     ---       #46
      00FF7FD4H   LINE      CODE     ---       #47
      ---         BLOCKEND  ---      ---       LVL=0
      000008E6H   SYMBOL    EDATA    WORD      min_adc1
      000008E8H   SYMBOL    EDATA    WORD      max_adc1
      000008EAH   SYMBOL    EDATA    WORD      min_adc2
      000008ECH   SYMBOL    EDATA    WORD      max_adc2
      000008EEH   SYMBOL    EDATA    WORD      min_adc3
      000008F0H   SYMBOL    EDATA    WORD      max_adc3
      000008F2H   SYMBOL    EDATA    WORD      min_adc4
      000008F4H   SYMBOL    EDATA    WORD      max_adc4
      000008F6H   SYMBOL    EDATA    ---       buffer

      00FF6DEAH   BLOCK     CODE     ---       LVL=0
      00000346H   SYMBOL    EDATA    ---       str
      00000446H   SYMBOL    EDATA    CHAR      command
      00FF6DEAH   LINE      CODE     ---       #164
      00FF6DEAH   LINE      CODE     ---       #165
      00FF6DEAH   LINE      CODE     ---       #168
      00FF6DFCH   LINE      CODE     ---       #170
      00FF6E03H   LINE      CODE     ---       #171
      00FF6E0FH   LINE      CODE     ---       #172
      00FF6E1FH   LINE      CODE     ---       #173
      00FF6E2BH   LINE      CODE     ---       #174
      00FF6E37H   LINE      CODE     ---       #175
      00FF6E47H   LINE      CODE     ---       #176
      00FF6E47H   LINE      CODE     ---       #178
      00FF6E5AH   LINE      CODE     ---       #181
      00FF6E6EH   LINE      CODE     ---       #183
      00FF6E7AH   LINE      CODE     ---       #184
      00FF6E7AH   LINE      CODE     ---       #185
      00FF6E81H   LINE      CODE     ---       #186
      00FF6E88H   LINE      CODE     ---       #187
      00FF6E9FH   LINE      CODE     ---       #189
      00FF6E9FH   LINE      CODE     ---       #190
      00FF6EAAH   LINE      CODE     ---       #191
      00FF6EB1H   LINE      CODE     ---       #192
      00FF6EB8H   LINE      CODE     ---       #193
      00FF6EBAH   LINE      CODE     ---       #194
      00FF6EBAH   LINE      CODE     ---       #195
      00FF6EC5H   LINE      CODE     ---       #196
      00FF6ECCH   LINE      CODE     ---       #197
      00FF6ED3H   LINE      CODE     ---       #198
      00FF6ED6H   LINE      CODE     ---       #199
      00FF6ED6H   LINE      CODE     ---       #200
      00FF6EE1H   LINE      CODE     ---       #201
      00FF6EE8H   LINE      CODE     ---       #202
      00FF6EEFH   LINE      CODE     ---       #203
      00FF6EF2H   LINE      CODE     ---       #204
      00FF6EF2H   LINE      CODE     ---       #205
      00FF6EFBH   LINE      CODE     ---       #206
      00FF6F02H   LINE      CODE     ---       #207
      00FF6F09H   LINE      CODE     ---       #208
      00FF6F0CH   LINE      CODE     ---       #209
      00FF6F0CH   LINE      CODE     ---       #210
      00FF6F0FH   LINE      CODE     ---       #211
      00FF6F12H   LINE      CODE     ---       #213
      00FF6F12H   LINE      CODE     ---       #214
      00FF6F19H   LINE      CODE     ---       #215
      00FF6F25H   LINE      CODE     ---       #216
      00FF6F35H   LINE      CODE     ---       #217
      00FF6F38H   LINE      CODE     ---       #219
      00FF6F3FH   LINE      CODE     ---       #220
L251 LINKER/LOCATER V4.66.93.0                                                        11/20/2024  19:22:33  PAGE 145


      00FF6F3FH   LINE      CODE     ---       #221
      00FF6F42H   LINE      CODE     ---       #223
      ---         BLOCKEND  ---      ---       LVL=0

      ---         MODULE    ---      ---       straight
      00FF78EDH   PUBLIC    CODE     ---       Line_calculate_position_ring
      00FFA4D9H   PUBLIC    CODE     ---       straight_entrance
      00FF73DCH   PUBLIC    CODE     ---       PID_control_straint
      00FF74E4H   PUBLIC    CODE     ---       PID_control_ring
      00FF708CH   PUBLIC    CODE     ---       Line_calculate_position
      00000560H   PUBLIC    EDATA    INT       angle
      00000562H   PUBLIC    EDATA    FLOAT     MAX_INTEGRAL
      00000566H   PUBLIC    EDATA    FLOAT     Kd
      0000056AH   PUBLIC    EDATA    INT       recv
      0000056CH   PUBLIC    EDATA    FLOAT     Ki
      00000570H   PUBLIC    EDATA    FLOAT     Kp
      00000574H   PUBLIC    EDATA    FLOAT     MAX_DERIVATIVE
      0000057AH   PUBLIC    EDATA    ---       str
      000005BCH   PUBLIC    EDATA    FLOAT     reactFactor
      000005C0H   PUBLIC    EDATA    INT       position
      000000D0H   SFRSYM    DATA     BYTE      PSW
      0000009DH   SFRSYM    DATA     BYTE      IRCBAND
      00000097H   SFRSYM    DATA     BYTE      AUXR2
      000000EFH   SFRSYM    DATA     BYTE      AUXINTIF
      000000FDH   SFRSYM    DATA     BYTE      S4CON
      000000ACH   SFRSYM    DATA     BYTE      S3CON
      0000009AH   SFRSYM    DATA     BYTE      S2CON
      000000B7H   SFRSYM    DATA     BYTE      IPH
      000000CDH   SFRSYM    DATA     BYTE      SPSTAT
      000000DDH   SFRSYM    DATA     BYTE      T4T3M
      000000C1H   SFRSYM    DATA     BYTE      WDT_CONTR
      000000DFH   SFRSYM    DATA     BYTE      IP3
      000000F4H   SFRSYM    DATA     BYTE      USBCON
      000000B5H   SFRSYM    DATA     BYTE      IP2
      000000FFH   SFRSYM    DATA     BYTE      RSTCFG
      000000C7H   SFRSYM    DATA     BYTE      IAP_CONTR
      000000F9H   SFRSYM    DATA     BYTE      LINICR
      0000008EH   SFRSYM    DATA     BYTE      AUXR
      000000AFH   SFRSYM    DATA     BYTE      IE2
      00000088H   SFRSYM    DATA     BYTE      TCON
      00000089H   SFRSYM    DATA     BYTE      TMOD
      00000098H   SFRSYM    DATA     BYTE      SCON
      000000F1H   SFRSYM    DATA     BYTE      CANICR
      00000087H   SFRSYM    DATA     BYTE      PCON
      000000BCH   SFRSYM    DATA     BYTE      ADC_CONTR
      000000E7H   SFRSYM    DATA     BYTE      CMPCR2
      000000E6H   SFRSYM    DATA     BYTE      CMPCR1
      000000DEH   SFRSYM    DATA     BYTE      ADCCFG
      000000B8H   SFRSYM    DATA     BYTE      IP
      0000008FH   SFRSYM    DATA     BYTE      INTCLKO
      000000EEH   SFRSYM    DATA     BYTE      IP3H
      000000B6H   SFRSYM    DATA     BYTE      IP2H
      000000A8H   SFRSYM    DATA     BYTE      IE
      000000BBH   SFRSYM    DATA     BYTE      P_SW3
      000000BAH   SFRSYM    DATA     BYTE      P_SW2
      000000A2H   SFRSYM    DATA     BYTE      P_SW1
      000000CEH   SFRSYM    DATA     BYTE      SPCTL
      000000F8H   SFRSYM    DATA     BYTE      P7
      000000E8H   SFRSYM    DATA     BYTE      P6
      000000C8H   SFRSYM    DATA     BYTE      P5
      000000C0H   SFRSYM    DATA     BYTE      P4
      000000B0H   SFRSYM    DATA     BYTE      P3
      000000A0H   SFRSYM    DATA     BYTE      P2
      00000090H   SFRSYM    DATA     BYTE      P1
      00000080H   SFRSYM    DATA     BYTE      P0
L251 LINKER/LOCATER V4.66.93.0                                                        11/20/2024  19:22:33  PAGE 146


      00000578H   SYMBOL    EDATA    INT       last_error
      000005BAH   SYMBOL    EDATA    INT       integral

      00FFA4D9H   BLOCK     CODE     ---       LVL=0
      00FFA4D9H   LINE      CODE     ---       #26
      00FFA4D9H   LINE      CODE     ---       #28
      00FFA4DCH   LINE      CODE     ---       #29
      00FFA4EBH   LINE      CODE     ---       #30
      00FFA4FAH   LINE      CODE     ---       #31
      00FFA4FAH   LINE      CODE     ---       #33
      00FFA4FDH   LINE      CODE     ---       #34
      00FFA500H   LINE      CODE     ---       #35
      00FFA507H   LINE      CODE     ---       #36
      00FFA509H   LINE      CODE     ---       #37
      00FFA50AH   LINE      CODE     ---       #38
      ---         BLOCKEND  ---      ---       LVL=0

      00FF73DCH   BLOCK     CODE     ---       LVL=0
      00FF73DCH   LINE      CODE     ---       #49
      00FF73DCH   LINE      CODE     ---       #52
      00FF73E3H   LINE      CODE     ---       #53
      00FF73F1H   LINE      CODE     ---       #54
      00FF7445H   LINE      CODE     ---       #55
      00FF744DH   LINE      CODE     ---       #56
      00FF7454H   LINE      CODE     ---       #57
      00FF745FH   LINE      CODE     ---       #59
      00FF7471H   LINE      CODE     ---       #60
      00FF747CH   LINE      CODE     ---       #61
      00FF7493H   LINE      CODE     ---       #62
      00FF74A1H   LINE      CODE     ---       #63
      00FF74B3H   LINE      CODE     ---       #64
      00FF74BEH   LINE      CODE     ---       #65
      00FF74D5H   LINE      CODE     ---       #66
      00FF74E3H   LINE      CODE     ---       #67
      ---         BLOCKEND  ---      ---       LVL=0

      00FF74E4H   BLOCK     CODE     ---       LVL=0
      00FF74E4H   LINE      CODE     ---       #69
      00FF74E4H   LINE      CODE     ---       #72
      00FF74EBH   LINE      CODE     ---       #73
      00FF74F9H   LINE      CODE     ---       #74
      00FF754DH   LINE      CODE     ---       #75
      00FF7555H   LINE      CODE     ---       #76
      00FF755CH   LINE      CODE     ---       #77
      00FF7567H   LINE      CODE     ---       #79
      00FF7579H   LINE      CODE     ---       #80
      00FF7584H   LINE      CODE     ---       #81
      00FF759BH   LINE      CODE     ---       #82
      00FF75A9H   LINE      CODE     ---       #83
      00FF75BBH   LINE      CODE     ---       #84
      00FF75C6H   LINE      CODE     ---       #85
      00FF75DDH   LINE      CODE     ---       #86
      00FF75EBH   LINE      CODE     ---       #87
      ---         BLOCKEND  ---      ---       LVL=0
      00001304H   SYMBOL    EDATA    INT       exception_code

      00FF708CH   BLOCK     CODE     ---       LVL=0
      00000BF7H   SYMBOL    EDATA    FLOAT     adc1
      00000BFBH   SYMBOL    EDATA    FLOAT     adc2
      00000BFFH   SYMBOL    EDATA    FLOAT     adc3
      00000C03H   SYMBOL    EDATA    FLOAT     adc4
      00000C07H   SYMBOL    EDATA    FLOAT     denominator
      00000C0BH   SYMBOL    EDATA    FLOAT     position
      00FF708CH   LINE      CODE     ---       #132
      00FF708CH   LINE      CODE     ---       #133
L251 LINKER/LOCATER V4.66.93.0                                                        11/20/2024  19:22:33  PAGE 147


      00FF708CH   LINE      CODE     ---       #135
      00FF708FH   LINE      CODE     ---       #138
      00FF70AFH   LINE      CODE     ---       #139
      00FF70CFH   LINE      CODE     ---       #140
      00FF70EFH   LINE      CODE     ---       #141
      00FF710FH   LINE      CODE     ---       #143
      00FF712EH   LINE      CODE     ---       #145
      00FF7133H   LINE      CODE     ---       #146
      00FF7136H   LINE      CODE     ---       #147
      00FF7136H   LINE      CODE     ---       #148
      00FF7145H   LINE      CODE     ---       #149
      00FF7149H   LINE      CODE     ---       #150
      00FF7153H   LINE      CODE     ---       #151
      00FF7172H   LINE      CODE     ---       #152
      00FF7195H   LINE      CODE     ---       #153
      00FF71A5H   LINE      CODE     ---       #154
      00FF71ACH   LINE      CODE     ---       #155
      ---         BLOCKEND  ---      ---       LVL=0

      00FF78EDH   BLOCK     CODE     ---       LVL=0
      00000C0FH   SYMBOL    EDATA    FLOAT     adc1
      00000C13H   SYMBOL    EDATA    FLOAT     adc2
      00000C17H   SYMBOL    EDATA    FLOAT     adc3
      00000C1BH   SYMBOL    EDATA    FLOAT     adc4
      00000C1FH   SYMBOL    EDATA    FLOAT     denominator
      00000C23H   SYMBOL    EDATA    FLOAT     position
      00FF78EDH   LINE      CODE     ---       #167
      00FF78EDH   LINE      CODE     ---       #168
      00FF78EDH   LINE      CODE     ---       #170
      00FF78F0H   LINE      CODE     ---       #173
      00FF7910H   LINE      CODE     ---       #174
      00FF7930H   LINE      CODE     ---       #175
      00FF7950H   LINE      CODE     ---       #176
      00FF7970H   LINE      CODE     ---       #177
      00FF797FH   LINE      CODE     ---       #178
      00FF7983H   LINE      CODE     ---       #179
      00FF798DH   LINE      CODE     ---       #180
      00FF79ACH   LINE      CODE     ---       #181
      00FF79CFH   LINE      CODE     ---       #182
      00FF79DFH   LINE      CODE     ---       #183
      00FF79E6H   LINE      CODE     ---       #184
      ---         BLOCKEND  ---      ---       LVL=0

      ---         MODULE    ---      ---       ring
      00FF79E7H   PUBLIC    CODE     ---       ring_handler
      00001321H   PUBLIC    EDATA    BYTE      RING_FLAG
      000000D0H   SFRSYM    DATA     BYTE      PSW
      0000009DH   SFRSYM    DATA     BYTE      IRCBAND
      00000097H   SFRSYM    DATA     BYTE      AUXR2
      000000EFH   SFRSYM    DATA     BYTE      AUXINTIF
      000000FDH   SFRSYM    DATA     BYTE      S4CON
      000000ACH   SFRSYM    DATA     BYTE      S3CON
      0000009AH   SFRSYM    DATA     BYTE      S2CON
      000000B7H   SFRSYM    DATA     BYTE      IPH
      000000CDH   SFRSYM    DATA     BYTE      SPSTAT
      000000DDH   SFRSYM    DATA     BYTE      T4T3M
      000000C1H   SFRSYM    DATA     BYTE      WDT_CONTR
      000000DFH   SFRSYM    DATA     BYTE      IP3
      000000F4H   SFRSYM    DATA     BYTE      USBCON
      000000B5H   SFRSYM    DATA     BYTE      IP2
      000000FFH   SFRSYM    DATA     BYTE      RSTCFG
      000000C7H   SFRSYM    DATA     BYTE      IAP_CONTR
      000000F9H   SFRSYM    DATA     BYTE      LINICR
      0000008EH   SFRSYM    DATA     BYTE      AUXR
      000000AFH   SFRSYM    DATA     BYTE      IE2
L251 LINKER/LOCATER V4.66.93.0                                                        11/20/2024  19:22:33  PAGE 148


      00000088H   SFRSYM    DATA     BYTE      TCON
      00000089H   SFRSYM    DATA     BYTE      TMOD
      00000098H   SFRSYM    DATA     BYTE      SCON
      000000F1H   SFRSYM    DATA     BYTE      CANICR
      00000087H   SFRSYM    DATA     BYTE      PCON
      000000BCH   SFRSYM    DATA     BYTE      ADC_CONTR
      000000E7H   SFRSYM    DATA     BYTE      CMPCR2
      000000E6H   SFRSYM    DATA     BYTE      CMPCR1
      000000DEH   SFRSYM    DATA     BYTE      ADCCFG
      000000B8H   SFRSYM    DATA     BYTE      IP
      0000008FH   SFRSYM    DATA     BYTE      INTCLKO
      000000EEH   SFRSYM    DATA     BYTE      IP3H
      000000B6H   SFRSYM    DATA     BYTE      IP2H
      000000A8H   SFRSYM    DATA     BYTE      IE
      000000BBH   SFRSYM    DATA     BYTE      P_SW3
      000000BAH   SFRSYM    DATA     BYTE      P_SW2
      000000A2H   SFRSYM    DATA     BYTE      P_SW1
      000000CEH   SFRSYM    DATA     BYTE      SPCTL
      000000F8H   SFRSYM    DATA     BYTE      P7
      000000E8H   SFRSYM    DATA     BYTE      P6
      000000C8H   SFRSYM    DATA     BYTE      P5
      000000C0H   SFRSYM    DATA     BYTE      P4
      000000B0H   SFRSYM    DATA     BYTE      P3
      000000A0H   SFRSYM    DATA     BYTE      P2
      00000090H   SFRSYM    DATA     BYTE      P1
      00000080H   SFRSYM    DATA     BYTE      P0

      00FF79E7H   BLOCK     CODE     ---       LVL=0
      000006D1H   SYMBOL    EDATA    DWORD     distance
      000006D5H   SYMBOL    EDATA    DWORD     normal_distance
      000006D9H   SYMBOL    EDATA    DWORD     real_distance
      000006DDH   SYMBOL    EDATA    ---       str
      00FF79E7H   LINE      CODE     ---       #10
      00FF79E7H   LINE      CODE     ---       #11
      00FF79EDH   LINE      CODE     ---       #12
      00FF79F3H   LINE      CODE     ---       #13
      00FF79F9H   LINE      CODE     ---       #15
      00FF79FCH   LINE      CODE     ---       #16
      00FF7A07H   LINE      CODE     ---       #17
      00FF7A1AH   LINE      CODE     ---       #18
      00FF7A2AH   LINE      CODE     ---       #20
      00FF7A2CH   LINE      CODE     ---       #22
      00FF7A49H   LINE      CODE     ---       #23
      00FF7A59H   LINE      CODE     ---       #24
      00FF7A64H   LINE      CODE     ---       #25
      00FF7A72H   LINE      CODE     ---       #26
      00FF7A75H   LINE      CODE     ---       #27
      00FF7A7CH   LINE      CODE     ---       #28
      00FF7A86H   LINE      CODE     ---       #29
      00FF7A95H   LINE      CODE     ---       #30
      00FF7A9CH   LINE      CODE     ---       #31
      00FF7A9EH   LINE      CODE     ---       #33
      00FF7AA9H   LINE      CODE     ---       #34
      00FF7AB7H   LINE      CODE     ---       #35
      00FF7ABEH   LINE      CODE     ---       #36
      00FF7ACEH   LINE      CODE     ---       #37
      00FF7ADDH   LINE      CODE     ---       #38
      ---         BLOCKEND  ---      ---       LVL=0

      ---         MODULE    ---      ---       SEEKFREE_CONFIG
      00FF00A6H   PUBLIC    CODE     ---       dl1b_default_configuration
      00FF012DH   PUBLIC    CODE     ---       imu660ra_config_file

      ---         MODULE    ---      ---       PRINTF
      00FF405AH   PUBLIC    CODE     NEAR LAB  PRINTF
L251 LINKER/LOCATER V4.66.93.0                                                        11/20/2024  19:22:33  PAGE 149



      ---         MODULE    ---      ---       SPRINTF
      00000A98H   PUBLIC    EDATA    ---       ?SPRINTF?BYTE
      00FF4086H   PUBLIC    CODE     NEAR LAB  SPRINTF

      ---         MODULE    ---      ---       ?C?PRNFMT
      00FF40D3H   PUBLIC    CODE     ---       ?C?PRNFMT

      ---         MODULE    ---      ---       ?C?FPCONVERT
      00FF44F0H   PUBLIC    CODE     ---       ?C?FPCONVERT
      00FF45A8H   PUBLIC    CODE     ---       ?C?FPROUND

      ---         MODULE    ---      ---       ?C?FTNPWR
      00FF461BH   PUBLIC    CODE     ---       ?C?FTNPWR

      ---         MODULE    ---      ---       ?C_START
      00FF0000H   PUBLIC    CODE     ---       ?C?STARTUP
      00FF0000H   PUBLIC    CODE     ---       ?C_STARTUP

      ---         MODULE    ---      ---       ?C?INITEDATA
      00FFA1C9H   PUBLIC    CODE     ---       ?C?INITEDATA

      ---         MODULE    ---      ---       ?C?SIDIV
      00FF4652H   PUBLIC    CODE     ---       ?C?SIDIV

      ---         MODULE    ---      ---       ?C?LMUL
      00FF4684H   PUBLIC    CODE     ---       ?C?LMUL

      ---         MODULE    ---      ---       ?C?LIMUL
      00FF4695H   PUBLIC    CODE     ---       ?C?LIMUL

      ---         MODULE    ---      ---       ?C?ULDIV
      00FF46A0H   PUBLIC    CODE     NEAR LAB  ?C?ULDIV
      00FF469EH   PUBLIC    CODE     NEAR LAB  ?C?ULIDIV

      ---         MODULE    ---      ---       ?C?SLDIV
      00FF46F1H   PUBLIC    CODE     NEAR LAB  ?C?SLDIV

      ---         MODULE    ---      ---       ?C?BMOVENP
      00FF4727H   PUBLIC    CODE     ---       ?C?BMOVENP
      00FF4725H   PUBLIC    CODE     ---       ?C?BMOVENP8

      ---         MODULE    ---      ---       STRLEN
      00FFAD37H   PUBLIC    CODE     ---       strlen?_

      ---         MODULE    ---      ---       memcpy
      00FFA7E9H   PUBLIC    CODE     ---       memcpy?_

      ---         MODULE    ---      ---       memset
      00FFAB00H   PUBLIC    CODE     ---       memset?_

      ---         MODULE    ---      ---       ?C?INITEDATA_END
      00FFB027H   PUBLIC    HCONST   WORD      ?C?INITEDATA_END



*** WARNING L48: IGNORED RECURSIVE CALL
    CALLED:  code_entrance/main
    CALLER:  Remote_Stop/line

Program Size: data=8.0 edata+hdata=5146 xdata=0 const=1722 code=44401
L251 RUN COMPLETE.  1 WARNING(S),  0 ERROR(S)
