L251 LINKER/LOCATER V4.66.93.0                                                          11/18/2024  23:30:20  PAGE 1


L251 LINKER/LOCATER V4.66.93.0, INVOKED BY:
C:\KEIL_V5\C251\BIN\L251.EXE .\Out_File\board.obj, .\Out_File\common.obj, ..\..\Libraries\libraries\STC32_FPMU_LARGE_V1.
>> 0.LIB (STC32F_FPMU), .\Out_File\zf_adc.obj, .\Out_File\zf_delay.obj, .\Out_File\zf_eeprom.obj, .\Out_File\zf_exti.obj
>> , .\Out_File\zf_gpio.obj, .\Out_File\zf_iic.obj, .\Out_File\zf_nvic.obj, .\Out_File\zf_pwm.obj, .\Out_File\zf_spi.obj
>> , .\Out_File\zf_tim.obj, .\Out_File\zf_uart.obj, .\Out_File\zf_fifo.obj, .\Out_File\globals.obj, .\Out_File\SEEKFREE_
>> 18TFT.obj, .\Out_File\SEEKFREE_BLUETOOTH_CH9141.obj, ..\..\Libraries\seekfree_peripheral\SEEKFREE_CONFIG.LIB, .\Out_F
>> ile\SEEKFREE_DL1A.obj, .\Out_File\SEEKFREE_DL1B.obj, .\Out_File\SEEKFREE_FONT.obj, .\Out_File\SEEKFREE_FUNCTION.obj, 
>> .\Out_File\SEEKFREE_ICM20602.obj, .\Out_File\SEEKFREE_IMU660RA.obj, .\Out_File\SEEKFREE_IMU963RA.obj, .\Out_File\SEEK
>> FREE_IPS114_SPI.obj, .\Out_File\SEEKFREE_IPS200_SPI.obj, .\Out_File\SEEKFREE_MPU6050.obj, .\Out_File\SEEKFREE_OLED.ob
>> j, .\Out_File\SEEKFREE_TSL1401.obj, .\Out_File\SEEKFREE_VIRSCO.obj, .\Out_File\SEEKFREE_WIRELESS.obj, .\Out_File\isr.
>> obj, .\Out_File\main.obj, .\Out_File\seekfree_assistant.obj, .\Out_File\seekfree_assistant_inface.obj, .\Out_File\drv
>> 8701_dual.obj, .\Out_File\servo.obj, .\Out_File\battery.obj, .\Out_File\encoder.obj, .\Out_File\line.obj, .\Out_File\
>> straight.obj, .\Out_File\ring.obj TO .\Out_File\SEEKFREE PRINT (.\Out_File\SEEKFREE.map) CASE DISABLEWARNING (16, 57)
>>  REMOVEUNUSED CLASSES (EDATA (0X0-0X1FFF), HDATA (0X0-0X1FFF))


CPU MODE:     251 SOURCE MODE
INTR FRAME:   4 BYTES SAVED ON INTERRUPT
MEMORY MODEL: XSMALL WITH FLOATING POINT ARITHMETIC


INPUT MODULES INCLUDED:
  .\Out_File\board.obj (board)
         COMMENT TYPE 0: C251 V5.60.0
  .\Out_File\common.obj (common)
         COMMENT TYPE 0: C251 V5.60.0
  ..\..\Libraries\libraries\STC32_FPMU_LARGE_V1.0.LIB (STC32F_FPMU)
         COMMENT TYPE 0: A251 V4.69.13.0
  .\Out_File\zf_adc.obj (zf_adc)
         COMMENT TYPE 0: C251 V5.60.0
  .\Out_File\zf_delay.obj (zf_delay)
         COMMENT TYPE 0: C251 V5.60.0
  .\Out_File\zf_eeprom.obj (zf_eeprom)
         COMMENT TYPE 0: C251 V5.60.0
  .\Out_File\zf_exti.obj (zf_exti)
         COMMENT TYPE 0: C251 V5.60.0
  .\Out_File\zf_gpio.obj (zf_gpio)
         COMMENT TYPE 0: C251 V5.60.0
  .\Out_File\zf_iic.obj (zf_iic)
         COMMENT TYPE 0: C251 V5.60.0
  .\Out_File\zf_nvic.obj (zf_nvic)
         COMMENT TYPE 0: C251 V5.60.0
  .\Out_File\zf_pwm.obj (zf_pwm)
         COMMENT TYPE 0: C251 V5.60.0
  .\Out_File\zf_spi.obj (zf_spi)
         COMMENT TYPE 0: C251 V5.60.0
  .\Out_File\zf_tim.obj (zf_tim)
         COMMENT TYPE 0: C251 V5.60.0
  .\Out_File\zf_uart.obj (zf_uart)
         COMMENT TYPE 0: C251 V5.60.0
  .\Out_File\zf_fifo.obj (zf_fifo)
         COMMENT TYPE 0: C251 V5.60.0
  .\Out_File\globals.obj (globals)
         COMMENT TYPE 0: C251 V5.60.0
  .\Out_File\SEEKFREE_18TFT.obj (SEEKFREE_18TFT)
         COMMENT TYPE 0: C251 V5.60.0
  .\Out_File\SEEKFREE_BLUETOOTH_CH9141.obj (SEEKFREE_BLUETOOTH_CH9141)
         COMMENT TYPE 0: C251 V5.60.0
  .\Out_File\SEEKFREE_DL1A.obj (SEEKFREE_DL1A)
         COMMENT TYPE 0: C251 V5.60.0
  .\Out_File\SEEKFREE_DL1B.obj (SEEKFREE_DL1B)
         COMMENT TYPE 0: C251 V5.60.0
  .\Out_File\SEEKFREE_FONT.obj (SEEKFREE_FONT)
         COMMENT TYPE 0: C251 V5.60.0
  .\Out_File\SEEKFREE_FUNCTION.obj (SEEKFREE_FUNCTION)
         COMMENT TYPE 0: C251 V5.60.0
L251 LINKER/LOCATER V4.66.93.0                                                        11/18/2024  23:30:20  PAGE 2


  .\Out_File\SEEKFREE_ICM20602.obj (SEEKFREE_ICM20602)
         COMMENT TYPE 0: C251 V5.60.0
  .\Out_File\SEEKFREE_IMU660RA.obj (SEEKFREE_IMU660RA)
         COMMENT TYPE 0: C251 V5.60.0
  .\Out_File\SEEKFREE_IMU963RA.obj (SEEKFREE_IMU963RA)
         COMMENT TYPE 0: C251 V5.60.0
  .\Out_File\SEEKFREE_IPS114_SPI.obj (SEEKFREE_IPS114_SPI)
         COMMENT TYPE 0: C251 V5.60.0
  .\Out_File\SEEKFREE_IPS200_SPI.obj (SEEKFREE_IPS200_SPI)
         COMMENT TYPE 0: C251 V5.60.0
  .\Out_File\SEEKFREE_MPU6050.obj (SEEKFREE_MPU6050)
         COMMENT TYPE 0: C251 V5.60.0
  .\Out_File\SEEKFREE_OLED.obj (SEEKFREE_OLED)
         COMMENT TYPE 0: C251 V5.60.0
  .\Out_File\SEEKFREE_TSL1401.obj (SEEKFREE_TSL1401)
         COMMENT TYPE 0: C251 V5.60.0
  .\Out_File\SEEKFREE_VIRSCO.obj (SEEKFREE_VIRSCO)
         COMMENT TYPE 0: C251 V5.60.0
  .\Out_File\SEEKFREE_WIRELESS.obj (SEEKFREE_WIRELESS)
         COMMENT TYPE 0: C251 V5.60.0
  .\Out_File\isr.obj (isr)
         COMMENT TYPE 0: C251 V5.60.0
  .\Out_File\main.obj (main)
         COMMENT TYPE 0: C251 V5.60.0
  .\Out_File\seekfree_assistant.obj (seekfree_assistant)
         COMMENT TYPE 0: C251 V5.60.0
  .\Out_File\seekfree_assistant_inface.obj (seekfree_assistant_inface)
         COMMENT TYPE 0: C251 V5.60.0
  .\Out_File\drv8701_dual.obj (drv8701_dual)
         COMMENT TYPE 0: C251 V5.60.0
  .\Out_File\servo.obj (servo)
         COMMENT TYPE 0: C251 V5.60.0
  .\Out_File\battery.obj (battery)
         COMMENT TYPE 0: C251 V5.60.0
  .\Out_File\encoder.obj (encoder)
         COMMENT TYPE 0: C251 V5.60.0
  .\Out_File\line.obj (line)
         COMMENT TYPE 0: C251 V5.60.0
  .\Out_File\straight.obj (straight)
         COMMENT TYPE 0: C251 V5.60.0
  .\Out_File\ring.obj (ring)
         COMMENT TYPE 0: C251 V5.60.0
  ..\..\Libraries\seekfree_peripheral\SEEKFREE_CONFIG.LIB (SEEKFREE_CONFIG)
         COMMENT TYPE 0: C251 V5.60.0
  C:\KEIL_V5\C251\LIB\C2SFPXS.LIB (PRINTF)
         COMMENT TYPE 0: A251 V4.69.6.0
  C:\KEIL_V5\C251\LIB\C2SFPXS.LIB (SPRINTF)
         COMMENT TYPE 0: A251 V4.69.6.0
  C:\KEIL_V5\C251\LIB\C2SFPXS.LIB (?C?PRNFMT)
         COMMENT TYPE 0: A251 V4.69.6.0
  C:\KEIL_V5\C251\LIB\C2SFPXS.LIB (?C?FPCONVERT)
         COMMENT TYPE 0: A251 V4.69.6.0
  C:\KEIL_V5\C251\LIB\C2SFPXS.LIB (?C?FTNPWR)
         COMMENT TYPE 0: A251 V4.69.6.0
  C:\KEIL_V5\C251\LIB\C2SXS.LIB (?C_START)
         COMMENT TYPE 0: A251 V4.69.6.0
  C:\KEIL_V5\C251\LIB\C2SXS.LIB (?C?INITEDATA)
         COMMENT TYPE 0: A251 V4.69.6.0
  C:\KEIL_V5\C251\LIB\C2SXS.LIB (?C?SIDIV)
         COMMENT TYPE 0: A251 V4.69.6.0
  C:\KEIL_V5\C251\LIB\C2SXS.LIB (?C?LMUL)
         COMMENT TYPE 0: A251 V4.69.6.0
  C:\KEIL_V5\C251\LIB\C2SXS.LIB (?C?LIMUL)
         COMMENT TYPE 0: A251 V4.69.6.0
  C:\KEIL_V5\C251\LIB\C2SXS.LIB (?C?ULDIV)
L251 LINKER/LOCATER V4.66.93.0                                                        11/18/2024  23:30:20  PAGE 3


         COMMENT TYPE 0: A251 V4.69.6.0
  C:\KEIL_V5\C251\LIB\C2SXS.LIB (?C?SLDIV)
         COMMENT TYPE 0: A251 V4.69.6.0
  C:\KEIL_V5\C251\LIB\C2SXS.LIB (?C?BMOVENP)
         COMMENT TYPE 0: A251 V4.69.6.0
  C:\KEIL_V5\C251\LIB\C2SXS.LIB (STRLEN)
         COMMENT TYPE 0: C251 V5.58.7
  C:\KEIL_V5\C251\LIB\C2SXS.LIB (memcpy)
         COMMENT TYPE 0: C251 V5.58.7
  C:\KEIL_V5\C251\LIB\C2SXS.LIB (memset)
         COMMENT TYPE 0: C251 V5.58.7
  C:\KEIL_V5\C251\LIB\C2SXS.LIB (?C?INITEDATA_END)
         COMMENT TYPE 0: A251 V4.69.6.0


ACTIVE MEMORY CLASSES OF MODULE:  .\Out_File\SEEKFREE (board)

BASE        START       END         USED      MEMORY CLASS
==========================================================
000000H     000000H     001FFFH     0013D1H   EDATA
000000H     000000H     001FFFH               HDATA
FF0000H     FF0000H     FFFFFFH     00AAECH   CODE
000000H     FF0000H     FFFFFFH     0005F0H   HCONST
FF0000H     FF0000H     FFFFFFH     000004H   CONST
000000H     000000H     00007FH     000008H   DATA


MEMORY MAP OF MODULE:  .\Out_File\SEEKFREE (board)


START     STOP      LENGTH    ALIGN  RELOC    MEMORY CLASS   SEGMENT NAME
=========================================================================
000000H   000007H   000008H   ---    AT..     DATA           "REG BANK 0"
000008H   000208H   000201H   BYTE   UNIT     EDATA          ?ED?SEEKFREE_TSL1401
000209H   000345H   00013DH   BYTE   UNIT     EDATA          ?ED?SEEKFREE_ASSISTANT
000346H   00044BH   000106H   BYTE   UNIT     EDATA          ?ED?RING_HANDLER?RING
00044CH   0004D8H   00008DH   BYTE   UNIT     EDATA          ?ED?SEEKFREE_ASSISTANT_DATA_ANALYSIS?SEEKFREE_ASSISTANT
0004D9H   000564H   00008CH   BYTE   UNIT     EDATA          ?ED?DL1B_INIT?SEEKFREE_DL1B
000565H   0005C6H   000062H   BYTE   UNIT     EDATA          ?ED?STRAIGHT
0005C7H   000625H   00005FH   BYTE   UNIT     EDATA          ?ED?ZF_SPRINTF?SEEKFREE_FUNCTION
000626H   00067DH   000058H   BYTE   UNIT     EDATA          ?ED?SEEKFREE_BLUETOOTH_CH9141
00067EH   0006D5H   000058H   BYTE   UNIT     EDATA          ?ED?SEEKFREE_WIRELESS
0006D6H   000717H   000042H   BYTE   UNIT     EDATA          ?ED?MAIN?MAIN
000718H   00074FH   000038H   BYTE   UNIT     EDATA          ?ED?FUNC_DOUBLE_TO_STR?SEEKFREE_FUNCTION
000750H   00077FH   000030H   BYTE   UNIT     EDATA          ?ED?LCD_SHOWFLOAT_SIMSPI?SEEKFREE_18TFT
000780H   0007AFH   000030H   BYTE   UNIT     EDATA          ?ED?LCD_SHOWFLOAT?SEEKFREE_18TFT
0007B0H   0007DFH   000030H   BYTE   UNIT     EDATA          ?ED?IPS114_SHOWFLOAT_SIMSPI?SEEKFREE_IPS114_SPI
0007E0H   00080FH   000030H   BYTE   UNIT     EDATA          ?ED?IPS114_SHOWFLOAT?SEEKFREE_IPS114_SPI
000810H   00083FH   000030H   BYTE   UNIT     EDATA          ?ED?OLED_PRINTF_FLOAT?SEEKFREE_OLED
000840H   00086FH   000030H   BYTE   UNIT     EDATA          ?ED?OLED_PRINTF_FLOAT_SPI?SEEKFREE_OLED
000870H   00089EH   00002FH   BYTE   UNIT     EDATA          ?ED?DL1A_SET_MEASUREMENT_TIMING_BUDGET?SEEKFREE_DL1A
00089FH   0008CCH   00002EH   BYTE   UNIT     EDATA          ?ED?GET_ADC_RANGE?LINE
0008CDH   0008F8H   00002CH   BYTE   UNIT     EDATA          ?ED?LCD_SHOWINT32_SIMSPI?SEEKFREE_18TFT
0008F9H   000924H   00002CH   BYTE   UNIT     EDATA          ?ED?LCD_SHOWINT32?SEEKFREE_18TFT
000925H   000950H   00002CH   BYTE   UNIT     EDATA          ?ED?IPS114_SHOWINT32_SIMSPI?SEEKFREE_IPS114_SPI
000951H   00097CH   00002CH   BYTE   UNIT     EDATA          ?ED?IPS114_SHOWINT32?SEEKFREE_IPS114_SPI
00097DH   0009A8H   00002CH   BYTE   UNIT     EDATA          ?ED?OLED_PRINTF_INT32?SEEKFREE_OLED
0009A9H   0009D4H   00002CH   BYTE   UNIT     EDATA          ?ED?OLED_PRINTF_INT32_SPI?SEEKFREE_OLED
0009D5H   0009FEH   00002AH   BYTE   UNIT     EDATA          ?ED?FUNC_FLOAT_TO_STR?SEEKFREE_FUNCTION
0009FFH   000A28H   00002AH   BYTE   UNIT     EDATA          ?ED?SEEKFREE_ASSISTANT_OSCILLOSCOPE_SEND?SEEKFREE_ASSISTAN
                                                             -T
000A29H   000A50H   000028H   BYTE   UNIT     EDATA          _EDATA_GROUP_
000A51H   000A75H   000025H   BYTE   UNIT     EDATA          ?ED?FUNC_HEX_TO_STR?SEEKFREE_FUNCTION
000A76H   000A98H   000023H   BYTE   UNIT     EDATA          ?ED?IPS200_SHOW_FLOAT?SEEKFREE_IPS200_SPI
000A99H   000AB8H   000020H   BYTE   UNIT     EDATA          ?ED?IPS200_SHOW_WAVE?SEEKFREE_IPS200_SPI
L251 LINKER/LOCATER V4.66.93.0                                                        11/18/2024  23:30:20  PAGE 4


000AB9H   000AD7H   00001FH   BYTE   UNIT     EDATA          ?ED?DL1A_GET_MEASUREMENT_TIMING_BUDGET?SEEKFREE_DL1A
000AD8H   000AF6H   00001FH   BYTE   UNIT     EDATA          ?ED?SEEKFREE_ASSISTANT_CAMERA_BOUNDARY_CONFIG?SEEKFREE_ASS
                                                             -ISTANT
000AF7H   000B13H   00001DH   BYTE   UNIT     EDATA          ?ED?FUNC_INT_TO_STR?SEEKFREE_FUNCTION
000B14H   000B30H   00001DH   BYTE   UNIT     EDATA          ?ED?IPS200_SHOW_INT?SEEKFREE_IPS200_SPI
000B31H   000B4DH   00001DH   BYTE   UNIT     EDATA          ?ED?IPS200_SHOW_UINT?SEEKFREE_IPS200_SPI
000B4EH   000B66H   000019H   BYTE   UNIT     EDATA          ?ED?FUNC_UINT_TO_STR?SEEKFREE_FUNCTION
000B67H   000B7FH   000019H   BYTE   UNIT     EDATA          ?ED?IPS200_SHOW_CHINESE?SEEKFREE_IPS200_SPI
000B80H   000B97H   000018H   BYTE   UNIT     EDATA          ?ED?FIFO_READ_BUFFER?ZF_FIFO
000B98H   000BAFH   000018H   BYTE   UNIT     EDATA          ?ED?FIFO_READ_TAIL_BUFFER?ZF_FIFO
000BB0H   000BC7H   000018H   BYTE   UNIT     EDATA          ?ED?LINE_CALCULATE_POSITION?STRAIGHT
000BC8H   000BDFH   000018H   BYTE   UNIT     EDATA          ?ED?LINE_CALCULATE_POSITION_RING?STRAIGHT
000BE0H   000BF5H   000016H   BYTE   UNIT     EDATA          ?ED?IPS200_DRAW_LINE?SEEKFREE_IPS200_SPI
000BF6H   000C0AH   000015H   BYTE   UNIT     EDATA          ?ED?DL1A_INIT?SEEKFREE_DL1A
000C0BH   000C1EH   000014H   BYTE   UNIT     EDATA          ?ED?PWM_INIT?ZF_PWM
000C1FH   000C32H   000014H   BYTE   UNIT     EDATA          ?ED?PWM_FREQ?ZF_PWM
000C33H   000C46H   000014H   BYTE   UNIT     EDATA          ?ED?NUMBER_CONVERSION_ASCII?SEEKFREE_FUNCTION
000C47H   000C58H   000012H   BYTE   UNIT     EDATA          ?ED?FIFO_WRITE_BUFFER?ZF_FIFO
000C59H   000C6AH   000012H   BYTE   UNIT     EDATA          ?ED?SEEKFREE_IMU963RA
000C6BH   000C7CH   000012H   BYTE   UNIT     EDATA          ?ED?OLED_DIS_BMP?SEEKFREE_OLED
000C7DH   000C8EH   000012H   BYTE   UNIT     EDATA          ?ED?OLED_DIS_BMP_SPI?SEEKFREE_OLED
000C8FH   000C9FH   000011H   BYTE   UNIT     EDATA          ?ED?FUNC_STR_TO_FLOAT?SEEKFREE_FUNCTION
000CA0H   000CB0H   000011H   BYTE   UNIT     EDATA          ?ED?FUNC_STR_TO_DOUBLE?SEEKFREE_FUNCTION
000CB1H   000CC0H   000010H   BYTE   UNIT     EDATA          ?ED?FIFO_INIT?ZF_FIFO
000CC1H   000CD0H   000010H   BYTE   UNIT     EDATA          ?ED?DL1B_IIC_TRANSFER_8BIT_ARRAY?SEEKFREE_DL1B
000CD1H   000CDFH   00000FH   BYTE   UNIT     EDATA          ?ED?SEEKFREE_ASSISTANT_CAMERA_DATA_SEND?SEEKFREE_ASSISTANT
000CE0H   000CEDH   00000EH   BYTE   UNIT     EDATA          ?ED?PWM_DUTY?ZF_PWM
000CEEH   000CFBH   00000EH   BYTE   UNIT     EDATA          ?ED?UART_INIT?ZF_UART
000CFCH   000D09H   00000EH   BYTE   UNIT     EDATA          ?ED?FUNC_STR_TO_HEX?SEEKFREE_FUNCTION
000D0AH   000D17H   00000EH   BYTE   UNIT     EDATA          ?ED?SEEKFREE_IPS200_SPI
000D18H   000D25H   00000EH   BYTE   UNIT     EDATA          ?ED?OLED_PRINT_CHINESE?SEEKFREE_OLED
000D26H   000D33H   00000EH   BYTE   UNIT     EDATA          ?ED?OLED_PRINT_CHINESE_SPI?SEEKFREE_OLED
000D34H   000D41H   00000EH   BYTE   UNIT     EDATA          ?ED?DATA_CONVERSION?SEEKFREE_VIRSCO
000D42H   000D4EH   00000DH   BYTE   UNIT     EDATA          ?ED?SPI_INIT?ZF_SPI
000D4FH   000D5BH   00000DH   BYTE   UNIT     EDATA          ?ED?PRINTF_REVERSE_ORDER?SEEKFREE_FUNCTION
000D5CH   000D68H   00000DH   BYTE   UNIT     EDATA          ?ED?ICM20602_SIMSPI_R_REG_BYTES?SEEKFREE_ICM20602
000D69H   000D74H   00000CH   BYTE   UNIT     EDATA          ?ED?FIFO_READ_ELEMENT?ZF_FIFO
000D75H   000D80H   00000CH   BYTE   UNIT     EDATA          ?ED?LCD_SHOWINT16_SIMSPI?SEEKFREE_18TFT
000D81H   000D8CH   00000CH   BYTE   UNIT     EDATA          ?ED?LCD_SHOWUINT16_SIMSPI?SEEKFREE_18TFT
000D8DH   000D98H   00000CH   BYTE   UNIT     EDATA          ?ED?LCD_SHOWINT16?SEEKFREE_18TFT
000D99H   000DA4H   00000CH   BYTE   UNIT     EDATA          ?ED?LCD_SHOWUINT16?SEEKFREE_18TFT
000DA5H   000DB0H   00000CH   BYTE   UNIT     EDATA          ?ED?SHOWIMAGE?SEEKFREE_18TFT
000DB1H   000DBCH   00000CH   BYTE   UNIT     EDATA          ?ED?BLUETOOTH_CH9141_READ_BUFF?SEEKFREE_BLUETOOTH_CH9141
000DBDH   000DC8H   00000CH   BYTE   UNIT     EDATA          ?ED?DL1A_GET_SPAD_INFO?SEEKFREE_DL1A
000DC9H   000DD4H   00000CH   BYTE   UNIT     EDATA          ?ED?DL1A_GET_SEQUENCE_STEP_TIMEOUTS?SEEKFREE_DL1A
000DD5H   000DE0H   00000CH   BYTE   UNIT     EDATA          ?ED?SEEKFREE_ICM20602
000DE1H   000DECH   00000CH   BYTE   UNIT     EDATA          ?ED?SEEKFREE_IMU660RA
000DEDH   000DF8H   00000CH   BYTE   UNIT     EDATA          ?ED?IPS114_SHOWINT16_SIMSPI?SEEKFREE_IPS114_SPI
000DF9H   000E04H   00000CH   BYTE   UNIT     EDATA          ?ED?IPS114_SHOWUINT16_SIMSPI?SEEKFREE_IPS114_SPI
000E05H   000E10H   00000CH   BYTE   UNIT     EDATA          ?ED?IPS114_SHOWINT16?SEEKFREE_IPS114_SPI
000E11H   000E1CH   00000CH   BYTE   UNIT     EDATA          ?ED?IPS114_SHOWUINT16?SEEKFREE_IPS114_SPI
000E1DH   000E28H   00000CH   BYTE   UNIT     EDATA          ?ED?SEEKFREE_MPU6050
000E29H   000E34H   00000CH   BYTE   UNIT     EDATA          ?ED?WIRELESS_UART_READ_BUFF?SEEKFREE_WIRELESS
000E35H   000E3FH   00000BH   BYTE   UNIT     EDATA          ?ED?OLED_UINT16?SEEKFREE_OLED
000E40H   000E4AH   00000BH   BYTE   UNIT     EDATA          ?ED?OLED_INT16?SEEKFREE_OLED
000E4BH   000E55H   00000BH   BYTE   UNIT     EDATA          ?ED?OLED_UINT16_SPI?SEEKFREE_OLED
000E56H   000E60H   00000BH   BYTE   UNIT     EDATA          ?ED?OLED_INT16_SPI?SEEKFREE_OLED
000E61H   000E6BH   00000BH   BYTE   UNIT     EDATA          ?ED?SERVO
000E6CH   000E75H   00000AH   BYTE   UNIT     EDATA          ?ED?IAP_READ_BYTES?ZF_EEPROM
000E76H   000E7FH   00000AH   BYTE   UNIT     EDATA          ?ED?IAP_WRITE_BYTES?ZF_EEPROM
000E80H   000E89H   00000AH   BYTE   UNIT     EDATA          ?ED?UART_PUTBUFF?ZF_UART
000E8AH   000E93H   00000AH   BYTE   UNIT     EDATA          ?ED?FIFO_WRITE_ELEMENT?ZF_FIFO
000E94H   000E9DH   00000AH   BYTE   UNIT     EDATA          ?ED?LCD_SHOWSTR_SIMSPI?SEEKFREE_18TFT
000E9EH   000EA7H   00000AH   BYTE   UNIT     EDATA          ?ED?LCD_SHOWSTR?SEEKFREE_18TFT
000EA8H   000EB1H   00000AH   BYTE   UNIT     EDATA          ?ED?BLUETOOTH_CH9141_SEND_BUFF?SEEKFREE_BLUETOOTH_CH9141
L251 LINKER/LOCATER V4.66.93.0                                                        11/18/2024  23:30:20  PAGE 5


000EB2H   000EBBH   00000AH   BYTE   UNIT     EDATA          ?ED?DL1A_SIMIIC_READ_REGS?SEEKFREE_DL1A
000EBCH   000EC5H   00000AH   BYTE   UNIT     EDATA          ?ED?DL1A_SIMIIC_READ_REGS_1?SEEKFREE_DL1A
000EC6H   000ECFH   00000AH   BYTE   UNIT     EDATA          ?ED?DL1A_ENCODE_TIMEOUT?SEEKFREE_DL1A
000ED0H   000ED9H   00000AH   BYTE   UNIT     EDATA          ?ED?IPS114_SHOWSTR_SIMSPI?SEEKFREE_IPS114_SPI
000EDAH   000EE3H   00000AH   BYTE   UNIT     EDATA          ?ED?IPS114_SHOWSTR?SEEKFREE_IPS114_SPI
000EE4H   000EEDH   00000AH   BYTE   UNIT     EDATA          ?ED?IPS200_SHOW_STRING?SEEKFREE_IPS200_SPI
000EEEH   000EF7H   00000AH   BYTE   UNIT     EDATA          ?ED?SEEKFREE_VIRSCO
000EF8H   000F01H   00000AH   BYTE   UNIT     EDATA          ?ED?SEEKFREE_ASSISTANT_CAMERA_INFORMATION_CONFIG?SEEKFREE_
                                                             -ASSISTANT
000F02H   000F0BH   00000AH   BYTE   UNIT     EDATA          ?ED?BATTERY
000F0CH   000F15H   00000AH   BYTE   UNIT     EDATA          ?ED?LINE_READ_RAW?LINE
000F16H   000F1EH   000009H   BYTE   UNIT     EDATA          ?ED?LCD_SHOWINT8_SIMSPI?SEEKFREE_18TFT
000F1FH   000F27H   000009H   BYTE   UNIT     EDATA          ?ED?LCD_SHOWUINT8_SIMSPI?SEEKFREE_18TFT
000F28H   000F30H   000009H   BYTE   UNIT     EDATA          ?ED?LCD_SHOWINT8?SEEKFREE_18TFT
000F31H   000F39H   000009H   BYTE   UNIT     EDATA          ?ED?LCD_SHOWUINT8?SEEKFREE_18TFT
000F3AH   000F42H   000009H   BYTE   UNIT     EDATA          ?ED?DL1A_SIMIIC_WRITE_DATS?SEEKFREE_DL1A
000F43H   000F4BH   000009H   BYTE   UNIT     EDATA          ?ED?DL1A_TIMEOUT_MICROSECONDS_TO_MCLKS?SEEKFREE_DL1A
000F4CH   000F54H   000009H   BYTE   UNIT     EDATA          ?ED?DL1A_SET_SIGNAL_RATE_LIMIT?SEEKFREE_DL1A
000F55H   000F5DH   000009H   BYTE   UNIT     EDATA          ?ED?FUNC_STR_TO_INT?SEEKFREE_FUNCTION
000F5EH   000F66H   000009H   BYTE   UNIT     EDATA          ?ED?ICM20602_READ_REGISTERS?SEEKFREE_ICM20602
000F67H   000F6FH   000009H   BYTE   UNIT     EDATA          ?ED?IMU660RA_SIMSPI_W_REG_BYTES?SEEKFREE_IMU660RA
000F70H   000F78H   000009H   BYTE   UNIT     EDATA          ?ED?IMU660RA_SIMSPI_R_REG_BYTES?SEEKFREE_IMU660RA
000F79H   000F81H   000009H   BYTE   UNIT     EDATA          ?ED?IMU660RA_WRITE_REGISTERS?SEEKFREE_IMU660RA
000F82H   000F8AH   000009H   BYTE   UNIT     EDATA          ?ED?IMU660RA_READ_REGISTERS?SEEKFREE_IMU660RA
000F8BH   000F93H   000009H   BYTE   UNIT     EDATA          ?ED?IMU963RA_SIMSPI_R_REG_BYTES?SEEKFREE_IMU963RA
000F94H   000F9CH   000009H   BYTE   UNIT     EDATA          ?ED?IMU963RA_READ_ACC_GYRO_REGISTERS?SEEKFREE_IMU963RA
000F9DH   000FA5H   000009H   BYTE   UNIT     EDATA          ?ED?IPS114_SHOWINT8_SIMSPI?SEEKFREE_IPS114_SPI
000FA6H   000FAEH   000009H   BYTE   UNIT     EDATA          ?ED?IPS114_SHOWUINT8_SIMSPI?SEEKFREE_IPS114_SPI
000FAFH   000FB7H   000009H   BYTE   UNIT     EDATA          ?ED?IPS114_SHOWINT8?SEEKFREE_IPS114_SPI
000FB8H   000FC0H   000009H   BYTE   UNIT     EDATA          ?ED?IPS114_SHOWUINT8?SEEKFREE_IPS114_SPI
000FC1H   000FC9H   000009H   BYTE   UNIT     EDATA          ?ED?IPS200_SHOW_CHAR?SEEKFREE_IPS200_SPI
000FCAH   000FD2H   000009H   BYTE   UNIT     EDATA          ?ED?OLED_P6X8STR?SEEKFREE_OLED
000FD3H   000FDBH   000009H   BYTE   UNIT     EDATA          ?ED?OLED_P8X16STR?SEEKFREE_OLED
000FDCH   000FE4H   000009H   BYTE   UNIT     EDATA          ?ED?OLED_P6X8STR_SPI?SEEKFREE_OLED
000FE5H   000FEDH   000009H   BYTE   UNIT     EDATA          ?ED?OLED_P8X16STR_SPI?SEEKFREE_OLED
000FEEH   000FF6H   000009H   BYTE   UNIT     EDATA          ?ED?CRC_CHECK?SEEKFREE_VIRSCO
000FF7H   000FFFH   000009H   BYTE   UNIT     EDATA          ?ED?SEEKFREE_ASSISTANT_SUM?SEEKFREE_ASSISTANT
001000H   001007H   000008H   BYTE   UNIT     EDATA          ?ED?SET_CLK?BOARD
001008H   00100FH   000008H   BYTE   UNIT     EDATA          ?ED?FIFO_HEAD_OFFSET?ZF_FIFO
001010H   001017H   000008H   BYTE   UNIT     EDATA          ?ED?FIFO_END_OFFSET?ZF_FIFO
001018H   00101FH   000008H   BYTE   UNIT     EDATA          ?ED?LCD_SET_REGION_SIMSPI?SEEKFREE_18TFT
001020H   001027H   000008H   BYTE   UNIT     EDATA          ?ED?LCD_SHOWCHAR_SIMSPI?SEEKFREE_18TFT
001028H   00102FH   000008H   BYTE   UNIT     EDATA          ?ED?LCD_SET_REGION?SEEKFREE_18TFT
001030H   001037H   000008H   BYTE   UNIT     EDATA          ?ED?LCD_SHOWCHAR?SEEKFREE_18TFT
001038H   00103FH   000008H   BYTE   UNIT     EDATA          ?ED?FUNC_GET_GREATEST_COMMON_DIVISOR?SEEKFREE_FUNCTION
001040H   001047H   000008H   BYTE   UNIT     EDATA          ?ED?FUNC_STR_TO_UINT?SEEKFREE_FUNCTION
001048H   00104FH   000008H   BYTE   UNIT     EDATA          ?ED?IPS114_SET_REGION_SIMSPI?SEEKFREE_IPS114_SPI
001050H   001057H   000008H   BYTE   UNIT     EDATA          ?ED?IPS114_SHOWCHAR_SIMSPI?SEEKFREE_IPS114_SPI
001058H   00105FH   000008H   BYTE   UNIT     EDATA          ?ED?IPS114_SET_REGION?SEEKFREE_IPS114_SPI
001060H   001067H   000008H   BYTE   UNIT     EDATA          ?ED?IPS114_SHOWCHAR?SEEKFREE_IPS114_SPI
001068H   00106FH   000008H   BYTE   UNIT     EDATA          ?ED?IPS200_SET_REGION?SEEKFREE_IPS200_SPI
001070H   001077H   000008H   BYTE   UNIT     EDATA          ?ED?OLED_HEXASCII?SEEKFREE_OLED
001078H   00107FH   000008H   BYTE   UNIT     EDATA          ?ED?OLED_HEXASCII_SPI?SEEKFREE_OLED
001080H   001087H   000008H   BYTE   UNIT     EDATA          ?ED?WIRELESS_UART_SEND_BUFF?SEEKFREE_WIRELESS
001088H   00108FH   000008H   BYTE   UNIT     EDATA          ?ED?GET_BATTERY_PERCENTAGE?BATTERY
001090H   001097H   000008H   BYTE   UNIT     EDATA          ?ED?LINE
001098H   00109EH   000007H   BYTE   UNIT     EDATA          ?ED?IIC_READ_REG_BYTES?ZF_IIC
00109FH   0010A5H   000007H   BYTE   UNIT     EDATA          ?ED?DL1A_TIMEOUT_MCLKS_TO_MICROSECONDS?SEEKFREE_DL1A
0010A6H   0010ACH   000007H   BYTE   UNIT     EDATA          ?ED?IMU660RA_GET_ACC?SEEKFREE_IMU660RA
0010ADH   0010B3H   000007H   BYTE   UNIT     EDATA          ?ED?IMU660RA_GET_GYRO?SEEKFREE_IMU660RA
0010B4H   0010BAH   000007H   BYTE   UNIT     EDATA          ?ED?IMU963RA_GET_MAG?SEEKFREE_IMU963RA
0010BBH   0010C1H   000007H   BYTE   UNIT     EDATA          ?ED?MPU6050_SIMIIC_READ_REGS?SEEKFREE_MPU6050
0010C2H   0010C8H   000007H   BYTE   UNIT     EDATA          ?ED?CCD_SEND_DATA?SEEKFREE_TSL1401
0010C9H   0010CFH   000007H   BYTE   UNIT     EDATA          ?ED?SEEKFREE_ASSISTANT_CAMERA_DOT_SEND?SEEKFREE_ASSISTANT
0010D0H   0010D5H   000006H   BYTE   UNIT     EDATA          ?ED?ADC_ONCE?ZF_ADC
L251 LINKER/LOCATER V4.66.93.0                                                        11/18/2024  23:30:20  PAGE 6


0010D6H   0010DBH   000006H   BYTE   UNIT     EDATA          ?ED?DELAY_US?ZF_DELAY
0010DCH   0010E1H   000006H   BYTE   UNIT     EDATA          ?ED?IIC_INIT?ZF_IIC
0010E2H   0010E7H   000006H   BYTE   UNIT     EDATA          ?ED?IIC_READ_REG?ZF_IIC
0010E8H   0010EDH   000006H   BYTE   UNIT     EDATA          ?ED?PIT_TIMER_MS?ZF_TIM
0010EEH   0010F3H   000006H   BYTE   UNIT     EDATA          ?ED?UART_PUTSTR?ZF_UART
0010F4H   0010F9H   000006H   BYTE   UNIT     EDATA          ?ED?FIFO_CLEAR?ZF_FIFO
0010FAH   0010FFH   000006H   BYTE   UNIT     EDATA          ?ED?LCD_DRAWPOINT_SIMSPI?SEEKFREE_18TFT
001100H   001105H   000006H   BYTE   UNIT     EDATA          ?ED?LCD_DRAWPOINT?SEEKFREE_18TFT
001106H   00110BH   000006H   BYTE   UNIT     EDATA          ?ED?ICM20602_GET_ACC?SEEKFREE_ICM20602
00110CH   001111H   000006H   BYTE   UNIT     EDATA          ?ED?ICM20602_GET_GYRO?SEEKFREE_ICM20602
001112H   001117H   000006H   BYTE   UNIT     EDATA          ?ED?ICM20602_ACC_TRANSITION?SEEKFREE_ICM20602
001118H   00111DH   000006H   BYTE   UNIT     EDATA          ?ED?ICM20602_GYRO_TRANSITION?SEEKFREE_ICM20602
00111EH   001123H   000006H   BYTE   UNIT     EDATA          ?ED?IMU660RA_ACC_TRANSITION?SEEKFREE_IMU660RA
001124H   001129H   000006H   BYTE   UNIT     EDATA          ?ED?IMU660RA_GYRO_TRANSITION?SEEKFREE_IMU660RA
00112AH   00112FH   000006H   BYTE   UNIT     EDATA          ?ED?IMU963RA_WRITE_MAG_REGISTER?SEEKFREE_IMU963RA
001130H   001135H   000006H   BYTE   UNIT     EDATA          ?ED?IMU963RA_GET_ACC?SEEKFREE_IMU963RA
001136H   00113BH   000006H   BYTE   UNIT     EDATA          ?ED?IMU963RA_GET_GYRO?SEEKFREE_IMU963RA
00113CH   001141H   000006H   BYTE   UNIT     EDATA          ?ED?IMU963RA_ACC_TRANSITION?SEEKFREE_IMU963RA
001142H   001147H   000006H   BYTE   UNIT     EDATA          ?ED?IMU963RA_GYRO_TRANSITION?SEEKFREE_IMU963RA
001148H   00114DH   000006H   BYTE   UNIT     EDATA          ?ED?IMU963RA_MAG_TRANSITION?SEEKFREE_IMU963RA
00114EH   001153H   000006H   BYTE   UNIT     EDATA          ?ED?IPS114_CLEAR_SIMSPI?SEEKFREE_IPS114_SPI
001154H   001159H   000006H   BYTE   UNIT     EDATA          ?ED?IPS114_DRAWPOINT_SIMSPI?SEEKFREE_IPS114_SPI
00115AH   00115FH   000006H   BYTE   UNIT     EDATA          ?ED?IPS114_CLEAR?SEEKFREE_IPS114_SPI
001160H   001165H   000006H   BYTE   UNIT     EDATA          ?ED?IPS114_DRAWPOINT?SEEKFREE_IPS114_SPI
001166H   00116BH   000006H   BYTE   UNIT     EDATA          ?ED?IPS200_FULL?SEEKFREE_IPS200_SPI
00116CH   001171H   000006H   BYTE   UNIT     EDATA          ?ED?IPS200_DRAW_POINT?SEEKFREE_IPS200_SPI
001172H   001177H   000006H   BYTE   UNIT     EDATA          ?ED?MPU6050_GET_ACCDATA?SEEKFREE_MPU6050
001178H   00117DH   000006H   BYTE   UNIT     EDATA          ?ED?MPU6050_GET_GYRO?SEEKFREE_MPU6050
00117EH   001183H   000006H   BYTE   UNIT     EDATA          ?ED?DRV8701_CONTROL?DRV8701_DUAL
001184H   001189H   000006H   BYTE   UNIT     EDATA          ?ED?SERVO_SET_POSITION?SERVO
00118AH   00118FH   000006H   BYTE   UNIT     EDATA          ?ED?ENCODER
001190H   001194H   000005H   BYTE   UNIT     EDATA          ?ED?ZF_UART
001195H   001199H   000005H   BYTE   UNIT     EDATA          ?ED?DL1A_GET_SEQUENCE_STEP_ENABLES?SEEKFREE_DL1A
00119AH   00119EH   000005H   BYTE   UNIT     EDATA          ?ED?DL1A_PERFORM_SINGLE_REF_CALIBRATION?SEEKFREE_DL1A
00119FH   0011A3H   000005H   BYTE   UNIT     EDATA          ?ED?DL1B_GET_DISTANCE?SEEKFREE_DL1B
0011A4H   0011A8H   000005H   BYTE   UNIT     EDATA          ?ED?ICM20602_SIMSPI_R_REG_BYTE?SEEKFREE_ICM20602
0011A9H   0011ADH   000005H   BYTE   UNIT     EDATA          ?ED?IMU963RA_SIMSPI_R_REG_BYTE?SEEKFREE_IMU963RA
0011AEH   0011B1H   000004H   BYTE   UNIT     EDATA          ?ED?BOARD
0011B2H   0011B5H   000004H   BYTE   UNIT     EDATA          ?ED?CLOCK_INIT?BOARD
0011B6H   0011B9H   000004H   BYTE   UNIT     EDATA          ?ED?ADC_INIT?ZF_ADC
0011BAH   0011BDH   000004H   BYTE   UNIT     EDATA          ?ED?ZF_DELAY
0011BEH   0011C1H   000004H   BYTE   UNIT     EDATA          ?ED?DELAY_MS?ZF_DELAY
0011C2H   0011C5H   000004H   BYTE   UNIT     EDATA          ?ED?IAP_ERASE_PAGE?ZF_EEPROM
0011C6H   0011C9H   000004H   BYTE   UNIT     EDATA          ?ED?EXIT_INIT?ZF_EXTI
0011CAH   0011CDH   000004H   BYTE   UNIT     EDATA          ?ED?GPIO_PULL_SET?ZF_GPIO
0011CEH   0011D1H   000004H   BYTE   UNIT     EDATA          ?ED?GPIO_MODE?ZF_GPIO
0011D2H   0011D5H   000004H   BYTE   UNIT     EDATA          ?ED?CTIMER_COUNT_READ?ZF_TIM
0011D6H   0011D9H   000004H   BYTE   UNIT     EDATA          ?ED?FIFO_USED?ZF_FIFO
0011DAH   0011DDH   000004H   BYTE   UNIT     EDATA          ?ED?LCD_CLEAR_SIMSPI?SEEKFREE_18TFT
0011DEH   0011E1H   000004H   BYTE   UNIT     EDATA          ?ED?LCD_WRITEDATA_16BIT?SEEKFREE_18TFT
0011E2H   0011E5H   000004H   BYTE   UNIT     EDATA          ?ED?LCD_CLEAR?SEEKFREE_18TFT
0011E6H   0011E9H   000004H   BYTE   UNIT     EDATA          ?ED?SEEKFREE_DL1B
0011EAH   0011EDH   000004H   BYTE   UNIT     EDATA          ?ED?FUNC_SOFT_DELAY?SEEKFREE_FUNCTION
0011EEH   0011F1H   000004H   BYTE   UNIT     EDATA          ?ED?ICM20602_SELF_CHECK?SEEKFREE_ICM20602
0011F2H   0011F5H   000004H   BYTE   UNIT     EDATA          ?ED?ICM20602_INIT?SEEKFREE_ICM20602
0011F6H   0011F9H   000004H   BYTE   UNIT     EDATA          ?ED?IMU660RA_SELF_CHECK?SEEKFREE_IMU660RA
0011FAH   0011FDH   000004H   BYTE   UNIT     EDATA          ?ED?IMU963RA_READ_MAG_REGISTER?SEEKFREE_IMU963RA
0011FEH   001201H   000004H   BYTE   UNIT     EDATA          ?ED?IMU963RA_ACC_GYRO_SELF_CHECK?SEEKFREE_IMU963RA
001202H   001205H   000004H   BYTE   UNIT     EDATA          ?ED?IMU963RA_MAG_SELF_CHECK?SEEKFREE_IMU963RA
001206H   001209H   000004H   BYTE   UNIT     EDATA          ?ED?IPS114_WRITEDATA_16BIT?SEEKFREE_IPS114_SPI
00120AH   00120DH   000004H   BYTE   UNIT     EDATA          ?ED?IPS200_WRITE_16BIT_DATA_SPI?SEEKFREE_IPS200_SPI
00120EH   001211H   000004H   BYTE   UNIT     EDATA          ?ED?IPS200_CLEAR?SEEKFREE_IPS200_SPI
001212H   001215H   000004H   BYTE   UNIT     EDATA          ?ED?IPS200_SET_COLOR?SEEKFREE_IPS200_SPI
001216H   001219H   000004H   BYTE   UNIT     EDATA          ?ED?SEEKFREE_ASSISTANT_INFACE
00121AH   00121DH   000004H   BYTE   UNIT     EDATA          ?ED?SERVO_INIT?SERVO
L251 LINKER/LOCATER V4.66.93.0                                                        11/18/2024  23:30:20  PAGE 7


00121EH   001221H   000004H   BYTE   UNIT     EDATA          ?ED?RING_HANDLER_DEPRECATED?RING
001222H   001224H   000003H   BYTE   UNIT     EDATA          ?ED?IIC_DELAY_US?ZF_IIC
001225H   001227H   000003H   BYTE   UNIT     EDATA          ?ED?WAIT?ZF_IIC
001228H   00122AH   000003H   BYTE   UNIT     EDATA          ?ED?IIC_WRITE_REG?ZF_IIC
00122BH   00122DH   000003H   BYTE   UNIT     EDATA          ?ED?NVIC_SETPRIORITY?ZF_NVIC
00122EH   001230H   000003H   BYTE   UNIT     EDATA          ?ED?UART_PUTCHAR?ZF_UART
001231H   001233H   000003H   BYTE   UNIT     EDATA          ?ED?LCD_WRITEDATA_16BIT_SIMSPI?SEEKFREE_18TFT
001234H   001236H   000003H   BYTE   UNIT     EDATA          ?ED?SEEKFREE_DL1A
001237H   001239H   000003H   BYTE   UNIT     EDATA          ?ED?DL1A_READ_CH?SEEKFREE_DL1A
00123AH   00123CH   000003H   BYTE   UNIT     EDATA          ?ED?DL1A_SIMIIC_WRITE_REG?SEEKFREE_DL1A
00123DH   00123FH   000003H   BYTE   UNIT     EDATA          ?ED?DL1A_SIMIIC_READ_REG?SEEKFREE_DL1A
001240H   001242H   000003H   BYTE   UNIT     EDATA          ?ED?DL1A_GET_VCSEL_PULSE_PERIOD?SEEKFREE_DL1A
001243H   001245H   000003H   BYTE   UNIT     EDATA          ?ED?DL1A_GET_DISTANCE?SEEKFREE_DL1A
001246H   001248H   000003H   BYTE   UNIT     EDATA          ?ED?DL1B_READ_CH?SEEKFREE_DL1B
001249H   00124BH   000003H   BYTE   UNIT     EDATA          ?ED?IMU660RA_READ_REGISTER?SEEKFREE_IMU660RA
00124CH   00124EH   000003H   BYTE   UNIT     EDATA          ?ED?IPS114_WRITEDATAI_16BIT_SIMSPI?SEEKFREE_IPS114_SPI
00124FH   001251H   000003H   BYTE   UNIT     EDATA          ?ED?MPU6050_READ_CH?SEEKFREE_MPU6050
001252H   001254H   000003H   BYTE   UNIT     EDATA          ?ED?MPU6050_SIMIIC_WRITE_REG?SEEKFREE_MPU6050
001255H   001257H   000003H   BYTE   UNIT     EDATA          ?ED?MPU6050_SIMIIC_READ_REG?SEEKFREE_MPU6050
001258H   00125AH   000003H   BYTE   UNIT     EDATA          ?ED?OLED_FILL?SEEKFREE_OLED
00125BH   00125DH   000003H   BYTE   UNIT     EDATA          ?ED?OLED_PUTPIXEL?SEEKFREE_OLED
00125EH   001260H   000003H   BYTE   UNIT     EDATA          ?ED?OLED_FILL_SPI?SEEKFREE_OLED
001261H   001263H   000003H   BYTE   UNIT     EDATA          ?ED?OLED_PUTPIXEL_SPI?SEEKFREE_OLED
001264H   001266H   000003H   BYTE   UNIT     EDATA          ?ED?MAIN
001267H   001268H   000002H   BYTE   UNIT     EDATA          ?ED?COMMON
001269H   00126AH   000002H   BYTE   UNIT     EDATA          ?ED?SEND_DATA?ZF_IIC
00126BH   00126CH   000002H   BYTE   UNIT     EDATA          ?ED?IIC_CHANGE_PIN?ZF_IIC
00126DH   00126EH   000002H   BYTE   UNIT     EDATA          ?ED?PWM_SET_GPIO?ZF_PWM
00126FH   001270H   000002H   BYTE   UNIT     EDATA          ?ED?SPI_CHANGE_PIN?ZF_SPI
001271H   001272H   000002H   BYTE   UNIT     EDATA          ?ED?CTIMER_COUNT_INIT?ZF_TIM
001273H   001274H   000002H   BYTE   UNIT     EDATA          ?ED?CTIMER_COUNT_CLEAN?ZF_TIM
001275H   001276H   000002H   BYTE   UNIT     EDATA          ?ED?LCD_WRITEINDEX_SIMSPI?SEEKFREE_18TFT
001277H   001278H   000002H   BYTE   UNIT     EDATA          ?ED?LCD_WRITEDATA_SIMSPI?SEEKFREE_18TFT
001279H   00127AH   000002H   BYTE   UNIT     EDATA          ?ED?DL1A_SIMIIC_DELAY?SEEKFREE_DL1A
00127BH   00127CH   000002H   BYTE   UNIT     EDATA          ?ED?DL1A_SEND_CH?SEEKFREE_DL1A
00127DH   00127EH   000002H   BYTE   UNIT     EDATA          ?ED?DL1A_DECODE_TIMEOUT?SEEKFREE_DL1A
00127FH   001280H   000002H   BYTE   UNIT     EDATA          ?ED?DL1B_SIMIIC_DELAY?SEEKFREE_DL1B
001281H   001282H   000002H   BYTE   UNIT     EDATA          ?ED?DL1B_SEND_CH?SEEKFREE_DL1B
001283H   001284H   000002H   BYTE   UNIT     EDATA          ?ED?ICM20602_SIMSPI_WR_BYTE?SEEKFREE_ICM20602
001285H   001286H   000002H   BYTE   UNIT     EDATA          ?ED?ICM20602_SIMSPI_W_REG_BYTE?SEEKFREE_ICM20602
001287H   001288H   000002H   BYTE   UNIT     EDATA          ?ED?ICM20602_WRITE_REGISTER?SEEKFREE_ICM20602
001289H   00128AH   000002H   BYTE   UNIT     EDATA          ?ED?ICM20602_READ_REGISTER?SEEKFREE_ICM20602
00128BH   00128CH   000002H   BYTE   UNIT     EDATA          ?ED?IMU660RA_SIMSPI_WR_BYTE?SEEKFREE_IMU660RA
00128DH   00128EH   000002H   BYTE   UNIT     EDATA          ?ED?IMU660RA_SIMSPI_W_REG_BYTE?SEEKFREE_IMU660RA
00128FH   001290H   000002H   BYTE   UNIT     EDATA          ?ED?IMU660RA_WRITE_REGISTER?SEEKFREE_IMU660RA
001291H   001292H   000002H   BYTE   UNIT     EDATA          ?ED?IMU963RA_SIMSPI_WR_BYTE?SEEKFREE_IMU963RA
001293H   001294H   000002H   BYTE   UNIT     EDATA          ?ED?IMU963RA_SIMSPI_W_REG_BYTE?SEEKFREE_IMU963RA
001295H   001296H   000002H   BYTE   UNIT     EDATA          ?ED?IMU963RA_WRITE_ACC_GYRO_REGISTER?SEEKFREE_IMU963RA
001297H   001298H   000002H   BYTE   UNIT     EDATA          ?ED?IMU963RA_READ_ACC_GYRO_REGISTER?SEEKFREE_IMU963RA
001299H   00129AH   000002H   BYTE   UNIT     EDATA          ?ED?IMU963RA_CONNECT_MAG?SEEKFREE_IMU963RA
00129BH   00129CH   000002H   BYTE   UNIT     EDATA          ?ED?IPS114_WRITEINDEX_SIMSPI?SEEKFREE_IPS114_SPI
00129DH   00129EH   000002H   BYTE   UNIT     EDATA          ?ED?IPS114_WRITEDATA_SIMSPI?SEEKFREE_IPS114_SPI
00129FH   0012A0H   000002H   BYTE   UNIT     EDATA          ?ED?IPS200_WRITE_16BIT_DATA?SEEKFREE_IPS200_SPI
0012A1H   0012A2H   000002H   BYTE   UNIT     EDATA          ?ED?IPS200_SET_DIR?SEEKFREE_IPS200_SPI
0012A3H   0012A4H   000002H   BYTE   UNIT     EDATA          ?ED?IPS200_SET_FONT?SEEKFREE_IPS200_SPI
0012A5H   0012A6H   000002H   BYTE   UNIT     EDATA          ?ED?MPU6050_SIMIIC_DELAY?SEEKFREE_MPU6050
0012A7H   0012A8H   000002H   BYTE   UNIT     EDATA          ?ED?MPU6050_SEND_CH?SEEKFREE_MPU6050
0012A9H   0012AAH   000002H   BYTE   UNIT     EDATA          ?ED?OLED_WRDAT?SEEKFREE_OLED
0012ABH   0012ACH   000002H   BYTE   UNIT     EDATA          ?ED?OLED_WRCMD?SEEKFREE_OLED
0012ADH   0012AEH   000002H   BYTE   UNIT     EDATA          ?ED?OLED_SET_POS?SEEKFREE_OLED
0012AFH   0012B0H   000002H   BYTE   UNIT     EDATA          ?ED?OLED_CLRPIXEL?SEEKFREE_OLED
0012B1H   0012B2H   000002H   BYTE   UNIT     EDATA          ?ED?OLED_SET_POS_SPI?SEEKFREE_OLED
0012B3H   0012B4H   000002H   BYTE   UNIT     EDATA          ?ED?OLED_CLRPIXEL_SPI?SEEKFREE_OLED
0012B5H   0012B6H   000002H   BYTE   UNIT     EDATA          ?ED?DRV8701_STOP?DRV8701_DUAL
0012B7H   0012B8H   000002H   BYTE   UNIT     EDATA          ?ED?ENCODER_READ1?ENCODER
L251 LINKER/LOCATER V4.66.93.0                                                        11/18/2024  23:30:20  PAGE 8


0012B9H   0012BAH   000002H   BYTE   UNIT     EDATA          ?ED?ENCODER_READ2?ENCODER
0012BBH   0012BCH   000002H   BYTE   UNIT     EDATA          ?ED?EXCEPTION_HANDLER?STRAIGHT
0012BDH   0012BDH   000001H   BYTE   UNIT     EDATA          ?ED?PUTCHAR?BOARD
0012BEH   0012BEH   000001H   BYTE   UNIT     EDATA          ?ED?IAP_SET_TPS?ZF_EEPROM
0012BFH   0012BFH   000001H   BYTE   UNIT     EDATA          ?ED?START?ZF_IIC
0012C0H   0012C0H   000001H   BYTE   UNIT     EDATA          ?ED?RECV_ACK?ZF_IIC
0012C1H   0012C1H   000001H   BYTE   UNIT     EDATA          ?ED?SEND_ACK?ZF_IIC
0012C2H   0012C2H   000001H   BYTE   UNIT     EDATA          ?ED?STOP?ZF_IIC
0012C3H   0012C3H   000001H   BYTE   UNIT     EDATA          ?ED?SPI_MOSI?ZF_SPI
0012C4H   0012C4H   000001H   BYTE   UNIT     EDATA          ?ED?SPI_CHANGE_MODE?ZF_SPI
0012C5H   0012C5H   000001H   BYTE   UNIT     EDATA          ?ED?LCD_WRITEINDEX?SEEKFREE_18TFT
0012C6H   0012C6H   000001H   BYTE   UNIT     EDATA          ?ED?LCD_WRITEDATA?SEEKFREE_18TFT
0012C7H   0012C7H   000001H   BYTE   UNIT     EDATA          ?ED?DL1A_SIMIIC_SENDACK?SEEKFREE_DL1A
0012C8H   0012C8H   000001H   BYTE   UNIT     EDATA          ?ED?DL1B_SIMIIC_SENDACK?SEEKFREE_DL1B
0012C9H   0012C9H   000001H   BYTE   UNIT     EDATA          ?ED?IMU660RA_INIT?SEEKFREE_IMU660RA
0012CAH   0012CAH   000001H   BYTE   UNIT     EDATA          ?ED?IMU963RA_INIT?SEEKFREE_IMU963RA
0012CBH   0012CBH   000001H   BYTE   UNIT     EDATA          ?ED?IPS114_WRITEINDEX?SEEKFREE_IPS114_SPI
0012CCH   0012CCH   000001H   BYTE   UNIT     EDATA          ?ED?IPS114_WRITEDATA?SEEKFREE_IPS114_SPI
0012CDH   0012CDH   000001H   BYTE   UNIT     EDATA          ?ED?IPS200_WRITE_8BIT_DATA_SPI?SEEKFREE_IPS200_SPI
0012CEH   0012CEH   000001H   BYTE   UNIT     EDATA          ?ED?IPS200_WRITE_COMMAND?SEEKFREE_IPS200_SPI
0012CFH   0012CFH   000001H   BYTE   UNIT     EDATA          ?ED?IPS200_WRITE_8BIT_DATA?SEEKFREE_IPS200_SPI
0012D0H   0012D0H   000001H   BYTE   UNIT     EDATA          ?ED?MPU6050_SIMIIC_SENDACK?SEEKFREE_MPU6050
0012D1H   0012D1H   000001H   BYTE   UNIT     EDATA          ?ED?OLED_WRDAT_SPI?SEEKFREE_OLED
0012D2H   0012D2H   000001H   BYTE   UNIT     EDATA          ?ED?OLED_WRCMD_SPI?SEEKFREE_OLED
0012D3H   0012D3H   000001H   BYTE   UNIT     EDATA          ?ED?CCD_COLLECT?SEEKFREE_TSL1401
0012D4H   0012D4H   000001H   BYTE   UNIT     EDATA          ?ED?WIRELESS_UART_SEND_BYTE?SEEKFREE_WIRELESS
0012D5H   0012D5H   000001H   BYTE   UNIT     EDATA          ?ED?UART1_ISR?ISR
0012D6H   0012D6H   000001H   BYTE   UNIT     EDATA          ?ED?ISR
0012D7H   0012D7H   000001H   BYTE   UNIT     EDATA          ?ED?BEEP_SET?BATTERY
0012D8H   0012D8H   000001H   BYTE   UNIT     EDATA          ?ED?RING
0012D9H   0013D8H   000100H   BYTE   UNIT     EDATA          ?STACK
0013D9H   FEFFFFH   FEEC27H   ---    ---      **GAP**
FF0000H   FF0002H   000003H   ---    OFFS..   CODE           ?CO?start251?4
FF0003H   FF0005H   000003H   ---    OFFS..   CODE           ?PR?IV?0
FF0006H   FF0009H   000004H   BYTE   INSEG    CODE           ?PR?ENABLEGLOBALIRQ?BOARD
FF000AH   FF000AH   000001H   BYTE   INSEG    CODE           ?PR?INT1_ISR?ISR
FF000BH   FF000DH   000003H   ---    OFFS..   CODE           ?PR?IV?1
FF000EH   FF0011H   000004H   BYTE   UNIT     CODE           ?PR?FPADD?STC32F_FPMU
FF0012H   FF0012H   000001H   BYTE   INSEG    CODE           ?PR?TM0_ISR?ISR
FF0013H   FF0015H   000003H   ---    OFFS..   CODE           ?PR?IV?2
FF0016H   FF0019H   000004H   BYTE   UNIT     CODE           ?PR?FPSUB?STC32F_FPMU
FF001AH   FF001AH   000001H   BYTE   INSEG    CODE           ?PR?TM1_ISR?ISR
FF001BH   FF001DH   000003H   ---    OFFS..   CODE           ?PR?IV?3
FF001EH   FF0021H   000004H   BYTE   UNIT     CODE           ?PR?FPMUL?STC32F_FPMU
FF0022H   FF0022H   000001H   ---    ---      **GAP**
FF0023H   FF0025H   000003H   ---    OFFS..   CODE           ?PR?IV?4
FF0026H   FF0042H   00001DH   BYTE   INSEG    CODE           ?PR?DL1B_SIMIIC_DELAY?SEEKFREE_DL1B
FF0043H   FF0045H   000003H   ---    OFFS..   CODE           ?PR?IV?8
FF0046H   FF0052H   00000DH   BYTE   INSEG    CODE           ?PR?ENCODER_INIT?ENCODER
FF0053H   FF0055H   000003H   ---    OFFS..   CODE           ?PR?IV?10
FF0056H   FF0059H   000004H   BYTE   UNIT     CODE           ?PR?FPDIV?STC32F_FPMU
FF005AH   FF005AH   000001H   ---    ---      **GAP**
FF005BH   FF005DH   000003H   ---    OFFS..   CODE           ?PR?IV?11
FF005EH   FF0061H   000004H   BYTE   UNIT     CODE           ?PR?FCASTL?STC32F_FPMU
FF0062H   FF0062H   000001H   ---    ---      **GAP**
FF0063H   FF0065H   000003H   ---    OFFS..   CODE           ?PR?IV?12
FF0066H   FF0082H   00001DH   BYTE   INSEG    CODE           ?PR?MPU6050_SIMIIC_DELAY?SEEKFREE_MPU6050
FF0083H   FF0085H   000003H   ---    OFFS..   CODE           ?PR?IV?16
FF0086H   FF0089H   000004H   BYTE   INSEG    CODE           ?PR?INT0_ISR?ISR
FF008AH   FF008AH   000001H   ---    ---      **GAP**
FF008BH   FF008DH   000003H   ---    OFFS..   CODE           ?PR?IV?17
FF008EH   FF0091H   000004H   BYTE   INSEG    CODE           ?PR?INT2_ISR?ISR
FF0092H   FF0092H   000001H   ---    ---      **GAP**
FF0093H   FF0095H   000003H   ---    OFFS..   CODE           ?PR?IV?18
FF0096H   FF0099H   000004H   BYTE   INSEG    CODE           ?PR?INT3_ISR?ISR
L251 LINKER/LOCATER V4.66.93.0                                                        11/18/2024  23:30:20  PAGE 9


FF009AH   FF009AH   000001H   ---    ---      **GAP**
FF009BH   FF009DH   000003H   ---    OFFS..   CODE           ?PR?IV?19
FF009EH   FF00A1H   000004H   BYTE   INSEG    CODE           ?PR?INT4_ISR?ISR
FF00A2H   FF00A2H   000001H   ---    ---      **GAP**
FF00A3H   FF00A5H   000003H   ---    OFFS..   CODE           ?PR?IV?20
FF00A6H   FF212CH   002087H   BYTE   UNIT     CODE           ?CO?SEEKFREE_CONFIG
FF212DH   FF374CH   001620H   BYTE   UNIT     CODE           ?CO?SEEKFREE_FONT
FF374DH   FF4059H   00090DH   BYTE   INSEG    CODE           ?PR?GPIO_MODE?ZF_GPIO
FF405AH   FF4749H   0006F0H   BYTE   UNIT     CODE           ?C?LIB_CODE
FF474AH   FF4DAAH   000661H   BYTE   INSEG    CODE           ?PR?ZF_SPRINTF?SEEKFREE_FUNCTION
FF4DABH   FF53D6H   00062CH   BYTE   INSEG    CODE           ?PR?SET_CLK?BOARD
FF53D7H   FF57B0H   0003DAH   BYTE   INSEG    CODE           ?PR?PWM_INIT?ZF_PWM
FF57B1H   FF5B5CH   0003ACH   BYTE   INSEG    CODE           ?PR?FIFO_READ_BUFFER?ZF_FIFO
FF5B5DH   FF5EEEH   000392H   BYTE   INSEG    CODE           ?PR?FIFO_WRITE_BUFFER?ZF_FIFO
FF5EEFH   FF61FAH   00030CH   BYTE   INSEG    CODE           ?PR?PWM_SET_GPIO?ZF_PWM
FF61FBH   FF64ADH   0002B3H   BYTE   INSEG    CODE           ?PR?UART_INIT?ZF_UART
FF64AEH   FF6734H   000287H   BYTE   INSEG    CODE           ?PR?FUNC_DOUBLE_TO_STR?SEEKFREE_FUNCTION
FF6735H   FF6925H   0001F1H   BYTE   INSEG    CODE           ?PR?IPS200_SHOW_CHAR?SEEKFREE_IPS200_SPI
FF6926H   FF6AEBH   0001C6H   BYTE   INSEG    CODE           ?PR?IPS200_INIT_SPI?SEEKFREE_IPS200_SPI
FF6AECH   FF6C80H   000195H   BYTE   INSEG    CODE           ?PR?DL1A_GET_SPAD_INFO?SEEKFREE_DL1A
FF6C81H   FF6DE9H   000169H   BYTE   INSEG    CODE           ?PR?DL1A_GET_SEQUENCE_STEP_TIMEOUTS?SEEKFREE_DL1A
FF6DEAH   FF6F32H   000149H   BYTE   INSEG    CODE           ?PR?DL1A_SET_MEASUREMENT_TIMING_BUDGET?SEEKFREE_DL1A
FF6F33H   FF7050H   00011EH   BYTE   INSEG    CODE           ?PR?LINE_CALCULATE_POSITION?STRAIGHT
FF7051H   FF7168H   000118H   BYTE   INSEG    CODE           ?PR?PWM_DUTY?ZF_PWM
FF7169H   FF727FH   000117H   BYTE   INSEG    CODE           ?PR?NUMBER_CONVERSION_ASCII?SEEKFREE_FUNCTION
FF7280H   FF7387H   000108H   BYTE   INSEG    CODE           ?PR?PID_CONTROL_STRAINT?STRAIGHT
FF7388H   FF748FH   000108H   BYTE   INSEG    CODE           ?PR?PID_CONTROL_RING?STRAIGHT
FF7490H   FF7590H   000101H   BYTE   INSEG    CODE           ?PR?SEEKFREE_ASSISTANT_CAMERA_DOT_SEND?SEEKFREE_ASSISTANT
FF7591H   FF7691H   000101H   BYTE   INSEG    CODE           ?PR?SEEKFREE_ASSISTANT_CAMERA_DATA_SEND?SEEKFREE_ASSISTANT
FF7692H   FF7790H   0000FFH   BYTE   INSEG    CODE           ?PR?FUNC_INT_TO_STR?SEEKFREE_FUNCTION
FF7791H   FF788AH   0000FAH   BYTE   INSEG    CODE           ?PR?LINE_CALCULATE_POSITION_RING?STRAIGHT
FF788BH   FF796FH   0000E5H   BYTE   INSEG    CODE           ?PR?PIT_TIMER_MS?ZF_TIM
FF7970H   FF7A46H   0000D7H   BYTE   INSEG    CODE           ?PR?DRV8701_CONTROL?DRV8701_DUAL
FF7A47H   FF7B17H   0000D1H   BYTE   INSEG    CODE           ?PR?OLED_P6X8STR?SEEKFREE_OLED
FF7B18H   FF7BE8H   0000D1H   BYTE   INSEG    CODE           ?PR?OLED_P6X8STR_SPI?SEEKFREE_OLED
FF7BE9H   FF7CB6H   0000CEH   BYTE   INSEG    CODE           ?PR?SPI_INIT?ZF_SPI
FF7CB7H   FF7D81H   0000CBH   BYTE   INSEG    CODE           ?PR?LINE_READ_RAW?LINE
FF7D82H   FF7E40H   0000BFH   BYTE   INSEG    CODE           ?PR?LCD_SHOWCHAR_SIMSPI?SEEKFREE_18TFT
FF7E41H   FF7EFFH   0000BFH   BYTE   INSEG    CODE           ?PR?LCD_SHOWCHAR?SEEKFREE_18TFT
FF7F00H   FF7FBEH   0000BFH   BYTE   INSEG    CODE           ?PR?IPS114_SHOWCHAR_SIMSPI?SEEKFREE_IPS114_SPI
FF7FBFH   FF807DH   0000BFH   BYTE   INSEG    CODE           ?PR?IPS114_SHOWCHAR?SEEKFREE_IPS114_SPI
FF807EH   FF8133H   0000B6H   BYTE   INSEG    CODE           ?PR?DL1A_GET_MEASUREMENT_TIMING_BUDGET?SEEKFREE_DL1A
FF8134H   FF81E8H   0000B5H   BYTE   INSEG    CODE           ?PR?ADC_INIT?ZF_ADC
FF81E9H   FF829CH   0000B4H   BYTE   INSEG    CODE           ?PR?CTIMER_COUNT_READ?ZF_TIM
FF829DH   FF8347H   0000ABH   BYTE   INSEG    CODE           ?PR?DL1A_PERFORM_SINGLE_REF_CALIBRATION?SEEKFREE_DL1A
FF8348H   FF83F0H   0000A9H   BYTE   INSEG    CODE           ?PR?FUNC_UINT_TO_STR?SEEKFREE_FUNCTION
FF83F1H   FF848AH   00009AH   BYTE   INSEG    CODE           ?PR?CRC_CHECK?SEEKFREE_VIRSCO
FF848BH   FF851FH   000095H   BYTE   INSEG    CODE           ?PR?PRINTF_REVERSE_ORDER?SEEKFREE_FUNCTION
FF8520H   FF85B3H   000094H   BYTE   INSEG    CODE           ?PR?MAIN?MAIN
FF85B4H   FF8646H   000093H   BYTE   INSEG    CODE           ?PR?IPS200_SHOW_STRING?SEEKFREE_IPS200_SPI
FF8647H   FF86D4H   00008EH   BYTE   INSEG    CODE           ?PR?DL1A_GET_SEQUENCE_STEP_ENABLES?SEEKFREE_DL1A
FF86D5H   FF8757H   000083H   BYTE   INSEG    CODE           ?PR?FIFO_INIT?ZF_FIFO
FF8758H   FF87D6H   00007FH   BYTE   INSEG    CODE           ?PR?DL1A_ENCODE_TIMEOUT?SEEKFREE_DL1A
FF87D7H   FF8855H   00007FH   BYTE   INSEG    CODE           ?PR?IMU963RA_WRITE_MAG_REGISTER?SEEKFREE_IMU963RA
FF8856H   FF88D2H   00007DH   BYTE   INSEG    CODE           ?PR?ENCODER_READ2?ENCODER
FF88D3H   FF894CH   00007AH   BYTE   INSEG    CODE           ?PR?DL1A_GET_VCSEL_PULSE_PERIOD?SEEKFREE_DL1A
FF894DH   FF89C5H   000079H   BYTE   INSEG    CODE           ?PR?DL1B_IIC_TRANSFER_8BIT_ARRAY?SEEKFREE_DL1B
FF89C6H   FF8A3CH   000077H   BYTE   INSEG    CODE           ?PR?BOARD_INIT?BOARD
FF8A3DH   FF8AB1H   000075H   BYTE   INSEG    CODE           ?PR?UART_PUTCHAR?ZF_UART
FF8AB2H   FF8B26H   000075H   BYTE   INSEG    CODE           ?PR?WIRELESS_UART_SEND_BUFF?SEEKFREE_WIRELESS
FF8B27H   FF8B99H   000073H   BYTE   INSEG    CODE           ?PR?ENCODER_READ1?ENCODER
FF8B9AH   FF8C09H   000070H   BYTE   INSEG    CODE           ?PR?FIFO_HEAD_OFFSET?ZF_FIFO
FF8C0AH   FF8C79H   000070H   BYTE   INSEG    CODE           ?PR?FIFO_END_OFFSET?ZF_FIFO
FF8C7AH   FF8CE8H   00006FH   BYTE   INSEG    CODE           ?PR?OLED_HEXASCII_SPI?SEEKFREE_OLED
FF8CE9H   FF8D55H   00006DH   BYTE   INSEG    CODE           ?PR?IPS200_CLEAR?SEEKFREE_IPS200_SPI
L251 LINKER/LOCATER V4.66.93.0                                                        11/18/2024  23:30:20  PAGE 10


FF8D56H   FF8DC1H   00006CH   BYTE   INSEG    CODE           ?PR?IMU963RA_READ_MAG_REGISTER?SEEKFREE_IMU963RA
FF8DC2H   FF8E2DH   00006CH   BYTE   INSEG    CODE           ?PR?MPU6050_SIMIIC_READ_REGS?SEEKFREE_MPU6050
FF8E2EH   FF8E97H   00006AH   BYTE   INSEG    CODE           ?PR?DL1A_READ_CH?SEEKFREE_DL1A
FF8E98H   FF8F01H   00006AH   BYTE   INSEG    CODE           ?PR?DL1B_READ_CH?SEEKFREE_DL1B
FF8F02H   FF8F6BH   00006AH   BYTE   INSEG    CODE           ?PR?MPU6050_READ_CH?SEEKFREE_MPU6050
FF8F6CH   FF8FD3H   000068H   BYTE   INSEG    CODE           ?PR?DL1A_SIMIIC_READ_REGS?SEEKFREE_DL1A
FF8FD4H   FF9037H   000064H   BYTE   INSEG    CODE           ?PR?LCD_SET_REGION_SIMSPI?SEEKFREE_18TFT
FF9038H   FF909BH   000064H   BYTE   INSEG    CODE           ?PR?LCD_SET_REGION?SEEKFREE_18TFT
FF909CH   FF90FFH   000064H   BYTE   INSEG    CODE           ?PR?GET_BATTERY_VOLTAGE?BATTERY
FF9100H   FF9160H   000061H   BYTE   INSEG    CODE           ?PR?GET_BATTERY_PERCENTAGE?BATTERY
FF9161H   FF91BFH   00005FH   BYTE   INSEG    CODE           ?PR?IPS114_CLEAR_SIMSPI?SEEKFREE_IPS114_SPI
FF91C0H   FF921EH   00005FH   BYTE   INSEG    CODE           ?PR?IPS114_CLEAR?SEEKFREE_IPS114_SPI
FF921FH   FF927CH   00005EH   BYTE   INSEG    CODE           ?PR?UART2_ISR?ISR
FF927DH   FF92DAH   00005EH   BYTE   INSEG    CODE           ?PR?UART4_ISR?ISR
FF92DBH   FF9337H   00005DH   BYTE   INSEG    CODE           ?PR?CTIMER_COUNT_CLEAN?ZF_TIM
FF9338H   FF9394H   00005DH   BYTE   INSEG    CODE           ?PR?LCD_SHOWSTR_SIMSPI?SEEKFREE_18TFT
FF9395H   FF93F1H   00005DH   BYTE   INSEG    CODE           ?PR?LCD_SHOWSTR?SEEKFREE_18TFT
FF93F2H   FF944EH   00005DH   BYTE   INSEG    CODE           ?PR?OLED_FILL?SEEKFREE_OLED
FF944FH   FF94ABH   00005DH   BYTE   INSEG    CODE           ?PR?OLED_FILL_SPI?SEEKFREE_OLED
FF94ACH   FF9505H   00005AH   BYTE   INSEG    CODE           ?PR?SERVO_SET_POSITION?SERVO
FF9506H   FF955EH   000059H   BYTE   INSEG    CODE           ?PR?ICM20602_SIMSPI_WR_BYTE?SEEKFREE_ICM20602
FF955FH   FF95B7H   000059H   BYTE   INSEG    CODE           ?PR?IMU660RA_SIMSPI_WR_BYTE?SEEKFREE_IMU660RA
FF95B8H   FF9610H   000059H   BYTE   INSEG    CODE           ?PR?IMU963RA_SIMSPI_WR_BYTE?SEEKFREE_IMU963RA
FF9611H   FF9667H   000057H   BYTE   INSEG    CODE           ?PR?WAIT?ZF_IIC
FF9668H   FF96BEH   000057H   BYTE   INSEG    CODE           ?PR?LCD_CLEAR_SIMSPI?SEEKFREE_18TFT
FF96BFH   FF9715H   000057H   BYTE   INSEG    CODE           ?PR?LCD_CLEAR?SEEKFREE_18TFT
FF9716H   FF976BH   000056H   BYTE   INSEG    CODE           ?PR?ADC_ONCE?ZF_ADC
FF976CH   FF97C0H   000055H   BYTE   INSEG    CODE           ?PR?LCD_WRITEDATA_16BIT_SIMSPI?SEEKFREE_18TFT
FF97C1H   FF9815H   000055H   BYTE   INSEG    CODE           ?PR?IPS114_WRITEDATAI_16BIT_SIMSPI?SEEKFREE_IPS114_SPI
FF9816H   FF9869H   000054H   BYTE   INSEG    CODE           ?PR?CTIMER_COUNT_INIT?ZF_TIM
FF986AH   FF98BDH   000054H   BYTE   INSEG    CODE           ?PR?IPS114_SET_REGION_SIMSPI?SEEKFREE_IPS114_SPI
FF98BEH   FF9911H   000054H   BYTE   INSEG    CODE           ?PR?IPS114_SET_REGION?SEEKFREE_IPS114_SPI
FF9912H   FF9964H   000053H   BYTE   INSEG    CODE           ?PR?DL1A_TIMEOUT_MCLKS_TO_MICROSECONDS?SEEKFREE_DL1A
FF9965H   FF99B5H   000051H   BYTE   INSEG    CODE           ?PR?DL1A_TIMEOUT_MICROSECONDS_TO_MCLKS?SEEKFREE_DL1A
FF99B6H   FF9A06H   000051H   BYTE   INSEG    CODE           ?PR?ICM20602_SIMSPI_R_REG_BYTES?SEEKFREE_ICM20602
FF9A07H   FF9A57H   000051H   BYTE   INSEG    CODE           ?PR?IMU963RA_MAG_SELF_CHECK?SEEKFREE_IMU963RA
FF9A58H   FF9AA5H   00004EH   BYTE   INSEG    CODE           ?PR?ICM20602_SELF_CHECK?SEEKFREE_ICM20602
FF9AA6H   FF9AF1H   00004CH   BYTE   INSEG    CODE           ?PR?LCD_WRITEINDEX_SIMSPI?SEEKFREE_18TFT
FF9AF2H   FF9B3DH   00004CH   BYTE   INSEG    CODE           ?PR?LCD_WRITEDATA_SIMSPI?SEEKFREE_18TFT
FF9B3EH   FF9B89H   00004CH   BYTE   INSEG    CODE           ?PR?IPS114_WRITEINDEX_SIMSPI?SEEKFREE_IPS114_SPI
FF9B8AH   FF9BD5H   00004CH   BYTE   INSEG    CODE           ?PR?IPS114_WRITEDATA_SIMSPI?SEEKFREE_IPS114_SPI
FF9BD6H   FF9C21H   00004CH   BYTE   INSEG    CODE           ?PR?OLED_WRCMD?SEEKFREE_OLED
FF9C22H   FF9C6DH   00004CH   BYTE   INSEG    CODE           ?PR?OLED_WRDAT?SEEKFREE_OLED
FF9C6EH   FF9CB8H   00004BH   BYTE   INSEG    CODE           ?PR?IMU660RA_SELF_CHECK?SEEKFREE_IMU660RA
FF9CB9H   FF9D03H   00004BH   BYTE   INSEG    CODE           ?PR?IMU660RA_SIMSPI_R_REG_BYTES?SEEKFREE_IMU660RA
FF9D04H   FF9D4EH   00004BH   BYTE   INSEG    CODE           ?PR?IMU963RA_SIMSPI_R_REG_BYTES?SEEKFREE_IMU963RA
FF9D4FH   FF9D97H   000049H   BYTE   INSEG    CODE           ?PR?DL1A_SEND_CH?SEEKFREE_DL1A
FF9D98H   FF9DE0H   000049H   BYTE   INSEG    CODE           ?PR?DL1B_SEND_CH?SEEKFREE_DL1B
FF9DE1H   FF9E29H   000049H   BYTE   INSEG    CODE           ?PR?MPU6050_SEND_CH?SEEKFREE_MPU6050
FF9E2AH   FF9E6EH   000045H   BYTE   INSEG    CODE           ?PR?DRV8701_STOP?DRV8701_DUAL
FF9E6FH   FF9EB2H   000044H   BYTE   INSEG    CODE           ?PR?WIRELESS_UART_INIT?SEEKFREE_WIRELESS
FF9EB3H   FF9EF4H   000042H   BYTE   INSEG    CODE           ?PR?DL1A_SIMIIC_WRITE_DATS?SEEKFREE_DL1A
FF9EF5H   FF9F36H   000042H   BYTE   INSEG    CODE           ?PR?UART1_ISR?ISR
FF9F37H   FF9F75H   00003FH   BYTE   INSEG    CODE           ?PR?SEEKFREE_ASSISTANT_SUM?SEEKFREE_ASSISTANT
FF9F76H   FF9F88H   000013H   BYTE   UNIT     CODE           ?C_C51STARTUP
FF9F89H   FF9FB1H   000029H   BYTE   UNIT     CODE           ?C_C51STARTUP?2
FF9FB2H   FF9FB4H   000003H   BYTE   UNIT     CODE           ?C_C51STARTUP?3
FF9FB5H   FF9FF2H   00003EH   BYTE   INSEG    CODE           ?PR?DL1A_SET_SIGNAL_RATE_LIMIT?SEEKFREE_DL1A
FF9FF3H   FFA030H   00003EH   BYTE   INSEG    CODE           ?PR?IMU660RA_SIMSPI_W_REG_BYTES?SEEKFREE_IMU660RA
FFA031H   FFA06DH   00003DH   BYTE   INSEG    CODE           ?PR?DRV8701_INIT?DRV8701_DUAL
FFA06EH   FFA0A9H   00003CH   BYTE   INSEG    CODE           ?PR?IPS200_SET_REGION?SEEKFREE_IPS200_SPI
FFA0AAH   FFA0E5H   00003CH   BYTE   INSEG    CODE           ?PR?STRAIGHT_ENTRANCE?STRAIGHT
FFA0E6H   FFA120H   00003BH   BYTE   INSEG    CODE           ?PR?DL1A_SIMIIC_READ_REG?SEEKFREE_DL1A
FFA121H   FFA15BH   00003BH   BYTE   INSEG    CODE           ?PR?MPU6050_SIMIIC_READ_REG?SEEKFREE_MPU6050
FFA15CH   FFA195H   00003AH   BYTE   INSEG    CODE           ?PR?IMU963RA_CONNECT_MAG?SEEKFREE_IMU963RA
L251 LINKER/LOCATER V4.66.93.0                                                        11/18/2024  23:30:20  PAGE 11


FFA196H   FFA1CCH   000037H   BYTE   INSEG    CODE           ?PR?IPS200_SET_DIR?SEEKFREE_IPS200_SPI
FFA1CDH   FFA202H   000036H   BYTE   INSEG    CODE           ?PR?OLED_SET_POS_SPI?SEEKFREE_OLED
FFA203H   FFA237H   000035H   BYTE   INSEG    CODE           ?PR?DELAY_MS?ZF_DELAY
FFA238H   FFA26CH   000035H   BYTE   INSEG    CODE           ?PR?IIC_DELAY_US?ZF_IIC
FFA26DH   FFA2A1H   000035H   BYTE   INSEG    CODE           ?PR?OLED_SET_POS?SEEKFREE_OLED
FFA2A2H   FFA2D4H   000033H   BYTE   INSEG    CODE           ?PR?UART_PUTBUFF?ZF_UART
FFA2D5H   FFA302H   00002EH   BYTE   INSEG    CODE           ?PR?WIRELESS_UART_READ_BUFF?SEEKFREE_WIRELESS
FFA303H   FFA32FH   00002DH   BYTE   INSEG    CODE           ?PR?IMU963RA_SIMSPI_R_REG_BYTE?SEEKFREE_IMU963RA
FFA330H   FFA35CH   00002DH   BYTE   INSEG    CODE           ?PR?IPS200_DRAW_POINT?SEEKFREE_IPS200_SPI
FFA35DH   FFA386H   00002AH   BYTE   INSEG    CODE           ?PR?LCD_WRITEDATA_16BIT?SEEKFREE_18TFT
FFA387H   FFA3B0H   00002AH   BYTE   INSEG    CODE           ?PR?DL1A_DECODE_TIMEOUT?SEEKFREE_DL1A
FFA3B1H   FFA3DAH   00002AH   BYTE   INSEG    CODE           ?PR?DL1A_SIMIIC_WRITE_REG?SEEKFREE_DL1A
FFA3DBH   FFA404H   00002AH   BYTE   INSEG    CODE           ?PR?IPS114_WRITEDATA_16BIT?SEEKFREE_IPS114_SPI
FFA405H   FFA42EH   00002AH   BYTE   INSEG    CODE           ?PR?MPU6050_SIMIIC_WRITE_REG?SEEKFREE_MPU6050
FFA42FH   FFA456H   000028H   BYTE   INSEG    CODE           ?PR?SEND_DATA?ZF_IIC
FFA457H   FFA47EH   000028H   BYTE   INSEG    CODE           ?PR?DL1A_SIMIIC_SENDACK?SEEKFREE_DL1A
FFA47FH   FFA4A6H   000028H   BYTE   INSEG    CODE           ?PR?DL1B_SIMIIC_SENDACK?SEEKFREE_DL1B
FFA4A7H   FFA4CEH   000028H   BYTE   INSEG    CODE           ?PR?MPU6050_SIMIIC_SENDACK?SEEKFREE_MPU6050
FFA4CFH   FFA4F5H   000027H   BYTE   INSEG    CODE           ?PR?ICM20602_SIMSPI_R_REG_BYTE?SEEKFREE_ICM20602
FFA4F6H   FFA51BH   000026H   BYTE   INSEG    CODE           ?PR?ICM20602_READ_REGISTERS?SEEKFREE_ICM20602
FFA51CH   FFA541H   000026H   BYTE   INSEG    CODE           ?PR?IMU963RA_READ_ACC_GYRO_REGISTERS?SEEKFREE_IMU963RA
FFA542H   FFA566H   000025H   BYTE   INSEG    CODE           ?PR?FIFO_USED?ZF_FIFO
FFA567H   FFA58BH   000025H   BYTE   INSEG    CODE           ?PR?LINE_INIT?LINE
FFA58CH   FFA5B0H   000025H   BYTE   INSEG    CODE           ?PR?MEMCPY?_?MEMCPY
FFA5B1H   FFA5D3H   000023H   BYTE   INSEG    CODE           ?PR?DELAY_INIT?ZF_DELAY
FFA5D4H   FFA5F6H   000023H   BYTE   INSEG    CODE           ?PR?IMU963RA_READ_ACC_GYRO_REGISTER?SEEKFREE_IMU963RA
FFA5F7H   FFA618H   000022H   BYTE   INSEG    CODE           ?PR?IMU660RA_READ_REGISTER?SEEKFREE_IMU660RA
FFA619H   FFA63AH   000022H   BYTE   INSEG    CODE           ?PR?IMU660RA_WRITE_REGISTERS?SEEKFREE_IMU660RA
FFA63BH   FFA65BH   000021H   BYTE   INSEG    CODE           ?PR?SEND_ACK?ZF_IIC
FFA65CH   FFA67CH   000021H   BYTE   INSEG    CODE           ?PR?DL1A_SCCB_WAITACK?SEEKFREE_DL1A
FFA67DH   FFA69DH   000021H   BYTE   INSEG    CODE           ?PR?DL1B_SCCB_WAITACK?SEEKFREE_DL1B
FFA69EH   FFA6BEH   000021H   BYTE   INSEG    CODE           ?PR?IMU963RA_SIMSPI_W_REG_BYTE?SEEKFREE_IMU963RA
FFA6BFH   FFA6DFH   000021H   BYTE   INSEG    CODE           ?PR?IPS200_WRITE_16BIT_DATA_SPI?SEEKFREE_IPS200_SPI
FFA6E0H   FFA700H   000021H   BYTE   INSEG    CODE           ?PR?MPU6050_SCCB_WAITACK?SEEKFREE_MPU6050
FFA701H   FFA71FH   00001FH   BYTE   INSEG    CODE           ?PR?DL1A_SIMIIC_DELAY?SEEKFREE_DL1A
FFA720H   FFA73DH   00001EH   BYTE   INSEG    CODE           ?PR?ICM20602_READ_REGISTER?SEEKFREE_ICM20602
FFA73EH   FFA75BH   00001EH   BYTE   INSEG    CODE           ?PR?IPS200_WRITE_COMMAND?SEEKFREE_IPS200_SPI
FFA75CH   FFA777H   00001CH   BYTE   INSEG    CODE           ?PR?RECV_DATA?ZF_IIC
FFA778H   FFA792H   00001BH   BYTE   INSEG    CODE           ?PR?ICM20602_SIMSPI_W_REG_BYTE?SEEKFREE_ICM20602
FFA793H   FFA7ADH   00001BH   BYTE   INSEG    CODE           ?PR?IMU660RA_SIMSPI_W_REG_BYTE?SEEKFREE_IMU660RA
FFA7AEH   FFA7C7H   00001AH   BYTE   INSEG    CODE           ?PR?IAP_SET_TPS?ZF_EEPROM
FFA7C8H   FFA7E1H   00001AH   BYTE   INSEG    CODE           ?PR?BLUETOOTH_CH9141_UART_CALLBACK?SEEKFREE_BLUETOOTH_CH91
                                                             -41
FFA7E2H   FFA7FBH   00001AH   BYTE   INSEG    CODE           ?PR?ICM20602_WRITE_REGISTER?SEEKFREE_ICM20602
FFA7FCH   FFA815H   00001AH   BYTE   INSEG    CODE           ?PR?IMU660RA_WRITE_REGISTER?SEEKFREE_IMU660RA
FFA816H   FFA82FH   00001AH   BYTE   INSEG    CODE           ?PR?IMU963RA_WRITE_ACC_GYRO_REGISTER?SEEKFREE_IMU963RA
FFA830H   FFA849H   00001AH   BYTE   INSEG    CODE           ?PR?WIRELESS_UART_CALLBACK?SEEKFREE_WIRELESS
FFA84AH   FFA863H   00001AH   BYTE   INSEG    CODE           ?PR?UART3_ISR?ISR
FFA864H   FFA87DH   00001AH   BYTE   INSEG    CODE           ?PR?MEMSET?_?MEMSET
FFA87EH   FFA895H   000018H   BYTE   INSEG    CODE           ?PR?SERVO_INIT?SERVO
FFA896H   FFA8ACH   000017H   BYTE   INSEG    CODE           ?PR?GET_ENCODER_DISTANCE?ENCODER
FFA8ADH   FFA8C2H   000016H   BYTE   INSEG    CODE           ?PR?DL1A_SIMIIC_STOP?SEEKFREE_DL1A
FFA8C3H   FFA8D8H   000016H   BYTE   INSEG    CODE           ?PR?DL1B_SIMIIC_STOP?SEEKFREE_DL1B
FFA8D9H   FFA8EEH   000016H   BYTE   INSEG    CODE           ?PR?MPU6050_SIMIIC_STOP?SEEKFREE_MPU6050
FFA8EFH   FFA903H   000015H   BYTE   INSEG    CODE           ?PR?EEPROM_TRIG?ZF_EEPROM
FFA904H   FFA918H   000015H   BYTE   INSEG    CODE           ?PR?START?ZF_IIC
FFA919H   FFA92DH   000015H   BYTE   INSEG    CODE           ?PR?RECV_ACK?ZF_IIC
FFA92EH   FFA942H   000015H   BYTE   INSEG    CODE           ?PR?STOP?ZF_IIC
FFA943H   FFA957H   000015H   BYTE   INSEG    CODE           ?PR?LCD_WRITEINDEX?SEEKFREE_18TFT
FFA958H   FFA96CH   000015H   BYTE   INSEG    CODE           ?PR?LCD_WRITEDATA?SEEKFREE_18TFT
FFA96DH   FFA981H   000015H   BYTE   INSEG    CODE           ?PR?IPS114_WRITEINDEX?SEEKFREE_IPS114_SPI
FFA982H   FFA996H   000015H   BYTE   INSEG    CODE           ?PR?IPS114_WRITEDATA?SEEKFREE_IPS114_SPI
FFA997H   FFA9ABH   000015H   BYTE   INSEG    CODE           ?PR?IPS200_SET_COLOR?SEEKFREE_IPS200_SPI
FFA9ACH   FFA9C0H   000015H   BYTE   INSEG    CODE           ?PR?IPS200_WRITE_8BIT_DATA?SEEKFREE_IPS200_SPI
FFA9C1H   FFA9D5H   000015H   BYTE   INSEG    CODE           ?PR?IPS200_WRITE_16BIT_DATA?SEEKFREE_IPS200_SPI
L251 LINKER/LOCATER V4.66.93.0                                                        11/18/2024  23:30:20  PAGE 12


FFA9D6H   FFA9EAH   000015H   BYTE   INSEG    CODE           ?PR?OLED_WRCMD_SPI?SEEKFREE_OLED
FFA9EBH   FFA9FFH   000015H   BYTE   INSEG    CODE           ?PR?OLED_WRDAT_SPI?SEEKFREE_OLED
FFAA00H   FFAA13H   000014H   BYTE   INSEG    CODE           ?PR?CLOCK_INIT?BOARD
FFAA14H   FFAA26H   000013H   BYTE   INSEG    CODE           ?PR?DL1A_SIMIIC_START?SEEKFREE_DL1A
FFAA27H   FFAA39H   000013H   BYTE   INSEG    CODE           ?PR?DL1B_SIMIIC_START?SEEKFREE_DL1B
FFAA3AH   FFAA4CH   000013H   BYTE   INSEG    CODE           ?PR?MPU6050_SIMIIC_START?SEEKFREE_MPU6050
FFAA4DH   FFAA5FH   000013H   BYTE   INSEG    CODE           ?PR?CLEAR_ENCODER_DISTANCE?ENCODER
FFAA60H   FFAA71H   000012H   BYTE   INSEG    CODE           ?PR?PUTCHAR?BOARD
FFAA72H   FFAA83H   000012H   BYTE   INSEG    CODE           ?PR?SPI_MOSI?ZF_SPI
FFAA84H   FFAA94H   000011H   BYTE   INSEG    CODE           ?PR?ICACHEON?BOARD
FFAA95H   FFAAA3H   00000FH   BYTE   INSEG    CODE           ?PR?BEEP_INIT?BATTERY
FFAAA4H   FFAAB1H   00000EH   BYTE   INSEG    CODE           ?PR?BEEP_SET?BATTERY
FFAAB2H   FFAABFH   00000EH   BYTE   INSEG    CODE           ?PR?STRLEN?_?STRLEN
FFAAC0H   FFAACBH   00000CH   BYTE   UNIT     CODE           ?PR?FPCMP?STC32F_FPMU
FFAACCH   FFAAD3H   000008H   BYTE   INSEG    CODE           ?PR?IPS200_WRITE_8BIT_DATA_SPI?SEEKFREE_IPS200_SPI
FFAAD4H   FFAADAH   000007H   BYTE   UNIT     CODE           ?PR?FCHS?STC32F_FPMU
FFAADBH   FFAAE0H   000006H   BYTE   UNIT     CODE           ?PR?CASTF?STC32F_FPMU
FFAAE1H   FFAAE6H   000006H   BYTE   UNIT     CODE           ?PR?FCASTI?STC32F_FPMU
FFAAE7H   FFAAEAH   000004H   BYTE   INSEG    CODE           ?PR?TM2_ISR?ISR
FFAAEBH   FFAAEEH   000004H   BYTE   INSEG    CODE           ?PR?TM3_ISR?ISR
FFAAEFH   FFAAF2H   000004H   BYTE   INSEG    CODE           ?PR?TM4_ISR?ISR
FFAAF3H   FFAAF6H   000004H   BYTE   UNIT     CONST          ?CO?PRINTF
FFAAF7H   FFAD9DH   0002A7H   BYTE   UNIT     HCONST         ?C_INITEDATA
FFAD9EH   FFAE63H   0000C6H   BYTE   UNIT     HCONST         ?HC?STRAIGHT
FFAE64H   FFAF1FH   0000BCH   BYTE   UNIT     HCONST         ?HC?LINE
FFAF20H   FFAF77H   000058H   BYTE   UNIT     HCONST         ?HC?ZF_PWM
FFAF78H   FFAFC2H   00004BH   BYTE   UNIT     HCONST         ?HC?SEEKFREE_IMU963RA
FFAFC3H   FFAFFAH   000038H   BYTE   UNIT     HCONST         ?HC?RING
FFAFFBH   FFB02FH   000035H   BYTE   UNIT     HCONST         ?HC?SEEKFREE_ICM20602
FFB030H   FFB063H   000034H   BYTE   UNIT     HCONST         ?HC?SEEKFREE_IMU660RA
FFB064H   FFB08BH   000028H   BYTE   UNIT     HCONST         ?HC?MAIN
FFB08CH   FFB0A1H   000016H   BYTE   UNIT     HCONST         ?HC?SEEKFREE_MPU6050
FFB0A2H   FFB0B4H   000013H   BYTE   UNIT     HCONST         ?HC?SEEKFREE_DL1A
FFB0B5H   FFB0C4H   000010H   BYTE   UNIT     HCONST         ?HC?SEEKFREE_FUNCTION
FFB0C5H   FFB0D0H   00000CH   BYTE   UNIT     HCONST         ?HC?BATTERY
FFB0D1H   FFB0DAH   00000AH   BYTE   UNIT     HCONST         ?HC?SEEKFREE_OLED
FFB0DBH   FFB0E0H   000006H   BYTE   UNIT     HCONST         ?HC?SEEKFREE_18TFT
FFB0E1H   FFB0E6H   000006H   BYTE   UNIT     HCONST         ?HC?SEEKFREE_IPS114_SPI

* * * * * * * * *   R E M O V E D     S E G M E N T S   * * * * * * * *
   *DEL*:           000016H   BYTE   INSEG    CODE           ?PR?DISALBE_ICACHE?BOARD
   *DEL*:           000017H   BYTE   INSEG    CODE           ?PR?ENALBE_ICACHE?BOARD
   *DEL*:           000004H   BYTE   INSEG    CODE           ?PR?DISABLEGLOBALIRQ?BOARD
   *DEL*:           000004H   BYTE   UNIT     CODE           ?PR?SQRT?STC32F_FPMU
   *DEL*:           000006H   BYTE   UNIT     CODE           ?PR?FXAM?STC32F_FPMU
   *DEL*:           000007H   BYTE   UNIT     CODE           ?PR?FABS?STC32F_FPMU
   *DEL*:           000004H   BYTE   UNIT     CODE           ?PR?SIN?STC32F_FPMU
   *DEL*:           000004H   BYTE   UNIT     CODE           ?PR?COS?STC32F_FPMU
   *DEL*:           000004H   BYTE   UNIT     CODE           ?PR?TAN?STC32F_FPMU
   *DEL*:           00000AH   BYTE   UNIT     CODE           ?PR?ATAN?STC32F_FPMU
   *DEL*:           000006H   BYTE   UNIT     CODE           ?PR?FCASTC?STC32F_FPMU
   *DEL*:           000004H   BYTE   UNIT     CODE           ?PR?FCLEX?STC32F_FPMU
   *DEL*:           000004H   BYTE   UNIT     CODE           ?PR?FINIT?STC32F_FPMU
   *DEL*:           000006H   BYTE   UNIT     CODE           ?PR?FPSRR?STC32F_FPMU
   *DEL*:           000006H   BYTE   UNIT     CODE           ?PR?FPSRW?STC32F_FPMU
   *DEL*:           000006H   BYTE   UNIT     CODE           ?PR?FPCRR?STC32F_FPMU
   *DEL*:           000006H   BYTE   UNIT     CODE           ?PR?FPCRW?STC32F_FPMU
   *DEL*:           000033H   BYTE   INSEG    CODE           ?PR?DELAY_US?ZF_DELAY
   *DEL*:           000029H   BYTE   INSEG    CODE           ?PR?IAP_ERASE_PAGE?ZF_EEPROM
   *DEL*:           000004H   BYTE   INSEG    CODE           ?PR?IAP_IDLE?ZF_EEPROM
   *DEL*:           00005FH   BYTE   INSEG    CODE           ?PR?IAP_READ_BYTES?ZF_EEPROM
   *DEL*:           000008H   BYTE   INSEG    CODE           ?PR?IAP_INIT?ZF_EEPROM
   *DEL*:           00005BH   BYTE   INSEG    CODE           ?PR?IAP_WRITE_BYTES?ZF_EEPROM
   *DEL*:           000012H   BYTE   INSEG    CODE           ?PR?IAP_GET_CMD_STATE?ZF_EEPROM
   *DEL*:           000066H   BYTE   INSEG    CODE           ?PR?EXIT_INIT?ZF_EXTI
L251 LINKER/LOCATER V4.66.93.0                                                        11/18/2024  23:30:20  PAGE 13


   *DEL*:           000095H   BYTE   INSEG    CODE           ?PR?GPIO_PULL_SET?ZF_GPIO
   *DEL*:           000037H   BYTE   INSEG    CODE           ?PR?IIC_CHANGE_PIN?ZF_IIC
   *DEL*:           00001EH   BYTE   INSEG    CODE           ?PR?SEND_NAK?ZF_IIC
   *DEL*:           00007AH   BYTE   INSEG    CODE           ?PR?IIC_INIT?ZF_IIC
   *DEL*:           000099H   BYTE   INSEG    CODE           ?PR?IIC_READ_REG?ZF_IIC
   *DEL*:           0000D4H   BYTE   INSEG    CODE           ?PR?IIC_READ_REG_BYTES?ZF_IIC
   *DEL*:           00007CH   BYTE   INSEG    CODE           ?PR?IIC_WRITE_REG?ZF_IIC
   *DEL*:           0000B9H   BYTE   INSEG    CODE           ?PR?NVIC_SETPRIORITY?ZF_NVIC
   *DEL*:           0001ABH   BYTE   INSEG    CODE           ?PR?PWM_FREQ?ZF_PWM
   *DEL*:           000026H   BYTE   INSEG    CODE           ?PR?SPI_CHANGE_MODE?ZF_SPI
   *DEL*:           0000CCH   BYTE   INSEG    CODE           ?PR?SPI_CHANGE_PIN?ZF_SPI
   *DEL*:           00002BH   BYTE   INSEG    CODE           ?PR?UART_PUTSTR?ZF_UART
   *DEL*:           00013BH   BYTE   INSEG    CODE           ?PR?FIFO_WRITE_ELEMENT?ZF_FIFO
   *DEL*:           000434H   BYTE   INSEG    CODE           ?PR?FIFO_READ_TAIL_BUFFER?ZF_FIFO
   *DEL*:           0000EAH   BYTE   INSEG    CODE           ?PR?FIFO_CLEAR?ZF_FIFO
   *DEL*:           00018BH   BYTE   INSEG    CODE           ?PR?FIFO_READ_ELEMENT?ZF_FIFO
   *DEL*:           0000CDH   BYTE   INSEG    CODE           ?PR?LCD_SHOWUINT16?SEEKFREE_18TFT
   *DEL*:           0000CEH   BYTE   INSEG    CODE           ?PR?LCD_SHOWINT32_SIMSPI?SEEKFREE_18TFT
   *DEL*:           000119H   BYTE   INSEG    CODE           ?PR?LCD_SHOWINT16_SIMSPI?SEEKFREE_18TFT
   *DEL*:           0000CEH   BYTE   INSEG    CODE           ?PR?LCD_SHOWINT32?SEEKFREE_18TFT
   *DEL*:           000119H   BYTE   INSEG    CODE           ?PR?LCD_SHOWINT16?SEEKFREE_18TFT
   *DEL*:           0001FDH   BYTE   INSEG    CODE           ?PR?LCD_INIT_SIMSPI?SEEKFREE_18TFT
   *DEL*:           0000ECH   BYTE   INSEG    CODE           ?PR?SHOWIMAGE?SEEKFREE_18TFT
   *DEL*:           0001F3H   BYTE   INSEG    CODE           ?PR?LCD_INIT?SEEKFREE_18TFT
   *DEL*:           0000A9H   BYTE   INSEG    CODE           ?PR?LCD_SHOWUINT8_SIMSPI?SEEKFREE_18TFT
   *DEL*:           0000A9H   BYTE   INSEG    CODE           ?PR?LCD_SHOWUINT8?SEEKFREE_18TFT
   *DEL*:           0000EBH   BYTE   INSEG    CODE           ?PR?LCD_SHOWINT8_SIMSPI?SEEKFREE_18TFT
   *DEL*:           0000EBH   BYTE   INSEG    CODE           ?PR?LCD_SHOWINT8?SEEKFREE_18TFT
   *DEL*:           000145H   BYTE   INSEG    CODE           ?PR?LCD_SHOWFLOAT_SIMSPI?SEEKFREE_18TFT
   *DEL*:           000023H   BYTE   INSEG    CODE           ?PR?LCD_DRAWPOINT_SIMSPI?SEEKFREE_18TFT
   *DEL*:           000145H   BYTE   INSEG    CODE           ?PR?LCD_SHOWFLOAT?SEEKFREE_18TFT
   *DEL*:           000023H   BYTE   INSEG    CODE           ?PR?LCD_DRAWPOINT?SEEKFREE_18TFT
   *DEL*:           0000CDH   BYTE   INSEG    CODE           ?PR?LCD_SHOWUINT16_SIMSPI?SEEKFREE_18TFT
   *DEL*:           00002EH   BYTE   INSEG    CODE           ?PR?BLUETOOTH_CH9141_READ_BUFF?SEEKFREE_BLUETOOTH_CH9141
   *DEL*:           0000D4H   BYTE   INSEG    CODE           ?PR?BLUETOOTH_CH9141_SEND_BUFF?SEEKFREE_BLUETOOTH_CH9141
   *DEL*:           000045H   BYTE   INSEG    CODE           ?PR?BLUETOOTH_CH9141_INIT?SEEKFREE_BLUETOOTH_CH9141
   *DEL*:           00006CH   BYTE   INSEG    CODE           ?PR?DL1A_GET_DISTANCE?SEEKFREE_DL1A
   *DEL*:           000068H   BYTE   INSEG    CODE           ?PR?DL1A_SIMIIC_READ_REGS_1?SEEKFREE_DL1A
   *DEL*:           0006AEH   BYTE   INSEG    CODE           ?PR?DL1A_INIT?SEEKFREE_DL1A
   *DEL*:           000133H   BYTE   INSEG    CODE           ?PR?DL1B_GET_DISTANCE?SEEKFREE_DL1B
   *DEL*:           000112H   BYTE   INSEG    CODE           ?PR?DL1B_INIT?SEEKFREE_DL1B
   *DEL*:           000178H   BYTE   INSEG    CODE           ?PR?FUNC_STR_TO_DOUBLE?SEEKFREE_FUNCTION
   *DEL*:           000287H   BYTE   INSEG    CODE           ?PR?FUNC_FLOAT_TO_STR?SEEKFREE_FUNCTION
   *DEL*:           000178H   BYTE   INSEG    CODE           ?PR?FUNC_STR_TO_FLOAT?SEEKFREE_FUNCTION
   *DEL*:           000019H   BYTE   INSEG    CODE           ?PR?FUNC_SOFT_DELAY?SEEKFREE_FUNCTION
   *DEL*:           00005FH   BYTE   INSEG    CODE           ?PR?FUNC_STR_TO_UINT?SEEKFREE_FUNCTION
   *DEL*:           0000E3H   BYTE   INSEG    CODE           ?PR?FUNC_HEX_TO_STR?SEEKFREE_FUNCTION
   *DEL*:           000137H   BYTE   INSEG    CODE           ?PR?FUNC_STR_TO_HEX?SEEKFREE_FUNCTION
   *DEL*:           0000B6H   BYTE   INSEG    CODE           ?PR?FUNC_STR_TO_INT?SEEKFREE_FUNCTION
   *DEL*:           00004FH   BYTE   INSEG    CODE           ?PR?FUNC_GET_GREATEST_COMMON_DIVISOR?SEEKFREE_FUNCTION
   *DEL*:           00008DH   BYTE   INSEG    CODE           ?PR?ICM20602_GYRO_TRANSITION?SEEKFREE_ICM20602
   *DEL*:           0000C2H   BYTE   INSEG    CODE           ?PR?ICM20602_INIT?SEEKFREE_ICM20602
   *DEL*:           000050H   BYTE   INSEG    CODE           ?PR?ICM20602_GET_ACC?SEEKFREE_ICM20602
   *DEL*:           000089H   BYTE   INSEG    CODE           ?PR?ICM20602_ACC_TRANSITION?SEEKFREE_ICM20602
   *DEL*:           000050H   BYTE   INSEG    CODE           ?PR?ICM20602_GET_GYRO?SEEKFREE_ICM20602
   *DEL*:           000050H   BYTE   INSEG    CODE           ?PR?IMU660RA_GET_GYRO?SEEKFREE_IMU660RA
   *DEL*:           0000A8H   BYTE   INSEG    CODE           ?PR?IMU660RA_GYRO_TRANSITION?SEEKFREE_IMU660RA
   *DEL*:           0000AAH   BYTE   INSEG    CODE           ?PR?IMU660RA_INIT?SEEKFREE_IMU660RA
   *DEL*:           000050H   BYTE   INSEG    CODE           ?PR?IMU660RA_GET_ACC?SEEKFREE_IMU660RA
   *DEL*:           00007CH   BYTE   INSEG    CODE           ?PR?IMU660RA_ACC_TRANSITION?SEEKFREE_IMU660RA
   *DEL*:           000026H   BYTE   INSEG    CODE           ?PR?IMU660RA_READ_REGISTERS?SEEKFREE_IMU660RA
   *DEL*:           00008DH   BYTE   INSEG    CODE           ?PR?IMU963RA_ACC_TRANSITION?SEEKFREE_IMU963RA
   *DEL*:           000050H   BYTE   INSEG    CODE           ?PR?IMU963RA_GET_GYRO?SEEKFREE_IMU963RA
   *DEL*:           000051H   BYTE   INSEG    CODE           ?PR?IMU963RA_MAG_TRANSITION?SEEKFREE_IMU963RA
   *DEL*:           0000D2H   BYTE   INSEG    CODE           ?PR?IMU963RA_GYRO_TRANSITION?SEEKFREE_IMU963RA
L251 LINKER/LOCATER V4.66.93.0                                                        11/18/2024  23:30:20  PAGE 14


   *DEL*:           00011DH   BYTE   INSEG    CODE           ?PR?IMU963RA_INIT?SEEKFREE_IMU963RA
   *DEL*:           00004EH   BYTE   INSEG    CODE           ?PR?IMU963RA_ACC_GYRO_SELF_CHECK?SEEKFREE_IMU963RA
   *DEL*:           000050H   BYTE   INSEG    CODE           ?PR?IMU963RA_GET_ACC?SEEKFREE_IMU963RA
   *DEL*:           00006BH   BYTE   INSEG    CODE           ?PR?IMU963RA_GET_MAG?SEEKFREE_IMU963RA
   *DEL*:           0000A9H   BYTE   INSEG    CODE           ?PR?IPS114_SHOWUINT8_SIMSPI?SEEKFREE_IPS114_SPI
   *DEL*:           0000A5H   BYTE   INSEG    CODE           ?PR?IPS114_SHOWUINT8?SEEKFREE_IPS114_SPI
   *DEL*:           0000EBH   BYTE   INSEG    CODE           ?PR?IPS114_SHOWINT8_SIMSPI?SEEKFREE_IPS114_SPI
   *DEL*:           0000E7H   BYTE   INSEG    CODE           ?PR?IPS114_SHOWINT8?SEEKFREE_IPS114_SPI
   *DEL*:           000145H   BYTE   INSEG    CODE           ?PR?IPS114_SHOWFLOAT_SIMSPI?SEEKFREE_IPS114_SPI
   *DEL*:           000023H   BYTE   INSEG    CODE           ?PR?IPS114_DRAWPOINT_SIMSPI?SEEKFREE_IPS114_SPI
   *DEL*:           000145H   BYTE   INSEG    CODE           ?PR?IPS114_SHOWFLOAT?SEEKFREE_IPS114_SPI
   *DEL*:           000023H   BYTE   INSEG    CODE           ?PR?IPS114_DRAWPOINT?SEEKFREE_IPS114_SPI
   *DEL*:           0000CDH   BYTE   INSEG    CODE           ?PR?IPS114_SHOWUINT16_SIMSPI?SEEKFREE_IPS114_SPI
   *DEL*:           0000CDH   BYTE   INSEG    CODE           ?PR?IPS114_SHOWUINT16?SEEKFREE_IPS114_SPI
   *DEL*:           0000CEH   BYTE   INSEG    CODE           ?PR?IPS114_SHOWINT32_SIMSPI?SEEKFREE_IPS114_SPI
   *DEL*:           000119H   BYTE   INSEG    CODE           ?PR?IPS114_SHOWINT16_SIMSPI?SEEKFREE_IPS114_SPI
   *DEL*:           0000CEH   BYTE   INSEG    CODE           ?PR?IPS114_SHOWINT32?SEEKFREE_IPS114_SPI
   *DEL*:           000115H   BYTE   INSEG    CODE           ?PR?IPS114_SHOWINT16?SEEKFREE_IPS114_SPI
   *DEL*:           00005DH   BYTE   INSEG    CODE           ?PR?IPS114_SHOWSTR_SIMSPI?SEEKFREE_IPS114_SPI
   *DEL*:           00005DH   BYTE   INSEG    CODE           ?PR?IPS114_SHOWSTR?SEEKFREE_IPS114_SPI
   *DEL*:           000154H   BYTE   INSEG    CODE           ?PR?IPS114_INIT_SIMSPI?SEEKFREE_IPS114_SPI
   *DEL*:           000176H   BYTE   INSEG    CODE           ?PR?IPS114_INIT?SEEKFREE_IPS114_SPI
   *DEL*:           0000CCH   BYTE   INSEG    CODE           ?PR?IPS200_SHOW_FLOAT?SEEKFREE_IPS200_SPI
   *DEL*:           000132H   BYTE   INSEG    CODE           ?PR?IPS200_SHOW_WAVE?SEEKFREE_IPS200_SPI
   *DEL*:           000095H   BYTE   INSEG    CODE           ?PR?IPS200_SHOW_UINT?SEEKFREE_IPS200_SPI
   *DEL*:           000009H   BYTE   INSEG    CODE           ?PR?IPS200_SET_FONT?SEEKFREE_IPS200_SPI
   *DEL*:           00009BH   BYTE   INSEG    CODE           ?PR?IPS200_SHOW_INT?SEEKFREE_IPS200_SPI
   *DEL*:           000163H   BYTE   INSEG    CODE           ?PR?IPS200_SHOW_CHINESE?SEEKFREE_IPS200_SPI
   *DEL*:           000071H   BYTE   INSEG    CODE           ?PR?IPS200_FULL?SEEKFREE_IPS200_SPI
   *DEL*:           0001BEH   BYTE   INSEG    CODE           ?PR?IPS200_DRAW_LINE?SEEKFREE_IPS200_SPI
   *DEL*:           000060H   BYTE   INSEG    CODE           ?PR?MPU6050_INIT?SEEKFREE_MPU6050
   *DEL*:           000033H   BYTE   INSEG    CODE           ?PR?MPU6050_SELF1_CHECK?SEEKFREE_MPU6050
   *DEL*:           000052H   BYTE   INSEG    CODE           ?PR?MPU6050_GET_GYRO?SEEKFREE_MPU6050
   *DEL*:           000052H   BYTE   INSEG    CODE           ?PR?MPU6050_GET_ACCDATA?SEEKFREE_MPU6050
   *DEL*:           000047H   BYTE   INSEG    CODE           ?PR?OLED_PUTPIXEL?SEEKFREE_OLED
   *DEL*:           00044DH   BYTE   INSEG    CODE           ?PR?OLED_DIS_BMP_SPI?SEEKFREE_OLED
   *DEL*:           000145H   BYTE   INSEG    CODE           ?PR?OLED_PRINTF_FLOAT?SEEKFREE_OLED
   *DEL*:           000121H   BYTE   INSEG    CODE           ?PR?OLED_P8X16STR_SPI?SEEKFREE_OLED
   *DEL*:           000041H   BYTE   INSEG    CODE           ?PR?OLED_CLRPIXEL_SPI?SEEKFREE_OLED
   *DEL*:           0000C0H   BYTE   INSEG    CODE           ?PR?OLED_PRINT_CHINESE_SPI?SEEKFREE_OLED
   *DEL*:           0000CEH   BYTE   INSEG    CODE           ?PR?OLED_PRINTF_INT32?SEEKFREE_OLED
   *DEL*:           000027H   BYTE   INSEG    CODE           ?PR?OLED_UINT16?SEEKFREE_OLED
   *DEL*:           000048H   BYTE   INSEG    CODE           ?PR?OLED_PUTPIXEL_SPI?SEEKFREE_OLED
   *DEL*:           000073H   BYTE   INSEG    CODE           ?PR?OLED_INT16?SEEKFREE_OLED
   *DEL*:           0000A8H   BYTE   INSEG    CODE           ?PR?OLED_INIT?SEEKFREE_OLED
   *DEL*:           000145H   BYTE   INSEG    CODE           ?PR?OLED_PRINTF_FLOAT_SPI?SEEKFREE_OLED
   *DEL*:           00006FH   BYTE   INSEG    CODE           ?PR?OLED_HEXASCII?SEEKFREE_OLED
   *DEL*:           0000CEH   BYTE   INSEG    CODE           ?PR?OLED_PRINTF_INT32_SPI?SEEKFREE_OLED
   *DEL*:           000027H   BYTE   INSEG    CODE           ?PR?OLED_UINT16_SPI?SEEKFREE_OLED
   *DEL*:           000073H   BYTE   INSEG    CODE           ?PR?OLED_INT16_SPI?SEEKFREE_OLED
   *DEL*:           00046AH   BYTE   INSEG    CODE           ?PR?OLED_DIS_BMP?SEEKFREE_OLED
   *DEL*:           0000C5H   BYTE   INSEG    CODE           ?PR?OLED_INIT_SPI?SEEKFREE_OLED
   *DEL*:           000121H   BYTE   INSEG    CODE           ?PR?OLED_P8X16STR?SEEKFREE_OLED
   *DEL*:           000040H   BYTE   INSEG    CODE           ?PR?OLED_CLRPIXEL?SEEKFREE_OLED
   *DEL*:           0000C0H   BYTE   INSEG    CODE           ?PR?OLED_PRINT_CHINESE?SEEKFREE_OLED
   *DEL*:           00008AH   BYTE   INSEG    CODE           ?PR?CCD_SEND_DATA?SEEKFREE_TSL1401
   *DEL*:           000022H   BYTE   INSEG    CODE           ?PR?CCD_INIT?SEEKFREE_TSL1401
   *DEL*:           00007CH   BYTE   INSEG    CODE           ?PR?CCD_COLLECT?SEEKFREE_TSL1401
   *DEL*:           0000DCH   BYTE   INSEG    CODE           ?PR?DATA_CONVERSION?SEEKFREE_VIRSCO
   *DEL*:           000021H   BYTE   INSEG    CODE           ?PR?WIRELESS_UART_SEND_BYTE?SEEKFREE_WIRELESS
   *DEL*:           0003F2H   BYTE   INSEG    CODE           ?PR?SEEKFREE_ASSISTANT_CAMERA_BOUNDARY_CONFIG?SEEKFREE_ASS
                                                             -ISTANT
   *DEL*:           000138H   BYTE   INSEG    CODE           ?PR?SEEKFREE_ASSISTANT_OSCILLOSCOPE_SEND?SEEKFREE_ASSISTAN
                                                             -T
   *DEL*:           00001AH   BYTE   INSEG    CODE           ?PR?SEEKFREE_ASSISTANT_INIT?SEEKFREE_ASSISTANT
L251 LINKER/LOCATER V4.66.93.0                                                        11/18/2024  23:30:20  PAGE 15


   *DEL*:           00003FH   BYTE   INSEG    CODE           ?PR?SEEKFREE_ASSISTANT_CAMERA_INFORMATION_CONFIG?SEEKFREE_
                                                             -ASSISTANT
   *DEL*:           000175H   BYTE   INSEG    CODE           ?PR?SEEKFREE_ASSISTANT_DATA_ANALYSIS?SEEKFREE_ASSISTANT
   *DEL*:           000034H   BYTE   INSEG    CODE           ?PR?SEEKFREE_ASSISTANT_CAMERA_SEND?SEEKFREE_ASSISTANT
   *DEL*:           00000CH   BYTE   INSEG    CODE           ?PR?BATTERY_INIT?BATTERY
   *DEL*:           000008H   BYTE   INSEG    CODE           ?PR?UPDATE_BATTERY_STATUS?BATTERY
   *DEL*:           0002A9H   BYTE   INSEG    CODE           ?PR?GET_ADC_RANGE?LINE
   *DEL*:           0000B8H   BYTE   INSEG    CODE           ?PR?EXCEPTION_HANDLER?STRAIGHT
   *DEL*:           000065H   BYTE   INSEG    CODE           ?PR?RING_HANDLER_DEPRECATED?RING
   *DEL*:           0000CBH   BYTE   INSEG    CODE           ?PR?RING_HANDLER?RING
   *DEL*:           000028H   BYTE   UNIT     EDATA          ?ED?PRINTF



OVERLAY MAP OF MODULE:   .\Out_File\SEEKFREE (board)


FUNCTION/MODULE                               EDATA_GROUP
--> CALLED FUNCTION/MODULE                    START  STOP
=========================================================
UART1_Isr/isr                                 ----- -----

*** NEW ROOT ********************************

UART2_Isr/isr                                 ----- -----
  +--> wireless_uart_callback/SEEKFREE_WIRELESS
  +--> bluetooth_ch9141_uart_callback/SEEKFREE_BLUETOOTH_CH9141

wireless_uart_callback/SEEKFREE_WIRELESS      ----- -----
  +--> fifo_write_buffer/zf_fifo

fifo_write_buffer/zf_fifo                     ----- -----
  +--> memcpy?_/memcpy
  +--> fifo_head_offset/zf_fifo

memcpy?_/memcpy                               ----- -----

fifo_head_offset/zf_fifo                      ----- -----

bluetooth_ch9141_uart_callback/SEEKFREE_+     ----- -----
... BLUETOOTH_CH9141
  +--> fifo_write_buffer/zf_fifo

*** NEW ROOT ********************************

UART3_Isr/isr                                 ----- -----

*** NEW ROOT ********************************

UART4_Isr/isr                                 ----- -----
  +--> wireless_uart_callback/SEEKFREE_WIRELESS
  +--> bluetooth_ch9141_uart_callback/SEEKFREE_BLUETOOTH_CH9141

*** NEW ROOT ********************************

INT0_Isr/isr                                  ----- -----

*** NEW ROOT ********************************

INT1_Isr/isr                                  ----- -----

*** NEW ROOT ********************************

INT2_Isr/isr                                  ----- -----

L251 LINKER/LOCATER V4.66.93.0                                                        11/18/2024  23:30:20  PAGE 16


*** NEW ROOT ********************************

INT3_Isr/isr                                  ----- -----

*** NEW ROOT ********************************

INT4_Isr/isr                                  ----- -----

*** NEW ROOT ********************************

TM0_Isr/isr                                   ----- -----

*** NEW ROOT ********************************

TM1_Isr/isr                                   ----- -----

*** NEW ROOT ********************************

TM2_Isr/isr                                   ----- -----

*** NEW ROOT ********************************

TM3_Isr/isr                                   ----- -----

*** NEW ROOT ********************************

TM4_Isr/isr                                   ----- -----

*** NEW ROOT ********************************

?C_C51STARTUP                                 ----- -----

*** NEW ROOT ********************************

?C_C51STARTUP?3                               ----- -----
  +--> main/main

main/main                                     ----- -----
  +--> clock_init/board
  +--> board_init/board
  +--> ips200_init_spi/SEEKFREE_IPS200_SPI
  +--> servo_init/servo
  +--> drv8701_init/drv8701_dual
  +--> encoder_init/encoder
  +--> Line_init/line
  +--> Beep_init/battery
  +--> wireless_uart_init/SEEKFREE_WIRELESS
  +--> straight_entrance/straight
  +--> SPRINTF/SPRINTF
  +--> strlen?_/STRLEN
  +--> wireless_uart_send_buff/SEEKFREE_WIRELESS
  +--> delay_ms/zf_delay
  +--> memset?_/memset
  +--> wireless_uart_read_buff/SEEKFREE_WIRELESS

clock_init/board                              ----- -----
  +--> set_clk/board

set_clk/board                                 ----- -----

board_init/board                              ----- -----
  +--> delay_init/zf_delay
  +--> ICacheOn/board
  +--> uart_init/zf_uart
  +--> EnableGlobalIRQ/board
L251 LINKER/LOCATER V4.66.93.0                                                        11/18/2024  23:30:20  PAGE 17



delay_init/zf_delay                           ----- -----
  +--> ?C?SLDIV/?C?SLDIV

?C?SLDIV/?C?SLDIV                             ----- -----
  +--> ?C?ULIDIV/?C?ULDIV

?C?ULIDIV/?C?ULDIV                            ----- -----

ICacheOn/board                                ----- -----

uart_init/zf_uart                             ----- -----
  +--> ?C?ULIDIV/?C?ULDIV

EnableGlobalIRQ/board                         ----- -----

ips200_init_spi/SEEKFREE_IPS200_SPI           ----- -----
  +--> spi_init/zf_spi
  +--> ips200_set_dir/SEEKFREE_IPS200_SPI
  +--> ips200_set_color/SEEKFREE_IPS200_SPI
  +--> delay_ms/zf_delay
  +--> ips200_write_command/SEEKFREE_IPS200_SPI
  +--> ips200_write_8bit_data/SEEKFREE_IPS200_SPI
  +--> ips200_clear/SEEKFREE_IPS200_SPI

spi_init/zf_spi                               ----- -----
  +--> gpio_mode/zf_gpio

gpio_mode/zf_gpio                             ----- -----

ips200_set_dir/SEEKFREE_IPS200_SPI            ----- -----

ips200_set_color/SEEKFREE_IPS200_SPI          ----- -----

delay_ms/zf_delay                             ----- -----

ips200_write_command/SEEKFREE_IPS200_SPI      ----- -----
  +--> ips200_write_8bit_data_spi/SEEKFREE_IPS200_SPI

ips200_write_8bit_data_spi/SEEKFREE_IPS2+     ----- -----
... 00_SPI
  +--> spi_mosi/zf_spi

spi_mosi/zf_spi                               ----- -----

ips200_write_8bit_data/SEEKFREE_IPS200_S+     ----- -----
... PI
  +--> ips200_write_8bit_data_spi/SEEKFREE_IPS200_SPI

ips200_clear/SEEKFREE_IPS200_SPI              ----- -----
  +--> ips200_set_region/SEEKFREE_IPS200_SPI
  +--> ips200_write_16bit_data/SEEKFREE_IPS200_SPI

ips200_set_region/SEEKFREE_IPS200_SPI         ----- -----
  +--> ips200_write_command/SEEKFREE_IPS200_SPI
  +--> ips200_write_16bit_data/SEEKFREE_IPS200_SPI

ips200_write_16bit_data/SEEKFREE_IPS200_+     ----- -----
... SPI
  +--> ips200_write_16bit_data_spi/SEEKFREE_IPS200_SPI

ips200_write_16bit_data_spi/SEEKFREE_IPS+     ----- -----
... 200_SPI
  +--> spi_mosi/zf_spi

L251 LINKER/LOCATER V4.66.93.0                                                        11/18/2024  23:30:20  PAGE 18


servo_init/servo                              ----- -----
  +--> pwm_init/zf_pwm

pwm_init/zf_pwm                               ----- -----
  +--> pwm_set_gpio/zf_pwm
  +--> ?C?ULIDIV/?C?ULDIV
  +--> FCASTL/STC32F_FPMU
  +--> FPDIV/STC32F_FPMU
  +--> FPMUL/STC32F_FPMU
  +--> CASTF/STC32F_FPMU

pwm_set_gpio/zf_pwm                           ----- -----
  +--> gpio_mode/zf_gpio

FCASTL/STC32F_FPMU                            ----- -----

FPDIV/STC32F_FPMU                             ----- -----

FPMUL/STC32F_FPMU                             ----- -----

CASTF/STC32F_FPMU                             ----- -----

drv8701_init/drv8701_dual                     ----- -----
  +--> pwm_init/zf_pwm
  +--> gpio_mode/zf_gpio

encoder_init/encoder                          ----- -----
  +--> ctimer_count_init/zf_tim

ctimer_count_init/zf_tim                      ----- -----

Line_init/line                                ----- -----
  +--> adc_init/zf_adc

adc_init/zf_adc                               ----- -----

Beep_init/battery                             ----- -----
  +--> gpio_mode/zf_gpio

wireless_uart_init/SEEKFREE_WIRELESS          ----- -----
  +--> fifo_init/zf_fifo
  +--> uart_init/zf_uart

fifo_init/zf_fifo                             ----- -----

straight_entrance/straight                    ----- -----
  +--> ips200_clear/SEEKFREE_IPS200_SPI
  +--> wireless_uart_send_buff/SEEKFREE_WIRELESS
  +--> PID_control_straint/straight
  +--> wireless_uart_read_buff/SEEKFREE_WIRELESS
  +--> drv8701_stop/drv8701_dual
  +--> delay_ms/zf_delay

wireless_uart_send_buff/SEEKFREE_WIRELES+     ----- -----
... S
  +--> uart_putbuff/zf_uart

uart_putbuff/zf_uart                          ----- -----
  +--> uart_putchar/zf_uart

uart_putchar/zf_uart                          ----- -----

PID_control_straint/straight                  ----- -----
  +--> Line_calculate_position/straight
  +--> FCASTI/STC32F_FPMU
L251 LINKER/LOCATER V4.66.93.0                                                        11/18/2024  23:30:20  PAGE 19


  +--> FPMUL/STC32F_FPMU
  +--> FPADD/STC32F_FPMU
  +--> CASTF/STC32F_FPMU
  +--> servo_set_position/servo
  +--> drv8701_control/drv8701_dual
  +--> FPCMP/STC32F_FPMU
  +--> FCHS/STC32F_FPMU

Line_calculate_position/straight              ----- -----
  +--> Line_read_raw/line
  +--> FCASTI/STC32F_FPMU
  +--> FPMUL/STC32F_FPMU
  +--> FPDIV/STC32F_FPMU
  +--> FPADD/STC32F_FPMU
  +--> FPCMP/STC32F_FPMU
  +--> Beep_set/battery
  +--> FPSUB/STC32F_FPMU
  +--> SPRINTF/SPRINTF
  +--> strlen?_/STRLEN
  +--> wireless_uart_send_buff/SEEKFREE_WIRELESS
  +--> CASTF/STC32F_FPMU

Line_read_raw/line                            ----- -----
  +--> adc_once/zf_adc

adc_once/zf_adc                               ----- -----

FCASTI/STC32F_FPMU                            ----- -----

FPADD/STC32F_FPMU                             ----- -----

FPCMP/STC32F_FPMU                             ----- -----

Beep_set/battery                              ----- -----

FPSUB/STC32F_FPMU                             ----- -----

SPRINTF/SPRINTF                               0A29H 0A50H
  +--> OUT/SPRINTF

OUT/SPRINTF                                   ----- -----
  +--> PUTCH/SPRINTF

PUTCH/SPRINTF                                 ----- -----

strlen?_/STRLEN                               ----- -----

servo_set_position/servo                      ----- -----
  +--> pwm_duty/zf_pwm

pwm_duty/zf_pwm                               ----- -----
  +--> FCASTL/STC32F_FPMU
  +--> FPDIV/STC32F_FPMU
  +--> FPMUL/STC32F_FPMU
  +--> CASTF/STC32F_FPMU

drv8701_control/drv8701_dual                  ----- -----
  +--> ?C?SLDIV/?C?SLDIV
  +--> pwm_duty/zf_pwm

FCHS/STC32F_FPMU                              ----- -----

wireless_uart_read_buff/SEEKFREE_WIRELES+     ----- -----
... S
  +--> fifo_read_buffer/zf_fifo
L251 LINKER/LOCATER V4.66.93.0                                                        11/18/2024  23:30:20  PAGE 20



fifo_read_buffer/zf_fifo                      ----- -----
  +--> fifo_used/zf_fifo
  +--> memcpy?_/memcpy
  +--> fifo_end_offset/zf_fifo

fifo_used/zf_fifo                             ----- -----

fifo_end_offset/zf_fifo                       ----- -----

drv8701_stop/drv8701_dual                     ----- -----
  +--> pwm_duty/zf_pwm

memset?_/memset                               ----- -----

*** NEW ROOT ********************************

?C_C51STARTUP?2                               ----- -----



PUBLIC SYMBOLS OF MODULE:  .\Out_File\SEEKFREE (board)


      VALUE       CLASS    TYPE      PUBLIC SYMBOL NAME
      =================================================
      00FF4727H   CODE     ---       ?C?BMOVENP
      00FF4725H   CODE     ---       ?C?BMOVENP8
      00FFAADBH   CODE     ---       ?C?CASTF
      000000FFH   NUMBER   ---       ?C?CODESEG
*DEL*:00000000H   CODE     ---       ?C?FCASTC
      00FFAAE1H   CODE     ---       ?C?FCASTI
      00FF005EH   CODE     ---       ?C?FCASTL
      00FF000EH   CODE     ---       ?C?FPADD
      00FFAAC0H   CODE     ---       ?C?FPCMP3
      00FF44F0H   CODE     ---       ?C?FPCONVERT
      00FF0056H   CODE     ---       ?C?FPDIV
      00FF001EH   CODE     ---       ?C?FPMUL
      00FFAAD4H   CODE     ---       ?C?FPNEG
      00FF45A8H   CODE     ---       ?C?FPROUND
      00FF0016H   CODE     ---       ?C?FPSUB
      00FF461BH   CODE     ---       ?C?FTNPWR
      00FF9F89H   CODE     ---       ?C?INITEDATA
      00FFAD9CH   HCONST   WORD      ?C?INITEDATA_END
      00FF4695H   CODE     ---       ?C?LIMUL
      00FF4684H   CODE     ---       ?C?LMUL
      00FF40D3H   CODE     ---       ?C?PRNFMT
      00FF4652H   CODE     ---       ?C?SIDIV
      00FF46F1H   CODE     NEAR LAB  ?C?SLDIV
      00FF0000H   CODE     ---       ?C?STARTUP
      00FF46A0H   CODE     NEAR LAB  ?C?ULDIV
      00FF469EH   CODE     NEAR LAB  ?C?ULIDIV
      00000001H   NUMBER   ---       ?C?XDATASEG
      00FF0000H   CODE     ---       ?C_STARTUP
      00000D34H   EDATA    BYTE      ?data_conversion?BYTE
      00000CC1H   EDATA    BYTE      ?dl1b_iic_transfer_8bit_array?BYTE
      00000CB1H   EDATA    BYTE      ?fifo_init?BYTE
      00000B80H   EDATA    BYTE      ?fifo_read_buffer?BYTE
      00000D69H   EDATA    BYTE      ?fifo_read_element?BYTE
      00000B98H   EDATA    BYTE      ?fifo_read_tail_buffer?BYTE
      00000C47H   EDATA    BYTE      ?fifo_write_buffer?BYTE
      00000E6CH   EDATA    BYTE      ?iap_read_bytes?BYTE
      00000E76H   EDATA    BYTE      ?iap_write_bytes?BYTE
      000010D8H   EDATA    BYTE      ?iic_init?BYTE
      000007E0H   EDATA    BYTE      ?ips114_showfloat?BYTE
L251 LINKER/LOCATER V4.66.93.0                                                        11/18/2024  23:30:20  PAGE 21


      000007B0H   EDATA    BYTE      ?ips114_showfloat_simspi?BYTE
      00000BE0H   EDATA    BYTE      ?ips200_draw_line?BYTE
      00000B67H   EDATA    BYTE      ?ips200_show_chinese?BYTE
      00000A76H   EDATA    BYTE      ?ips200_show_float?BYTE
      00000A99H   EDATA    BYTE      ?ips200_show_wave?BYTE
      00000780H   EDATA    BYTE      ?lcd_showfloat?BYTE
      00000750H   EDATA    BYTE      ?lcd_showfloat_simspi?BYTE
      00000810H   EDATA    BYTE      ?oled_printf_float?BYTE
      00000840H   EDATA    BYTE      ?oled_printf_float_spi?BYTE
*DEL*:00000028H   EDATA    ---       ?printf?BYTE
      00000C1FH   EDATA    BYTE      ?pwm_freq?BYTE
      00000C0BH   EDATA    BYTE      ?pwm_init?BYTE
      00000AD8H   EDATA    BYTE      ?seekfree_assistant_camera_boundary_config?BYTE
      00000CD1H   EDATA    BYTE      ?seekfree_assistant_camera_data_send?BYTE
      00000EF8H   EDATA    BYTE      ?seekfree_assistant_camera_information_config?BYTE
      00000D42H   EDATA    BYTE      ?spi_init?BYTE
      00000A51H   EDATA    ---       ?sprintf?BYTE
      00000CEEH   EDATA    BYTE      ?uart_init?BYTE
      00000E80H   EDATA    BYTE      ?uart_putbuff?BYTE
      000005EFH   EDATA    BYTE      ?zf_sprintf?BYTE
*SFR* 000000E0H   DATA     BYTE      ACC
      00000F08H   EDATA    WORD      ad_result
*SFR* 000000BCH   DATA     BYTE      ADC_CONTR
      00FF8134H   CODE     ---       adc_init
      00FF9716H   CODE     ---       adc_once
*SFR* 000000BDH   DATA     BYTE      ADC_RES
*SFR* 000000BEH   DATA     BYTE      ADC_RESL
      00001090H   EDATA    ---       adc_value
*SFR* 000000DEH   DATA     BYTE      ADCCFG
      00000565H   EDATA    INT       angle
      00FF32FDH   CODE     ---       ascii_font_6x8
      00FF212DH   CODE     ---       ascii_font_8x16
*DEL*:00000000H   CODE     ---       ATAN?_
*SFR* 000000EFH   DATA     BYTE      AUXINTIF
*SFR* 0000008EH   DATA     BYTE      AUXR
*SFR* 00000097H   DATA     BYTE      AUXR2
*DEL*:00000000H   CODE     ---       battery_init
      00000F02H   EDATA    WORD      battery_percentage
      00000F0AH   EDATA    WORD      battery_voltage
      00FFAA95H   CODE     ---       Beep_init
      00FFAAA4H   CODE     ---       Beep_set
*DEL*:00000000H   CODE     ---       bluetooth_ch9141_init
*DEL*:00000000H   CODE     ---       bluetooth_ch9141_read_buff
*DEL*:00000000H   CODE     ---       bluetooth_ch9141_send_buff
      00FFA7C8H   CODE     ---       bluetooth_ch9141_uart_callback
      00FF89C6H   CODE     ---       board_init
      00001190H   EDATA    ---       busy
*SFR* 000000F1H   DATA     BYTE      CANICR
*DEL*:00000000H   CODE     ---       ccd_collect
      00000009H   EDATA    ---       ccd_data_ch1
      00000109H   EDATA    ---       ccd_data_ch2
*DEL*:00000000H   CODE     ---       ccd_init
*DEL*:00000000H   CODE     ---       ccd_send_data
      00FFAA4DH   CODE     ---       clear_encoder_distance
      00FFAA00H   CODE     ---       clock_init
*SFR* 000000E6H   DATA     BYTE      CMPCR1
*SFR* 000000E7H   DATA     BYTE      CMPCR2
*DEL*:00000000H   CODE     ---       COS?_
      00FF83F1H   CODE     ---       CRC_CHECK
      00FF92DBH   CODE     ---       ctimer_count_clean
      00FF9816H   CODE     ---       ctimer_count_init
      00FF81E9H   CODE     ---       ctimer_count_read
*DEL*:00000000H   CODE     ---       data_conversion
      00FFA5B1H   CODE     ---       delay_init
      00FFA203H   CODE     ---       delay_ms
L251 LINKER/LOCATER V4.66.93.0                                                        11/18/2024  23:30:20  PAGE 22


*DEL*:00000000H   CODE     ---       delay_us
      00001264H   EDATA    BYTE      dir
*DEL*:00000000H   CODE     ---       DisableGlobalIRQ
*DEL*:00000000H   CODE     ---       disalbe_icache
      00001234H   EDATA    WORD      dl1a_distance_mm
      00001236H   EDATA    BYTE      dl1a_finsh_flag
*DEL*:00000000H   CODE     ---       dl1a_get_distance
*DEL*:00000000H   CODE     ---       dl1a_init
      00FF00A6H   CODE     ---       dl1b_default_configuration
      000011E6H   EDATA    WORD      dl1b_distance_mm
      000011E8H   EDATA    BYTE      dl1b_finsh_flag
*DEL*:00000000H   CODE     ---       dl1b_get_distance
      00FF894DH   CODE     ---       dl1b_iic_transfer_8bit_array
*DEL*:00000000H   CODE     ---       dl1b_init
      000011E9H   EDATA    BYTE      dl1b_init_flag
*SFR* 000000EDH   DATA     BYTE      DMAIR
*SFR* 00000083H   DATA     BYTE      DPH
*SFR* 00000082H   DATA     BYTE      DPL
      00FF7970H   CODE     ---       drv8701_control
      00FFA031H   CODE     ---       drv8701_init
      00FF9E2AH   CODE     ---       drv8701_stop
      00001265H   EDATA    INT       duty
*SFR* 000000A8H.7 DATA     BIT       EA
      00FFA8EFH   CODE     ---       eeprom_trig
      00FF0006H   CODE     ---       EnableGlobalIRQ
*DEL*:00000000H   CODE     ---       enalbe_icache
      00FF0046H   CODE     ---       encoder_init
      00FF8B27H   CODE     ---       encoder_read1
      00FF8856H   CODE     ---       encoder_read2
*SFR* 000000A8H.4 DATA     BIT       ES
*SFR* 000000A8H.1 DATA     BIT       ET0
*SFR* 000000A8H.3 DATA     BIT       ET1
*SFR* 000000A8H.0 DATA     BIT       EX0
*SFR* 000000A8H.2 DATA     BIT       EX1
*DEL*:00000000H   CODE     ---       exception_handler
*DEL*:00000000H   CODE     ---       exit_init
*SFR* 000000D0H.5 DATA     BIT       F0
*DEL*:00000000H   CODE     ---       FABS?_
*DEL*:00000000H   CODE     ---       FCLEX
*DEL*:00000000H   CODE     ---       fifo_clear
      00FF86D5H   CODE     ---       fifo_init
      00FF57B1H   CODE     ---       fifo_read_buffer
*DEL*:00000000H   CODE     ---       fifo_read_element
*DEL*:00000000H   CODE     ---       fifo_read_tail_buffer
      00FFA542H   CODE     ---       fifo_used
      00FF5B5DH   CODE     ---       fifo_write_buffer
*DEL*:00000000H   CODE     ---       fifo_write_element
*DEL*:00000000H   CODE     ---       FINIT
*DEL*:00000000H   CODE     ---       FPCRR
*DEL*:00000000H   CODE     ---       FPCRW
*DEL*:00000000H   CODE     ---       FPSRR
*DEL*:00000000H   CODE     ---       FPSRW
      00FF64AEH   CODE     ---       func_double_to_str
*DEL*:00000000H   CODE     ---       func_float_to_str
*DEL*:00000000H   CODE     ---       func_get_greatest_common_divisor
*DEL*:00000000H   CODE     ---       func_hex_to_str
      00FF7692H   CODE     ---       func_int_to_str
*DEL*:00000000H   CODE     ---       func_soft_delay
*DEL*:00000000H   CODE     ---       func_str_to_double
*DEL*:00000000H   CODE     ---       func_str_to_float
*DEL*:00000000H   CODE     ---       func_str_to_hex
*DEL*:00000000H   CODE     ---       func_str_to_int
*DEL*:00000000H   CODE     ---       func_str_to_uint
      00FF8348H   CODE     ---       func_uint_to_str
*DEL*:00000000H   CODE     ---       FXAM
L251 LINKER/LOCATER V4.66.93.0                                                        11/18/2024  23:30:20  PAGE 23


*DEL*:00000000H   CODE     ---       Get_ADC_Range
      00FF9100H   CODE     ---       get_battery_percentage
      00FF909CH   CODE     ---       get_battery_voltage
      00FFA896H   CODE     ---       get_encoder_distance
      00FF374DH   CODE     ---       gpio_mode
*DEL*:00000000H   CODE     ---       gpio_pull_set
*SFR* 000000F6H   DATA     BYTE      IAP_ADDRE
*SFR* 000000C3H   DATA     BYTE      IAP_ADDRH
*SFR* 000000C4H   DATA     BYTE      IAP_ADDRL
*SFR* 000000C5H   DATA     BYTE      IAP_CMD
*SFR* 000000C7H   DATA     BYTE      IAP_CONTR
*SFR* 000000C2H   DATA     BYTE      IAP_DATA
*DEL*:00000000H   CODE     ---       iap_erase_page
*DEL*:00000000H   CODE     ---       iap_get_cmd_state
*DEL*:00000000H   CODE     ---       iap_idle
*DEL*:00000000H   CODE     ---       iap_init
*DEL*:00000000H   CODE     ---       iap_read_bytes
      00FFA7AEH   CODE     ---       iap_set_tps
*SFR* 000000F5H   DATA     BYTE      IAP_TPS
*SFR* 000000C6H   DATA     BYTE      IAP_TRIG
*DEL*:00000000H   CODE     ---       iap_write_bytes
      00FFAA84H   CODE     ---       ICacheOn
*SFR* 000000F7H   DATA     BYTE      ICHECR
*DEL*:00000000H   CODE     ---       icm20602_acc_transition
      00000DD5H   EDATA    INT       icm20602_acc_x
      00000DD7H   EDATA    INT       icm20602_acc_y
      00000DD9H   EDATA    INT       icm20602_acc_z
*DEL*:00000000H   CODE     ---       icm20602_get_acc
*DEL*:00000000H   CODE     ---       icm20602_get_gyro
*DEL*:00000000H   CODE     ---       icm20602_gyro_transition
      00000DDBH   EDATA    INT       icm20602_gyro_x
      00000DDDH   EDATA    INT       icm20602_gyro_y
      00000DDFH   EDATA    INT       icm20602_gyro_z
*DEL*:00000000H   CODE     ---       icm20602_init
*SFR* 000000A8H   DATA     BYTE      IE
*SFR* 000000AFH   DATA     BYTE      IE2
*DEL*:00000000H   CODE     ---       iic_change_pin
      00FFA238H   CODE     ---       iic_delay_us
*DEL*:00000000H   CODE     ---       iic_init
*DEL*:00000000H   CODE     ---       iic_read_reg
*DEL*:00000000H   CODE     ---       iic_read_reg_bytes
*DEL*:00000000H   CODE     ---       iic_write_reg
*DEL*:00000000H   CODE     ---       imu660ra_acc_transition
      00000DE1H   EDATA    INT       imu660ra_acc_x
      00000DE3H   EDATA    INT       imu660ra_acc_y
      00000DE5H   EDATA    INT       imu660ra_acc_z
      00FF012DH   CODE     ---       imu660ra_config_file
*DEL*:00000000H   CODE     ---       imu660ra_get_acc
*DEL*:00000000H   CODE     ---       imu660ra_get_gyro
*DEL*:00000000H   CODE     ---       imu660ra_gyro_transition
      00000DE7H   EDATA    INT       imu660ra_gyro_x
      00000DE9H   EDATA    INT       imu660ra_gyro_y
      00000DEBH   EDATA    INT       imu660ra_gyro_z
*DEL*:00000000H   CODE     ---       imu660ra_init
*DEL*:00000000H   CODE     ---       imu963ra_acc_transition
      00000C59H   EDATA    INT       imu963ra_acc_x
      00000C5BH   EDATA    INT       imu963ra_acc_y
      00000C5DH   EDATA    INT       imu963ra_acc_z
*DEL*:00000000H   CODE     ---       imu963ra_get_acc
*DEL*:00000000H   CODE     ---       imu963ra_get_gyro
*DEL*:00000000H   CODE     ---       imu963ra_get_mag
*DEL*:00000000H   CODE     ---       imu963ra_gyro_transition
      00000C65H   EDATA    INT       imu963ra_gyro_x
      00000C67H   EDATA    INT       imu963ra_gyro_y
      00000C69H   EDATA    INT       imu963ra_gyro_z
L251 LINKER/LOCATER V4.66.93.0                                                        11/18/2024  23:30:20  PAGE 24


*DEL*:00000000H   CODE     ---       imu963ra_init
*DEL*:00000000H   CODE     ---       imu963ra_mag_transition
      00000C5FH   EDATA    INT       imu963ra_mag_x
      00000C61H   EDATA    INT       imu963ra_mag_y
      00000C63H   EDATA    INT       imu963ra_mag_z
      00FF0086H   CODE     ---       INT0_Isr
      00FF000AH   CODE     ---       INT1_Isr
      00FF008EH   CODE     ---       INT2_Isr
      00FF0096H   CODE     ---       INT3_Isr
      00FF009EH   CODE     ---       INT4_Isr
*SFR* 0000008FH   DATA     BYTE      INTCLKO
*SFR* 000000B8H   DATA     BYTE      IP
*SFR* 000000B5H   DATA     BYTE      IP2
*SFR* 000000B6H   DATA     BYTE      IP2H
*SFR* 000000DFH   DATA     BYTE      IP3
*SFR* 000000EEH   DATA     BYTE      IP3H
*SFR* 000000B7H   DATA     BYTE      IPH
      00FF91C0H   CODE     ---       ips114_clear
      00FF9161H   CODE     ---       ips114_clear_simspi
*DEL*:00000000H   CODE     ---       ips114_drawpoint
*DEL*:00000000H   CODE     ---       ips114_drawpoint_simspi
*DEL*:00000000H   CODE     ---       ips114_init
*DEL*:00000000H   CODE     ---       ips114_init_simspi
      00FF98BEH   CODE     ---       ips114_set_region
      00FF986AH   CODE     ---       ips114_set_region_simspi
      00FF7FBFH   CODE     ---       ips114_showchar
      00FF7F00H   CODE     ---       ips114_showchar_simspi
*DEL*:00000000H   CODE     ---       ips114_showfloat
*DEL*:00000000H   CODE     ---       ips114_showfloat_simspi
*DEL*:00000000H   CODE     ---       ips114_showint16
*DEL*:00000000H   CODE     ---       ips114_showint16_simspi
*DEL*:00000000H   CODE     ---       ips114_showint32
*DEL*:00000000H   CODE     ---       ips114_showint32_simspi
*DEL*:00000000H   CODE     ---       ips114_showint8
*DEL*:00000000H   CODE     ---       ips114_showint8_simspi
*DEL*:00000000H   CODE     ---       ips114_showstr
*DEL*:00000000H   CODE     ---       ips114_showstr_simspi
*DEL*:00000000H   CODE     ---       ips114_showuint16
*DEL*:00000000H   CODE     ---       ips114_showuint16_simspi
*DEL*:00000000H   CODE     ---       ips114_showuint8
*DEL*:00000000H   CODE     ---       ips114_showuint8_simspi
      00FFA982H   CODE     ---       ips114_writeData
      00FFA3DBH   CODE     ---       ips114_writedata_16bit
      00FF9B8AH   CODE     ---       ips114_writeData_simspi
      00FF97C1H   CODE     ---       ips114_writeDatai_16bit_simspi
      00FFA96DH   CODE     ---       ips114_writeIndex
      00FF9B3EH   CODE     ---       ips114_writeIndex_simspi
      00FF8CE9H   CODE     ---       ips200_clear
*DEL*:00000000H   CODE     ---       ips200_draw_line
      00FFA330H   CODE     ---       ips200_draw_point
*DEL*:00000000H   CODE     ---       ips200_full
      00FF6926H   CODE     ---       ips200_init_spi
      00FFA997H   CODE     ---       ips200_set_color
      00FFA196H   CODE     ---       ips200_set_dir
*DEL*:00000000H   CODE     ---       ips200_set_font
      00FF6735H   CODE     ---       ips200_show_char
*DEL*:00000000H   CODE     ---       ips200_show_chinese
*DEL*:00000000H   CODE     ---       ips200_show_float
*DEL*:00000000H   CODE     ---       ips200_show_int
      00FF85B4H   CODE     ---       ips200_show_string
*DEL*:00000000H   CODE     ---       ips200_show_uint
*DEL*:00000000H   CODE     ---       ips200_show_wave
      00FFA6BFH   CODE     ---       ips200_write_16bit_data_spi
      00FFAACCH   CODE     ---       ips200_write_8bit_data_spi
*SFR* 0000009DH   DATA     BYTE      IRCBAND
L251 LINKER/LOCATER V4.66.93.0                                                        11/18/2024  23:30:20  PAGE 25


*SFR* 0000009FH   DATA     BYTE      IRTRIM
*SFR* 00000088H.0 DATA     BIT       IT0
*SFR* 00000088H.2 DATA     BIT       IT1
      0000056BH   EDATA    FLOAT     Kd
      00000571H   EDATA    FLOAT     Ki
      00000575H   EDATA    FLOAT     Kp
      00FF96BFH   CODE     ---       lcd_clear
      00FF9668H   CODE     ---       lcd_clear_simspi
*DEL*:00000000H   CODE     ---       lcd_drawpoint
*DEL*:00000000H   CODE     ---       lcd_drawpoint_simspi
*DEL*:00000000H   CODE     ---       lcd_init
*DEL*:00000000H   CODE     ---       lcd_init_simspi
      00FF9038H   CODE     ---       lcd_set_region
      00FF8FD4H   CODE     ---       lcd_set_region_simspi
      00FF7E41H   CODE     ---       lcd_showchar
      00FF7D82H   CODE     ---       lcd_showchar_simspi
*DEL*:00000000H   CODE     ---       lcd_showfloat
*DEL*:00000000H   CODE     ---       lcd_showfloat_simspi
*DEL*:00000000H   CODE     ---       lcd_showint16
*DEL*:00000000H   CODE     ---       lcd_showint16_simspi
*DEL*:00000000H   CODE     ---       lcd_showint32
*DEL*:00000000H   CODE     ---       lcd_showint32_simspi
*DEL*:00000000H   CODE     ---       lcd_showint8
*DEL*:00000000H   CODE     ---       lcd_showint8_simspi
      00FF9395H   CODE     ---       lcd_showstr
      00FF9338H   CODE     ---       lcd_showstr_simspi
*DEL*:00000000H   CODE     ---       lcd_showuint16
*DEL*:00000000H   CODE     ---       lcd_showuint16_simspi
*DEL*:00000000H   CODE     ---       lcd_showuint8
*DEL*:00000000H   CODE     ---       lcd_showuint8_simspi
      00FFA958H   CODE     ---       lcd_writeData
      00FFA35DH   CODE     ---       lcd_writedata_16bit
      00FF976CH   CODE     ---       lcd_writeData_16bit_simspi
      00FF9AF2H   CODE     ---       lcd_writeData_simspi
      00FFA943H   CODE     ---       lcd_writeIndex
      00FF9AA6H   CODE     ---       lcd_writeIndex_simspi
      00FF6F33H   CODE     ---       Line_calculate_position
      00FF7791H   CODE     ---       Line_calculate_position_ring
      00FFA567H   CODE     ---       Line_init
      00FF7CB7H   CODE     ---       Line_read_raw
*SFR* 000000F9H   DATA     BYTE      LINICR
      00FF8520H   CODE     ---       main
      00000579H   EDATA    FLOAT     MAX_DERIVATIVE
      00000567H   EDATA    FLOAT     MAX_INTEGRAL
      00FFA58CH   CODE     ---       memcpy?_
      00FFA864H   CODE     ---       memset?_
      00000E1DH   EDATA    INT       mpu6050_acc_x
      00000E1FH   EDATA    INT       mpu6050_acc_y
      00000E21H   EDATA    INT       mpu6050_acc_z
*DEL*:00000000H   CODE     ---       mpu6050_get_accdata
*DEL*:00000000H   CODE     ---       mpu6050_get_gyro
      00000E23H   EDATA    INT       mpu6050_gyro_x
      00000E25H   EDATA    INT       mpu6050_gyro_y
      00000E27H   EDATA    INT       mpu6050_gyro_z
*DEL*:00000000H   CODE     ---       mpu6050_init
      00FFA121H   CODE     ---       mpu6050_simiic_read_reg
      00FF8DC2H   CODE     ---       mpu6050_simiic_read_regs
*DEL*:00000000H   CODE     ---       NVIC_SetPriority
      00FF3525H   CODE     ---       oled_6x8
      00FF271DH   CODE     ---       oled_8x16
*DEL*:00000000H   CODE     ---       oled_clrpixel
*DEL*:00000000H   CODE     ---       oled_clrpixel_spi
*DEL*:00000000H   CODE     ---       oled_dis_bmp
*DEL*:00000000H   CODE     ---       oled_dis_bmp_spi
      00FF93F2H   CODE     ---       oled_fill
L251 LINKER/LOCATER V4.66.93.0                                                        11/18/2024  23:30:20  PAGE 26


      00FF944FH   CODE     ---       oled_fill_spi
*DEL*:00000000H   CODE     ---       oled_hexascii
      00FF8C7AH   CODE     ---       oled_hexascii_spi
*DEL*:00000000H   CODE     ---       oled_init
*DEL*:00000000H   CODE     ---       oled_init_spi
*DEL*:00000000H   CODE     ---       oled_int16
*DEL*:00000000H   CODE     ---       oled_int16_spi
      00FF7A47H   CODE     ---       oled_p6x8str
      00FF7B18H   CODE     ---       oled_p6x8str_spi
*DEL*:00000000H   CODE     ---       oled_p8x16str
*DEL*:00000000H   CODE     ---       oled_p8x16str_spi
*DEL*:00000000H   CODE     ---       oled_print_chinese
*DEL*:00000000H   CODE     ---       oled_print_chinese_spi
*DEL*:00000000H   CODE     ---       oled_printf_float
*DEL*:00000000H   CODE     ---       oled_printf_float_spi
*DEL*:00000000H   CODE     ---       oled_printf_int32
*DEL*:00000000H   CODE     ---       oled_printf_int32_spi
*DEL*:00000000H   CODE     ---       oled_putpixel
*DEL*:00000000H   CODE     ---       oled_putpixel_spi
      00FFA26DH   CODE     ---       oled_set_pos
      00FFA1CDH   CODE     ---       oled_set_pos_spi
*DEL*:00000000H   CODE     ---       oled_uint16
*DEL*:00000000H   CODE     ---       oled_uint16_spi
      00FF9BD6H   CODE     ---       oled_wrcmd
      00FFA9D6H   CODE     ---       oled_wrcmd_spi
      00FF9C22H   CODE     ---       oled_wrdat
      00FFA9EBH   CODE     ---       oled_wrdat_spi
*SFR* 00000080H   DATA     BYTE      P0
*SFR* 00000080H.2 DATA     BIT       P02
*SFR* 00000080H.7 DATA     BIT       P07
*SFR* 00000094H   DATA     BYTE      P0M0
*SFR* 00000093H   DATA     BYTE      P0M1
*SFR* 00000090H   DATA     BYTE      P1
*SFR* 00000090H.0 DATA     BIT       P10
*SFR* 00000092H   DATA     BYTE      P1M0
*SFR* 00000091H   DATA     BYTE      P1M1
*SFR* 000000A0H   DATA     BYTE      P2
*SFR* 000000A0H.0 DATA     BIT       P20
*SFR* 000000A0H.1 DATA     BIT       P21
*SFR* 000000A0H.2 DATA     BIT       P22
*SFR* 000000A0H.3 DATA     BIT       P23
*SFR* 000000A0H.4 DATA     BIT       P24
*SFR* 000000A0H.5 DATA     BIT       P25
*SFR* 000000A0H.7 DATA     BIT       P27
*SFR* 00000096H   DATA     BYTE      P2M0
*SFR* 00000095H   DATA     BYTE      P2M1
*SFR* 000000B0H   DATA     BYTE      P3
*SFR* 000000B0H.2 DATA     BIT       P32
*SFR* 000000B0H.5 DATA     BIT       P35
*SFR* 000000B0H.6 DATA     BIT       P36
*SFR* 000000B0H.7 DATA     BIT       P37
*SFR* 000000B2H   DATA     BYTE      P3M0
*SFR* 000000B1H   DATA     BYTE      P3M1
*SFR* 000000C0H   DATA     BYTE      P4
*SFR* 000000C0H.0 DATA     BIT       P40
*SFR* 000000C0H.1 DATA     BIT       P41
*SFR* 000000C0H.2 DATA     BIT       P42
*SFR* 000000C0H.3 DATA     BIT       P43
*SFR* 000000B4H   DATA     BYTE      P4M0
*SFR* 000000B3H   DATA     BYTE      P4M1
*SFR* 000000C8H   DATA     BYTE      P5
*SFR* 000000C8H.2 DATA     BIT       P52
*SFR* 000000C8H.3 DATA     BIT       P53
*SFR* 000000CAH   DATA     BYTE      P5M0
*SFR* 000000C9H   DATA     BYTE      P5M1
L251 LINKER/LOCATER V4.66.93.0                                                        11/18/2024  23:30:20  PAGE 27


*SFR* 000000E8H   DATA     BYTE      P6
*SFR* 000000CCH   DATA     BYTE      P6M0
*SFR* 000000CBH   DATA     BYTE      P6M1
*SFR* 000000F8H   DATA     BYTE      P7
*SFR* 000000E2H   DATA     BYTE      P7M0
*SFR* 000000E1H   DATA     BYTE      P7M1
*SFR* 000000A2H   DATA     BYTE      P_SW1
*SFR* 000000BAH   DATA     BYTE      P_SW2
*SFR* 000000BBH   DATA     BYTE      P_SW3
*SFR* 00000087H   DATA     BYTE      PCON
      00FF7388H   CODE     ---       PID_control_ring
      00FF7280H   CODE     ---       PID_control_straint
      00FF788BH   CODE     ---       pit_timer_ms
      000005C5H   EDATA    INT       position
      00FF405AH   CODE     NEAR LAB  printf
*SFR* 000000D0H   DATA     BYTE      PSW
      00FFAA60H   CODE     ---       putchar
      00FFAF40H   HCONST   ---       PWM_ARR_ADDR
      00FFAF48H   HCONST   ---       PWM_CCER_ADDR
      00FFAF58H   HCONST   ---       PWM_CCMR_ADDR
      00FFAF20H   HCONST   ---       PWM_CCR_ADDR
      00FF7051H   CODE     ---       pwm_duty
*DEL*:00000000H   CODE     ---       pwm_freq
      00FF53D7H   CODE     ---       pwm_init
      00FF5EEFH   CODE     ---       pwm_set_gpio
      000005C1H   EDATA    FLOAT     reactFactor
      0000056FH   EDATA    INT       recv
      00FFA919H   CODE     ---       recv_ack
      00FFA75CH   CODE     ---       recv_data
      000012D8H   EDATA    BYTE      RING_FLAG
*DEL*:00000000H   CODE     ---       ring_handler
*DEL*:00000000H   CODE     ---       ring_handler_deprecated
*SFR* 000000FFH   DATA     BYTE      RSTCFG
*SFR* 0000009BH   DATA     BYTE      S2BUF
*SFR* 0000009AH   DATA     BYTE      S2CON
*SFR* 000000ADH   DATA     BYTE      S3BUF
*SFR* 000000ACH   DATA     BYTE      S3CON
*SFR* 000000FEH   DATA     BYTE      S4BUF
*SFR* 000000FDH   DATA     BYTE      S4CON
*SFR* 00000099H   DATA     BYTE      SBUF
*SFR* 00000098H   DATA     BYTE      SCON
*DEL*:00000000H   CODE     ---       seekfree_assistant_camera_boundary_config
      00FF7591H   CODE     ---       seekfree_assistant_camera_data_send
      00FF7490H   CODE     ---       seekfree_assistant_camera_dot_send
*DEL*:00000000H   CODE     ---       seekfree_assistant_camera_information_config
*DEL*:00000000H   CODE     ---       seekfree_assistant_camera_send
*DEL*:00000000H   CODE     ---       seekfree_assistant_data_analysis
*DEL*:00000000H   CODE     ---       seekfree_assistant_init
      00000211H   EDATA    ---       seekfree_assistant_oscilloscope_data
*DEL*:00000000H   CODE     ---       seekfree_assistant_oscilloscope_send
      00000254H   EDATA    ---       seekfree_assistant_parameter
      0000024CH   EDATA    ---       seekfree_assistant_parameter_update_flag
      00001216H   EDATA    ---       seekfree_assistant_receive
      00001218H   EDATA    ---       seekfree_assistant_transfer
      00FFA63BH   CODE     ---       send_ack
      00FFA42FH   CODE     ---       send_data
*DEL*:00000000H   CODE     ---       send_nak
      00FFA87EH   CODE     ---       servo_init
      00000E64H   EDATA    FLOAT     servo_Kd
      00000E68H   EDATA    FLOAT     servo_Kp
      00000E61H   EDATA    CHAR      servo_position
      00FF94ACH   CODE     ---       servo_set_position
      00FF4DABH   CODE     ---       set_clk
*DEL*:00000000H   CODE     ---       showimage
*DEL*:00000000H   CODE     ---       SIN?_
L251 LINKER/LOCATER V4.66.93.0                                                        11/18/2024  23:30:20  PAGE 28


*SFR* 000000CEH   DATA     BYTE      SPCTL
*SFR* 000000CFH   DATA     BYTE      SPDAT
*DEL*:00000000H   CODE     ---       spi_change_mode
*DEL*:00000000H   CODE     ---       spi_change_pin
      00FF7BE9H   CODE     ---       spi_init
      00FFAA72H   CODE     ---       spi_mosi
      00FF4086H   CODE     NEAR LAB  sprintf
*SFR* 000000CDH   DATA     BYTE      SPSTAT
*DEL*:00000000H   CODE     ---       SQRT?_
      00FFA904H   CODE     ---       start
      00FFA92EH   CODE     ---       stop
      0000057FH   EDATA    ---       str
      00FFA0AAH   CODE     ---       straight_entrance
      00FFAAB2H   CODE     ---       strlen?_
      000011AEH   EDATA    LONG      sys_clk
*SFR* 000000D6H   DATA     BYTE      T2H
*SFR* 000000D7H   DATA     BYTE      T2L
*SFR* 000000D4H   DATA     BYTE      T3H
*SFR* 000000D5H   DATA     BYTE      T3L
*SFR* 000000D2H   DATA     BYTE      T4H
*SFR* 000000D3H   DATA     BYTE      T4L
*SFR* 000000DDH   DATA     BYTE      T4T3M
*SFR* 000000AEH   DATA     BYTE      TA
*DEL*:00000000H   CODE     ---       TAN?_
*SFR* 00000088H   DATA     BYTE      TCON
      00000F04H   EDATA    DWORD     temp
      00FF2D0DH   CODE     ---       tft_ascii
*SFR* 0000008CH   DATA     BYTE      TH0
*SFR* 0000008DH   DATA     BYTE      TH1
*SFR* 0000008AH   DATA     BYTE      TL0
*SFR* 0000008BH   DATA     BYTE      TL1
      00FF0012H   CODE     ---       TM0_Isr
      00FF001AH   CODE     ---       TM1_Isr
      00FFAAE7H   CODE     ---       TM2_Isr
      00FFAAEBH   CODE     ---       TM3_Isr
      00FFAAEFH   CODE     ---       TM4_Isr
*SFR* 00000089H   DATA     BYTE      TMOD
*SFR* 00000088H.4 DATA     BIT       TR0
*SFR* 00000088H.6 DATA     BIT       TR1
      00000008H   EDATA    BYTE      tsl1401_finish_flag
      00FF9EF5H   CODE     ---       UART1_Isr
      00FF921FH   CODE     ---       UART2_Isr
      00FFA84AH   CODE     ---       UART3_Isr
      00FF927DH   CODE     ---       UART4_Isr
      00FF61FBH   CODE     ---       uart_init
      00FFA2A2H   CODE     ---       uart_putbuff
      00FF8A3DH   CODE     ---       uart_putchar
*DEL*:00000000H   CODE     ---       uart_putstr
*DEL*:00000000H   CODE     ---       update_battery_status
*SFR* 000000F4H   DATA     BYTE      USBCON
      00000EEEH   EDATA    ---       virtual_scope_data
*SFR* 000000A6H   DATA     BYTE      VRTRIM
      00FF9611H   CODE     ---       wait
*SFR* 000000C1H   DATA     BYTE      WDT_CONTR
      00001267H   EDATA    INT       wireless_type
      00FFA830H   CODE     ---       wireless_uart_callback
      00FF9E6FH   CODE     ---       wireless_uart_init
      00FFA2D5H   CODE     ---       wireless_uart_read_buff
      00FF8AB2H   CODE     ---       wireless_uart_send_buff
*DEL*:00000000H   CODE     ---       wireless_uart_send_byte
*SFR* 000000E9H   DATA     BYTE      WTST
      000011BAH   EDATA    WORD      zf_delay_ms
      000011BCH   EDATA    WORD      zf_delay_us
      00FF474AH   CODE     ---       zf_sprintf

L251 LINKER/LOCATER V4.66.93.0                                                        11/18/2024  23:30:20  PAGE 29




SYMBOL TABLE OF MODULE:  .\Out_File\SEEKFREE (board)

      VALUE       REP       CLASS    TYPE      SYMBOL NAME
      ====================================================
      ---         MODULE    ---      ---       board
      00FF0006H   PUBLIC    CODE     ---       EnableGlobalIRQ
      00FF89C6H   PUBLIC    CODE     ---       board_init
      00FFAA00H   PUBLIC    CODE     ---       clock_init
      00FFAA84H   PUBLIC    CODE     ---       ICacheOn
      00FF4DABH   PUBLIC    CODE     ---       set_clk
      00FFAA60H   PUBLIC    CODE     ---       putchar
      000011AEH   PUBLIC    EDATA    LONG      sys_clk
      00000094H   SFRSYM    DATA     BYTE      P0M0
      000000D0H   SFRSYM    DATA     BYTE      PSW
      0000009DH   SFRSYM    DATA     BYTE      IRCBAND
      00000097H   SFRSYM    DATA     BYTE      AUXR2
      000000EFH   SFRSYM    DATA     BYTE      AUXINTIF
      000000FDH   SFRSYM    DATA     BYTE      S4CON
      000000ACH   SFRSYM    DATA     BYTE      S3CON
      0000009AH   SFRSYM    DATA     BYTE      S2CON
      000000A6H   SFRSYM    DATA     BYTE      VRTRIM
      000000B7H   SFRSYM    DATA     BYTE      IPH
      000000CDH   SFRSYM    DATA     BYTE      SPSTAT
      000000DDH   SFRSYM    DATA     BYTE      T4T3M
      0000009FH   SFRSYM    DATA     BYTE      IRTRIM
      000000C1H   SFRSYM    DATA     BYTE      WDT_CONTR
      000000E9H   SFRSYM    DATA     BYTE      WTST
      000000DFH   SFRSYM    DATA     BYTE      IP3
      000000F4H   SFRSYM    DATA     BYTE      USBCON
      000000B5H   SFRSYM    DATA     BYTE      IP2
      000000FFH   SFRSYM    DATA     BYTE      RSTCFG
      000000C7H   SFRSYM    DATA     BYTE      IAP_CONTR
      000000F9H   SFRSYM    DATA     BYTE      LINICR
      0000008EH   SFRSYM    DATA     BYTE      AUXR
      000000AFH   SFRSYM    DATA     BYTE      IE2
      00000088H   SFRSYM    DATA     BYTE      TCON
      00000089H   SFRSYM    DATA     BYTE      TMOD
      00000098H   SFRSYM    DATA     BYTE      SCON
      000000F1H   SFRSYM    DATA     BYTE      CANICR
      00000087H   SFRSYM    DATA     BYTE      PCON
      000000BCH   SFRSYM    DATA     BYTE      ADC_CONTR
      000000F7H   SFRSYM    DATA     BYTE      ICHECR
      000000E7H   SFRSYM    DATA     BYTE      CMPCR2
      000000E6H   SFRSYM    DATA     BYTE      CMPCR1
      000000DEH   SFRSYM    DATA     BYTE      ADCCFG
      000000B8H   SFRSYM    DATA     BYTE      IP
      0000008FH   SFRSYM    DATA     BYTE      INTCLKO
      000000AEH   SFRSYM    DATA     BYTE      TA
      000000EEH   SFRSYM    DATA     BYTE      IP3H
      000000B6H   SFRSYM    DATA     BYTE      IP2H
      000000A8H   SFRSYM    DATA     BYTE      IE
      000000BBH   SFRSYM    DATA     BYTE      P_SW3
      000000BAH   SFRSYM    DATA     BYTE      P_SW2
      000000A2H   SFRSYM    DATA     BYTE      P_SW1
      000000CEH   SFRSYM    DATA     BYTE      SPCTL
      000000F8H   SFRSYM    DATA     BYTE      P7
      000000A8H.7 SFRSYM    DATA     BIT       EA
      000000E8H   SFRSYM    DATA     BYTE      P6
      000000C8H   SFRSYM    DATA     BYTE      P5
      000000C0H   SFRSYM    DATA     BYTE      P4
      000000C9H   SFRSYM    DATA     BYTE      P5M1
      000000B0H   SFRSYM    DATA     BYTE      P3
      000000B3H   SFRSYM    DATA     BYTE      P4M1
L251 LINKER/LOCATER V4.66.93.0                                                        11/18/2024  23:30:20  PAGE 30


      000000CAH   SFRSYM    DATA     BYTE      P5M0
      000000A0H   SFRSYM    DATA     BYTE      P2
      000000B1H   SFRSYM    DATA     BYTE      P3M1
      000000B4H   SFRSYM    DATA     BYTE      P4M0
      00000090H   SFRSYM    DATA     BYTE      P1
      00000095H   SFRSYM    DATA     BYTE      P2M1
      000000B2H   SFRSYM    DATA     BYTE      P3M0
      00000080H   SFRSYM    DATA     BYTE      P0
      00000091H   SFRSYM    DATA     BYTE      P1M1
      00000096H   SFRSYM    DATA     BYTE      P2M0
      00000092H   SFRSYM    DATA     BYTE      P1M0
      00000093H   SFRSYM    DATA     BYTE      P0M1

      00FF4DABH   BLOCK     CODE     ---       LVL=0
      00001000H   SYMBOL    EDATA    DWORD     clock
      00FF4DAFH   BLOCK     CODE     NEAR LAB  LVL=1
      00001004H   SYMBOL    EDATA    DWORD     temp_sys_clk
      ---         BLOCKEND  ---      ---       LVL=1
      00FF4DABH   LINE      CODE     ---       #35
      00FF4DAFH   LINE      CODE     ---       #36
      00FF4DAFH   LINE      CODE     ---       #37
      00FF4DB5H   LINE      CODE     ---       #40
      00FF4E96H   LINE      CODE     ---       #42
      00FF4E96H   LINE      CODE     ---       #44
      00FF4EA3H   LINE      CODE     ---       #45
      00FF4EB0H   LINE      CODE     ---       #46
      00FF4EBDH   LINE      CODE     ---       #47
      00FF4EC1H   LINE      CODE     ---       #48
      00FF4EC4H   LINE      CODE     ---       #49
      00FF4EC5H   LINE      CODE     ---       #50
      00FF4EC6H   LINE      CODE     ---       #51
      00FF4EC7H   LINE      CODE     ---       #52
      00FF4EC8H   LINE      CODE     ---       #53
      00FF4ED5H   LINE      CODE     ---       #54
      00FF4EDDH   LINE      CODE     ---       #55
      00FF4EE0H   LINE      CODE     ---       #57
      00FF4EE0H   LINE      CODE     ---       #59
      00FF4EEDH   LINE      CODE     ---       #60
      00FF4EFAH   LINE      CODE     ---       #61
      00FF4F07H   LINE      CODE     ---       #62
      00FF4F0BH   LINE      CODE     ---       #63
      00FF4F0EH   LINE      CODE     ---       #64
      00FF4F0FH   LINE      CODE     ---       #65
      00FF4F10H   LINE      CODE     ---       #66
      00FF4F11H   LINE      CODE     ---       #67
      00FF4F12H   LINE      CODE     ---       #68
      00FF4F1FH   LINE      CODE     ---       #69
      00FF4F27H   LINE      CODE     ---       #70
      00FF4F2AH   LINE      CODE     ---       #72
      00FF4F2AH   LINE      CODE     ---       #74
      00FF4F37H   LINE      CODE     ---       #75
      00FF4F44H   LINE      CODE     ---       #76
      00FF4F51H   LINE      CODE     ---       #77
      00FF4F55H   LINE      CODE     ---       #78
      00FF4F58H   LINE      CODE     ---       #79
      00FF4F59H   LINE      CODE     ---       #80
      00FF4F5AH   LINE      CODE     ---       #81
      00FF4F5BH   LINE      CODE     ---       #82
      00FF4F5CH   LINE      CODE     ---       #83
      00FF4F69H   LINE      CODE     ---       #84
      00FF4F71H   LINE      CODE     ---       #85
      00FF4F74H   LINE      CODE     ---       #87
      00FF4F74H   LINE      CODE     ---       #89
      00FF4F81H   LINE      CODE     ---       #90
      00FF4F8EH   LINE      CODE     ---       #91
L251 LINKER/LOCATER V4.66.93.0                                                        11/18/2024  23:30:20  PAGE 31


      00FF4F9BH   LINE      CODE     ---       #92
      00FF4F9FH   LINE      CODE     ---       #93
      00FF4FA0H   LINE      CODE     ---       #94
      00FF4FA1H   LINE      CODE     ---       #95
      00FF4FA2H   LINE      CODE     ---       #96
      00FF4FA3H   LINE      CODE     ---       #97
      00FF4FA6H   LINE      CODE     ---       #98
      00FF4FB3H   LINE      CODE     ---       #99
      00FF4FBBH   LINE      CODE     ---       #100
      00FF4FBEH   LINE      CODE     ---       #102
      00FF4FBEH   LINE      CODE     ---       #104
      00FF4FCBH   LINE      CODE     ---       #105
      00FF4FD8H   LINE      CODE     ---       #106
      00FF4FE5H   LINE      CODE     ---       #107
      00FF4FE9H   LINE      CODE     ---       #108
      00FF4FECH   LINE      CODE     ---       #109
      00FF4FEDH   LINE      CODE     ---       #110
      00FF4FEEH   LINE      CODE     ---       #111
      00FF4FEFH   LINE      CODE     ---       #112
      00FF4FF0H   LINE      CODE     ---       #113
      00FF4FFDH   LINE      CODE     ---       #114
      00FF5005H   LINE      CODE     ---       #115
      00FF5008H   LINE      CODE     ---       #117
      00FF5008H   LINE      CODE     ---       #119
      00FF5015H   LINE      CODE     ---       #120
      00FF5022H   LINE      CODE     ---       #121
      00FF502FH   LINE      CODE     ---       #122
      00FF5033H   LINE      CODE     ---       #123
      00FF5036H   LINE      CODE     ---       #124
      00FF5037H   LINE      CODE     ---       #125
      00FF5038H   LINE      CODE     ---       #126
      00FF5039H   LINE      CODE     ---       #127
      00FF503AH   LINE      CODE     ---       #128
      00FF5047H   LINE      CODE     ---       #129
      00FF504FH   LINE      CODE     ---       #130
      00FF5052H   LINE      CODE     ---       #132
      00FF5052H   LINE      CODE     ---       #134
      00FF505FH   LINE      CODE     ---       #135
      00FF506CH   LINE      CODE     ---       #136
      00FF5079H   LINE      CODE     ---       #137
      00FF507DH   LINE      CODE     ---       #138
      00FF5080H   LINE      CODE     ---       #139
      00FF5081H   LINE      CODE     ---       #140
      00FF5082H   LINE      CODE     ---       #141
      00FF5083H   LINE      CODE     ---       #142
      00FF5084H   LINE      CODE     ---       #143
      00FF5091H   LINE      CODE     ---       #144
      00FF5099H   LINE      CODE     ---       #145
      00FF509CH   LINE      CODE     ---       #147
      00FF509CH   LINE      CODE     ---       #149
      00FF50A9H   LINE      CODE     ---       #150
      00FF50B6H   LINE      CODE     ---       #151
      00FF50C3H   LINE      CODE     ---       #152
      00FF50C7H   LINE      CODE     ---       #153
      00FF50CAH   LINE      CODE     ---       #154
      00FF50CBH   LINE      CODE     ---       #155
      00FF50CCH   LINE      CODE     ---       #156
      00FF50CDH   LINE      CODE     ---       #157
      00FF50CEH   LINE      CODE     ---       #158
      00FF50DBH   LINE      CODE     ---       #159
      00FF50E3H   LINE      CODE     ---       #160
      00FF50E6H   LINE      CODE     ---       #162
      00FF50E6H   LINE      CODE     ---       #164
      00FF50F3H   LINE      CODE     ---       #165
      00FF5100H   LINE      CODE     ---       #166
L251 LINKER/LOCATER V4.66.93.0                                                        11/18/2024  23:30:20  PAGE 32


      00FF510DH   LINE      CODE     ---       #167
      00FF5111H   LINE      CODE     ---       #168
      00FF5114H   LINE      CODE     ---       #169
      00FF5115H   LINE      CODE     ---       #170
      00FF5116H   LINE      CODE     ---       #171
      00FF5117H   LINE      CODE     ---       #172
      00FF5118H   LINE      CODE     ---       #173
      00FF5125H   LINE      CODE     ---       #174
      00FF512DH   LINE      CODE     ---       #175
      00FF5130H   LINE      CODE     ---       #177
      00FF5130H   LINE      CODE     ---       #179
      00FF513DH   LINE      CODE     ---       #180
      00FF514AH   LINE      CODE     ---       #181
      00FF5157H   LINE      CODE     ---       #182
      00FF515BH   LINE      CODE     ---       #183
      00FF515EH   LINE      CODE     ---       #184
      00FF515FH   LINE      CODE     ---       #185
      00FF5160H   LINE      CODE     ---       #186
      00FF5161H   LINE      CODE     ---       #187
      00FF5162H   LINE      CODE     ---       #188
      00FF516FH   LINE      CODE     ---       #189
      00FF5177H   LINE      CODE     ---       #190
      00FF517AH   LINE      CODE     ---       #192
      00FF517AH   LINE      CODE     ---       #194
      00FF5187H   LINE      CODE     ---       #195
      00FF5194H   LINE      CODE     ---       #196
      00FF51A1H   LINE      CODE     ---       #197
      00FF51A5H   LINE      CODE     ---       #198
      00FF51A9H   LINE      CODE     ---       #199
      00FF51AAH   LINE      CODE     ---       #200
      00FF51ABH   LINE      CODE     ---       #201
      00FF51ACH   LINE      CODE     ---       #202
      00FF51ADH   LINE      CODE     ---       #203
      00FF51BAH   LINE      CODE     ---       #204
      00FF51C2H   LINE      CODE     ---       #205
      00FF51C5H   LINE      CODE     ---       #207
      00FF51C5H   LINE      CODE     ---       #209
      00FF51D2H   LINE      CODE     ---       #210
      00FF51DFH   LINE      CODE     ---       #211
      00FF51ECH   LINE      CODE     ---       #212
      00FF51F0H   LINE      CODE     ---       #213
      00FF51F4H   LINE      CODE     ---       #214
      00FF51F5H   LINE      CODE     ---       #215
      00FF51F6H   LINE      CODE     ---       #216
      00FF51F7H   LINE      CODE     ---       #217
      00FF51F8H   LINE      CODE     ---       #218
      00FF5205H   LINE      CODE     ---       #219
      00FF520DH   LINE      CODE     ---       #220
      00FF5210H   LINE      CODE     ---       #222
      00FF5210H   LINE      CODE     ---       #224
      00FF521DH   LINE      CODE     ---       #225
      00FF522AH   LINE      CODE     ---       #226
      00FF5237H   LINE      CODE     ---       #227
      00FF523BH   LINE      CODE     ---       #228
      00FF523FH   LINE      CODE     ---       #229
      00FF5240H   LINE      CODE     ---       #230
      00FF5241H   LINE      CODE     ---       #231
      00FF5242H   LINE      CODE     ---       #232
      00FF5243H   LINE      CODE     ---       #233
      00FF5250H   LINE      CODE     ---       #234
      00FF5258H   LINE      CODE     ---       #235
      00FF525BH   LINE      CODE     ---       #237
      00FF525BH   LINE      CODE     ---       #239
      00FF5268H   LINE      CODE     ---       #240
      00FF5275H   LINE      CODE     ---       #241
L251 LINKER/LOCATER V4.66.93.0                                                        11/18/2024  23:30:20  PAGE 33


      00FF5282H   LINE      CODE     ---       #242
      00FF5286H   LINE      CODE     ---       #243
      00FF528AH   LINE      CODE     ---       #244
      00FF528BH   LINE      CODE     ---       #245
      00FF528CH   LINE      CODE     ---       #246
      00FF528DH   LINE      CODE     ---       #247
      00FF528EH   LINE      CODE     ---       #248
      00FF529BH   LINE      CODE     ---       #249
      00FF52A3H   LINE      CODE     ---       #250
      00FF52A6H   LINE      CODE     ---       #252
      00FF52A6H   LINE      CODE     ---       #254
      00FF52B3H   LINE      CODE     ---       #255
      00FF52C0H   LINE      CODE     ---       #256
      00FF52CDH   LINE      CODE     ---       #257
      00FF52D1H   LINE      CODE     ---       #258
      00FF52D5H   LINE      CODE     ---       #259
      00FF52D6H   LINE      CODE     ---       #260
      00FF52D7H   LINE      CODE     ---       #261
      00FF52D8H   LINE      CODE     ---       #262
      00FF52D9H   LINE      CODE     ---       #263
      00FF52E6H   LINE      CODE     ---       #264
      00FF52EEH   LINE      CODE     ---       #265
      00FF52F1H   LINE      CODE     ---       #267
      00FF52F1H   LINE      CODE     ---       #269
      00FF52FEH   LINE      CODE     ---       #270
      00FF530BH   LINE      CODE     ---       #271
      00FF5318H   LINE      CODE     ---       #272
      00FF531CH   LINE      CODE     ---       #273
      00FF5320H   LINE      CODE     ---       #274
      00FF5321H   LINE      CODE     ---       #275
      00FF5322H   LINE      CODE     ---       #276
      00FF5323H   LINE      CODE     ---       #277
      00FF5324H   LINE      CODE     ---       #278
      00FF5331H   LINE      CODE     ---       #279
      00FF5339H   LINE      CODE     ---       #280
      00FF533CH   LINE      CODE     ---       #282
      00FF533CH   LINE      CODE     ---       #284
      00FF5349H   LINE      CODE     ---       #285
      00FF5356H   LINE      CODE     ---       #286
      00FF5363H   LINE      CODE     ---       #287
      00FF5367H   LINE      CODE     ---       #288
      00FF536BH   LINE      CODE     ---       #289
      00FF536CH   LINE      CODE     ---       #290
      00FF536DH   LINE      CODE     ---       #291
      00FF536EH   LINE      CODE     ---       #292
      00FF536FH   LINE      CODE     ---       #293
      00FF537CH   LINE      CODE     ---       #294
      00FF5384H   LINE      CODE     ---       #295
      00FF5386H   LINE      CODE     ---       #307
      00FF5386H   LINE      CODE     ---       #309
      00FF5393H   LINE      CODE     ---       #310
      00FF53A0H   LINE      CODE     ---       #311
      00FF53ADH   LINE      CODE     ---       #312
      00FF53B1H   LINE      CODE     ---       #313
      00FF53B5H   LINE      CODE     ---       #314
      00FF53B6H   LINE      CODE     ---       #315
      00FF53B7H   LINE      CODE     ---       #316
      00FF53B8H   LINE      CODE     ---       #317
      00FF53B9H   LINE      CODE     ---       #318
      00FF53C6H   LINE      CODE     ---       #319
      00FF53D2H   LINE      CODE     ---       #320
      00FF53D2H   LINE      CODE     ---       #321
      00FF53D2H   LINE      CODE     ---       #323
      00FF53D6H   LINE      CODE     ---       #324
      ---         BLOCKEND  ---      ---       LVL=0
L251 LINKER/LOCATER V4.66.93.0                                                        11/18/2024  23:30:20  PAGE 34



      00FFAA60H   BLOCK     CODE     ---       LVL=0
      000012BDH   SYMBOL    EDATA    CHAR      c
      00FFAA60H   LINE      CODE     ---       #333
      00FFAA64H   LINE      CODE     ---       #335
      00FFAA6DH   LINE      CODE     ---       #337
      00FFAA71H   LINE      CODE     ---       #338
      ---         BLOCKEND  ---      ---       LVL=0

      00FF0006H   BLOCK     CODE     ---       LVL=0
      00FF0006H   LINE      CODE     ---       #347
      00FF0006H   LINE      CODE     ---       #349
      00FF0009H   LINE      CODE     ---       #350
      ---         BLOCKEND  ---      ---       LVL=0

      00FFAA84H   BLOCK     CODE     ---       LVL=0
      00FFAA84H   LINE      CODE     ---       #385
      00FFAA84H   LINE      CODE     ---       #387
      00FFAA85H   LINE      CODE     ---       #388
      00FFAA86H   LINE      CODE     ---       #389
      00FFAA8AH   LINE      CODE     ---       #391
      00FFAA8EH   LINE      CODE     ---       #393
      00FFAA92H   LINE      CODE     ---       #395
      00FFAA93H   LINE      CODE     ---       #396
      00FFAA94H   LINE      CODE     ---       #397
      ---         BLOCKEND  ---      ---       LVL=0

      00FFAA00H   BLOCK     CODE     ---       LVL=0
      000011B2H   SYMBOL    EDATA    DWORD     clock
      00FFAA00H   LINE      CODE     ---       #399
      00FFAA04H   LINE      CODE     ---       #401
      00FFAA08H   LINE      CODE     ---       #409
      00FFAA13H   LINE      CODE     ---       #413
      ---         BLOCKEND  ---      ---       LVL=0

      00FF89C6H   BLOCK     CODE     ---       LVL=0
      00FF89C6H   LINE      CODE     ---       #416
      00FF89C6H   LINE      CODE     ---       #419
      00FF89C9H   LINE      CODE     ---       #422
      00FF89CCH   LINE      CODE     ---       #423
      00FF89CFH   LINE      CODE     ---       #424
      00FF89D2H   LINE      CODE     ---       #425
      00FF89D5H   LINE      CODE     ---       #426
      00FF89D8H   LINE      CODE     ---       #427
      00FF89DBH   LINE      CODE     ---       #428
      00FF89DEH   LINE      CODE     ---       #429
      00FF89E1H   LINE      CODE     ---       #430
      00FF89E4H   LINE      CODE     ---       #431
      00FF89E7H   LINE      CODE     ---       #432
      00FF89EAH   LINE      CODE     ---       #433
      00FF89EDH   LINE      CODE     ---       #452
      00FF89F0H   LINE      CODE     ---       #454
      00FF8A00H   LINE      CODE     ---       #459
      00FF8A03H   LINE      CODE     ---       #460
      00FF8A03H   LINE      CODE     ---       #464
      00FF8A06H   LINE      CODE     ---       #465
      00FF8A09H   LINE      CODE     ---       #466
      00FF8A0CH   LINE      CODE     ---       #467
      00FF8A0FH   LINE      CODE     ---       #468
      00FF8A12H   LINE      CODE     ---       #469
      00FF8A15H   LINE      CODE     ---       #470
      00FF8A18H   LINE      CODE     ---       #471
      00FF8A1BH   LINE      CODE     ---       #472
      00FF8A1EH   LINE      CODE     ---       #474
      00FF8A39H   LINE      CODE     ---       #475
L251 LINKER/LOCATER V4.66.93.0                                                        11/18/2024  23:30:20  PAGE 35


      00FF8A3CH   LINE      CODE     ---       #476
      ---         BLOCKEND  ---      ---       LVL=0

      ---         MODULE    ---      ---       common
      00001267H   PUBLIC    EDATA    INT       wireless_type
      000000D0H   SFRSYM    DATA     BYTE      PSW
      0000009DH   SFRSYM    DATA     BYTE      IRCBAND
      00000097H   SFRSYM    DATA     BYTE      AUXR2
      000000EFH   SFRSYM    DATA     BYTE      AUXINTIF
      000000FDH   SFRSYM    DATA     BYTE      S4CON
      000000ACH   SFRSYM    DATA     BYTE      S3CON
      0000009AH   SFRSYM    DATA     BYTE      S2CON
      000000B7H   SFRSYM    DATA     BYTE      IPH
      000000CDH   SFRSYM    DATA     BYTE      SPSTAT
      000000DDH   SFRSYM    DATA     BYTE      T4T3M
      000000C1H   SFRSYM    DATA     BYTE      WDT_CONTR
      000000DFH   SFRSYM    DATA     BYTE      IP3
      000000F4H   SFRSYM    DATA     BYTE      USBCON
      000000B5H   SFRSYM    DATA     BYTE      IP2
      000000FFH   SFRSYM    DATA     BYTE      RSTCFG
      000000C7H   SFRSYM    DATA     BYTE      IAP_CONTR
      000000F9H   SFRSYM    DATA     BYTE      LINICR
      0000008EH   SFRSYM    DATA     BYTE      AUXR
      000000AFH   SFRSYM    DATA     BYTE      IE2
      00000088H   SFRSYM    DATA     BYTE      TCON
      00000089H   SFRSYM    DATA     BYTE      TMOD
      00000098H   SFRSYM    DATA     BYTE      SCON
      000000F1H   SFRSYM    DATA     BYTE      CANICR
      00000087H   SFRSYM    DATA     BYTE      PCON
      000000BCH   SFRSYM    DATA     BYTE      ADC_CONTR
      000000E7H   SFRSYM    DATA     BYTE      CMPCR2
      000000E6H   SFRSYM    DATA     BYTE      CMPCR1
      000000DEH   SFRSYM    DATA     BYTE      ADCCFG
      000000B8H   SFRSYM    DATA     BYTE      IP
      0000008FH   SFRSYM    DATA     BYTE      INTCLKO
      000000EEH   SFRSYM    DATA     BYTE      IP3H
      000000B6H   SFRSYM    DATA     BYTE      IP2H
      000000A8H   SFRSYM    DATA     BYTE      IE
      000000BBH   SFRSYM    DATA     BYTE      P_SW3
      000000BAH   SFRSYM    DATA     BYTE      P_SW2
      000000A2H   SFRSYM    DATA     BYTE      P_SW1
      000000CEH   SFRSYM    DATA     BYTE      SPCTL
      000000F8H   SFRSYM    DATA     BYTE      P7
      000000E8H   SFRSYM    DATA     BYTE      P6
      000000C8H   SFRSYM    DATA     BYTE      P5
      000000C0H   SFRSYM    DATA     BYTE      P4
      000000B0H   SFRSYM    DATA     BYTE      P3
      000000A0H   SFRSYM    DATA     BYTE      P2
      00000090H   SFRSYM    DATA     BYTE      P1
      00000080H   SFRSYM    DATA     BYTE      P0

      ---         MODULE    ---      ---       STC32F_FPMU
      00FFAADBH   PUBLIC    CODE     ---       ?C?CASTF
      00FFAAE1H   PUBLIC    CODE     ---       ?C?FCASTI
      00FF005EH   PUBLIC    CODE     ---       ?C?FCASTL
      00FF000EH   PUBLIC    CODE     ---       ?C?FPADD
      00FFAAC0H   PUBLIC    CODE     ---       ?C?FPCMP3
      00FF0056H   PUBLIC    CODE     ---       ?C?FPDIV
      00FF001EH   PUBLIC    CODE     ---       ?C?FPMUL
      00FFAAD4H   PUBLIC    CODE     ---       ?C?FPNEG
      00FF0016H   PUBLIC    CODE     ---       ?C?FPSUB
      000000E0H   SFRSYM    DATA     BYTE      ACC
      000000EDH   SFRSYM    DATA     BYTE      DMAIR
      00000083H   SFRSYM    DATA     BYTE      DPH
      00000082H   SFRSYM    DATA     BYTE      DPL
L251 LINKER/LOCATER V4.66.93.0                                                        11/18/2024  23:30:20  PAGE 36


      0000001CH   SYMBOL    NUMBER   ---       DMA_FPADD
      00000030H   SYMBOL    NUMBER   ---       DMA_FPATAN
      00000027H   SYMBOL    NUMBER   ---       DMA_FPCLD
      00000032H   SYMBOL    NUMBER   ---       DMA_FPCLEX
      00000021H   SYMBOL    NUMBER   ---       DMA_FPCMP
      0000002EH   SYMBOL    NUMBER   ---       DMA_FPCOS
      00000035H   SYMBOL    NUMBER   ---       DMA_FPCRR
      00000036H   SYMBOL    NUMBER   ---       DMA_FPCRW
      00000023H   SYMBOL    NUMBER   ---       DMA_FPCST
      0000001FH   SYMBOL    NUMBER   ---       DMA_FPDIV
      00000028H   SYMBOL    NUMBER   ---       DMA_FPILD
      00000031H   SYMBOL    NUMBER   ---       DMA_FPINIT
      00000024H   SYMBOL    NUMBER   ---       DMA_FPIST
      00000029H   SYMBOL    NUMBER   ---       DMA_FPLLD
      00000025H   SYMBOL    NUMBER   ---       DMA_FPLST
      0000001EH   SYMBOL    NUMBER   ---       DMA_FPMUL
      0000002DH   SYMBOL    NUMBER   ---       DMA_FPSIN
      00000020H   SYMBOL    NUMBER   ---       DMA_FPSQRT
      00000033H   SYMBOL    NUMBER   ---       DMA_FPSRR
      00000034H   SYMBOL    NUMBER   ---       DMA_FPSRW
      0000001DH   SYMBOL    NUMBER   ---       DMA_FPSUB
      0000002FH   SYMBOL    NUMBER   ---       DMA_FPTAN
      00000022H   SYMBOL    NUMBER   ---       DMA_FPXAM
      00000001H   SYMBOL    NUMBER   ---       FP_CONV_EN
      00000001H   SYMBOL    NUMBER   ---       FP_REGS_EN
      00000001H   SYMBOL    NUMBER   ---       FP_TRIG_EN

      00FF000EH   BLOCK     CODE     NEAR LAB  LVL=0
      00FF000EH   LINE      CODE     ---       #62
      00FF0011H   LINE      CODE     ---       #63
      ---         BLOCKEND  ---      ---       LVL=0

      00FF0016H   BLOCK     CODE     NEAR LAB  LVL=0
      00FF0016H   LINE      CODE     ---       #72
      00FF0019H   LINE      CODE     ---       #73
      ---         BLOCKEND  ---      ---       LVL=0

      00FF001EH   BLOCK     CODE     NEAR LAB  LVL=0
      00FF001EH   LINE      CODE     ---       #82
      00FF0021H   LINE      CODE     ---       #83
      ---         BLOCKEND  ---      ---       LVL=0

      00FF0056H   BLOCK     CODE     NEAR LAB  LVL=0
      00FF0056H   LINE      CODE     ---       #92
      00FF0059H   LINE      CODE     ---       #93
      ---         BLOCKEND  ---      ---       LVL=0

      00FFAAC0H   BLOCK     CODE     NEAR LAB  LVL=0
      00FFAAC0H   LINE      CODE     ---       #113
      00FFAAC3H   LINE      CODE     ---       #114
      00FFAAC5H   LINE      CODE     ---       #115
      00FFAAC7H   LINE      CODE     ---       #116
      00FFAAC9H   LINE      CODE     ---       #117
      00FFAACBH   LINE      CODE     ---       #118
      ---         BLOCKEND  ---      ---       LVL=0

      00FFAAD4H   BLOCK     CODE     NEAR LAB  LVL=0
      00FFAAD4H   LINE      CODE     ---       #138
      00FFAAD6H   LINE      CODE     ---       #139
      00FFAAD8H   LINE      CODE     ---       #140
      00FFAADAH   LINE      CODE     ---       #141
      ---         BLOCKEND  ---      ---       LVL=0

      00FFAADBH   BLOCK     CODE     NEAR LAB  LVL=0
      00FFAADBH   LINE      CODE     ---       #213
L251 LINKER/LOCATER V4.66.93.0                                                        11/18/2024  23:30:20  PAGE 37


      00FFAADEH   LINE      CODE     ---       #214
      00FFAAE0H   LINE      CODE     ---       #215
      ---         BLOCKEND  ---      ---       LVL=0

      00FFAAE1H   BLOCK     CODE     NEAR LAB  LVL=0
      00FFAAE1H   LINE      CODE     ---       #235
      00FFAAE3H   LINE      CODE     ---       #236
      00FFAAE6H   LINE      CODE     ---       #237
      ---         BLOCKEND  ---      ---       LVL=0

      00FF005EH   BLOCK     CODE     NEAR LAB  LVL=0
      00FF005EH   LINE      CODE     ---       #246
      00FF0061H   LINE      CODE     ---       #247
      ---         BLOCKEND  ---      ---       LVL=0

      ---         MODULE    ---      ---       zf_adc
      00FF9716H   PUBLIC    CODE     ---       adc_once
      00FF8134H   PUBLIC    CODE     ---       adc_init
      00000094H   SFRSYM    DATA     BYTE      P0M0
      000000D0H   SFRSYM    DATA     BYTE      PSW
      0000009DH   SFRSYM    DATA     BYTE      IRCBAND
      00000097H   SFRSYM    DATA     BYTE      AUXR2
      000000EFH   SFRSYM    DATA     BYTE      AUXINTIF
      000000FDH   SFRSYM    DATA     BYTE      S4CON
      000000ACH   SFRSYM    DATA     BYTE      S3CON
      0000009AH   SFRSYM    DATA     BYTE      S2CON
      000000B7H   SFRSYM    DATA     BYTE      IPH
      000000CDH   SFRSYM    DATA     BYTE      SPSTAT
      000000BEH   SFRSYM    DATA     BYTE      ADC_RESL
      000000DDH   SFRSYM    DATA     BYTE      T4T3M
      000000C1H   SFRSYM    DATA     BYTE      WDT_CONTR
      000000DFH   SFRSYM    DATA     BYTE      IP3
      000000F4H   SFRSYM    DATA     BYTE      USBCON
      000000B5H   SFRSYM    DATA     BYTE      IP2
      000000FFH   SFRSYM    DATA     BYTE      RSTCFG
      000000C7H   SFRSYM    DATA     BYTE      IAP_CONTR
      000000F9H   SFRSYM    DATA     BYTE      LINICR
      0000008EH   SFRSYM    DATA     BYTE      AUXR
      000000AFH   SFRSYM    DATA     BYTE      IE2
      00000088H   SFRSYM    DATA     BYTE      TCON
      00000089H   SFRSYM    DATA     BYTE      TMOD
      00000098H   SFRSYM    DATA     BYTE      SCON
      000000F1H   SFRSYM    DATA     BYTE      CANICR
      00000087H   SFRSYM    DATA     BYTE      PCON
      000000BCH   SFRSYM    DATA     BYTE      ADC_CONTR
      000000E7H   SFRSYM    DATA     BYTE      CMPCR2
      000000E6H   SFRSYM    DATA     BYTE      CMPCR1
      000000DEH   SFRSYM    DATA     BYTE      ADCCFG
      000000B8H   SFRSYM    DATA     BYTE      IP
      0000008FH   SFRSYM    DATA     BYTE      INTCLKO
      000000EEH   SFRSYM    DATA     BYTE      IP3H
      000000B6H   SFRSYM    DATA     BYTE      IP2H
      000000BDH   SFRSYM    DATA     BYTE      ADC_RES
      000000A8H   SFRSYM    DATA     BYTE      IE
      000000BBH   SFRSYM    DATA     BYTE      P_SW3
      000000BAH   SFRSYM    DATA     BYTE      P_SW2
      000000A2H   SFRSYM    DATA     BYTE      P_SW1
      000000CEH   SFRSYM    DATA     BYTE      SPCTL
      000000F8H   SFRSYM    DATA     BYTE      P7
      000000E8H   SFRSYM    DATA     BYTE      P6
      000000C8H   SFRSYM    DATA     BYTE      P5
      000000C0H   SFRSYM    DATA     BYTE      P4
      000000B0H   SFRSYM    DATA     BYTE      P3
      000000A0H   SFRSYM    DATA     BYTE      P2
      00000090H   SFRSYM    DATA     BYTE      P1
L251 LINKER/LOCATER V4.66.93.0                                                        11/18/2024  23:30:20  PAGE 38


      00000080H   SFRSYM    DATA     BYTE      P0
      00000091H   SFRSYM    DATA     BYTE      P1M1
      00000092H   SFRSYM    DATA     BYTE      P1M0
      00000093H   SFRSYM    DATA     BYTE      P0M1

      00FF8134H   BLOCK     CODE     ---       LVL=0
      000011B6H   SYMBOL    EDATA    INT       adcn
      000011B8H   SYMBOL    EDATA    INT       speed
      00FF8134H   LINE      CODE     ---       #32
      00FF813CH   LINE      CODE     ---       #34
      00FF813FH   LINE      CODE     ---       #36
      00FF8142H   LINE      CODE     ---       #37
      00FF814AH   LINE      CODE     ---       #39
      00FF815CH   LINE      CODE     ---       #42
      00FF8177H   LINE      CODE     ---       #43
      00FF8190H   LINE      CODE     ---       #44
      00FF8192H   LINE      CODE     ---       #45
      00FF81A2H   LINE      CODE     ---       #48
      00FF81BDH   LINE      CODE     ---       #49
      00FF81D6H   LINE      CODE     ---       #50
      00FF81D6H   LINE      CODE     ---       #52
      00FF81E5H   LINE      CODE     ---       #54
      00FF81E8H   LINE      CODE     ---       #55
      ---         BLOCKEND  ---      ---       LVL=0

      00FF9716H   BLOCK     CODE     ---       LVL=0
      000010D0H   SYMBOL    EDATA    INT       adcn
      000010D2H   SYMBOL    EDATA    INT       resolution
      00FF971EH   BLOCK     CODE     NEAR LAB  LVL=1
      000010D4H   SYMBOL    EDATA    WORD      adc_value
      ---         BLOCKEND  ---      ---       LVL=1
      00FF9716H   LINE      CODE     ---       #66
      00FF971EH   LINE      CODE     ---       #67
      00FF971EH   LINE      CODE     ---       #70
      00FF9721H   LINE      CODE     ---       #71
      00FF9729H   LINE      CODE     ---       #73
      00FF972CH   LINE      CODE     ---       #74
      00FF9731H   LINE      CODE     ---       #75
      00FF9734H   LINE      CODE     ---       #77
      00FF973CH   LINE      CODE     ---       #78
      00FF9744H   LINE      CODE     ---       #79
      00FF9752H   LINE      CODE     ---       #81
      00FF9755H   LINE      CODE     ---       #82
      00FF9758H   LINE      CODE     ---       #84
      00FF976BH   LINE      CODE     ---       #87
      00FF976BH   LINE      CODE     ---       #88
      ---         BLOCKEND  ---      ---       LVL=0

      ---         MODULE    ---      ---       zf_delay
      00FFA5B1H   PUBLIC    CODE     ---       delay_init
      00FFA203H   PUBLIC    CODE     ---       delay_ms
      000011BAH   PUBLIC    EDATA    WORD      zf_delay_ms
      000011BCH   PUBLIC    EDATA    WORD      zf_delay_us
      000000D0H   SFRSYM    DATA     BYTE      PSW
      0000009DH   SFRSYM    DATA     BYTE      IRCBAND
      00000097H   SFRSYM    DATA     BYTE      AUXR2
      000000EFH   SFRSYM    DATA     BYTE      AUXINTIF
      000000FDH   SFRSYM    DATA     BYTE      S4CON
      000000ACH   SFRSYM    DATA     BYTE      S3CON
      0000009AH   SFRSYM    DATA     BYTE      S2CON
      000000B7H   SFRSYM    DATA     BYTE      IPH
      000000CDH   SFRSYM    DATA     BYTE      SPSTAT
      000000DDH   SFRSYM    DATA     BYTE      T4T3M
      000000C1H   SFRSYM    DATA     BYTE      WDT_CONTR
      000000DFH   SFRSYM    DATA     BYTE      IP3
L251 LINKER/LOCATER V4.66.93.0                                                        11/18/2024  23:30:20  PAGE 39


      000000F4H   SFRSYM    DATA     BYTE      USBCON
      000000B5H   SFRSYM    DATA     BYTE      IP2
      000000FFH   SFRSYM    DATA     BYTE      RSTCFG
      000000C7H   SFRSYM    DATA     BYTE      IAP_CONTR
      000000F9H   SFRSYM    DATA     BYTE      LINICR
      0000008EH   SFRSYM    DATA     BYTE      AUXR
      000000AFH   SFRSYM    DATA     BYTE      IE2
      00000088H   SFRSYM    DATA     BYTE      TCON
      00000089H   SFRSYM    DATA     BYTE      TMOD
      00000098H   SFRSYM    DATA     BYTE      SCON
      000000F1H   SFRSYM    DATA     BYTE      CANICR
      00000087H   SFRSYM    DATA     BYTE      PCON
      000000BCH   SFRSYM    DATA     BYTE      ADC_CONTR
      000000E7H   SFRSYM    DATA     BYTE      CMPCR2
      000000E6H   SFRSYM    DATA     BYTE      CMPCR1
      000000DEH   SFRSYM    DATA     BYTE      ADCCFG
      000000B8H   SFRSYM    DATA     BYTE      IP
      0000008FH   SFRSYM    DATA     BYTE      INTCLKO
      000000EEH   SFRSYM    DATA     BYTE      IP3H
      000000B6H   SFRSYM    DATA     BYTE      IP2H
      000000A8H   SFRSYM    DATA     BYTE      IE
      000000BBH   SFRSYM    DATA     BYTE      P_SW3
      000000BAH   SFRSYM    DATA     BYTE      P_SW2
      000000A2H   SFRSYM    DATA     BYTE      P_SW1
      000000CEH   SFRSYM    DATA     BYTE      SPCTL
      000000F8H   SFRSYM    DATA     BYTE      P7
      000000E8H   SFRSYM    DATA     BYTE      P6
      000000C8H   SFRSYM    DATA     BYTE      P5
      000000C0H   SFRSYM    DATA     BYTE      P4
      000000B0H   SFRSYM    DATA     BYTE      P3
      000000A0H   SFRSYM    DATA     BYTE      P2
      00000090H   SFRSYM    DATA     BYTE      P1
      00000080H   SFRSYM    DATA     BYTE      P0

      00FFA5B1H   BLOCK     CODE     ---       LVL=0
      00FFA5B1H   LINE      CODE     ---       #34
      00FFA5B1H   LINE      CODE     ---       #36
      00FFA5C0H   LINE      CODE     ---       #37
      00FFA5D3H   LINE      CODE     ---       #38
      ---         BLOCKEND  ---      ---       LVL=0

      00FFA203H   BLOCK     CODE     ---       LVL=0
      000011BEH   SYMBOL    EDATA    WORD      ms
      00FFA207H   BLOCK     CODE     NEAR LAB  LVL=1
      000011C0H   SYMBOL    EDATA    WORD      i
      ---         BLOCKEND  ---      ---       LVL=1
      00FFA203H   LINE      CODE     ---       #46
      00FFA207H   LINE      CODE     ---       #47
      00FFA207H   LINE      CODE     ---       #49
      00FFA207H   LINE      CODE     ---       #50
      00FFA20FH   LINE      CODE     ---       #51
      00FFA223H   LINE      CODE     ---       #52
      00FFA237H   LINE      CODE     ---       #53
      ---         BLOCKEND  ---      ---       LVL=0
      000010D6H   SYMBOL    EDATA    DWORD     us
      000010DAH   SYMBOL    EDATA    WORD      i

      ---         MODULE    ---      ---       zf_eeprom
      00FFA7AEH   PUBLIC    CODE     ---       iap_set_tps
      00FFA8EFH   PUBLIC    CODE     ---       eeprom_trig
      00000E6CH   PUBLIC    EDATA    BYTE      ?iap_read_bytes?BYTE
      00000E76H   PUBLIC    EDATA    BYTE      ?iap_write_bytes?BYTE
      000000D0H   SFRSYM    DATA     BYTE      PSW
      0000009DH   SFRSYM    DATA     BYTE      IRCBAND
      000000D0H.5 SFRSYM    DATA     BIT       F0
L251 LINKER/LOCATER V4.66.93.0                                                        11/18/2024  23:30:20  PAGE 40


      00000097H   SFRSYM    DATA     BYTE      AUXR2
      000000C6H   SFRSYM    DATA     BYTE      IAP_TRIG
      000000EFH   SFRSYM    DATA     BYTE      AUXINTIF
      000000FDH   SFRSYM    DATA     BYTE      S4CON
      000000ACH   SFRSYM    DATA     BYTE      S3CON
      0000009AH   SFRSYM    DATA     BYTE      S2CON
      000000B7H   SFRSYM    DATA     BYTE      IPH
      000000CDH   SFRSYM    DATA     BYTE      SPSTAT
      000000DDH   SFRSYM    DATA     BYTE      T4T3M
      000000C1H   SFRSYM    DATA     BYTE      WDT_CONTR
      000000C2H   SFRSYM    DATA     BYTE      IAP_DATA
      000000DFH   SFRSYM    DATA     BYTE      IP3
      000000F4H   SFRSYM    DATA     BYTE      USBCON
      000000B5H   SFRSYM    DATA     BYTE      IP2
      000000FFH   SFRSYM    DATA     BYTE      RSTCFG
      000000C7H   SFRSYM    DATA     BYTE      IAP_CONTR
      000000F9H   SFRSYM    DATA     BYTE      LINICR
      0000008EH   SFRSYM    DATA     BYTE      AUXR
      000000AFH   SFRSYM    DATA     BYTE      IE2
      00000088H   SFRSYM    DATA     BYTE      TCON
      00000089H   SFRSYM    DATA     BYTE      TMOD
      00000098H   SFRSYM    DATA     BYTE      SCON
      000000F5H   SFRSYM    DATA     BYTE      IAP_TPS
      000000F1H   SFRSYM    DATA     BYTE      CANICR
      00000087H   SFRSYM    DATA     BYTE      PCON
      000000BCH   SFRSYM    DATA     BYTE      ADC_CONTR
      000000E7H   SFRSYM    DATA     BYTE      CMPCR2
      000000E6H   SFRSYM    DATA     BYTE      CMPCR1
      000000C4H   SFRSYM    DATA     BYTE      IAP_ADDRL
      000000C3H   SFRSYM    DATA     BYTE      IAP_ADDRH
      000000F6H   SFRSYM    DATA     BYTE      IAP_ADDRE
      000000DEH   SFRSYM    DATA     BYTE      ADCCFG
      000000B8H   SFRSYM    DATA     BYTE      IP
      0000008FH   SFRSYM    DATA     BYTE      INTCLKO
      000000EEH   SFRSYM    DATA     BYTE      IP3H
      000000B6H   SFRSYM    DATA     BYTE      IP2H
      000000C5H   SFRSYM    DATA     BYTE      IAP_CMD
      000000A8H   SFRSYM    DATA     BYTE      IE
      000000BBH   SFRSYM    DATA     BYTE      P_SW3
      000000BAH   SFRSYM    DATA     BYTE      P_SW2
      000000A2H   SFRSYM    DATA     BYTE      P_SW1
      000000CEH   SFRSYM    DATA     BYTE      SPCTL
      000000F8H   SFRSYM    DATA     BYTE      P7
      000000A8H.7 SFRSYM    DATA     BIT       EA
      000000E8H   SFRSYM    DATA     BYTE      P6
      000000C8H   SFRSYM    DATA     BYTE      P5
      000000C0H   SFRSYM    DATA     BYTE      P4
      000000B0H   SFRSYM    DATA     BYTE      P3
      000000A0H   SFRSYM    DATA     BYTE      P2
      00000090H   SFRSYM    DATA     BYTE      P1
      00000080H   SFRSYM    DATA     BYTE      P0

      00FFA8EFH   BLOCK     CODE     ---       LVL=0
      00FFA8EFH   LINE      CODE     ---       #30
      00FFA8EFH   LINE      CODE     ---       #32
      00FFA8F3H   LINE      CODE     ---       #33
      00FFA8F7H   LINE      CODE     ---       #34
      00FFA8FBH   LINE      CODE     ---       #37
      00FFA8FCH   LINE      CODE     ---       #38
      00FFA8FDH   LINE      CODE     ---       #39
      00FFA8FEH   LINE      CODE     ---       #40
      00FFA8FFH   LINE      CODE     ---       #42
      00FFA903H   LINE      CODE     ---       #43
      ---         BLOCKEND  ---      ---       LVL=0

L251 LINKER/LOCATER V4.66.93.0                                                        11/18/2024  23:30:20  PAGE 41


      00FFA7AEH   BLOCK     CODE     ---       LVL=0
      000012BEH   SYMBOL    EDATA    BYTE      write_time
      00FFA7AEH   LINE      CODE     ---       #91
      00FFA7AEH   LINE      CODE     ---       #92
      00FFA7AEH   LINE      CODE     ---       #94
      00FFA7C1H   LINE      CODE     ---       #95
      00FFA7C7H   LINE      CODE     ---       #96
      ---         BLOCKEND  ---      ---       LVL=0
      00000E6CH   SYMBOL    EDATA    DWORD     addr
      00000E70H   SYMBOL    EDATA    ---       buf
      00000E74H   SYMBOL    EDATA    WORD      len
      00000E76H   SYMBOL    EDATA    DWORD     addr
      00000E7AH   SYMBOL    EDATA    ---       buf
      00000E7EH   SYMBOL    EDATA    WORD      len
      000011C2H   SYMBOL    EDATA    DWORD     addr

      ---         MODULE    ---      ---       zf_exti
      000000D0H   SFRSYM    DATA     BYTE      PSW
      0000009DH   SFRSYM    DATA     BYTE      IRCBAND
      00000097H   SFRSYM    DATA     BYTE      AUXR2
      000000EFH   SFRSYM    DATA     BYTE      AUXINTIF
      000000FDH   SFRSYM    DATA     BYTE      S4CON
      000000ACH   SFRSYM    DATA     BYTE      S3CON
      0000009AH   SFRSYM    DATA     BYTE      S2CON
      000000B7H   SFRSYM    DATA     BYTE      IPH
      000000CDH   SFRSYM    DATA     BYTE      SPSTAT
      000000DDH   SFRSYM    DATA     BYTE      T4T3M
      000000C1H   SFRSYM    DATA     BYTE      WDT_CONTR
      00000088H.2 SFRSYM    DATA     BIT       IT1
      000000A8H.2 SFRSYM    DATA     BIT       EX1
      00000088H.0 SFRSYM    DATA     BIT       IT0
      000000A8H.0 SFRSYM    DATA     BIT       EX0
      000000DFH   SFRSYM    DATA     BYTE      IP3
      000000F4H   SFRSYM    DATA     BYTE      USBCON
      000000B5H   SFRSYM    DATA     BYTE      IP2
      000000FFH   SFRSYM    DATA     BYTE      RSTCFG
      000000C7H   SFRSYM    DATA     BYTE      IAP_CONTR
      000000F9H   SFRSYM    DATA     BYTE      LINICR
      0000008EH   SFRSYM    DATA     BYTE      AUXR
      000000AFH   SFRSYM    DATA     BYTE      IE2
      00000088H   SFRSYM    DATA     BYTE      TCON
      00000089H   SFRSYM    DATA     BYTE      TMOD
      00000098H   SFRSYM    DATA     BYTE      SCON
      000000F1H   SFRSYM    DATA     BYTE      CANICR
      00000087H   SFRSYM    DATA     BYTE      PCON
      000000BCH   SFRSYM    DATA     BYTE      ADC_CONTR
      000000E7H   SFRSYM    DATA     BYTE      CMPCR2
      000000E6H   SFRSYM    DATA     BYTE      CMPCR1
      000000DEH   SFRSYM    DATA     BYTE      ADCCFG
      000000B8H   SFRSYM    DATA     BYTE      IP
      0000008FH   SFRSYM    DATA     BYTE      INTCLKO
      000000EEH   SFRSYM    DATA     BYTE      IP3H
      000000B6H   SFRSYM    DATA     BYTE      IP2H
      000000A8H   SFRSYM    DATA     BYTE      IE
      000000BBH   SFRSYM    DATA     BYTE      P_SW3
      000000BAH   SFRSYM    DATA     BYTE      P_SW2
      000000A2H   SFRSYM    DATA     BYTE      P_SW1
      000000CEH   SFRSYM    DATA     BYTE      SPCTL
      000000F8H   SFRSYM    DATA     BYTE      P7
      000000E8H   SFRSYM    DATA     BYTE      P6
      000000C8H   SFRSYM    DATA     BYTE      P5
      000000C0H   SFRSYM    DATA     BYTE      P4
      000000B0H   SFRSYM    DATA     BYTE      P3
      000000A0H   SFRSYM    DATA     BYTE      P2
      00000090H   SFRSYM    DATA     BYTE      P1
L251 LINKER/LOCATER V4.66.93.0                                                        11/18/2024  23:30:20  PAGE 42


      00000080H   SFRSYM    DATA     BYTE      P0
      000011C6H   SYMBOL    EDATA    INT       int_n
      000011C8H   SYMBOL    EDATA    INT       mode

      ---         MODULE    ---      ---       zf_gpio
      00FF374DH   PUBLIC    CODE     ---       gpio_mode
      00000094H   SFRSYM    DATA     BYTE      P0M0
      000000D0H   SFRSYM    DATA     BYTE      PSW
      0000009DH   SFRSYM    DATA     BYTE      IRCBAND
      00000097H   SFRSYM    DATA     BYTE      AUXR2
      000000EFH   SFRSYM    DATA     BYTE      AUXINTIF
      000000FDH   SFRSYM    DATA     BYTE      S4CON
      000000ACH   SFRSYM    DATA     BYTE      S3CON
      0000009AH   SFRSYM    DATA     BYTE      S2CON
      000000B7H   SFRSYM    DATA     BYTE      IPH
      000000CDH   SFRSYM    DATA     BYTE      SPSTAT
      000000DDH   SFRSYM    DATA     BYTE      T4T3M
      000000C1H   SFRSYM    DATA     BYTE      WDT_CONTR
      000000DFH   SFRSYM    DATA     BYTE      IP3
      000000F4H   SFRSYM    DATA     BYTE      USBCON
      000000B5H   SFRSYM    DATA     BYTE      IP2
      000000FFH   SFRSYM    DATA     BYTE      RSTCFG
      000000C7H   SFRSYM    DATA     BYTE      IAP_CONTR
      000000F9H   SFRSYM    DATA     BYTE      LINICR
      0000008EH   SFRSYM    DATA     BYTE      AUXR
      000000AFH   SFRSYM    DATA     BYTE      IE2
      00000088H   SFRSYM    DATA     BYTE      TCON
      00000089H   SFRSYM    DATA     BYTE      TMOD
      00000098H   SFRSYM    DATA     BYTE      SCON
      000000F1H   SFRSYM    DATA     BYTE      CANICR
      00000087H   SFRSYM    DATA     BYTE      PCON
      000000BCH   SFRSYM    DATA     BYTE      ADC_CONTR
      000000E7H   SFRSYM    DATA     BYTE      CMPCR2
      000000E6H   SFRSYM    DATA     BYTE      CMPCR1
      000000DEH   SFRSYM    DATA     BYTE      ADCCFG
      000000B8H   SFRSYM    DATA     BYTE      IP
      0000008FH   SFRSYM    DATA     BYTE      INTCLKO
      000000EEH   SFRSYM    DATA     BYTE      IP3H
      000000B6H   SFRSYM    DATA     BYTE      IP2H
      000000A8H   SFRSYM    DATA     BYTE      IE
      000000BBH   SFRSYM    DATA     BYTE      P_SW3
      000000BAH   SFRSYM    DATA     BYTE      P_SW2
      000000A2H   SFRSYM    DATA     BYTE      P_SW1
      000000CEH   SFRSYM    DATA     BYTE      SPCTL
      000000F8H   SFRSYM    DATA     BYTE      P7
      000000E1H   SFRSYM    DATA     BYTE      P7M1
      000000E8H   SFRSYM    DATA     BYTE      P6
      000000C8H   SFRSYM    DATA     BYTE      P5
      000000CBH   SFRSYM    DATA     BYTE      P6M1
      000000E2H   SFRSYM    DATA     BYTE      P7M0
      000000C0H   SFRSYM    DATA     BYTE      P4
      000000C9H   SFRSYM    DATA     BYTE      P5M1
      000000CCH   SFRSYM    DATA     BYTE      P6M0
      000000B0H   SFRSYM    DATA     BYTE      P3
      000000B3H   SFRSYM    DATA     BYTE      P4M1
      000000CAH   SFRSYM    DATA     BYTE      P5M0
      000000A0H   SFRSYM    DATA     BYTE      P2
      000000B1H   SFRSYM    DATA     BYTE      P3M1
      000000B4H   SFRSYM    DATA     BYTE      P4M0
      00000090H   SFRSYM    DATA     BYTE      P1
      00000095H   SFRSYM    DATA     BYTE      P2M1
      000000B2H   SFRSYM    DATA     BYTE      P3M0
      00000080H   SFRSYM    DATA     BYTE      P0
      00000091H   SFRSYM    DATA     BYTE      P1M1
      00000096H   SFRSYM    DATA     BYTE      P2M0
L251 LINKER/LOCATER V4.66.93.0                                                        11/18/2024  23:30:20  PAGE 43


      00000092H   SFRSYM    DATA     BYTE      P1M0
      00000093H   SFRSYM    DATA     BYTE      P0M1
      000011CAH   SYMBOL    EDATA    INT       pin
      000011CCH   SYMBOL    EDATA    INT       pull

      00FF374DH   BLOCK     CODE     ---       LVL=0
      000011CEH   SYMBOL    EDATA    INT       pin
      000011D0H   SYMBOL    EDATA    INT       mode
      00FF374DH   LINE      CODE     ---       #54
      00FF3755H   LINE      CODE     ---       #56
      00FF3762H   LINE      CODE     ---       #58
      00FF3772H   LINE      CODE     ---       #60
      00FF378DH   LINE      CODE     ---       #61
      00FF37A8H   LINE      CODE     ---       #62
      00FF37A8H   LINE      CODE     ---       #63
      00FF37BAH   LINE      CODE     ---       #65
      00FF37D5H   LINE      CODE     ---       #66
      00FF37F0H   LINE      CODE     ---       #67
      00FF37F0H   LINE      CODE     ---       #68
      00FF3802H   LINE      CODE     ---       #70
      00FF381DH   LINE      CODE     ---       #71
      00FF3838H   LINE      CODE     ---       #72
      00FF3838H   LINE      CODE     ---       #74
      00FF384AH   LINE      CODE     ---       #76
      00FF3865H   LINE      CODE     ---       #77
      00FF3880H   LINE      CODE     ---       #78
      00FF3880H   LINE      CODE     ---       #79
      00FF3892H   LINE      CODE     ---       #81
      00FF38ADH   LINE      CODE     ---       #82
      00FF38C8H   LINE      CODE     ---       #83
      00FF38C8H   LINE      CODE     ---       #84
      00FF38DAH   LINE      CODE     ---       #86
      00FF38F5H   LINE      CODE     ---       #87
      00FF3910H   LINE      CODE     ---       #88
      00FF3910H   LINE      CODE     ---       #89
      00FF3922H   LINE      CODE     ---       #91
      00FF393DH   LINE      CODE     ---       #92
      00FF3958H   LINE      CODE     ---       #93
      00FF3958H   LINE      CODE     ---       #94
      00FF396DH   LINE      CODE     ---       #96
      00FF3988H   LINE      CODE     ---       #97
      00FF39A3H   LINE      CODE     ---       #98
      00FF39A6H   LINE      CODE     ---       #100
      00FF39B5H   LINE      CODE     ---       #102
      00FF39C5H   LINE      CODE     ---       #104
      00FF39E0H   LINE      CODE     ---       #105
      00FF39F9H   LINE      CODE     ---       #106
      00FF39F9H   LINE      CODE     ---       #107
      00FF3A0BH   LINE      CODE     ---       #109
      00FF3A26H   LINE      CODE     ---       #110
      00FF3A3FH   LINE      CODE     ---       #111
      00FF3A3FH   LINE      CODE     ---       #112
      00FF3A51H   LINE      CODE     ---       #114
      00FF3A6CH   LINE      CODE     ---       #115
      00FF3A85H   LINE      CODE     ---       #116
      00FF3A85H   LINE      CODE     ---       #118
      00FF3A97H   LINE      CODE     ---       #120
      00FF3AB2H   LINE      CODE     ---       #121
      00FF3ACBH   LINE      CODE     ---       #122
      00FF3ACBH   LINE      CODE     ---       #123
      00FF3ADDH   LINE      CODE     ---       #125
      00FF3AF8H   LINE      CODE     ---       #126
      00FF3B11H   LINE      CODE     ---       #127
      00FF3B11H   LINE      CODE     ---       #128
      00FF3B23H   LINE      CODE     ---       #130
L251 LINKER/LOCATER V4.66.93.0                                                        11/18/2024  23:30:20  PAGE 44


      00FF3B3EH   LINE      CODE     ---       #131
      00FF3B57H   LINE      CODE     ---       #132
      00FF3B57H   LINE      CODE     ---       #133
      00FF3B69H   LINE      CODE     ---       #135
      00FF3B84H   LINE      CODE     ---       #136
      00FF3B9DH   LINE      CODE     ---       #137
      00FF3B9DH   LINE      CODE     ---       #138
      00FF3BB2H   LINE      CODE     ---       #140
      00FF3BCDH   LINE      CODE     ---       #141
      00FF3BE6H   LINE      CODE     ---       #142
      00FF3BE9H   LINE      CODE     ---       #145
      00FF3BF8H   LINE      CODE     ---       #147
      00FF3C08H   LINE      CODE     ---       #149
      00FF3C21H   LINE      CODE     ---       #150
      00FF3C3CH   LINE      CODE     ---       #151
      00FF3C3CH   LINE      CODE     ---       #152
      00FF3C4EH   LINE      CODE     ---       #154
      00FF3C67H   LINE      CODE     ---       #155
      00FF3C82H   LINE      CODE     ---       #156
      00FF3C82H   LINE      CODE     ---       #157
      00FF3C94H   LINE      CODE     ---       #159
      00FF3CADH   LINE      CODE     ---       #160
      00FF3CC8H   LINE      CODE     ---       #161
      00FF3CC8H   LINE      CODE     ---       #163
      00FF3CDAH   LINE      CODE     ---       #165
      00FF3CF3H   LINE      CODE     ---       #166
      00FF3D0EH   LINE      CODE     ---       #167
      00FF3D0EH   LINE      CODE     ---       #168
      00FF3D20H   LINE      CODE     ---       #170
      00FF3D39H   LINE      CODE     ---       #171
      00FF3D54H   LINE      CODE     ---       #172
      00FF3D54H   LINE      CODE     ---       #173
      00FF3D66H   LINE      CODE     ---       #175
      00FF3D7FH   LINE      CODE     ---       #176
      00FF3D9AH   LINE      CODE     ---       #177
      00FF3D9AH   LINE      CODE     ---       #178
      00FF3DACH   LINE      CODE     ---       #180
      00FF3DC5H   LINE      CODE     ---       #181
      00FF3DE0H   LINE      CODE     ---       #182
      00FF3DE0H   LINE      CODE     ---       #183
      00FF3DF5H   LINE      CODE     ---       #185
      00FF3E0EH   LINE      CODE     ---       #186
      00FF3E29H   LINE      CODE     ---       #187
      00FF3E2CH   LINE      CODE     ---       #189
      00FF3E3BH   LINE      CODE     ---       #191
      00FF3E4BH   LINE      CODE     ---       #193
      00FF3E64H   LINE      CODE     ---       #194
      00FF3E7DH   LINE      CODE     ---       #195
      00FF3E7DH   LINE      CODE     ---       #196
      00FF3E8FH   LINE      CODE     ---       #198
      00FF3EA8H   LINE      CODE     ---       #199
      00FF3EC1H   LINE      CODE     ---       #200
      00FF3EC1H   LINE      CODE     ---       #201
      00FF3ED3H   LINE      CODE     ---       #203
      00FF3EECH   LINE      CODE     ---       #204
      00FF3F05H   LINE      CODE     ---       #205
      00FF3F05H   LINE      CODE     ---       #207
      00FF3F17H   LINE      CODE     ---       #209
      00FF3F30H   LINE      CODE     ---       #210
      00FF3F49H   LINE      CODE     ---       #211
      00FF3F49H   LINE      CODE     ---       #212
      00FF3F5BH   LINE      CODE     ---       #214
      00FF3F74H   LINE      CODE     ---       #215
      00FF3F8DH   LINE      CODE     ---       #216
      00FF3F8DH   LINE      CODE     ---       #217
L251 LINKER/LOCATER V4.66.93.0                                                        11/18/2024  23:30:20  PAGE 45


      00FF3F9FH   LINE      CODE     ---       #219
      00FF3FB8H   LINE      CODE     ---       #220
      00FF3FD1H   LINE      CODE     ---       #221
      00FF3FD1H   LINE      CODE     ---       #222
      00FF3FE3H   LINE      CODE     ---       #224
      00FF3FFCH   LINE      CODE     ---       #225
      00FF4015H   LINE      CODE     ---       #226
      00FF4015H   LINE      CODE     ---       #227
      00FF4027H   LINE      CODE     ---       #229
      00FF4040H   LINE      CODE     ---       #230
      00FF4059H   LINE      CODE     ---       #231
      00FF4059H   LINE      CODE     ---       #233
      ---         BLOCKEND  ---      ---       LVL=0

      ---         MODULE    ---      ---       zf_iic
      00FFA42FH   PUBLIC    CODE     ---       send_data
      00FFA75CH   PUBLIC    CODE     ---       recv_data
      00FFA904H   PUBLIC    CODE     ---       start
      00FF9611H   PUBLIC    CODE     ---       wait
      00FFA63BH   PUBLIC    CODE     ---       send_ack
      00FFA919H   PUBLIC    CODE     ---       recv_ack
      00FFA92EH   PUBLIC    CODE     ---       stop
      00FFA238H   PUBLIC    CODE     ---       iic_delay_us
      000010D8H   PUBLIC    EDATA    BYTE      ?iic_init?BYTE
      000000D0H   SFRSYM    DATA     BYTE      PSW
      0000009DH   SFRSYM    DATA     BYTE      IRCBAND
      00000097H   SFRSYM    DATA     BYTE      AUXR2
      000000EFH   SFRSYM    DATA     BYTE      AUXINTIF
      000000FDH   SFRSYM    DATA     BYTE      S4CON
      000000ACH   SFRSYM    DATA     BYTE      S3CON
      0000009AH   SFRSYM    DATA     BYTE      S2CON
      000000B7H   SFRSYM    DATA     BYTE      IPH
      000000CDH   SFRSYM    DATA     BYTE      SPSTAT
      000000DDH   SFRSYM    DATA     BYTE      T4T3M
      000000C1H   SFRSYM    DATA     BYTE      WDT_CONTR
      000000DFH   SFRSYM    DATA     BYTE      IP3
      000000F4H   SFRSYM    DATA     BYTE      USBCON
      000000B5H   SFRSYM    DATA     BYTE      IP2
      000000FFH   SFRSYM    DATA     BYTE      RSTCFG
      000000C7H   SFRSYM    DATA     BYTE      IAP_CONTR
      000000F9H   SFRSYM    DATA     BYTE      LINICR
      0000008EH   SFRSYM    DATA     BYTE      AUXR
      000000AFH   SFRSYM    DATA     BYTE      IE2
      00000088H   SFRSYM    DATA     BYTE      TCON
      00000089H   SFRSYM    DATA     BYTE      TMOD
      00000098H   SFRSYM    DATA     BYTE      SCON
      000000F1H   SFRSYM    DATA     BYTE      CANICR
      00000087H   SFRSYM    DATA     BYTE      PCON
      000000BCH   SFRSYM    DATA     BYTE      ADC_CONTR
      000000E7H   SFRSYM    DATA     BYTE      CMPCR2
      000000E6H   SFRSYM    DATA     BYTE      CMPCR1
      000000DEH   SFRSYM    DATA     BYTE      ADCCFG
      000000B8H   SFRSYM    DATA     BYTE      IP
      0000008FH   SFRSYM    DATA     BYTE      INTCLKO
      000000EEH   SFRSYM    DATA     BYTE      IP3H
      000000B6H   SFRSYM    DATA     BYTE      IP2H
      000000A8H   SFRSYM    DATA     BYTE      IE
      000000BBH   SFRSYM    DATA     BYTE      P_SW3
      000000BAH   SFRSYM    DATA     BYTE      P_SW2
      000000A2H   SFRSYM    DATA     BYTE      P_SW1
      000000CEH   SFRSYM    DATA     BYTE      SPCTL
      000000F8H   SFRSYM    DATA     BYTE      P7
      000000E8H   SFRSYM    DATA     BYTE      P6
      000000C8H   SFRSYM    DATA     BYTE      P5
      000000C0H   SFRSYM    DATA     BYTE      P4
L251 LINKER/LOCATER V4.66.93.0                                                        11/18/2024  23:30:20  PAGE 46


      000000B0H   SFRSYM    DATA     BYTE      P3
      000000A0H   SFRSYM    DATA     BYTE      P2
      00000090H   SFRSYM    DATA     BYTE      P1
      00000080H   SFRSYM    DATA     BYTE      P0

      00FFA238H   BLOCK     CODE     ---       LVL=0
      00001222H   SYMBOL    EDATA    WORD      x
      00FFA23CH   BLOCK     CODE     NEAR LAB  LVL=1
      00001224H   SYMBOL    EDATA    BYTE      i
      ---         BLOCKEND  ---      ---       LVL=1
      00FFA238H   LINE      CODE     ---       #30
      00FFA23CH   LINE      CODE     ---       #31
      00FFA23CH   LINE      CODE     ---       #33
      00FFA23EH   LINE      CODE     ---       #35
      00FFA244H   LINE      CODE     ---       #36
      00FFA256H   LINE      CODE     ---       #37
      00FFA26CH   LINE      CODE     ---       #38
      ---         BLOCKEND  ---      ---       LVL=0

      00FF9611H   BLOCK     CODE     ---       LVL=0
      00001225H   SYMBOL    EDATA    WORD      count
      00001227H   SYMBOL    EDATA    BYTE      ret
      00FF9611H   LINE      CODE     ---       #47
      00FF9611H   LINE      CODE     ---       #48
      00FF9611H   LINE      CODE     ---       #49
      00FF9617H   LINE      CODE     ---       #50
      00FF961CH   LINE      CODE     ---       #51
      00FF961EH   LINE      CODE     ---       #53
      00FF9625H   LINE      CODE     ---       #54
      00FF963BH   LINE      CODE     ---       #56
      00FF9641H   LINE      CODE     ---       #57
      00FF9643H   LINE      CODE     ---       #58
      00FF9651H   LINE      CODE     ---       #60
      00FF9663H   LINE      CODE     ---       #61
      00FF9667H   LINE      CODE     ---       #62
      ---         BLOCKEND  ---      ---       LVL=0

      00FFA904H   BLOCK     CODE     ---       LVL=0
      000012BFH   SYMBOL    EDATA    BYTE      ret
      00FFA904H   LINE      CODE     ---       #70
      00FFA904H   LINE      CODE     ---       #71
      00FFA904H   LINE      CODE     ---       #73
      00FFA911H   LINE      CODE     ---       #74
      00FFA918H   LINE      CODE     ---       #75
      00FFA918H   LINE      CODE     ---       #76
      ---         BLOCKEND  ---      ---       LVL=0

      00FFA42FH   BLOCK     CODE     ---       LVL=0
      00001269H   SYMBOL    EDATA    CHAR      dat
      00FFA433H   BLOCK     CODE     NEAR LAB  LVL=1
      0000126AH   SYMBOL    EDATA    BYTE      ret
      ---         BLOCKEND  ---      ---       LVL=1
      00FFA42FH   LINE      CODE     ---       #84
      00FFA433H   LINE      CODE     ---       #85
      00FFA433H   LINE      CODE     ---       #87
      00FFA442H   LINE      CODE     ---       #88
      00FFA44FH   LINE      CODE     ---       #89
      00FFA456H   LINE      CODE     ---       #90
      00FFA456H   LINE      CODE     ---       #91
      ---         BLOCKEND  ---      ---       LVL=0

      00FFA919H   BLOCK     CODE     ---       LVL=0
      000012C0H   SYMBOL    EDATA    BYTE      ret
      00FFA919H   LINE      CODE     ---       #99
      00FFA919H   LINE      CODE     ---       #100
L251 LINKER/LOCATER V4.66.93.0                                                        11/18/2024  23:30:20  PAGE 47


      00FFA919H   LINE      CODE     ---       #102
      00FFA926H   LINE      CODE     ---       #103
      00FFA92DH   LINE      CODE     ---       #104
      00FFA92DH   LINE      CODE     ---       #105
      ---         BLOCKEND  ---      ---       LVL=0

      00FFA75CH   BLOCK     CODE     ---       LVL=0
      00FFA75CH   LINE      CODE     ---       #113
      00FFA75CH   LINE      CODE     ---       #115
      00FFA769H   LINE      CODE     ---       #116
      00FFA76CH   LINE      CODE     ---       #117
      00FFA777H   LINE      CODE     ---       #118
      ---         BLOCKEND  ---      ---       LVL=0

      00FFA63BH   BLOCK     CODE     ---       LVL=0
      000012C1H   SYMBOL    EDATA    BYTE      ret
      00FFA63BH   LINE      CODE     ---       #126
      00FFA63BH   LINE      CODE     ---       #127
      00FFA63BH   LINE      CODE     ---       #129
      00FFA647H   LINE      CODE     ---       #130
      00FFA654H   LINE      CODE     ---       #131
      00FFA65BH   LINE      CODE     ---       #132
      00FFA65BH   LINE      CODE     ---       #133
      ---         BLOCKEND  ---      ---       LVL=0

      00FFA92EH   BLOCK     CODE     ---       LVL=0
      000012C2H   SYMBOL    EDATA    BYTE      ret
      00FFA92EH   LINE      CODE     ---       #154
      00FFA92EH   LINE      CODE     ---       #155
      00FFA92EH   LINE      CODE     ---       #157
      00FFA93BH   LINE      CODE     ---       #158
      00FFA942H   LINE      CODE     ---       #159
      00FFA942H   LINE      CODE     ---       #160
      ---         BLOCKEND  ---      ---       LVL=0
      000010DCH   SYMBOL    EDATA    INT       iic_n
      000010DEH   SYMBOL    EDATA    DWORD     wait_time
      00001228H   SYMBOL    EDATA    BYTE      dev_add
      00001229H   SYMBOL    EDATA    BYTE      reg
      0000122AH   SYMBOL    EDATA    BYTE      dat
      000010E2H   SYMBOL    EDATA    BYTE      dev_add
      000010E3H   SYMBOL    EDATA    BYTE      reg
      000010E4H   SYMBOL    EDATA    ---       dat
      00001098H   SYMBOL    EDATA    BYTE      dev_add
      00001099H   SYMBOL    EDATA    BYTE      reg
      0000109AH   SYMBOL    EDATA    ---       dat
      0000109EH   SYMBOL    EDATA    BYTE      num
      0000126BH   SYMBOL    EDATA    INT       iic_n

      ---         MODULE    ---      ---       zf_nvic
      000000D0H   SFRSYM    DATA     BYTE      PSW
      0000009DH   SFRSYM    DATA     BYTE      IRCBAND
      00000097H   SFRSYM    DATA     BYTE      AUXR2
      000000EFH   SFRSYM    DATA     BYTE      AUXINTIF
      000000FDH   SFRSYM    DATA     BYTE      S4CON
      000000ACH   SFRSYM    DATA     BYTE      S3CON
      0000009AH   SFRSYM    DATA     BYTE      S2CON
      000000B7H   SFRSYM    DATA     BYTE      IPH
      000000CDH   SFRSYM    DATA     BYTE      SPSTAT
      000000DDH   SFRSYM    DATA     BYTE      T4T3M
      000000C1H   SFRSYM    DATA     BYTE      WDT_CONTR
      000000DFH   SFRSYM    DATA     BYTE      IP3
      000000F4H   SFRSYM    DATA     BYTE      USBCON
      000000B5H   SFRSYM    DATA     BYTE      IP2
      000000FFH   SFRSYM    DATA     BYTE      RSTCFG
      000000C7H   SFRSYM    DATA     BYTE      IAP_CONTR
L251 LINKER/LOCATER V4.66.93.0                                                        11/18/2024  23:30:20  PAGE 48


      000000F9H   SFRSYM    DATA     BYTE      LINICR
      0000008EH   SFRSYM    DATA     BYTE      AUXR
      000000AFH   SFRSYM    DATA     BYTE      IE2
      00000088H   SFRSYM    DATA     BYTE      TCON
      00000089H   SFRSYM    DATA     BYTE      TMOD
      00000098H   SFRSYM    DATA     BYTE      SCON
      000000F1H   SFRSYM    DATA     BYTE      CANICR
      00000087H   SFRSYM    DATA     BYTE      PCON
      000000BCH   SFRSYM    DATA     BYTE      ADC_CONTR
      000000E7H   SFRSYM    DATA     BYTE      CMPCR2
      000000E6H   SFRSYM    DATA     BYTE      CMPCR1
      000000DEH   SFRSYM    DATA     BYTE      ADCCFG
      000000B8H   SFRSYM    DATA     BYTE      IP
      0000008FH   SFRSYM    DATA     BYTE      INTCLKO
      000000EEH   SFRSYM    DATA     BYTE      IP3H
      000000B6H   SFRSYM    DATA     BYTE      IP2H
      000000A8H   SFRSYM    DATA     BYTE      IE
      000000BBH   SFRSYM    DATA     BYTE      P_SW3
      000000BAH   SFRSYM    DATA     BYTE      P_SW2
      000000A2H   SFRSYM    DATA     BYTE      P_SW1
      000000CEH   SFRSYM    DATA     BYTE      SPCTL
      000000F8H   SFRSYM    DATA     BYTE      P7
      000000E8H   SFRSYM    DATA     BYTE      P6
      000000C8H   SFRSYM    DATA     BYTE      P5
      000000C0H   SFRSYM    DATA     BYTE      P4
      000000B0H   SFRSYM    DATA     BYTE      P3
      000000A0H   SFRSYM    DATA     BYTE      P2
      00000090H   SFRSYM    DATA     BYTE      P1
      00000080H   SFRSYM    DATA     BYTE      P0
      0000122BH   SYMBOL    EDATA    INT       irqn
      0000122DH   SYMBOL    EDATA    BYTE      priority

      ---         MODULE    ---      ---       zf_pwm
      00FF7051H   PUBLIC    CODE     ---       pwm_duty
      00FF5EEFH   PUBLIC    CODE     ---       pwm_set_gpio
      00FF53D7H   PUBLIC    CODE     ---       pwm_init
      00FFAF20H   PUBLIC    HCONST   ---       PWM_CCR_ADDR
      00FFAF40H   PUBLIC    HCONST   ---       PWM_ARR_ADDR
      00FFAF48H   PUBLIC    HCONST   ---       PWM_CCER_ADDR
      00FFAF58H   PUBLIC    HCONST   ---       PWM_CCMR_ADDR
      00000C0BH   PUBLIC    EDATA    BYTE      ?pwm_init?BYTE
      00000C1FH   PUBLIC    EDATA    BYTE      ?pwm_freq?BYTE
      000000D0H   SFRSYM    DATA     BYTE      PSW
      0000009DH   SFRSYM    DATA     BYTE      IRCBAND
      00000097H   SFRSYM    DATA     BYTE      AUXR2
      000000EFH   SFRSYM    DATA     BYTE      AUXINTIF
      000000FDH   SFRSYM    DATA     BYTE      S4CON
      000000ACH   SFRSYM    DATA     BYTE      S3CON
      0000009AH   SFRSYM    DATA     BYTE      S2CON
      000000B7H   SFRSYM    DATA     BYTE      IPH
      000000CDH   SFRSYM    DATA     BYTE      SPSTAT
      000000DDH   SFRSYM    DATA     BYTE      T4T3M
      000000C1H   SFRSYM    DATA     BYTE      WDT_CONTR
      000000DFH   SFRSYM    DATA     BYTE      IP3
      000000F4H   SFRSYM    DATA     BYTE      USBCON
      000000B5H   SFRSYM    DATA     BYTE      IP2
      000000FFH   SFRSYM    DATA     BYTE      RSTCFG
      000000C7H   SFRSYM    DATA     BYTE      IAP_CONTR
      000000F9H   SFRSYM    DATA     BYTE      LINICR
      0000008EH   SFRSYM    DATA     BYTE      AUXR
      000000AFH   SFRSYM    DATA     BYTE      IE2
      00000088H   SFRSYM    DATA     BYTE      TCON
      00000089H   SFRSYM    DATA     BYTE      TMOD
      00000098H   SFRSYM    DATA     BYTE      SCON
      000000F1H   SFRSYM    DATA     BYTE      CANICR
L251 LINKER/LOCATER V4.66.93.0                                                        11/18/2024  23:30:20  PAGE 49


      00000087H   SFRSYM    DATA     BYTE      PCON
      000000BCH   SFRSYM    DATA     BYTE      ADC_CONTR
      000000E7H   SFRSYM    DATA     BYTE      CMPCR2
      000000E6H   SFRSYM    DATA     BYTE      CMPCR1
      000000DEH   SFRSYM    DATA     BYTE      ADCCFG
      000000B8H   SFRSYM    DATA     BYTE      IP
      0000008FH   SFRSYM    DATA     BYTE      INTCLKO
      000000EEH   SFRSYM    DATA     BYTE      IP3H
      000000B6H   SFRSYM    DATA     BYTE      IP2H
      000000A8H   SFRSYM    DATA     BYTE      IE
      000000BBH   SFRSYM    DATA     BYTE      P_SW3
      000000BAH   SFRSYM    DATA     BYTE      P_SW2
      000000A2H   SFRSYM    DATA     BYTE      P_SW1
      000000CEH   SFRSYM    DATA     BYTE      SPCTL
      000000F8H   SFRSYM    DATA     BYTE      P7
      000000E8H   SFRSYM    DATA     BYTE      P6
      000000C8H   SFRSYM    DATA     BYTE      P5
      000000C0H   SFRSYM    DATA     BYTE      P4
      000000B0H   SFRSYM    DATA     BYTE      P3
      000000A0H   SFRSYM    DATA     BYTE      P2
      00000090H   SFRSYM    DATA     BYTE      P1
      00000080H   SFRSYM    DATA     BYTE      P0

      00FF5EEFH   BLOCK     CODE     ---       LVL=0
      0000126DH   SYMBOL    EDATA    INT       pwmch
      00FF5EEFH   LINE      CODE     ---       #49
      00FF5EF3H   LINE      CODE     ---       #51
      00FF6065H   LINE      CODE     ---       #53
      00FF6065H   LINE      CODE     ---       #55
      00FF6070H   LINE      CODE     ---       #56
      00FF6073H   LINE      CODE     ---       #58
      00FF6073H   LINE      CODE     ---       #60
      00FF607EH   LINE      CODE     ---       #61
      00FF6081H   LINE      CODE     ---       #63
      00FF6081H   LINE      CODE     ---       #65
      00FF608CH   LINE      CODE     ---       #66
      00FF608FH   LINE      CODE     ---       #68
      00FF608FH   LINE      CODE     ---       #70
      00FF609AH   LINE      CODE     ---       #71
      00FF609DH   LINE      CODE     ---       #84
      00FF609DH   LINE      CODE     ---       #86
      00FF60A8H   LINE      CODE     ---       #87
      00FF60ABH   LINE      CODE     ---       #89
      00FF60ABH   LINE      CODE     ---       #91
      00FF60B6H   LINE      CODE     ---       #92
      00FF60B9H   LINE      CODE     ---       #94
      00FF60B9H   LINE      CODE     ---       #96
      00FF60C4H   LINE      CODE     ---       #97
      00FF60C7H   LINE      CODE     ---       #99
      00FF60C7H   LINE      CODE     ---       #101
      00FF60D2H   LINE      CODE     ---       #102
      00FF60D5H   LINE      CODE     ---       #115
      00FF60D5H   LINE      CODE     ---       #117
      00FF60E0H   LINE      CODE     ---       #118
      00FF60E3H   LINE      CODE     ---       #120
      00FF60E3H   LINE      CODE     ---       #122
      00FF60EEH   LINE      CODE     ---       #123
      00FF60F1H   LINE      CODE     ---       #125
      00FF60F1H   LINE      CODE     ---       #127
      00FF60FCH   LINE      CODE     ---       #128
      00FF60FFH   LINE      CODE     ---       #130
      00FF60FFH   LINE      CODE     ---       #132
      00FF610AH   LINE      CODE     ---       #133
      00FF610DH   LINE      CODE     ---       #147
      00FF610DH   LINE      CODE     ---       #149
L251 LINKER/LOCATER V4.66.93.0                                                        11/18/2024  23:30:20  PAGE 50


      00FF6118H   LINE      CODE     ---       #150
      00FF611BH   LINE      CODE     ---       #152
      00FF611BH   LINE      CODE     ---       #154
      00FF6126H   LINE      CODE     ---       #155
      00FF6129H   LINE      CODE     ---       #157
      00FF6129H   LINE      CODE     ---       #159
      00FF6134H   LINE      CODE     ---       #160
      00FF6137H   LINE      CODE     ---       #162
      00FF6137H   LINE      CODE     ---       #164
      00FF6142H   LINE      CODE     ---       #165
      00FF6145H   LINE      CODE     ---       #177
      00FF6145H   LINE      CODE     ---       #179
      00FF6150H   LINE      CODE     ---       #180
      00FF6153H   LINE      CODE     ---       #182
      00FF6153H   LINE      CODE     ---       #184
      00FF615EH   LINE      CODE     ---       #185
      00FF6161H   LINE      CODE     ---       #189
      00FF6161H   LINE      CODE     ---       #191
      00FF616CH   LINE      CODE     ---       #192
      00FF616FH   LINE      CODE     ---       #194
      00FF616FH   LINE      CODE     ---       #196
      00FF617AH   LINE      CODE     ---       #197
      00FF617CH   LINE      CODE     ---       #199
      00FF617CH   LINE      CODE     ---       #201
      00FF6185H   LINE      CODE     ---       #202
      00FF6187H   LINE      CODE     ---       #210
      00FF6187H   LINE      CODE     ---       #212
      00FF6192H   LINE      CODE     ---       #213
      00FF6194H   LINE      CODE     ---       #215
      00FF6194H   LINE      CODE     ---       #217
      00FF619FH   LINE      CODE     ---       #218
      00FF61A1H   LINE      CODE     ---       #220
      00FF61A1H   LINE      CODE     ---       #222
      00FF61ACH   LINE      CODE     ---       #223
      00FF61AEH   LINE      CODE     ---       #232
      00FF61AEH   LINE      CODE     ---       #234
      00FF61B9H   LINE      CODE     ---       #235
      00FF61BBH   LINE      CODE     ---       #237
      00FF61BBH   LINE      CODE     ---       #239
      00FF61C6H   LINE      CODE     ---       #240
      00FF61C8H   LINE      CODE     ---       #242
      00FF61C8H   LINE      CODE     ---       #244
      00FF61D3H   LINE      CODE     ---       #245
      00FF61D5H   LINE      CODE     ---       #254
      00FF61D5H   LINE      CODE     ---       #256
      00FF61E0H   LINE      CODE     ---       #257
      00FF61E2H   LINE      CODE     ---       #259
      00FF61E2H   LINE      CODE     ---       #261
      00FF61EDH   LINE      CODE     ---       #262
      00FF61EFH   LINE      CODE     ---       #264
      00FF61EFH   LINE      CODE     ---       #266
      00FF61FAH   LINE      CODE     ---       #267
      00FF61FAH   LINE      CODE     ---       #275
      00FF61FAH   LINE      CODE     ---       #277
      ---         BLOCKEND  ---      ---       LVL=0

      00FF53D7H   BLOCK     CODE     ---       LVL=0
      00000C0BH   SYMBOL    EDATA    INT       pwmch
      00000C0DH   SYMBOL    EDATA    DWORD     freq
      00000C11H   SYMBOL    EDATA    DWORD     duty
      00FF53DFH   BLOCK     CODE     NEAR LAB  LVL=1
      00000C15H   SYMBOL    EDATA    DWORD     match_temp
      00000C19H   SYMBOL    EDATA    DWORD     period_temp
      00000C1DH   SYMBOL    EDATA    WORD      freq_div
      ---         BLOCKEND  ---      ---       LVL=1
L251 LINKER/LOCATER V4.66.93.0                                                        11/18/2024  23:30:20  PAGE 51


      00FF53D7H   LINE      CODE     ---       #290
      00FF53DFH   LINE      CODE     ---       #291
      00FF53DFH   LINE      CODE     ---       #295
      00FF53E5H   LINE      CODE     ---       #298
      00FF53E8H   LINE      CODE     ---       #301
      00FF53EFH   LINE      CODE     ---       #305
      00FF5402H   LINE      CODE     ---       #306
      00FF5411H   LINE      CODE     ---       #307
      00FF542CH   LINE      CODE     ---       #309
      00FF5436H   LINE      CODE     ---       #311
      00FF545DH   LINE      CODE     ---       #312
      00FF545FH   LINE      CODE     ---       #315
      00FF546DH   LINE      CODE     ---       #316
      00FF546DH   LINE      CODE     ---       #319
      00FF547CH   LINE      CODE     ---       #322
      00FF54ADH   LINE      CODE     ---       #323
      00FF54E4H   LINE      CODE     ---       #326
      00FF5536H   LINE      CODE     ---       #329
      00FF5549H   LINE      CODE     ---       #330
      00FF5558H   LINE      CODE     ---       #332
      00FF5565H   LINE      CODE     ---       #333
      00FF5572H   LINE      CODE     ---       #334
      00FF5575H   LINE      CODE     ---       #337
      00FF55B3H   LINE      CODE     ---       #338
      00FF55E6H   LINE      CODE     ---       #341
      00FF5646H   LINE      CODE     ---       #345
      00FF5659H   LINE      CODE     ---       #346
      00FF5668H   LINE      CODE     ---       #348
      00FF5675H   LINE      CODE     ---       #349
      00FF5682H   LINE      CODE     ---       #350
      00FF5682H   LINE      CODE     ---       #353
      00FF56B4H   LINE      CODE     ---       #354
      00FF56ECH   LINE      CODE     ---       #357
      00FF571AH   LINE      CODE     ---       #358
      00FF574EH   LINE      CODE     ---       #361
      00FF577FH   LINE      CODE     ---       #362
      00FF57B0H   LINE      CODE     ---       #367
      ---         BLOCKEND  ---      ---       LVL=0

      00FF7051H   BLOCK     CODE     ---       LVL=0
      00000CE0H   SYMBOL    EDATA    INT       pwmch
      00000CE2H   SYMBOL    EDATA    DWORD     duty
      00FF7059H   BLOCK     CODE     NEAR LAB  LVL=1
      00000CE6H   SYMBOL    EDATA    DWORD     match_temp
      00000CEAH   SYMBOL    EDATA    DWORD     arr
      ---         BLOCKEND  ---      ---       LVL=1
      00FF7051H   LINE      CODE     ---       #377
      00FF7059H   LINE      CODE     ---       #378
      00FF7059H   LINE      CODE     ---       #380
      00FF70C5H   LINE      CODE     ---       #384
      00FF70CFH   LINE      CODE     ---       #386
      00FF70F6H   LINE      CODE     ---       #387
      00FF70F8H   LINE      CODE     ---       #390
      00FF7106H   LINE      CODE     ---       #391
      00FF7106H   LINE      CODE     ---       #396
      00FF7134H   LINE      CODE     ---       #397
      00FF7168H   LINE      CODE     ---       #401
      ---         BLOCKEND  ---      ---       LVL=0
      00000C1FH   SYMBOL    EDATA    INT       pwmch
      00000C21H   SYMBOL    EDATA    DWORD     freq
      00000C25H   SYMBOL    EDATA    DWORD     duty
      00000C29H   SYMBOL    EDATA    DWORD     match_temp
      00000C2DH   SYMBOL    EDATA    DWORD     period_temp
      00000C31H   SYMBOL    EDATA    WORD      freq_div

L251 LINKER/LOCATER V4.66.93.0                                                        11/18/2024  23:30:20  PAGE 52


      ---         MODULE    ---      ---       zf_spi
      00FF7BE9H   PUBLIC    CODE     ---       spi_init
      00FFAA72H   PUBLIC    CODE     ---       spi_mosi
      00000D42H   PUBLIC    EDATA    BYTE      ?spi_init?BYTE
      000000CFH   SFRSYM    DATA     BYTE      SPDAT
      000000D0H   SFRSYM    DATA     BYTE      PSW
      0000009DH   SFRSYM    DATA     BYTE      IRCBAND
      00000097H   SFRSYM    DATA     BYTE      AUXR2
      000000EFH   SFRSYM    DATA     BYTE      AUXINTIF
      000000FDH   SFRSYM    DATA     BYTE      S4CON
      000000ACH   SFRSYM    DATA     BYTE      S3CON
      0000009AH   SFRSYM    DATA     BYTE      S2CON
      000000B7H   SFRSYM    DATA     BYTE      IPH
      000000CDH   SFRSYM    DATA     BYTE      SPSTAT
      000000DDH   SFRSYM    DATA     BYTE      T4T3M
      000000C1H   SFRSYM    DATA     BYTE      WDT_CONTR
      000000DFH   SFRSYM    DATA     BYTE      IP3
      000000F4H   SFRSYM    DATA     BYTE      USBCON
      000000B5H   SFRSYM    DATA     BYTE      IP2
      000000FFH   SFRSYM    DATA     BYTE      RSTCFG
      000000C7H   SFRSYM    DATA     BYTE      IAP_CONTR
      000000F9H   SFRSYM    DATA     BYTE      LINICR
      0000008EH   SFRSYM    DATA     BYTE      AUXR
      000000AFH   SFRSYM    DATA     BYTE      IE2
      00000088H   SFRSYM    DATA     BYTE      TCON
      00000089H   SFRSYM    DATA     BYTE      TMOD
      00000098H   SFRSYM    DATA     BYTE      SCON
      000000F1H   SFRSYM    DATA     BYTE      CANICR
      00000087H   SFRSYM    DATA     BYTE      PCON
      000000BCH   SFRSYM    DATA     BYTE      ADC_CONTR
      000000E7H   SFRSYM    DATA     BYTE      CMPCR2
      000000E6H   SFRSYM    DATA     BYTE      CMPCR1
      000000DEH   SFRSYM    DATA     BYTE      ADCCFG
      000000B8H   SFRSYM    DATA     BYTE      IP
      0000008FH   SFRSYM    DATA     BYTE      INTCLKO
      000000EEH   SFRSYM    DATA     BYTE      IP3H
      000000B6H   SFRSYM    DATA     BYTE      IP2H
      000000A8H   SFRSYM    DATA     BYTE      IE
      000000BBH   SFRSYM    DATA     BYTE      P_SW3
      000000BAH   SFRSYM    DATA     BYTE      P_SW2
      000000A2H   SFRSYM    DATA     BYTE      P_SW1
      000000CEH   SFRSYM    DATA     BYTE      SPCTL
      000000F8H   SFRSYM    DATA     BYTE      P7
      000000E8H   SFRSYM    DATA     BYTE      P6
      000000C8H   SFRSYM    DATA     BYTE      P5
      000000C0H   SFRSYM    DATA     BYTE      P4
      000000B0H   SFRSYM    DATA     BYTE      P3
      000000A0H   SFRSYM    DATA     BYTE      P2
      00000090H   SFRSYM    DATA     BYTE      P1
      00000080H   SFRSYM    DATA     BYTE      P0

      00FF7BE9H   BLOCK     CODE     ---       LVL=0
      00000D42H   SYMBOL    EDATA    INT       spi_n
      00000D44H   SYMBOL    EDATA    INT       sck_pin
      00000D46H   SYMBOL    EDATA    INT       mosi_pin
      00000D48H   SYMBOL    EDATA    INT       miso_pin
      00000D4AH   SYMBOL    EDATA    BYTE      mode
      00000D4BH   SYMBOL    EDATA    INT       mstr
      00000D4DH   SYMBOL    EDATA    INT       baud
      00FF7BE9H   LINE      CODE     ---       #39
      00FF7BFDH   LINE      CODE     ---       #48
      00FF7C09H   LINE      CODE     ---       #50
      00FF7C18H   LINE      CODE     ---       #51
      00FF7C18H   LINE      CODE     ---       #53
      00FF7C24H   LINE      CODE     ---       #55
L251 LINKER/LOCATER V4.66.93.0                                                        11/18/2024  23:30:20  PAGE 53


      00FF7C33H   LINE      CODE     ---       #56
      00FF7C33H   LINE      CODE     ---       #58
      00FF7C3FH   LINE      CODE     ---       #60
      00FF7C4EH   LINE      CODE     ---       #61
      00FF7C4EH   LINE      CODE     ---       #64
      00FF7C51H   LINE      CODE     ---       #65
      00FF7C67H   LINE      CODE     ---       #67
      00FF7C67H   LINE      CODE     ---       #68
      00FF7C6BH   LINE      CODE     ---       #69
      00FF7C6DH   LINE      CODE     ---       #70
      00FF7C6DH   LINE      CODE     ---       #71
      00FF7C70H   LINE      CODE     ---       #72
      00FF7C72H   LINE      CODE     ---       #73
      00FF7C72H   LINE      CODE     ---       #74
      00FF7C75H   LINE      CODE     ---       #75
      00FF7C77H   LINE      CODE     ---       #76
      00FF7C77H   LINE      CODE     ---       #77
      00FF7C7AH   LINE      CODE     ---       #78
      00FF7C7AH   LINE      CODE     ---       #79
      00FF7C7AH   LINE      CODE     ---       #81
      00FF7C7DH   LINE      CODE     ---       #82
      00FF7C8CH   LINE      CODE     ---       #84
      00FF7C8CH   LINE      CODE     ---       #86
      00FF7C8EH   LINE      CODE     ---       #87
      00FF7C8EH   LINE      CODE     ---       #88
      00FF7C91H   LINE      CODE     ---       #89
      00FF7C93H   LINE      CODE     ---       #90
      00FF7C93H   LINE      CODE     ---       #91
      00FF7C96H   LINE      CODE     ---       #92
      00FF7C98H   LINE      CODE     ---       #93
      00FF7C98H   LINE      CODE     ---       #94
      00FF7C9BH   LINE      CODE     ---       #95
      00FF7C9BH   LINE      CODE     ---       #96
      00FF7C9BH   LINE      CODE     ---       #99
      00FF7CA3H   LINE      CODE     ---       #101
      00FF7CADH   LINE      CODE     ---       #103
      00FF7CB0H   LINE      CODE     ---       #104
      00FF7CB3H   LINE      CODE     ---       #105
      00FF7CB3H   LINE      CODE     ---       #109
      00FF7CB3H   LINE      CODE     ---       #110
      00FF7CB6H   LINE      CODE     ---       #111
      ---         BLOCKEND  ---      ---       LVL=0

      00FFAA72H   BLOCK     CODE     ---       LVL=0
      000012C3H   SYMBOL    EDATA    BYTE      dat
      00FFAA72H   LINE      CODE     ---       #121
      00FFAA76H   LINE      CODE     ---       #123
      00FFAA78H   LINE      CODE     ---       #124
      00FFAA7DH   LINE      CODE     ---       #125
      00FFAA81H   LINE      CODE     ---       #126
      00FFAA83H   LINE      CODE     ---       #127
      ---         BLOCKEND  ---      ---       LVL=0
      0000126FH   SYMBOL    EDATA    INT       spi_n
      000012C4H   SYMBOL    EDATA    BYTE      mode

      ---         MODULE    ---      ---       zf_tim
      00FF81E9H   PUBLIC    CODE     ---       ctimer_count_read
      00FF788BH   PUBLIC    CODE     ---       pit_timer_ms
      00FF9816H   PUBLIC    CODE     ---       ctimer_count_init
      00FF92DBH   PUBLIC    CODE     ---       ctimer_count_clean
      000000D0H   SFRSYM    DATA     BYTE      PSW
      0000009DH   SFRSYM    DATA     BYTE      IRCBAND
      00000097H   SFRSYM    DATA     BYTE      AUXR2
      000000EFH   SFRSYM    DATA     BYTE      AUXINTIF
      000000FDH   SFRSYM    DATA     BYTE      S4CON
L251 LINKER/LOCATER V4.66.93.0                                                        11/18/2024  23:30:20  PAGE 54


      000000ACH   SFRSYM    DATA     BYTE      S3CON
      0000009AH   SFRSYM    DATA     BYTE      S2CON
      000000B7H   SFRSYM    DATA     BYTE      IPH
      000000CDH   SFRSYM    DATA     BYTE      SPSTAT
      000000DDH   SFRSYM    DATA     BYTE      T4T3M
      000000C1H   SFRSYM    DATA     BYTE      WDT_CONTR
      00000088H.6 SFRSYM    DATA     BIT       TR1
      00000088H.4 SFRSYM    DATA     BIT       TR0
      000000D3H   SFRSYM    DATA     BYTE      T4L
      000000D5H   SFRSYM    DATA     BYTE      T3L
      000000D7H   SFRSYM    DATA     BYTE      T2L
      0000008BH   SFRSYM    DATA     BYTE      TL1
      0000008AH   SFRSYM    DATA     BYTE      TL0
      000000D2H   SFRSYM    DATA     BYTE      T4H
      000000D4H   SFRSYM    DATA     BYTE      T3H
      000000D6H   SFRSYM    DATA     BYTE      T2H
      0000008DH   SFRSYM    DATA     BYTE      TH1
      0000008CH   SFRSYM    DATA     BYTE      TH0
      000000DFH   SFRSYM    DATA     BYTE      IP3
      000000F4H   SFRSYM    DATA     BYTE      USBCON
      000000B5H   SFRSYM    DATA     BYTE      IP2
      000000FFH   SFRSYM    DATA     BYTE      RSTCFG
      000000A8H.3 SFRSYM    DATA     BIT       ET1
      000000A8H.1 SFRSYM    DATA     BIT       ET0
      000000C7H   SFRSYM    DATA     BYTE      IAP_CONTR
      000000F9H   SFRSYM    DATA     BYTE      LINICR
      0000008EH   SFRSYM    DATA     BYTE      AUXR
      000000AFH   SFRSYM    DATA     BYTE      IE2
      00000088H   SFRSYM    DATA     BYTE      TCON
      00000089H   SFRSYM    DATA     BYTE      TMOD
      00000098H   SFRSYM    DATA     BYTE      SCON
      000000F1H   SFRSYM    DATA     BYTE      CANICR
      00000087H   SFRSYM    DATA     BYTE      PCON
      000000BCH   SFRSYM    DATA     BYTE      ADC_CONTR
      000000E7H   SFRSYM    DATA     BYTE      CMPCR2
      000000E6H   SFRSYM    DATA     BYTE      CMPCR1
      000000DEH   SFRSYM    DATA     BYTE      ADCCFG
      000000B8H   SFRSYM    DATA     BYTE      IP
      0000008FH   SFRSYM    DATA     BYTE      INTCLKO
      000000EEH   SFRSYM    DATA     BYTE      IP3H
      000000B6H   SFRSYM    DATA     BYTE      IP2H
      000000A8H   SFRSYM    DATA     BYTE      IE
      000000BBH   SFRSYM    DATA     BYTE      P_SW3
      000000BAH   SFRSYM    DATA     BYTE      P_SW2
      000000A2H   SFRSYM    DATA     BYTE      P_SW1
      000000CEH   SFRSYM    DATA     BYTE      SPCTL
      000000F8H   SFRSYM    DATA     BYTE      P7
      000000E8H   SFRSYM    DATA     BYTE      P6
      000000C8H   SFRSYM    DATA     BYTE      P5
      000000C0H   SFRSYM    DATA     BYTE      P4
      000000B0H   SFRSYM    DATA     BYTE      P3
      000000A0H   SFRSYM    DATA     BYTE      P2
      00000090H   SFRSYM    DATA     BYTE      P1
      00000080H   SFRSYM    DATA     BYTE      P0

      00FF9816H   BLOCK     CODE     ---       LVL=0
      00001271H   SYMBOL    EDATA    INT       tim_n
      00FF9816H   LINE      CODE     ---       #39
      00FF981AH   LINE      CODE     ---       #42
      00FF982EH   LINE      CODE     ---       #44
      00FF982EH   LINE      CODE     ---       #46
      00FF9831H   LINE      CODE     ---       #47
      00FF9834H   LINE      CODE     ---       #48
      00FF9837H   LINE      CODE     ---       #49
      00FF983AH   LINE      CODE     ---       #50
L251 LINKER/LOCATER V4.66.93.0                                                        11/18/2024  23:30:20  PAGE 55


      00FF983CH   LINE      CODE     ---       #53
      00FF983CH   LINE      CODE     ---       #55
      00FF983FH   LINE      CODE     ---       #56
      00FF9842H   LINE      CODE     ---       #57
      00FF9845H   LINE      CODE     ---       #58
      00FF9848H   LINE      CODE     ---       #59
      00FF984AH   LINE      CODE     ---       #62
      00FF984AH   LINE      CODE     ---       #64
      00FF984DH   LINE      CODE     ---       #65
      00FF9850H   LINE      CODE     ---       #66
      00FF9853H   LINE      CODE     ---       #67
      00FF9855H   LINE      CODE     ---       #70
      00FF9855H   LINE      CODE     ---       #72
      00FF9858H   LINE      CODE     ---       #73
      00FF985BH   LINE      CODE     ---       #74
      00FF985EH   LINE      CODE     ---       #75
      00FF9860H   LINE      CODE     ---       #78
      00FF9860H   LINE      CODE     ---       #80
      00FF9863H   LINE      CODE     ---       #81
      00FF9866H   LINE      CODE     ---       #82
      00FF9869H   LINE      CODE     ---       #83
      00FF9869H   LINE      CODE     ---       #86
      00FF9869H   LINE      CODE     ---       #87
      ---         BLOCKEND  ---      ---       LVL=0

      00FF81E9H   BLOCK     CODE     ---       LVL=0
      000011D2H   SYMBOL    EDATA    INT       tim_n
      00FF81EDH   BLOCK     CODE     NEAR LAB  LVL=1
      000011D4H   SYMBOL    EDATA    WORD      dat
      ---         BLOCKEND  ---      ---       LVL=1
      00FF81E9H   LINE      CODE     ---       #95
      00FF81EDH   LINE      CODE     ---       #96
      00FF81EDH   LINE      CODE     ---       #97
      00FF81F3H   LINE      CODE     ---       #99
      00FF820EH   LINE      CODE     ---       #101
      00FF820EH   LINE      CODE     ---       #103
      00FF821AH   LINE      CODE     ---       #104
      00FF8228H   LINE      CODE     ---       #105
      00FF822AH   LINE      CODE     ---       #107
      00FF822AH   LINE      CODE     ---       #109
      00FF8236H   LINE      CODE     ---       #110
      00FF8244H   LINE      CODE     ---       #111
      00FF8246H   LINE      CODE     ---       #113
      00FF8246H   LINE      CODE     ---       #115
      00FF8252H   LINE      CODE     ---       #116
      00FF8260H   LINE      CODE     ---       #117
      00FF8262H   LINE      CODE     ---       #119
      00FF8262H   LINE      CODE     ---       #121
      00FF826EH   LINE      CODE     ---       #122
      00FF827CH   LINE      CODE     ---       #123
      00FF827EH   LINE      CODE     ---       #125
      00FF827EH   LINE      CODE     ---       #127
      00FF828AH   LINE      CODE     ---       #128
      00FF8298H   LINE      CODE     ---       #129
      00FF8298H   LINE      CODE     ---       #132
      00FF8298H   LINE      CODE     ---       #133
      00FF829CH   LINE      CODE     ---       #134
      ---         BLOCKEND  ---      ---       LVL=0

      00FF92DBH   BLOCK     CODE     ---       LVL=0
      00001273H   SYMBOL    EDATA    INT       tim_n
      00FF92DBH   LINE      CODE     ---       #143
      00FF92DFH   LINE      CODE     ---       #145
      00FF92F3H   LINE      CODE     ---       #147
      00FF92F3H   LINE      CODE     ---       #149
L251 LINKER/LOCATER V4.66.93.0                                                        11/18/2024  23:30:20  PAGE 56


      00FF92F6H   LINE      CODE     ---       #150
      00FF92F9H   LINE      CODE     ---       #151
      00FF92FCH   LINE      CODE     ---       #152
      00FF92FFH   LINE      CODE     ---       #153
      00FF9301H   LINE      CODE     ---       #155
      00FF9301H   LINE      CODE     ---       #157
      00FF9304H   LINE      CODE     ---       #158
      00FF9307H   LINE      CODE     ---       #159
      00FF930AH   LINE      CODE     ---       #160
      00FF930DH   LINE      CODE     ---       #161
      00FF930FH   LINE      CODE     ---       #163
      00FF930FH   LINE      CODE     ---       #165
      00FF9312H   LINE      CODE     ---       #166
      00FF9315H   LINE      CODE     ---       #167
      00FF9318H   LINE      CODE     ---       #168
      00FF931BH   LINE      CODE     ---       #169
      00FF931DH   LINE      CODE     ---       #171
      00FF931DH   LINE      CODE     ---       #173
      00FF9320H   LINE      CODE     ---       #174
      00FF9323H   LINE      CODE     ---       #175
      00FF9326H   LINE      CODE     ---       #176
      00FF9329H   LINE      CODE     ---       #177
      00FF932BH   LINE      CODE     ---       #179
      00FF932BH   LINE      CODE     ---       #181
      00FF932EH   LINE      CODE     ---       #182
      00FF9331H   LINE      CODE     ---       #183
      00FF9334H   LINE      CODE     ---       #184
      00FF9337H   LINE      CODE     ---       #185
      00FF9337H   LINE      CODE     ---       #187
      00FF9337H   LINE      CODE     ---       #188
      ---         BLOCKEND  ---      ---       LVL=0

      00FF788BH   BLOCK     CODE     ---       LVL=0
      000010E8H   SYMBOL    EDATA    INT       tim_n
      000010EAH   SYMBOL    EDATA    WORD      time_ms
      00FF7893H   BLOCK     CODE     NEAR LAB  LVL=1
      000010ECH   SYMBOL    EDATA    WORD      temp
      ---         BLOCKEND  ---      ---       LVL=1
      00FF788BH   LINE      CODE     ---       #198
      00FF7893H   LINE      CODE     ---       #199
      00FF7893H   LINE      CODE     ---       #201
      00FF78B6H   LINE      CODE     ---       #203
      00FF78C0H   LINE      CODE     ---       #205
      00FF78C4H   LINE      CODE     ---       #206
      00FF78CAH   LINE      CODE     ---       #207
      00FF78D4H   LINE      CODE     ---       #208
      00FF78D7H   LINE      CODE     ---       #209
      00FF78DAH   LINE      CODE     ---       #210
      00FF78DDH   LINE      CODE     ---       #211
      00FF78E9H   LINE      CODE     ---       #213
      00FF78EDH   LINE      CODE     ---       #214
      00FF78F3H   LINE      CODE     ---       #215
      00FF78FDH   LINE      CODE     ---       #216
      00FF7900H   LINE      CODE     ---       #217
      00FF7903H   LINE      CODE     ---       #218
      00FF7905H   LINE      CODE     ---       #219
      00FF7911H   LINE      CODE     ---       #221
      00FF7917H   LINE      CODE     ---       #222
      00FF7921H   LINE      CODE     ---       #223
      00FF7924H   LINE      CODE     ---       #224
      00FF7927H   LINE      CODE     ---       #225
      00FF7929H   LINE      CODE     ---       #226
      00FF7935H   LINE      CODE     ---       #228
      00FF793BH   LINE      CODE     ---       #229
      00FF7945H   LINE      CODE     ---       #230
L251 LINKER/LOCATER V4.66.93.0                                                        11/18/2024  23:30:20  PAGE 57


      00FF7948H   LINE      CODE     ---       #231
      00FF794BH   LINE      CODE     ---       #232
      00FF794DH   LINE      CODE     ---       #233
      00FF7959H   LINE      CODE     ---       #235
      00FF795FH   LINE      CODE     ---       #236
      00FF7969H   LINE      CODE     ---       #237
      00FF796CH   LINE      CODE     ---       #238
      00FF796FH   LINE      CODE     ---       #239
      ---         BLOCKEND  ---      ---       LVL=0

      ---         MODULE    ---      ---       zf_uart
      00FF8A3DH   PUBLIC    CODE     ---       uart_putchar
      00FFA2A2H   PUBLIC    CODE     ---       uart_putbuff
      00FF61FBH   PUBLIC    CODE     ---       uart_init
      00001190H   PUBLIC    EDATA    ---       busy
      00000CEEH   PUBLIC    EDATA    BYTE      ?uart_init?BYTE
      00000E80H   PUBLIC    EDATA    BYTE      ?uart_putbuff?BYTE
      000000D0H   SFRSYM    DATA     BYTE      PSW
      0000009DH   SFRSYM    DATA     BYTE      IRCBAND
      00000097H   SFRSYM    DATA     BYTE      AUXR2
      000000EFH   SFRSYM    DATA     BYTE      AUXINTIF
      000000FDH   SFRSYM    DATA     BYTE      S4CON
      000000ACH   SFRSYM    DATA     BYTE      S3CON
      0000009AH   SFRSYM    DATA     BYTE      S2CON
      000000FEH   SFRSYM    DATA     BYTE      S4BUF
      000000ADH   SFRSYM    DATA     BYTE      S3BUF
      0000009BH   SFRSYM    DATA     BYTE      S2BUF
      000000B7H   SFRSYM    DATA     BYTE      IPH
      000000CDH   SFRSYM    DATA     BYTE      SPSTAT
      000000DDH   SFRSYM    DATA     BYTE      T4T3M
      000000C1H   SFRSYM    DATA     BYTE      WDT_CONTR
      00000088H.6 SFRSYM    DATA     BIT       TR1
      000000D3H   SFRSYM    DATA     BYTE      T4L
      000000D5H   SFRSYM    DATA     BYTE      T3L
      000000D7H   SFRSYM    DATA     BYTE      T2L
      0000008BH   SFRSYM    DATA     BYTE      TL1
      000000D2H   SFRSYM    DATA     BYTE      T4H
      000000D4H   SFRSYM    DATA     BYTE      T3H
      000000D6H   SFRSYM    DATA     BYTE      T2H
      0000008DH   SFRSYM    DATA     BYTE      TH1
      000000DFH   SFRSYM    DATA     BYTE      IP3
      000000F4H   SFRSYM    DATA     BYTE      USBCON
      000000B5H   SFRSYM    DATA     BYTE      IP2
      000000FFH   SFRSYM    DATA     BYTE      RSTCFG
      000000C7H   SFRSYM    DATA     BYTE      IAP_CONTR
      000000F9H   SFRSYM    DATA     BYTE      LINICR
      0000008EH   SFRSYM    DATA     BYTE      AUXR
      000000AFH   SFRSYM    DATA     BYTE      IE2
      00000088H   SFRSYM    DATA     BYTE      TCON
      00000089H   SFRSYM    DATA     BYTE      TMOD
      00000098H   SFRSYM    DATA     BYTE      SCON
      000000F1H   SFRSYM    DATA     BYTE      CANICR
      00000087H   SFRSYM    DATA     BYTE      PCON
      00000099H   SFRSYM    DATA     BYTE      SBUF
      000000BCH   SFRSYM    DATA     BYTE      ADC_CONTR
      000000E7H   SFRSYM    DATA     BYTE      CMPCR2
      000000E6H   SFRSYM    DATA     BYTE      CMPCR1
      000000DEH   SFRSYM    DATA     BYTE      ADCCFG
      000000B8H   SFRSYM    DATA     BYTE      IP
      000000A8H.4 SFRSYM    DATA     BIT       ES
      0000008FH   SFRSYM    DATA     BYTE      INTCLKO
      000000EEH   SFRSYM    DATA     BYTE      IP3H
      000000B6H   SFRSYM    DATA     BYTE      IP2H
      000000A8H   SFRSYM    DATA     BYTE      IE
      000000BBH   SFRSYM    DATA     BYTE      P_SW3
L251 LINKER/LOCATER V4.66.93.0                                                        11/18/2024  23:30:20  PAGE 58


      000000BAH   SFRSYM    DATA     BYTE      P_SW2
      000000A2H   SFRSYM    DATA     BYTE      P_SW1
      000000CEH   SFRSYM    DATA     BYTE      SPCTL
      000000F8H   SFRSYM    DATA     BYTE      P7
      000000E8H   SFRSYM    DATA     BYTE      P6
      000000C8H   SFRSYM    DATA     BYTE      P5
      000000C0H   SFRSYM    DATA     BYTE      P4
      000000C9H   SFRSYM    DATA     BYTE      P5M1
      000000B0H   SFRSYM    DATA     BYTE      P3
      000000CAH   SFRSYM    DATA     BYTE      P5M0
      000000A0H   SFRSYM    DATA     BYTE      P2
      00000090H   SFRSYM    DATA     BYTE      P1
      00000080H   SFRSYM    DATA     BYTE      P0

      00FF61FBH   BLOCK     CODE     ---       LVL=0
      00000CEEH   SYMBOL    EDATA    INT       uart_n
      00000CF0H   SYMBOL    EDATA    INT       uart_rx_pin
      00000CF2H   SYMBOL    EDATA    INT       uart_tx_pin
      00000CF4H   SYMBOL    EDATA    DWORD     baud
      00000CF8H   SYMBOL    EDATA    INT       tim_n
      00FF620BH   BLOCK     CODE     NEAR LAB  LVL=1
      00000CFAH   SYMBOL    EDATA    WORD      brt
      ---         BLOCKEND  ---      ---       LVL=1
      00FF61FBH   LINE      CODE     ---       #45
      00FF620BH   LINE      CODE     ---       #46
      00FF620BH   LINE      CODE     ---       #49
      00FF6232H   LINE      CODE     ---       #52
      00FF6254H   LINE      CODE     ---       #54
      00FF6254H   LINE      CODE     ---       #56
      00FF6260H   LINE      CODE     ---       #58
      00FF6263H   LINE      CODE     ---       #59
      00FF6267H   LINE      CODE     ---       #60
      00FF626DH   LINE      CODE     ---       #61
      00FF6277H   LINE      CODE     ---       #62
      00FF627AH   LINE      CODE     ---       #63
      00FF627DH   LINE      CODE     ---       #64
      00FF6282H   LINE      CODE     ---       #65
      00FF6284H   LINE      CODE     ---       #66
      00FF6290H   LINE      CODE     ---       #68
      00FF6293H   LINE      CODE     ---       #69
      00FF6299H   LINE      CODE     ---       #70
      00FF62A3H   LINE      CODE     ---       #71
      00FF62A6H   LINE      CODE     ---       #72
      00FF62A6H   LINE      CODE     ---       #73
      00FF62A9H   LINE      CODE     ---       #74
      00FF62BFH   LINE      CODE     ---       #76
      00FF62C3H   LINE      CODE     ---       #77
      00FF62C5H   LINE      CODE     ---       #78
      00FF62DDH   LINE      CODE     ---       #80
      00FF62E0H   LINE      CODE     ---       #81
      00FF62E2H   LINE      CODE     ---       #82
      00FF62FAH   LINE      CODE     ---       #84
      00FF62FDH   LINE      CODE     ---       #85
      00FF62FFH   LINE      CODE     ---       #86
      00FF6317H   LINE      CODE     ---       #88
      00FF631AH   LINE      CODE     ---       #89
      00FF631AH   LINE      CODE     ---       #90
      00FF631FH   LINE      CODE     ---       #91
      00FF6322H   LINE      CODE     ---       #92
      00FF6325H   LINE      CODE     ---       #95
      00FF6325H   LINE      CODE     ---       #97
      00FF6331H   LINE      CODE     ---       #99
      00FF6334H   LINE      CODE     ---       #100
      00FF633AH   LINE      CODE     ---       #101
      00FF6344H   LINE      CODE     ---       #102
L251 LINKER/LOCATER V4.66.93.0                                                        11/18/2024  23:30:20  PAGE 59


      00FF6347H   LINE      CODE     ---       #103
      00FF6347H   LINE      CODE     ---       #105
      00FF634AH   LINE      CODE     ---       #106
      00FF6362H   LINE      CODE     ---       #108
      00FF6366H   LINE      CODE     ---       #109
      00FF6368H   LINE      CODE     ---       #110
      00FF6380H   LINE      CODE     ---       #112
      00FF6383H   LINE      CODE     ---       #113
      00FF6383H   LINE      CODE     ---       #115
      00FF6386H   LINE      CODE     ---       #116
      00FF638BH   LINE      CODE     ---       #117
      00FF638EH   LINE      CODE     ---       #120
      00FF638EH   LINE      CODE     ---       #122
      00FF639AH   LINE      CODE     ---       #124
      00FF639DH   LINE      CODE     ---       #125
      00FF63A3H   LINE      CODE     ---       #126
      00FF63ADH   LINE      CODE     ---       #127
      00FF63B0H   LINE      CODE     ---       #128
      00FF63B2H   LINE      CODE     ---       #129
      00FF63BEH   LINE      CODE     ---       #131
      00FF63C1H   LINE      CODE     ---       #132
      00FF63C7H   LINE      CODE     ---       #133
      00FF63D1H   LINE      CODE     ---       #134
      00FF63D4H   LINE      CODE     ---       #135
      00FF63D4H   LINE      CODE     ---       #137
      00FF63D7H   LINE      CODE     ---       #138
      00FF63EFH   LINE      CODE     ---       #140
      00FF63F3H   LINE      CODE     ---       #141
      00FF63F5H   LINE      CODE     ---       #142
      00FF640DH   LINE      CODE     ---       #144
      00FF6410H   LINE      CODE     ---       #145
      00FF6410H   LINE      CODE     ---       #147
      00FF6413H   LINE      CODE     ---       #148
      00FF6418H   LINE      CODE     ---       #149
      00FF641BH   LINE      CODE     ---       #152
      00FF641BH   LINE      CODE     ---       #154
      00FF6427H   LINE      CODE     ---       #156
      00FF642AH   LINE      CODE     ---       #157
      00FF6430H   LINE      CODE     ---       #158
      00FF643AH   LINE      CODE     ---       #159
      00FF643EH   LINE      CODE     ---       #160
      00FF6440H   LINE      CODE     ---       #161
      00FF644CH   LINE      CODE     ---       #163
      00FF644FH   LINE      CODE     ---       #164
      00FF6455H   LINE      CODE     ---       #165
      00FF645FH   LINE      CODE     ---       #166
      00FF6462H   LINE      CODE     ---       #167
      00FF6462H   LINE      CODE     ---       #169
      00FF6465H   LINE      CODE     ---       #170
      00FF647DH   LINE      CODE     ---       #172
      00FF6481H   LINE      CODE     ---       #173
      00FF6483H   LINE      CODE     ---       #174
      00FF649BH   LINE      CODE     ---       #176
      00FF649EH   LINE      CODE     ---       #177
      00FF64A2H   LINE      CODE     ---       #178
      00FF64A5H   LINE      CODE     ---       #179
      00FF64A5H   LINE      CODE     ---       #180
      00FF64A8H   LINE      CODE     ---       #181
      00FF64ADH   LINE      CODE     ---       #182
      00FF64ADH   LINE      CODE     ---       #185
      00FF64ADH   LINE      CODE     ---       #187
      ---         BLOCKEND  ---      ---       LVL=0

      00FF8A3DH   BLOCK     CODE     ---       LVL=0
      0000122EH   SYMBOL    EDATA    INT       uart_n
L251 LINKER/LOCATER V4.66.93.0                                                        11/18/2024  23:30:20  PAGE 60


      00001230H   SYMBOL    EDATA    BYTE      dat
      00FF8A3DH   LINE      CODE     ---       #196
      00FF8A45H   LINE      CODE     ---       #198
      00FF8A57H   LINE      CODE     ---       #200
      00FF8A57H   LINE      CODE     ---       #201
      00FF8A60H   LINE      CODE     ---       #202
      00FF8A66H   LINE      CODE     ---       #203
      00FF8A6CH   LINE      CODE     ---       #204
      00FF8A6EH   LINE      CODE     ---       #205
      00FF8A6EH   LINE      CODE     ---       #206
      00FF8A77H   LINE      CODE     ---       #207
      00FF8A7DH   LINE      CODE     ---       #208
      00FF8A83H   LINE      CODE     ---       #209
      00FF8A85H   LINE      CODE     ---       #210
      00FF8A85H   LINE      CODE     ---       #211
      00FF8A8EH   LINE      CODE     ---       #212
      00FF8A94H   LINE      CODE     ---       #213
      00FF8A9AH   LINE      CODE     ---       #214
      00FF8A9CH   LINE      CODE     ---       #215
      00FF8A9CH   LINE      CODE     ---       #216
      00FF8AA5H   LINE      CODE     ---       #217
      00FF8AABH   LINE      CODE     ---       #218
      00FF8AB1H   LINE      CODE     ---       #219
      00FF8AB1H   LINE      CODE     ---       #220
      00FF8AB1H   LINE      CODE     ---       #221
      ---         BLOCKEND  ---      ---       LVL=0

      00FFA2A2H   BLOCK     CODE     ---       LVL=0
      00000E80H   SYMBOL    EDATA    INT       uart_n
      00000E82H   SYMBOL    EDATA    ---       p
      00000E86H   SYMBOL    EDATA    DWORD     len
      00FFA2A2H   LINE      CODE     ---       #232
      00FFA2AAH   LINE      CODE     ---       #234
      00FFA2D4H   LINE      CODE     ---       #236
      ---         BLOCKEND  ---      ---       LVL=0
      000010EEH   SYMBOL    EDATA    INT       uart_n
      000010F0H   SYMBOL    EDATA    ---       str

      ---         MODULE    ---      ---       zf_fifo
      00FF57B1H   PUBLIC    CODE     ---       fifo_read_buffer
      00FF5B5DH   PUBLIC    CODE     ---       fifo_write_buffer
      00FFA542H   PUBLIC    CODE     ---       fifo_used
      00FF86D5H   PUBLIC    CODE     ---       fifo_init
      00000C47H   PUBLIC    EDATA    BYTE      ?fifo_write_buffer?BYTE
      00000D69H   PUBLIC    EDATA    BYTE      ?fifo_read_element?BYTE
      00000B80H   PUBLIC    EDATA    BYTE      ?fifo_read_buffer?BYTE
      00000B98H   PUBLIC    EDATA    BYTE      ?fifo_read_tail_buffer?BYTE
      00000CB1H   PUBLIC    EDATA    BYTE      ?fifo_init?BYTE
      000000D0H   SFRSYM    DATA     BYTE      PSW
      0000009DH   SFRSYM    DATA     BYTE      IRCBAND
      00000097H   SFRSYM    DATA     BYTE      AUXR2
      000000EFH   SFRSYM    DATA     BYTE      AUXINTIF
      000000FDH   SFRSYM    DATA     BYTE      S4CON
      000000ACH   SFRSYM    DATA     BYTE      S3CON
      0000009AH   SFRSYM    DATA     BYTE      S2CON
      000000B7H   SFRSYM    DATA     BYTE      IPH
      000000CDH   SFRSYM    DATA     BYTE      SPSTAT
      000000DDH   SFRSYM    DATA     BYTE      T4T3M
      000000C1H   SFRSYM    DATA     BYTE      WDT_CONTR
      000000DFH   SFRSYM    DATA     BYTE      IP3
      000000F4H   SFRSYM    DATA     BYTE      USBCON
      000000B5H   SFRSYM    DATA     BYTE      IP2
      000000FFH   SFRSYM    DATA     BYTE      RSTCFG
      000000C7H   SFRSYM    DATA     BYTE      IAP_CONTR
      000000F9H   SFRSYM    DATA     BYTE      LINICR
L251 LINKER/LOCATER V4.66.93.0                                                        11/18/2024  23:30:20  PAGE 61


      0000008EH   SFRSYM    DATA     BYTE      AUXR
      000000AFH   SFRSYM    DATA     BYTE      IE2
      00000088H   SFRSYM    DATA     BYTE      TCON
      00000089H   SFRSYM    DATA     BYTE      TMOD
      00000098H   SFRSYM    DATA     BYTE      SCON
      000000F1H   SFRSYM    DATA     BYTE      CANICR
      00000087H   SFRSYM    DATA     BYTE      PCON
      000000BCH   SFRSYM    DATA     BYTE      ADC_CONTR
      000000E7H   SFRSYM    DATA     BYTE      CMPCR2
      000000E6H   SFRSYM    DATA     BYTE      CMPCR1
      000000DEH   SFRSYM    DATA     BYTE      ADCCFG
      000000B8H   SFRSYM    DATA     BYTE      IP
      0000008FH   SFRSYM    DATA     BYTE      INTCLKO
      000000EEH   SFRSYM    DATA     BYTE      IP3H
      000000B6H   SFRSYM    DATA     BYTE      IP2H
      000000A8H   SFRSYM    DATA     BYTE      IE
      000000BBH   SFRSYM    DATA     BYTE      P_SW3
      000000BAH   SFRSYM    DATA     BYTE      P_SW2
      000000A2H   SFRSYM    DATA     BYTE      P_SW1
      000000CEH   SFRSYM    DATA     BYTE      SPCTL
      000000F8H   SFRSYM    DATA     BYTE      P7
      000000E8H   SFRSYM    DATA     BYTE      P6
      000000C8H   SFRSYM    DATA     BYTE      P5
      000000C0H   SFRSYM    DATA     BYTE      P4
      000000B0H   SFRSYM    DATA     BYTE      P3
      000000A0H   SFRSYM    DATA     BYTE      P2
      00000090H   SFRSYM    DATA     BYTE      P1
      00000080H   SFRSYM    DATA     BYTE      P0
      00FF8B9AH   SYMBOL    CODE     ---       fifo_head_offset
      00FF8C0AH   SYMBOL    CODE     ---       fifo_end_offset

      00FF8B9AH   BLOCK     CODE     ---       LVL=0
      00001008H   SYMBOL    EDATA    ---       fifo
      0000100CH   SYMBOL    EDATA    DWORD     offset
      00FF8B9AH   LINE      CODE     ---       #42
      00FF8BA2H   LINE      CODE     ---       #44
      00FF8BBEH   LINE      CODE     ---       #46
      00FF8BC0H   LINE      CODE     ---       #48
      00FF8BE7H   LINE      CODE     ---       #49
      00FF8C09H   LINE      CODE     ---       #50
      ---         BLOCKEND  ---      ---       LVL=0

      00FF8C0AH   BLOCK     CODE     ---       LVL=0
      00001010H   SYMBOL    EDATA    ---       fifo
      00001014H   SYMBOL    EDATA    DWORD     offset
      00FF8C0AH   LINE      CODE     ---       #60
      00FF8C12H   LINE      CODE     ---       #62
      00FF8C2EH   LINE      CODE     ---       #64
      00FF8C30H   LINE      CODE     ---       #66
      00FF8C57H   LINE      CODE     ---       #67
      00FF8C79H   LINE      CODE     ---       #68
      ---         BLOCKEND  ---      ---       LVL=0
      000010F4H   SYMBOL    EDATA    ---       fifo
      000010F8H   SYMBOL    EDATA    INT       return_state

      00FFA542H   BLOCK     CODE     ---       LVL=0
      000011D6H   SYMBOL    EDATA    ---       fifo
      00FFA542H   LINE      CODE     ---       #110
      00FFA546H   LINE      CODE     ---       #113
      00FFA566H   LINE      CODE     ---       #114
      ---         BLOCKEND  ---      ---       LVL=0
      00000E8AH   SYMBOL    EDATA    ---       fifo
      00000E8EH   SYMBOL    EDATA    DWORD     dat
      00000E92H   SYMBOL    EDATA    INT       return_state

L251 LINKER/LOCATER V4.66.93.0                                                        11/18/2024  23:30:20  PAGE 62


      00FF5B5DH   BLOCK     CODE     ---       LVL=0
      00000C47H   SYMBOL    EDATA    ---       fifo
      00000C4BH   SYMBOL    EDATA    ---       dat
      00000C4FH   SYMBOL    EDATA    DWORD     length
      00FF5B65H   BLOCK     CODE     NEAR LAB  LVL=1
      00000C53H   SYMBOL    EDATA    INT       return_state
      00000C55H   SYMBOL    EDATA    DWORD     temp_length
      ---         BLOCKEND  ---      ---       LVL=1
      00FF5B5DH   LINE      CODE     ---       #168
      00FF5B65H   LINE      CODE     ---       #169
      00FF5B65H   LINE      CODE     ---       #171
      00FF5B6BH   LINE      CODE     ---       #172
      00FF5B71H   LINE      CODE     ---       #174
      00FF5B71H   LINE      CODE     ---       #176
      00FF5B79H   LINE      CODE     ---       #178
      00FF5B81H   LINE      CODE     ---       #179
      00FF5B84H   LINE      CODE     ---       #180
      00FF5B84H   LINE      CODE     ---       #181
      00FF5B99H   LINE      CODE     ---       #183
      00FF5BA1H   LINE      CODE     ---       #184
      00FF5BA4H   LINE      CODE     ---       #185
      00FF5BA4H   LINE      CODE     ---       #186
      00FF5BB2H   LINE      CODE     ---       #188
      00FF5BCCH   LINE      CODE     ---       #190
      00FF5BF0H   LINE      CODE     ---       #192
      00FF5BFFH   LINE      CODE     ---       #194
      00FF5C1DH   LINE      CODE     ---       #196
      00FF5C1DH   LINE      CODE     ---       #198
      00FF5C4CH   LINE      CODE     ---       #201
      00FF5C57H   LINE      CODE     ---       #202
      00FF5C94H   LINE      CODE     ---       #206
      00FF5CA5H   LINE      CODE     ---       #207
      00FF5CA8H   LINE      CODE     ---       #208
      00FF5CA8H   LINE      CODE     ---       #210
      00FF5CDBH   LINE      CODE     ---       #213
      00FF5CE6H   LINE      CODE     ---       #214
      00FF5D29H   LINE      CODE     ---       #218
      00FF5D3AH   LINE      CODE     ---       #219
      00FF5D3DH   LINE      CODE     ---       #220
      00FF5D3DH   LINE      CODE     ---       #222
      00FF5D74H   LINE      CODE     ---       #225
      00FF5D7FH   LINE      CODE     ---       #226
      00FF5DC8H   LINE      CODE     ---       #230
      00FF5DD9H   LINE      CODE     ---       #231
      00FF5DD9H   LINE      CODE     ---       #232
      00FF5DD9H   LINE      CODE     ---       #233
      00FF5DDCH   LINE      CODE     ---       #236
      00FF5DF7H   LINE      CODE     ---       #238
      00FF5DF7H   LINE      CODE     ---       #240
      00FF5E26H   LINE      CODE     ---       #243
      00FF5E31H   LINE      CODE     ---       #244
      00FF5E34H   LINE      CODE     ---       #245
      00FF5E34H   LINE      CODE     ---       #247
      00FF5E67H   LINE      CODE     ---       #250
      00FF5E72H   LINE      CODE     ---       #251
      00FF5E74H   LINE      CODE     ---       #252
      00FF5E74H   LINE      CODE     ---       #254
      00FF5EABH   LINE      CODE     ---       #257
      00FF5EB6H   LINE      CODE     ---       #258
      00FF5EB6H   LINE      CODE     ---       #259
      00FF5EB6H   LINE      CODE     ---       #260
      00FF5EB6H   LINE      CODE     ---       #262
      00FF5ED2H   LINE      CODE     ---       #263
      00FF5ED4H   LINE      CODE     ---       #266
      00FF5EDCH   LINE      CODE     ---       #267
L251 LINKER/LOCATER V4.66.93.0                                                        11/18/2024  23:30:20  PAGE 63


      00FF5EDCH   LINE      CODE     ---       #268
      00FF5EEAH   LINE      CODE     ---       #269
      00FF5EEAH   LINE      CODE     ---       #271
      00FF5EEEH   LINE      CODE     ---       #272
      ---         BLOCKEND  ---      ---       LVL=0
      00000D69H   SYMBOL    EDATA    ---       fifo
      00000D6DH   SYMBOL    EDATA    ---       dat
      00000D71H   SYMBOL    EDATA    INT       flag
      00000D73H   SYMBOL    EDATA    INT       return_state

      00FF57B1H   BLOCK     CODE     ---       LVL=0
      00000B80H   SYMBOL    EDATA    ---       fifo
      00000B84H   SYMBOL    EDATA    ---       dat
      00000B88H   SYMBOL    EDATA    ---       length
      00000B8CH   SYMBOL    EDATA    INT       flag
      00FF57B9H   BLOCK     CODE     NEAR LAB  LVL=1
      00000B8EH   SYMBOL    EDATA    INT       return_state
      00000B90H   SYMBOL    EDATA    DWORD     temp_length
      00000B94H   SYMBOL    EDATA    DWORD     fifo_data_length
      ---         BLOCKEND  ---      ---       LVL=1
      00FF57B1H   LINE      CODE     ---       #345
      00FF57B9H   LINE      CODE     ---       #346
      00FF57B9H   LINE      CODE     ---       #349
      00FF57BFH   LINE      CODE     ---       #350
      00FF57C5H   LINE      CODE     ---       #351
      00FF57CBH   LINE      CODE     ---       #353
      00FF57CBH   LINE      CODE     ---       #355
      00FF57D3H   LINE      CODE     ---       #357
      00FF57DBH   LINE      CODE     ---       #358
      00FF57DEH   LINE      CODE     ---       #361
      00FF57F3H   LINE      CODE     ---       #363
      00FF5802H   LINE      CODE     ---       #364
      00FF580AH   LINE      CODE     ---       #365
      00FF580DH   LINE      CODE     ---       #366
      00FF580DH   LINE      CODE     ---       #368
      00FF5818H   LINE      CODE     ---       #369
      00FF582BH   LINE      CODE     ---       #371
      00FF583AH   LINE      CODE     ---       #372
      00FF5842H   LINE      CODE     ---       #373
      00FF584AH   LINE      CODE     ---       #375
      00FF5858H   LINE      CODE     ---       #376
      00FF585BH   LINE      CODE     ---       #377
      00FF585BH   LINE      CODE     ---       #380
      00FF5869H   LINE      CODE     ---       #381
      00FF588DH   LINE      CODE     ---       #382
      00FF58A3H   LINE      CODE     ---       #384
      00FF58BEH   LINE      CODE     ---       #386
      00FF58F9H   LINE      CODE     ---       #387
      00FF5938H   LINE      CODE     ---       #388
      00FF5978H   LINE      CODE     ---       #389
      00FF5978H   LINE      CODE     ---       #390
      00FF597BH   LINE      CODE     ---       #393
      00FF5996H   LINE      CODE     ---       #395
      00FF5996H   LINE      CODE     ---       #397
      00FF59C7H   LINE      CODE     ---       #398
      00FF59F8H   LINE      CODE     ---       #399
      00FF59FBH   LINE      CODE     ---       #400
      00FF59FBH   LINE      CODE     ---       #402
      00FF5A30H   LINE      CODE     ---       #403
      00FF5A65H   LINE      CODE     ---       #404
      00FF5A67H   LINE      CODE     ---       #405
      00FF5A67H   LINE      CODE     ---       #407
      00FF5AA0H   LINE      CODE     ---       #408
      00FF5AD9H   LINE      CODE     ---       #409
      00FF5AD9H   LINE      CODE     ---       #410
L251 LINKER/LOCATER V4.66.93.0                                                        11/18/2024  23:30:20  PAGE 64


      00FF5AD9H   LINE      CODE     ---       #411
      00FF5AD9H   LINE      CODE     ---       #412
      00FF5AE7H   LINE      CODE     ---       #413
      00FF5AE7H   LINE      CODE     ---       #415
      00FF5AF1H   LINE      CODE     ---       #417
      00FF5AFDH   LINE      CODE     ---       #419
      00FF5B05H   LINE      CODE     ---       #420
      00FF5B07H   LINE      CODE     ---       #421
      00FF5B07H   LINE      CODE     ---       #422
      00FF5B15H   LINE      CODE     ---       #423
      00FF5B27H   LINE      CODE     ---       #424
      00FF5B4AH   LINE      CODE     ---       #425
      00FF5B58H   LINE      CODE     ---       #426
      00FF5B58H   LINE      CODE     ---       #429
      00FF5B5CH   LINE      CODE     ---       #430
      ---         BLOCKEND  ---      ---       LVL=0
      00000B98H   SYMBOL    EDATA    ---       fifo
      00000B9CH   SYMBOL    EDATA    ---       dat
      00000BA0H   SYMBOL    EDATA    ---       length
      00000BA4H   SYMBOL    EDATA    INT       flag
      00000BA6H   SYMBOL    EDATA    INT       return_state
      00000BA8H   SYMBOL    EDATA    DWORD     temp_length
      00000BACH   SYMBOL    EDATA    DWORD     fifo_data_length

      00FF86D5H   BLOCK     CODE     ---       LVL=0
      00000CB1H   SYMBOL    EDATA    ---       fifo
      00000CB5H   SYMBOL    EDATA    INT       type
      00000CB7H   SYMBOL    EDATA    ---       buffer_addr
      00000CBBH   SYMBOL    EDATA    DWORD     len
      00FF86DDH   BLOCK     CODE     NEAR LAB  LVL=1
      00000CBFH   SYMBOL    EDATA    INT       return_state
      ---         BLOCKEND  ---      ---       LVL=1
      00FF86D5H   LINE      CODE     ---       #538
      00FF86DDH   LINE      CODE     ---       #539
      00FF86DDH   LINE      CODE     ---       #541
      00FF86E3H   LINE      CODE     ---       #542
      00FF86E3H   LINE      CODE     ---       #544
      00FF86F6H   LINE      CODE     ---       #545
      00FF86FEH   LINE      CODE     ---       #546
      00FF870BH   LINE      CODE     ---       #547
      00FF871CH   LINE      CODE     ---       #548
      00FF872DH   LINE      CODE     ---       #549
      00FF8740H   LINE      CODE     ---       #550
      00FF8753H   LINE      CODE     ---       #551
      00FF8753H   LINE      CODE     ---       #552
      00FF8757H   LINE      CODE     ---       #553
      ---         BLOCKEND  ---      ---       LVL=0

      ---         MODULE    ---      ---       globals
      000000D0H   SFRSYM    DATA     BYTE      PSW
      0000009DH   SFRSYM    DATA     BYTE      IRCBAND
      00000097H   SFRSYM    DATA     BYTE      AUXR2
      000000EFH   SFRSYM    DATA     BYTE      AUXINTIF
      000000FDH   SFRSYM    DATA     BYTE      S4CON
      000000ACH   SFRSYM    DATA     BYTE      S3CON
      0000009AH   SFRSYM    DATA     BYTE      S2CON
      000000B7H   SFRSYM    DATA     BYTE      IPH
      000000CDH   SFRSYM    DATA     BYTE      SPSTAT
      000000DDH   SFRSYM    DATA     BYTE      T4T3M
      000000C1H   SFRSYM    DATA     BYTE      WDT_CONTR
      000000DFH   SFRSYM    DATA     BYTE      IP3
      000000F4H   SFRSYM    DATA     BYTE      USBCON
      000000B5H   SFRSYM    DATA     BYTE      IP2
      000000FFH   SFRSYM    DATA     BYTE      RSTCFG
      000000C7H   SFRSYM    DATA     BYTE      IAP_CONTR
L251 LINKER/LOCATER V4.66.93.0                                                        11/18/2024  23:30:20  PAGE 65


      000000F9H   SFRSYM    DATA     BYTE      LINICR
      0000008EH   SFRSYM    DATA     BYTE      AUXR
      000000AFH   SFRSYM    DATA     BYTE      IE2
      00000088H   SFRSYM    DATA     BYTE      TCON
      00000089H   SFRSYM    DATA     BYTE      TMOD
      00000098H   SFRSYM    DATA     BYTE      SCON
      000000F1H   SFRSYM    DATA     BYTE      CANICR
      00000087H   SFRSYM    DATA     BYTE      PCON
      000000BCH   SFRSYM    DATA     BYTE      ADC_CONTR
      000000E7H   SFRSYM    DATA     BYTE      CMPCR2
      000000E6H   SFRSYM    DATA     BYTE      CMPCR1
      000000DEH   SFRSYM    DATA     BYTE      ADCCFG
      000000B8H   SFRSYM    DATA     BYTE      IP
      0000008FH   SFRSYM    DATA     BYTE      INTCLKO
      000000EEH   SFRSYM    DATA     BYTE      IP3H
      000000B6H   SFRSYM    DATA     BYTE      IP2H
      000000A8H   SFRSYM    DATA     BYTE      IE
      000000BBH   SFRSYM    DATA     BYTE      P_SW3
      000000BAH   SFRSYM    DATA     BYTE      P_SW2
      000000A2H   SFRSYM    DATA     BYTE      P_SW1
      000000CEH   SFRSYM    DATA     BYTE      SPCTL
      000000F8H   SFRSYM    DATA     BYTE      P7
      000000E8H   SFRSYM    DATA     BYTE      P6
      000000C8H   SFRSYM    DATA     BYTE      P5
      000000C0H   SFRSYM    DATA     BYTE      P4
      000000B0H   SFRSYM    DATA     BYTE      P3
      000000A0H   SFRSYM    DATA     BYTE      P2
      00000090H   SFRSYM    DATA     BYTE      P1
      00000080H   SFRSYM    DATA     BYTE      P0

      ---         MODULE    ---      ---       SEEKFREE_18TFT
      00FF9668H   PUBLIC    CODE     ---       lcd_clear_simspi
      00FF96BFH   PUBLIC    CODE     ---       lcd_clear
      00FF9338H   PUBLIC    CODE     ---       lcd_showstr_simspi
      00FF9395H   PUBLIC    CODE     ---       lcd_showstr
      00FF9AA6H   PUBLIC    CODE     ---       lcd_writeIndex_simspi
      00FF9AF2H   PUBLIC    CODE     ---       lcd_writeData_simspi
      00FFA943H   PUBLIC    CODE     ---       lcd_writeIndex
      00FFA958H   PUBLIC    CODE     ---       lcd_writeData
      00FF976CH   PUBLIC    CODE     ---       lcd_writeData_16bit_simspi
      00FF8FD4H   PUBLIC    CODE     ---       lcd_set_region_simspi
      00FF9038H   PUBLIC    CODE     ---       lcd_set_region
      00FFA35DH   PUBLIC    CODE     ---       lcd_writedata_16bit
      00FF7D82H   PUBLIC    CODE     ---       lcd_showchar_simspi
      00FF7E41H   PUBLIC    CODE     ---       lcd_showchar
      00000750H   PUBLIC    EDATA    BYTE      ?lcd_showfloat_simspi?BYTE
      00000780H   PUBLIC    EDATA    BYTE      ?lcd_showfloat?BYTE
      000000D0H   SFRSYM    DATA     BYTE      PSW
      0000009DH   SFRSYM    DATA     BYTE      IRCBAND
      00000097H   SFRSYM    DATA     BYTE      AUXR2
      000000EFH   SFRSYM    DATA     BYTE      AUXINTIF
      000000FDH   SFRSYM    DATA     BYTE      S4CON
      000000ACH   SFRSYM    DATA     BYTE      S3CON
      0000009AH   SFRSYM    DATA     BYTE      S2CON
      000000B7H   SFRSYM    DATA     BYTE      IPH
      000000CDH   SFRSYM    DATA     BYTE      SPSTAT
      000000DDH   SFRSYM    DATA     BYTE      T4T3M
      000000C1H   SFRSYM    DATA     BYTE      WDT_CONTR
      000000DFH   SFRSYM    DATA     BYTE      IP3
      000000F4H   SFRSYM    DATA     BYTE      USBCON
      000000B5H   SFRSYM    DATA     BYTE      IP2
      000000FFH   SFRSYM    DATA     BYTE      RSTCFG
      000000C7H   SFRSYM    DATA     BYTE      IAP_CONTR
      000000F9H   SFRSYM    DATA     BYTE      LINICR
      0000008EH   SFRSYM    DATA     BYTE      AUXR
L251 LINKER/LOCATER V4.66.93.0                                                        11/18/2024  23:30:20  PAGE 66


      000000AFH   SFRSYM    DATA     BYTE      IE2
      000000A0H.5 SFRSYM    DATA     BIT       P25
      00000088H   SFRSYM    DATA     BYTE      TCON
      00000089H   SFRSYM    DATA     BYTE      TMOD
      000000A0H.3 SFRSYM    DATA     BIT       P23
      00000098H   SFRSYM    DATA     BYTE      SCON
      000000A0H.2 SFRSYM    DATA     BIT       P22
      000000A0H.1 SFRSYM    DATA     BIT       P21
      000000A0H.0 SFRSYM    DATA     BIT       P20
      000000F1H   SFRSYM    DATA     BYTE      CANICR
      00000087H   SFRSYM    DATA     BYTE      PCON
      000000BCH   SFRSYM    DATA     BYTE      ADC_CONTR
      000000E7H   SFRSYM    DATA     BYTE      CMPCR2
      000000E6H   SFRSYM    DATA     BYTE      CMPCR1
      000000DEH   SFRSYM    DATA     BYTE      ADCCFG
      000000B8H   SFRSYM    DATA     BYTE      IP
      0000008FH   SFRSYM    DATA     BYTE      INTCLKO
      000000EEH   SFRSYM    DATA     BYTE      IP3H
      000000B6H   SFRSYM    DATA     BYTE      IP2H
      000000A8H   SFRSYM    DATA     BYTE      IE
      000000BBH   SFRSYM    DATA     BYTE      P_SW3
      000000BAH   SFRSYM    DATA     BYTE      P_SW2
      000000A2H   SFRSYM    DATA     BYTE      P_SW1
      000000CEH   SFRSYM    DATA     BYTE      SPCTL
      000000F8H   SFRSYM    DATA     BYTE      P7
      000000E8H   SFRSYM    DATA     BYTE      P6
      000000C8H   SFRSYM    DATA     BYTE      P5
      000000C0H   SFRSYM    DATA     BYTE      P4
      000000B0H   SFRSYM    DATA     BYTE      P3
      000000A0H   SFRSYM    DATA     BYTE      P2
      00000090H   SFRSYM    DATA     BYTE      P1
      00000080H   SFRSYM    DATA     BYTE      P0

      00FF9AA6H   BLOCK     CODE     ---       LVL=0
      00001275H   SYMBOL    EDATA    BYTE      dat
      00FF9AAAH   BLOCK     CODE     NEAR LAB  LVL=1
      00001276H   SYMBOL    EDATA    BYTE      i
      ---         BLOCKEND  ---      ---       LVL=1
      00FF9AA6H   LINE      CODE     ---       #60
      00FF9AAAH   LINE      CODE     ---       #61
      00FF9AAAH   LINE      CODE     ---       #62
      00FF9AB0H   LINE      CODE     ---       #64
      00FF9AB3H   LINE      CODE     ---       #65
      00FF9AB6H   LINE      CODE     ---       #66
      00FF9AB9H   LINE      CODE     ---       #68
      00FF9ABBH   LINE      CODE     ---       #70
      00FF9AC7H   LINE      CODE     ---       #71
      00FF9ACAH   LINE      CODE     ---       #72
      00FF9ACDH   LINE      CODE     ---       #74
      00FF9AD0H   LINE      CODE     ---       #75
      00FF9ADAH   LINE      CODE     ---       #76
      00FF9AEEH   LINE      CODE     ---       #77
      00FF9AF1H   LINE      CODE     ---       #78
      ---         BLOCKEND  ---      ---       LVL=0

      00FF9AF2H   BLOCK     CODE     ---       LVL=0
      00001277H   SYMBOL    EDATA    BYTE      dat
      00FF9AF6H   BLOCK     CODE     NEAR LAB  LVL=1
      00001278H   SYMBOL    EDATA    BYTE      i
      ---         BLOCKEND  ---      ---       LVL=1
      00FF9AF2H   LINE      CODE     ---       #87
      00FF9AF6H   LINE      CODE     ---       #88
      00FF9AF6H   LINE      CODE     ---       #89
      00FF9AFCH   LINE      CODE     ---       #91
      00FF9AFFH   LINE      CODE     ---       #92
L251 LINKER/LOCATER V4.66.93.0                                                        11/18/2024  23:30:20  PAGE 67


      00FF9B02H   LINE      CODE     ---       #93
      00FF9B05H   LINE      CODE     ---       #94
      00FF9B07H   LINE      CODE     ---       #96
      00FF9B13H   LINE      CODE     ---       #97
      00FF9B16H   LINE      CODE     ---       #98
      00FF9B19H   LINE      CODE     ---       #100
      00FF9B1CH   LINE      CODE     ---       #101
      00FF9B26H   LINE      CODE     ---       #102
      00FF9B3AH   LINE      CODE     ---       #103
      00FF9B3DH   LINE      CODE     ---       #104
      ---         BLOCKEND  ---      ---       LVL=0

      00FF976CH   BLOCK     CODE     ---       LVL=0
      00001231H   SYMBOL    EDATA    WORD      dat
      00FF9770H   BLOCK     CODE     NEAR LAB  LVL=1
      00001233H   SYMBOL    EDATA    BYTE      i
      ---         BLOCKEND  ---      ---       LVL=1
      00FF976CH   LINE      CODE     ---       #113
      00FF9770H   LINE      CODE     ---       #114
      00FF9770H   LINE      CODE     ---       #115
      00FF9776H   LINE      CODE     ---       #117
      00FF9779H   LINE      CODE     ---       #118
      00FF977CH   LINE      CODE     ---       #119
      00FF977FH   LINE      CODE     ---       #121
      00FF9781H   LINE      CODE     ---       #123
      00FF9796H   LINE      CODE     ---       #124
      00FF9799H   LINE      CODE     ---       #125
      00FF979CH   LINE      CODE     ---       #127
      00FF979FH   LINE      CODE     ---       #128
      00FF97A9H   LINE      CODE     ---       #129
      00FF97BDH   LINE      CODE     ---       #131
      00FF97C0H   LINE      CODE     ---       #133
      ---         BLOCKEND  ---      ---       LVL=0

      00FF8FD4H   BLOCK     CODE     ---       LVL=0
      00001018H   SYMBOL    EDATA    WORD      x_start
      0000101AH   SYMBOL    EDATA    WORD      y_start
      0000101CH   SYMBOL    EDATA    WORD      x_end
      0000101EH   SYMBOL    EDATA    WORD      y_end
      00FF8FD4H   LINE      CODE     ---       #145
      00FF8FE4H   LINE      CODE     ---       #163
      00FF8FE9H   LINE      CODE     ---       #164
      00FF8FEDH   LINE      CODE     ---       #165
      00FF8FFAH   LINE      CODE     ---       #166
      00FF8FFEH   LINE      CODE     ---       #167
      00FF900BH   LINE      CODE     ---       #169
      00FF9010H   LINE      CODE     ---       #170
      00FF9014H   LINE      CODE     ---       #171
      00FF9021H   LINE      CODE     ---       #172
      00FF9025H   LINE      CODE     ---       #173
      00FF9032H   LINE      CODE     ---       #177
      00FF9037H   LINE      CODE     ---       #178
      ---         BLOCKEND  ---      ---       LVL=0

      00FF9668H   BLOCK     CODE     ---       LVL=0
      000011DAH   SYMBOL    EDATA    INT       color
      00FF966CH   BLOCK     CODE     NEAR LAB  LVL=1
      000011DCH   SYMBOL    EDATA    BYTE      i
      000011DDH   SYMBOL    EDATA    BYTE      j
      ---         BLOCKEND  ---      ---       LVL=1
      00FF9668H   LINE      CODE     ---       #187
      00FF966CH   LINE      CODE     ---       #188
      00FF966CH   LINE      CODE     ---       #190
      00FF967BH   LINE      CODE     ---       #191
      00FF9682H   LINE      CODE     ---       #192
L251 LINKER/LOCATER V4.66.93.0                                                        11/18/2024  23:30:20  PAGE 68


      00FF9689H   LINE      CODE     ---       #193
      00FF96BEH   LINE      CODE     ---       #194
      ---         BLOCKEND  ---      ---       LVL=0
      000010FAH   SYMBOL    EDATA    WORD      x
      000010FCH   SYMBOL    EDATA    WORD      y
      000010FEH   SYMBOL    EDATA    WORD      color

      00FF7D82H   BLOCK     CODE     ---       LVL=0
      00001020H   SYMBOL    EDATA    WORD      x
      00001022H   SYMBOL    EDATA    WORD      y
      00001024H   SYMBOL    EDATA    CHAR      dat
      00FF7D8EH   BLOCK     CODE     NEAR LAB  LVL=1
      00001025H   SYMBOL    EDATA    BYTE      i
      00001026H   SYMBOL    EDATA    BYTE      j
      00001027H   SYMBOL    EDATA    BYTE      temp
      ---         BLOCKEND  ---      ---       LVL=1
      00FF7D82H   LINE      CODE     ---       #351
      00FF7D8EH   LINE      CODE     ---       #352
      00FF7D8EH   LINE      CODE     ---       #356
      00FF7D96H   LINE      CODE     ---       #358
      00FF7DBFH   LINE      CODE     ---       #359
      00FF7DE7H   LINE      CODE     ---       #360
      00FF7DEEH   LINE      CODE     ---       #362
      00FF7DFEH   LINE      CODE     ---       #363
      00FF7E05H   LINE      CODE     ---       #364
      00FF7E0FH   LINE      CODE     ---       #365
      00FF7E26H   LINE      CODE     ---       #366
      00FF7E40H   LINE      CODE     ---       #367
      ---         BLOCKEND  ---      ---       LVL=0

      00FF9338H   BLOCK     CODE     ---       LVL=0
      00000E94H   SYMBOL    EDATA    WORD      x
      00000E96H   SYMBOL    EDATA    WORD      y
      00000E98H   SYMBOL    EDATA    ---       dat
      00FF9344H   BLOCK     CODE     NEAR LAB  LVL=1
      00000E9CH   SYMBOL    EDATA    WORD      j
      ---         BLOCKEND  ---      ---       LVL=1
      00FF9338H   LINE      CODE     ---       #378
      00FF9344H   LINE      CODE     ---       #379
      00FF9344H   LINE      CODE     ---       #382
      00FF934AH   LINE      CODE     ---       #383
      00FF934CH   LINE      CODE     ---       #385
      00FF9376H   LINE      CODE     ---       #386
      00FF9384H   LINE      CODE     ---       #387
      00FF9394H   LINE      CODE     ---       #388
      ---         BLOCKEND  ---      ---       LVL=0
      00000F16H   SYMBOL    EDATA    WORD      x
      00000F18H   SYMBOL    EDATA    WORD      y
      00000F1AH   SYMBOL    EDATA    CHAR      dat
      00000F1BH   SYMBOL    EDATA    ---       a
      00000F1EH   SYMBOL    EDATA    BYTE      i
      00000F1FH   SYMBOL    EDATA    WORD      x
      00000F21H   SYMBOL    EDATA    WORD      y
      00000F23H   SYMBOL    EDATA    BYTE      dat
      00000F24H   SYMBOL    EDATA    ---       a
      00000F27H   SYMBOL    EDATA    BYTE      i
      00000D75H   SYMBOL    EDATA    WORD      x
      00000D77H   SYMBOL    EDATA    WORD      y
      00000D79H   SYMBOL    EDATA    INT       dat
      00000D7BH   SYMBOL    EDATA    ---       a
      00000D80H   SYMBOL    EDATA    BYTE      i
      00000D81H   SYMBOL    EDATA    WORD      x
      00000D83H   SYMBOL    EDATA    WORD      y
      00000D85H   SYMBOL    EDATA    WORD      dat
      00000D87H   SYMBOL    EDATA    ---       a
L251 LINKER/LOCATER V4.66.93.0                                                        11/18/2024  23:30:20  PAGE 69


      00000D8CH   SYMBOL    EDATA    BYTE      i
      000008CDH   SYMBOL    EDATA    WORD      x
      000008CFH   SYMBOL    EDATA    WORD      y
      000008D1H   SYMBOL    EDATA    LONG      dat
      000008D5H   SYMBOL    EDATA    BYTE      num
      000008D6H   SYMBOL    EDATA    ---       buff
      000008F8H   SYMBOL    EDATA    BYTE      length
      00000750H   SYMBOL    EDATA    WORD      x
      00000752H   SYMBOL    EDATA    WORD      y
      00000754H   SYMBOL    EDATA    FLOAT     dat
      00000758H   SYMBOL    EDATA    BYTE      num
      00000759H   SYMBOL    EDATA    BYTE      pointnum
      0000075AH   SYMBOL    EDATA    BYTE      length
      0000075BH   SYMBOL    EDATA    ---       buff
      0000077DH   SYMBOL    EDATA    CHAR      start
      0000077EH   SYMBOL    EDATA    CHAR      end
      0000077FH   SYMBOL    EDATA    CHAR      point

      00FFA943H   BLOCK     CODE     ---       LVL=0
      000012C5H   SYMBOL    EDATA    BYTE      dat
      00FFA943H   LINE      CODE     ---       #607
      00FFA947H   LINE      CODE     ---       #610
      00FFA94AH   LINE      CODE     ---       #611
      00FFA94DH   LINE      CODE     ---       #612
      00FFA954H   LINE      CODE     ---       #613
      00FFA957H   LINE      CODE     ---       #614
      ---         BLOCKEND  ---      ---       LVL=0

      00FFA958H   BLOCK     CODE     ---       LVL=0
      000012C6H   SYMBOL    EDATA    BYTE      dat
      00FFA958H   LINE      CODE     ---       #623
      00FFA95CH   LINE      CODE     ---       #625
      00FFA95FH   LINE      CODE     ---       #626
      00FFA962H   LINE      CODE     ---       #627
      00FFA969H   LINE      CODE     ---       #628
      00FFA96CH   LINE      CODE     ---       #629
      ---         BLOCKEND  ---      ---       LVL=0

      00FFA35DH   BLOCK     CODE     ---       LVL=0
      000011DEH   SYMBOL    EDATA    WORD      dat
      00FFA361H   BLOCK     CODE     NEAR LAB  LVL=1
      000011E0H   SYMBOL    EDATA    ---       dat1
      ---         BLOCKEND  ---      ---       LVL=1
      00FFA35DH   LINE      CODE     ---       #638
      00FFA361H   LINE      CODE     ---       #639
      00FFA361H   LINE      CODE     ---       #642
      00FFA367H   LINE      CODE     ---       #643
      00FFA36FH   LINE      CODE     ---       #645
      00FFA372H   LINE      CODE     ---       #646
      00FFA375H   LINE      CODE     ---       #647
      00FFA37CH   LINE      CODE     ---       #648
      00FFA383H   LINE      CODE     ---       #649
      00FFA386H   LINE      CODE     ---       #651
      ---         BLOCKEND  ---      ---       LVL=0

      00FF9038H   BLOCK     CODE     ---       LVL=0
      00001028H   SYMBOL    EDATA    WORD      x_start
      0000102AH   SYMBOL    EDATA    WORD      y_start
      0000102CH   SYMBOL    EDATA    WORD      x_end
      0000102EH   SYMBOL    EDATA    WORD      y_end
      00FF9038H   LINE      CODE     ---       #663
      00FF9048H   LINE      CODE     ---       #681
      00FF904DH   LINE      CODE     ---       #682
      00FF9051H   LINE      CODE     ---       #683
      00FF905EH   LINE      CODE     ---       #684
L251 LINKER/LOCATER V4.66.93.0                                                        11/18/2024  23:30:20  PAGE 70


      00FF9062H   LINE      CODE     ---       #685
      00FF906FH   LINE      CODE     ---       #687
      00FF9074H   LINE      CODE     ---       #688
      00FF9078H   LINE      CODE     ---       #689
      00FF9085H   LINE      CODE     ---       #690
      00FF9089H   LINE      CODE     ---       #691
      00FF9096H   LINE      CODE     ---       #695
      00FF909BH   LINE      CODE     ---       #696
      ---         BLOCKEND  ---      ---       LVL=0

      00FF96BFH   BLOCK     CODE     ---       LVL=0
      000011E2H   SYMBOL    EDATA    INT       color
      00FF96C3H   BLOCK     CODE     NEAR LAB  LVL=1
      000011E4H   SYMBOL    EDATA    BYTE      i
      000011E5H   SYMBOL    EDATA    BYTE      j
      ---         BLOCKEND  ---      ---       LVL=1
      00FF96BFH   LINE      CODE     ---       #705
      00FF96C3H   LINE      CODE     ---       #706
      00FF96C3H   LINE      CODE     ---       #708
      00FF96D2H   LINE      CODE     ---       #709
      00FF96D9H   LINE      CODE     ---       #710
      00FF96E0H   LINE      CODE     ---       #711
      00FF9715H   LINE      CODE     ---       #712
      ---         BLOCKEND  ---      ---       LVL=0
      00001100H   SYMBOL    EDATA    WORD      x
      00001102H   SYMBOL    EDATA    WORD      y
      00001104H   SYMBOL    EDATA    WORD      color

      00FF7E41H   BLOCK     CODE     ---       LVL=0
      00001030H   SYMBOL    EDATA    WORD      x
      00001032H   SYMBOL    EDATA    WORD      y
      00001034H   SYMBOL    EDATA    CHAR      dat
      00FF7E4DH   BLOCK     CODE     NEAR LAB  LVL=1
      00001035H   SYMBOL    EDATA    BYTE      i
      00001036H   SYMBOL    EDATA    BYTE      j
      00001037H   SYMBOL    EDATA    BYTE      temp
      ---         BLOCKEND  ---      ---       LVL=1
      00FF7E41H   LINE      CODE     ---       #872
      00FF7E4DH   LINE      CODE     ---       #873
      00FF7E4DH   LINE      CODE     ---       #877
      00FF7E55H   LINE      CODE     ---       #879
      00FF7E7EH   LINE      CODE     ---       #880
      00FF7EA6H   LINE      CODE     ---       #881
      00FF7EADH   LINE      CODE     ---       #883
      00FF7EBDH   LINE      CODE     ---       #884
      00FF7EC4H   LINE      CODE     ---       #885
      00FF7ECEH   LINE      CODE     ---       #886
      00FF7EE5H   LINE      CODE     ---       #887
      00FF7EFFH   LINE      CODE     ---       #888
      ---         BLOCKEND  ---      ---       LVL=0

      00FF9395H   BLOCK     CODE     ---       LVL=0
      00000E9EH   SYMBOL    EDATA    WORD      x
      00000EA0H   SYMBOL    EDATA    WORD      y
      00000EA2H   SYMBOL    EDATA    ---       dat
      00FF93A1H   BLOCK     CODE     NEAR LAB  LVL=1
      00000EA6H   SYMBOL    EDATA    WORD      j
      ---         BLOCKEND  ---      ---       LVL=1
      00FF9395H   LINE      CODE     ---       #899
      00FF93A1H   LINE      CODE     ---       #900
      00FF93A1H   LINE      CODE     ---       #903
      00FF93A7H   LINE      CODE     ---       #904
      00FF93A9H   LINE      CODE     ---       #906
      00FF93D3H   LINE      CODE     ---       #907
      00FF93E1H   LINE      CODE     ---       #908
L251 LINKER/LOCATER V4.66.93.0                                                        11/18/2024  23:30:20  PAGE 71


      00FF93F1H   LINE      CODE     ---       #909
      ---         BLOCKEND  ---      ---       LVL=0
      00000F28H   SYMBOL    EDATA    WORD      x
      00000F2AH   SYMBOL    EDATA    WORD      y
      00000F2CH   SYMBOL    EDATA    CHAR      dat
      00000F2DH   SYMBOL    EDATA    ---       a
      00000F30H   SYMBOL    EDATA    BYTE      i
      00000F31H   SYMBOL    EDATA    WORD      x
      00000F33H   SYMBOL    EDATA    WORD      y
      00000F35H   SYMBOL    EDATA    BYTE      dat
      00000F36H   SYMBOL    EDATA    ---       a
      00000F39H   SYMBOL    EDATA    BYTE      i
      00000D8DH   SYMBOL    EDATA    WORD      x
      00000D8FH   SYMBOL    EDATA    WORD      y
      00000D91H   SYMBOL    EDATA    INT       dat
      00000D93H   SYMBOL    EDATA    ---       a
      00000D98H   SYMBOL    EDATA    BYTE      i
      00000D99H   SYMBOL    EDATA    WORD      x
      00000D9BH   SYMBOL    EDATA    WORD      y
      00000D9DH   SYMBOL    EDATA    WORD      dat
      00000D9FH   SYMBOL    EDATA    ---       a
      00000DA4H   SYMBOL    EDATA    BYTE      i
      000008F9H   SYMBOL    EDATA    WORD      x
      000008FBH   SYMBOL    EDATA    WORD      y
      000008FDH   SYMBOL    EDATA    LONG      dat
      00000901H   SYMBOL    EDATA    BYTE      num
      00000902H   SYMBOL    EDATA    ---       buff
      00000924H   SYMBOL    EDATA    BYTE      length
      00000780H   SYMBOL    EDATA    WORD      x
      00000782H   SYMBOL    EDATA    WORD      y
      00000784H   SYMBOL    EDATA    FLOAT     dat
      00000788H   SYMBOL    EDATA    BYTE      num
      00000789H   SYMBOL    EDATA    BYTE      pointnum
      0000078AH   SYMBOL    EDATA    BYTE      length
      0000078BH   SYMBOL    EDATA    ---       buff
      000007ADH   SYMBOL    EDATA    CHAR      start
      000007AEH   SYMBOL    EDATA    CHAR      end
      000007AFH   SYMBOL    EDATA    CHAR      point
      00000DA5H   SYMBOL    EDATA    ---       p
      00000DA9H   SYMBOL    EDATA    INT       i
      00000DABH   SYMBOL    EDATA    INT       j
      00000DADH   SYMBOL    EDATA    INT       k
      00000DAFH   SYMBOL    EDATA    BYTE      picH
      00000DB0H   SYMBOL    EDATA    BYTE      picL

      ---         MODULE    ---      ---       SEEKFREE_BLUETOOTH_CH9141
      00FFA7C8H   PUBLIC    CODE     ---       bluetooth_ch9141_uart_callback
      000000D0H   SFRSYM    DATA     BYTE      PSW
      0000009DH   SFRSYM    DATA     BYTE      IRCBAND
      00000097H   SFRSYM    DATA     BYTE      AUXR2
      000000EFH   SFRSYM    DATA     BYTE      AUXINTIF
      000000FDH   SFRSYM    DATA     BYTE      S4CON
      000000ACH   SFRSYM    DATA     BYTE      S3CON
      0000009AH   SFRSYM    DATA     BYTE      S2CON
      000000FEH   SFRSYM    DATA     BYTE      S4BUF
      000000B7H   SFRSYM    DATA     BYTE      IPH
      000000CDH   SFRSYM    DATA     BYTE      SPSTAT
      000000DDH   SFRSYM    DATA     BYTE      T4T3M
      000000C1H   SFRSYM    DATA     BYTE      WDT_CONTR
      000000DFH   SFRSYM    DATA     BYTE      IP3
      000000F4H   SFRSYM    DATA     BYTE      USBCON
      000000B5H   SFRSYM    DATA     BYTE      IP2
      000000FFH   SFRSYM    DATA     BYTE      RSTCFG
      000000C7H   SFRSYM    DATA     BYTE      IAP_CONTR
      000000F9H   SFRSYM    DATA     BYTE      LINICR
L251 LINKER/LOCATER V4.66.93.0                                                        11/18/2024  23:30:20  PAGE 72


      0000008EH   SFRSYM    DATA     BYTE      AUXR
      000000AFH   SFRSYM    DATA     BYTE      IE2
      00000080H.7 SFRSYM    DATA     BIT       P07
      00000088H   SFRSYM    DATA     BYTE      TCON
      00000089H   SFRSYM    DATA     BYTE      TMOD
      00000098H   SFRSYM    DATA     BYTE      SCON
      000000F1H   SFRSYM    DATA     BYTE      CANICR
      00000087H   SFRSYM    DATA     BYTE      PCON
      000000BCH   SFRSYM    DATA     BYTE      ADC_CONTR
      000000E7H   SFRSYM    DATA     BYTE      CMPCR2
      000000E6H   SFRSYM    DATA     BYTE      CMPCR1
      000000DEH   SFRSYM    DATA     BYTE      ADCCFG
      000000B8H   SFRSYM    DATA     BYTE      IP
      0000008FH   SFRSYM    DATA     BYTE      INTCLKO
      000000EEH   SFRSYM    DATA     BYTE      IP3H
      000000B6H   SFRSYM    DATA     BYTE      IP2H
      000000A8H   SFRSYM    DATA     BYTE      IE
      000000BBH   SFRSYM    DATA     BYTE      P_SW3
      000000BAH   SFRSYM    DATA     BYTE      P_SW2
      000000A2H   SFRSYM    DATA     BYTE      P_SW1
      000000CEH   SFRSYM    DATA     BYTE      SPCTL
      000000F8H   SFRSYM    DATA     BYTE      P7
      000000E8H   SFRSYM    DATA     BYTE      P6
      000000C8H   SFRSYM    DATA     BYTE      P5
      000000C0H   SFRSYM    DATA     BYTE      P4
      000000B0H   SFRSYM    DATA     BYTE      P3
      000000A0H   SFRSYM    DATA     BYTE      P2
      00000090H   SFRSYM    DATA     BYTE      P1
      00000080H   SFRSYM    DATA     BYTE      P0
      00000626H   SYMBOL    EDATA    ---       bluetooth_ch9141_buffer
      00000666H   SYMBOL    EDATA    BYTE      bluetooth_ch9141_data
      00000667H   SYMBOL    EDATA    ---       bluetooth_ch9141_fifo

      00FFA7C8H   BLOCK     CODE     ---       LVL=0
      00FFA7C8H   LINE      CODE     ---       #67
      00FFA7C8H   LINE      CODE     ---       #70
      00FFA7CEH   LINE      CODE     ---       #71
      00FFA7E1H   LINE      CODE     ---       #72
      ---         BLOCKEND  ---      ---       LVL=0
      00000EA8H   SYMBOL    EDATA    ---       buff
      00000EACH   SYMBOL    EDATA    DWORD     len
      00000EB0H   SYMBOL    EDATA    WORD      time_count
      00000DB1H   SYMBOL    EDATA    ---       buff
      00000DB5H   SYMBOL    EDATA    DWORD     len
      00000DB9H   SYMBOL    EDATA    DWORD     data_len

      ---         MODULE    ---      ---       SEEKFREE_DL1A
      00001234H   PUBLIC    EDATA    WORD      dl1a_distance_mm
      00001236H   PUBLIC    EDATA    BYTE      dl1a_finsh_flag
      000000D0H   SFRSYM    DATA     BYTE      PSW
      0000009DH   SFRSYM    DATA     BYTE      IRCBAND
      00000097H   SFRSYM    DATA     BYTE      AUXR2
      000000EFH   SFRSYM    DATA     BYTE      AUXINTIF
      000000FDH   SFRSYM    DATA     BYTE      S4CON
      000000ACH   SFRSYM    DATA     BYTE      S3CON
      0000009AH   SFRSYM    DATA     BYTE      S2CON
      000000B7H   SFRSYM    DATA     BYTE      IPH
      000000CDH   SFRSYM    DATA     BYTE      SPSTAT
      000000DDH   SFRSYM    DATA     BYTE      T4T3M
      000000C1H   SFRSYM    DATA     BYTE      WDT_CONTR
      000000DFH   SFRSYM    DATA     BYTE      IP3
      000000F4H   SFRSYM    DATA     BYTE      USBCON
      000000B5H   SFRSYM    DATA     BYTE      IP2
      000000FFH   SFRSYM    DATA     BYTE      RSTCFG
      000000C7H   SFRSYM    DATA     BYTE      IAP_CONTR
L251 LINKER/LOCATER V4.66.93.0                                                        11/18/2024  23:30:20  PAGE 73


      000000F9H   SFRSYM    DATA     BYTE      LINICR
      0000008EH   SFRSYM    DATA     BYTE      AUXR
      000000AFH   SFRSYM    DATA     BYTE      IE2
      000000B0H.7 SFRSYM    DATA     BIT       P37
      000000B0H.6 SFRSYM    DATA     BIT       P36
      000000C8H.2 SFRSYM    DATA     BIT       P52
      00000088H   SFRSYM    DATA     BYTE      TCON
      00000089H   SFRSYM    DATA     BYTE      TMOD
      00000098H   SFRSYM    DATA     BYTE      SCON
      000000F1H   SFRSYM    DATA     BYTE      CANICR
      00000087H   SFRSYM    DATA     BYTE      PCON
      000000BCH   SFRSYM    DATA     BYTE      ADC_CONTR
      000000E7H   SFRSYM    DATA     BYTE      CMPCR2
      000000E6H   SFRSYM    DATA     BYTE      CMPCR1
      000000DEH   SFRSYM    DATA     BYTE      ADCCFG
      000000B8H   SFRSYM    DATA     BYTE      IP
      0000008FH   SFRSYM    DATA     BYTE      INTCLKO
      000000EEH   SFRSYM    DATA     BYTE      IP3H
      000000B6H   SFRSYM    DATA     BYTE      IP2H
      000000A8H   SFRSYM    DATA     BYTE      IE
      000000BBH   SFRSYM    DATA     BYTE      P_SW3
      000000BAH   SFRSYM    DATA     BYTE      P_SW2
      000000A2H   SFRSYM    DATA     BYTE      P_SW1
      000000CEH   SFRSYM    DATA     BYTE      SPCTL
      000000F8H   SFRSYM    DATA     BYTE      P7
      000000E8H   SFRSYM    DATA     BYTE      P6
      000000C8H   SFRSYM    DATA     BYTE      P5
      000000C0H   SFRSYM    DATA     BYTE      P4
      000000B0H   SFRSYM    DATA     BYTE      P3
      000000A0H   SFRSYM    DATA     BYTE      P2
      00000090H   SFRSYM    DATA     BYTE      P1
      00000080H   SFRSYM    DATA     BYTE      P0
      00FFA457H   SYMBOL    CODE     ---       dl1a_simiic_sendack
      00FF9965H   SYMBOL    CODE     ---       dl1a_timeout_microseconds_to_mclks
      00FF9912H   SYMBOL    CODE     ---       dl1a_timeout_mclks_to_microseconds
      00FF9FB5H   SYMBOL    CODE     ---       dl1a_set_signal_rate_limit
      00FF8E2EH   SYMBOL    CODE     ---       dl1a_read_ch
      00FFA387H   SYMBOL    CODE     ---       dl1a_decode_timeout
      00FF9D4FH   SYMBOL    CODE     ---       dl1a_send_ch
      00FF6AECH   SYMBOL    CODE     ---       dl1a_get_spad_info
      00FF8758H   SYMBOL    CODE     ---       dl1a_encode_timeout
      00FF8647H   SYMBOL    CODE     ---       dl1a_get_sequence_step_enables
      00FFA65CH   SYMBOL    CODE     ---       dl1a_sccb_waitack
      00FFA701H   SYMBOL    CODE     ---       dl1a_simiic_delay
      00FF829DH   SYMBOL    CODE     ---       dl1a_perform_single_ref_calibration
      00FF6C81H   SYMBOL    CODE     ---       dl1a_get_sequence_step_timeouts
      00FFAA14H   SYMBOL    CODE     ---       dl1a_simiic_start
      00FF8F6CH   SYMBOL    CODE     ---       dl1a_simiic_read_regs
      00FF807EH   SYMBOL    CODE     ---       dl1a_get_measurement_timing_budget
      00FF9EB3H   SYMBOL    CODE     ---       dl1a_simiic_write_dats
      00FFA0E6H   SYMBOL    CODE     ---       dl1a_simiic_read_reg
      00FF6DEAH   SYMBOL    CODE     ---       dl1a_set_measurement_timing_budget
      00FFA8ADH   SYMBOL    CODE     ---       dl1a_simiic_stop
      00FFA3B1H   SYMBOL    CODE     ---       dl1a_simiic_write_reg
      00FF88D3H   SYMBOL    CODE     ---       dl1a_get_vcsel_pulse_period

      00FFA701H   BLOCK     CODE     ---       LVL=0
      00001279H   SYMBOL    EDATA    WORD      j
      00FFA701H   LINE      CODE     ---       #59
      00FFA701H   LINE      CODE     ---       #60
      00FFA701H   LINE      CODE     ---       #61
      00FFA709H   LINE      CODE     ---       #62
      00FFA71FH   LINE      CODE     ---       #63
      ---         BLOCKEND  ---      ---       LVL=0

L251 LINKER/LOCATER V4.66.93.0                                                        11/18/2024  23:30:20  PAGE 74


      00FFAA14H   BLOCK     CODE     ---       LVL=0
      00FFAA14H   LINE      CODE     ---       #66
      00FFAA14H   LINE      CODE     ---       #68
      00FFAA17H   LINE      CODE     ---       #69
      00FFAA1AH   LINE      CODE     ---       #70
      00FFAA1DH   LINE      CODE     ---       #71
      00FFAA20H   LINE      CODE     ---       #72
      00FFAA23H   LINE      CODE     ---       #73
      00FFAA26H   LINE      CODE     ---       #74
      ---         BLOCKEND  ---      ---       LVL=0

      00FFA8ADH   BLOCK     CODE     ---       LVL=0
      00FFA8ADH   LINE      CODE     ---       #77
      00FFA8ADH   LINE      CODE     ---       #79
      00FFA8B0H   LINE      CODE     ---       #80
      00FFA8B3H   LINE      CODE     ---       #81
      00FFA8B6H   LINE      CODE     ---       #82
      00FFA8B9H   LINE      CODE     ---       #83
      00FFA8BCH   LINE      CODE     ---       #84
      00FFA8BFH   LINE      CODE     ---       #85
      00FFA8C2H   LINE      CODE     ---       #86
      ---         BLOCKEND  ---      ---       LVL=0

      00FFA457H   BLOCK     CODE     ---       LVL=0
      000012C7H   SYMBOL    EDATA    BYTE      ack_dat
      00FFA457H   LINE      CODE     ---       #90
      00FFA45BH   LINE      CODE     ---       #92
      00FFA45EH   LINE      CODE     ---       #93
      00FFA461H   LINE      CODE     ---       #94
      00FFA46FH   LINE      CODE     ---       #95
      00FFA472H   LINE      CODE     ---       #97
      00FFA475H   LINE      CODE     ---       #98
      00FFA478H   LINE      CODE     ---       #99
      00FFA47BH   LINE      CODE     ---       #100
      00FFA47EH   LINE      CODE     ---       #101
      ---         BLOCKEND  ---      ---       LVL=0

      00FFA65CH   BLOCK     CODE     ---       LVL=0
      00FFA65CH   LINE      CODE     ---       #104
      00FFA65CH   LINE      CODE     ---       #106
      00FFA65FH   LINE      CODE     ---       #108
      00FFA662H   LINE      CODE     ---       #110
      00FFA665H   LINE      CODE     ---       #111
      00FFA668H   LINE      CODE     ---       #113
      00FFA66BH   LINE      CODE     ---       #116
      00FFA66EH   LINE      CODE     ---       #117
      00FFA672H   LINE      CODE     ---       #118
      00FFA672H   LINE      CODE     ---       #120
      00FFA675H   LINE      CODE     ---       #121
      00FFA678H   LINE      CODE     ---       #122
      00FFA67CH   LINE      CODE     ---       #123
      ---         BLOCKEND  ---      ---       LVL=0

      00FF9D4FH   BLOCK     CODE     ---       LVL=0
      0000127BH   SYMBOL    EDATA    BYTE      c
      00FF9D53H   BLOCK     CODE     NEAR LAB  LVL=1
      0000127CH   SYMBOL    EDATA    BYTE      i
      ---         BLOCKEND  ---      ---       LVL=1
      00FF9D4FH   LINE      CODE     ---       #129
      00FF9D53H   LINE      CODE     ---       #130
      00FF9D53H   LINE      CODE     ---       #131
      00FF9D59H   LINE      CODE     ---       #132
      00FF9D5BH   LINE      CODE     ---       #134
      00FF9D67H   LINE      CODE     ---       #135
      00FF9D6AH   LINE      CODE     ---       #136
L251 LINKER/LOCATER V4.66.93.0                                                        11/18/2024  23:30:20  PAGE 75


      00FF9D74H   LINE      CODE     ---       #137
      00FF9D77H   LINE      CODE     ---       #138
      00FF9D7AH   LINE      CODE     ---       #139
      00FF9D7DH   LINE      CODE     ---       #140
      00FF9D80H   LINE      CODE     ---       #141
      00FF9D94H   LINE      CODE     ---       #142
      00FF9D97H   LINE      CODE     ---       #143
      ---         BLOCKEND  ---      ---       LVL=0

      00FF8E2EH   BLOCK     CODE     ---       LVL=0
      00001237H   SYMBOL    EDATA    BYTE      ack_x
      00FF8E32H   BLOCK     CODE     NEAR LAB  LVL=1
      00001238H   SYMBOL    EDATA    BYTE      i
      00001239H   SYMBOL    EDATA    BYTE      c
      ---         BLOCKEND  ---      ---       LVL=1
      00FF8E2EH   LINE      CODE     ---       #149
      00FF8E32H   LINE      CODE     ---       #150
      00FF8E32H   LINE      CODE     ---       #153
      00FF8E37H   LINE      CODE     ---       #154
      00FF8E3AH   LINE      CODE     ---       #155
      00FF8E3DH   LINE      CODE     ---       #156
      00FF8E40H   LINE      CODE     ---       #158
      00FF8E47H   LINE      CODE     ---       #160
      00FF8E4AH   LINE      CODE     ---       #161
      00FF8E4DH   LINE      CODE     ---       #162
      00FF8E50H   LINE      CODE     ---       #163
      00FF8E53H   LINE      CODE     ---       #164
      00FF8E56H   LINE      CODE     ---       #165
      00FF8E60H   LINE      CODE     ---       #166
      00FF8E63H   LINE      CODE     ---       #168
      00FF8E6FH   LINE      CODE     ---       #169
      00FF8E86H   LINE      CODE     ---       #172
      00FF8E89H   LINE      CODE     ---       #173
      00FF8E8CH   LINE      CODE     ---       #174
      00FF8E93H   LINE      CODE     ---       #176
      00FF8E97H   LINE      CODE     ---       #177
      ---         BLOCKEND  ---      ---       LVL=0

      00FF9EB3H   BLOCK     CODE     ---       LVL=0
      00000F3AH   SYMBOL    EDATA    BYTE      dev_add
      00000F3BH   SYMBOL    EDATA    ---       dat
      00000F3FH   SYMBOL    EDATA    DWORD     len
      00FF9EB3H   LINE      CODE     ---       #189
      00FF9EBFH   LINE      CODE     ---       #191
      00FF9EC2H   LINE      CODE     ---       #192
      00FF9ECBH   LINE      CODE     ---       #193
      00FF9ECDH   LINE      CODE     ---       #195
      00FF9EDDH   LINE      CODE     ---       #196
      00FF9EF1H   LINE      CODE     ---       #199
      00FF9EF4H   LINE      CODE     ---       #200
      ---         BLOCKEND  ---      ---       LVL=0

      00FFA3B1H   BLOCK     CODE     ---       LVL=0
      0000123AH   SYMBOL    EDATA    BYTE      dev_add
      0000123BH   SYMBOL    EDATA    BYTE      reg
      0000123CH   SYMBOL    EDATA    BYTE      dat
      00FFA3B1H   LINE      CODE     ---       #212
      00FFA3BDH   LINE      CODE     ---       #214
      00FFA3C0H   LINE      CODE     ---       #215
      00FFA3C9H   LINE      CODE     ---       #216
      00FFA3D0H   LINE      CODE     ---       #217
      00FFA3D7H   LINE      CODE     ---       #218
      00FFA3DAH   LINE      CODE     ---       #219
      ---         BLOCKEND  ---      ---       LVL=0

L251 LINKER/LOCATER V4.66.93.0                                                        11/18/2024  23:30:20  PAGE 76


      00FFA0E6H   BLOCK     CODE     ---       LVL=0
      0000123DH   SYMBOL    EDATA    BYTE      dev_add
      0000123EH   SYMBOL    EDATA    BYTE      reg
      00FFA0EEH   BLOCK     CODE     NEAR LAB  LVL=1
      0000123FH   SYMBOL    EDATA    BYTE      dat
      ---         BLOCKEND  ---      ---       LVL=1
      00FFA0E6H   LINE      CODE     ---       #230
      00FFA0EEH   LINE      CODE     ---       #231
      00FFA0EEH   LINE      CODE     ---       #233
      00FFA0F1H   LINE      CODE     ---       #234
      00FFA0FAH   LINE      CODE     ---       #235
      00FFA101H   LINE      CODE     ---       #238
      00FFA104H   LINE      CODE     ---       #239
      00FFA111H   LINE      CODE     ---       #240
      00FFA119H   LINE      CODE     ---       #241
      00FFA11CH   LINE      CODE     ---       #243
      00FFA120H   LINE      CODE     ---       #244
      ---         BLOCKEND  ---      ---       LVL=0

      00FF8F6CH   BLOCK     CODE     ---       LVL=0
      00000EB2H   SYMBOL    EDATA    BYTE      dev_add
      00000EB3H   SYMBOL    EDATA    BYTE      reg
      00000EB4H   SYMBOL    EDATA    ---       dat_add
      00000EB8H   SYMBOL    EDATA    DWORD     num
      00FF8F6CH   LINE      CODE     ---       #257
      00FF8F78H   LINE      CODE     ---       #259
      00FF8F7BH   LINE      CODE     ---       #260
      00FF8F84H   LINE      CODE     ---       #261
      00FF8F8BH   LINE      CODE     ---       #264
      00FF8F8EH   LINE      CODE     ---       #265
      00FF8F9BH   LINE      CODE     ---       #266
      00FF8F9DH   LINE      CODE     ---       #268
      00FF8FA9H   LINE      CODE     ---       #269
      00FF8FB3H   LINE      CODE     ---       #270
      00FF8FC5H   LINE      CODE     ---       #271
      00FF8FD0H   LINE      CODE     ---       #272
      00FF8FD3H   LINE      CODE     ---       #273
      ---         BLOCKEND  ---      ---       LVL=0
      00000EBCH   SYMBOL    EDATA    BYTE      dev_add
      00000EBDH   SYMBOL    EDATA    BYTE      reg
      00000EBEH   SYMBOL    EDATA    ---       dat_add
      00000EC2H   SYMBOL    EDATA    DWORD     num

      00FF6AECH   BLOCK     CODE     ---       LVL=0
      00000DBDH   SYMBOL    EDATA    ---       index
      00000DC1H   SYMBOL    EDATA    ---       type_is_aperture
      00FF6AF4H   BLOCK     CODE     NEAR LAB  LVL=1
      00000DC5H   SYMBOL    EDATA    BYTE      tmp
      00000DC6H   SYMBOL    EDATA    BYTE      return_state
      00000DC7H   SYMBOL    EDATA    WORD      loop_count
      ---         BLOCKEND  ---      ---       LVL=1
      00FF6AECH   LINE      CODE     ---       #334
      00FF6AF4H   LINE      CODE     ---       #335
      00FF6AF4H   LINE      CODE     ---       #336
      00FF6AF9H   LINE      CODE     ---       #337
      00FF6AFEH   LINE      CODE     ---       #338
      00FF6B04H   LINE      CODE     ---       #340
      00FF6B04H   LINE      CODE     ---       #342
      00FF6B0FH   LINE      CODE     ---       #343
      00FF6B1AH   LINE      CODE     ---       #344
      00FF6B23H   LINE      CODE     ---       #346
      00FF6B2EH   LINE      CODE     ---       #347
      00FF6B42H   LINE      CODE     ---       #348
      00FF6B53H   LINE      CODE     ---       #349
      00FF6B5EH   LINE      CODE     ---       #350
L251 LINKER/LOCATER V4.66.93.0                                                        11/18/2024  23:30:20  PAGE 77


      00FF6B69H   LINE      CODE     ---       #352
      00FF6B74H   LINE      CODE     ---       #354
      00FF6B7FH   LINE      CODE     ---       #355
      00FF6B89H   LINE      CODE     ---       #357
      00FF6B8EH   LINE      CODE     ---       #358
      00FF6B90H   LINE      CODE     ---       #360
      00FF6BA4H   LINE      CODE     ---       #361
      00FF6BB2H   LINE      CODE     ---       #362
      00FF6BBEH   LINE      CODE     ---       #364
      00FF6BC4H   LINE      CODE     ---       #365
      00FF6BC6H   LINE      CODE     ---       #366
      00FF6BCFH   LINE      CODE     ---       #369
      00FF6BDBH   LINE      CODE     ---       #371
      00FF6BDBH   LINE      CODE     ---       #372
      00FF6BDBH   LINE      CODE     ---       #373
      00FF6BE6H   LINE      CODE     ---       #374
      00FF6BFAH   LINE      CODE     ---       #376
      00FF6C0AH   LINE      CODE     ---       #377
      00FF6C1EH   LINE      CODE     ---       #379
      00FF6C28H   LINE      CODE     ---       #380
      00FF6C33H   LINE      CODE     ---       #381
      00FF6C47H   LINE      CODE     ---       #382
      00FF6C53H   LINE      CODE     ---       #383
      00FF6C5EH   LINE      CODE     ---       #384
      00FF6C68H   LINE      CODE     ---       #386
      00FF6C72H   LINE      CODE     ---       #387
      00FF6C7CH   LINE      CODE     ---       #388
      00FF6C7CH   LINE      CODE     ---       #390
      00FF6C80H   LINE      CODE     ---       #391
      ---         BLOCKEND  ---      ---       LVL=0

      00FF9912H   BLOCK     CODE     ---       LVL=0
      0000109FH   SYMBOL    EDATA    WORD      timeout_period_mclks
      000010A1H   SYMBOL    EDATA    BYTE      vcsel_period_pclks
      00FF991AH   BLOCK     CODE     NEAR LAB  LVL=1
      000010A2H   SYMBOL    EDATA    DWORD     macro_period_ns
      ---         BLOCKEND  ---      ---       LVL=1
      00FF9912H   LINE      CODE     ---       #401
      00FF991AH   LINE      CODE     ---       #402
      00FF991AH   LINE      CODE     ---       #403
      00FF9941H   LINE      CODE     ---       #405
      00FF9964H   LINE      CODE     ---       #406
      ---         BLOCKEND  ---      ---       LVL=0

      00FF9965H   BLOCK     CODE     ---       LVL=0
      00000F43H   SYMBOL    EDATA    DWORD     timeout_period_us
      00000F47H   SYMBOL    EDATA    BYTE      vcsel_period_pclks
      00FF996DH   BLOCK     CODE     NEAR LAB  LVL=1
      00000F48H   SYMBOL    EDATA    DWORD     macro_period_ns
      ---         BLOCKEND  ---      ---       LVL=1
      00FF9965H   LINE      CODE     ---       #416
      00FF996DH   LINE      CODE     ---       #417
      00FF996DH   LINE      CODE     ---       #418
      00FF9994H   LINE      CODE     ---       #420
      00FF99B5H   LINE      CODE     ---       #421
      ---         BLOCKEND  ---      ---       LVL=0

      00FFA387H   BLOCK     CODE     ---       LVL=0
      0000127DH   SYMBOL    EDATA    WORD      reg_val
      00FFA387H   LINE      CODE     ---       #430
      00FFA38BH   LINE      CODE     ---       #433
      00FFA3B0H   LINE      CODE     ---       #435
      ---         BLOCKEND  ---      ---       LVL=0

      00FF8758H   BLOCK     CODE     ---       LVL=0
L251 LINKER/LOCATER V4.66.93.0                                                        11/18/2024  23:30:20  PAGE 78


      00000EC6H   SYMBOL    EDATA    WORD      timeout_mclks
      00FF875CH   BLOCK     CODE     NEAR LAB  LVL=1
      00000EC8H   SYMBOL    EDATA    DWORD     ls_byte
      00000ECCH   SYMBOL    EDATA    WORD      ms_byte
      00000ECEH   SYMBOL    EDATA    WORD      return_data
      ---         BLOCKEND  ---      ---       LVL=1
      00FF8758H   LINE      CODE     ---       #444
      00FF875CH   LINE      CODE     ---       #445
      00FF875CH   LINE      CODE     ---       #446
      00FF8762H   LINE      CODE     ---       #447
      00FF8768H   LINE      CODE     ---       #448
      00FF876EH   LINE      CODE     ---       #450
      00FF8778H   LINE      CODE     ---       #453
      00FF8788H   LINE      CODE     ---       #454
      00FF878AH   LINE      CODE     ---       #456
      00FF879BH   LINE      CODE     ---       #457
      00FF87A9H   LINE      CODE     ---       #458
      00FF87BAH   LINE      CODE     ---       #459
      00FF87D2H   LINE      CODE     ---       #460
      00FF87D2H   LINE      CODE     ---       #461
      00FF87D6H   LINE      CODE     ---       #462
      ---         BLOCKEND  ---      ---       LVL=0

      00FF8647H   BLOCK     CODE     ---       LVL=0
      00001195H   SYMBOL    EDATA    ---       enables
      00FF864BH   BLOCK     CODE     NEAR LAB  LVL=1
      00001199H   SYMBOL    EDATA    BYTE      sequence_config
      ---         BLOCKEND  ---      ---       LVL=1
      00FF8647H   LINE      CODE     ---       #471
      00FF864BH   LINE      CODE     ---       #472
      00FF864BH   LINE      CODE     ---       #473
      00FF8650H   LINE      CODE     ---       #474
      00FF8664H   LINE      CODE     ---       #476
      00FF8678H   LINE      CODE     ---       #477
      00FF868FH   LINE      CODE     ---       #478
      00FF86A5H   LINE      CODE     ---       #479
      00FF86BEH   LINE      CODE     ---       #480
      00FF86D4H   LINE      CODE     ---       #481
      ---         BLOCKEND  ---      ---       LVL=0

      00FF88D3H   BLOCK     CODE     ---       LVL=0
      00001240H   SYMBOL    EDATA    INT       type
      00FF88D7H   BLOCK     CODE     NEAR LAB  LVL=1
      00001242H   SYMBOL    EDATA    BYTE      data_buffer
      ---         BLOCKEND  ---      ---       LVL=1
      00FF88D3H   LINE      CODE     ---       #490
      00FF88D7H   LINE      CODE     ---       #491
      00FF88D7H   LINE      CODE     ---       #492
      00FF88DCH   LINE      CODE     ---       #493
      00FF88E6H   LINE      CODE     ---       #495
      00FF88FAH   LINE      CODE     ---       #496
      00FF890CH   LINE      CODE     ---       #497
      00FF890EH   LINE      CODE     ---       #498
      00FF891AH   LINE      CODE     ---       #500
      00FF892EH   LINE      CODE     ---       #501
      00FF8940H   LINE      CODE     ---       #502
      00FF8942H   LINE      CODE     ---       #505
      00FF8948H   LINE      CODE     ---       #506
      00FF8948H   LINE      CODE     ---       #507
      00FF894CH   LINE      CODE     ---       #508
      ---         BLOCKEND  ---      ---       LVL=0

      00FF6C81H   BLOCK     CODE     ---       LVL=0
      00000DC9H   SYMBOL    EDATA    ---       enables
      00000DCDH   SYMBOL    EDATA    ---       timeouts
L251 LINKER/LOCATER V4.66.93.0                                                        11/18/2024  23:30:20  PAGE 79


      00FF6C89H   BLOCK     CODE     NEAR LAB  LVL=1
      00000DD1H   SYMBOL    EDATA    ---       reg_buffer
      00000DD3H   SYMBOL    EDATA    WORD      reg16_buffer
      ---         BLOCKEND  ---      ---       LVL=1
      00FF6C81H   LINE      CODE     ---       #518
      00FF6C89H   LINE      CODE     ---       #519
      00FF6C89H   LINE      CODE     ---       #521
      00FF6C8FH   LINE      CODE     ---       #523
      00FF6C9DH   LINE      CODE     ---       #525
      00FF6CB1H   LINE      CODE     ---       #526
      00FF6CC6H   LINE      CODE     ---       #527
      00FF6CEAH   LINE      CODE     ---       #529
      00FF6CFEH   LINE      CODE     ---       #530
      00FF6D14H   LINE      CODE     ---       #531
      00FF6D24H   LINE      CODE     ---       #532
      00FF6D4AH   LINE      CODE     ---       #534
      00FF6D5CH   LINE      CODE     ---       #536
      00FF6D70H   LINE      CODE     ---       #537
      00FF6D86H   LINE      CODE     ---       #538
      00FF6D96H   LINE      CODE     ---       #540
      00FF6DA6H   LINE      CODE     ---       #542
      00FF6DC1H   LINE      CODE     ---       #543
      00FF6DC1H   LINE      CODE     ---       #545
      00FF6DE9H   LINE      CODE     ---       #546
      ---         BLOCKEND  ---      ---       LVL=0

      00FF829DH   BLOCK     CODE     ---       LVL=0
      0000119AH   SYMBOL    EDATA    BYTE      vhv_init_byte
      00FF82A1H   BLOCK     CODE     NEAR LAB  LVL=1
      0000119BH   SYMBOL    EDATA    BYTE      return_state
      0000119CH   SYMBOL    EDATA    BYTE      data_buffer
      0000119DH   SYMBOL    EDATA    WORD      loop_count
      ---         BLOCKEND  ---      ---       LVL=1
      00FF829DH   LINE      CODE     ---       #555
      00FF82A1H   LINE      CODE     ---       #556
      00FF82A1H   LINE      CODE     ---       #557
      00FF82A6H   LINE      CODE     ---       #558
      00FF82ABH   LINE      CODE     ---       #559
      00FF82B1H   LINE      CODE     ---       #560
      00FF82B1H   LINE      CODE     ---       #562
      00FF82C1H   LINE      CODE     ---       #563
      00FF82D5H   LINE      CODE     ---       #564
      00FF82D7H   LINE      CODE     ---       #566
      00FF82E3H   LINE      CODE     ---       #568
      00FF82E9H   LINE      CODE     ---       #569
      00FF82EBH   LINE      CODE     ---       #570
      00FF82EBH   LINE      CODE     ---       #571
      00FF8305H   LINE      CODE     ---       #573
      00FF8319H   LINE      CODE     ---       #574
      00FF8326H   LINE      CODE     ---       #576
      00FF832FH   LINE      CODE     ---       #578
      00FF832FH   LINE      CODE     ---       #579
      00FF832FH   LINE      CODE     ---       #580
      00FF833AH   LINE      CODE     ---       #581
      00FF8343H   LINE      CODE     ---       #582
      00FF8343H   LINE      CODE     ---       #584
      00FF8347H   LINE      CODE     ---       #585
      ---         BLOCKEND  ---      ---       LVL=0

      00FF6DEAH   BLOCK     CODE     ---       LVL=0
      00000870H   SYMBOL    EDATA    DWORD     budget_us
      00FF6DEEH   BLOCK     CODE     NEAR LAB  LVL=1
      00000874H   SYMBOL    EDATA    BYTE      return_state
      00000875H   SYMBOL    EDATA    ---       data_buffer
      00000878H   SYMBOL    EDATA    WORD      dat
L251 LINKER/LOCATER V4.66.93.0                                                        11/18/2024  23:30:20  PAGE 80


      0000087AH   SYMBOL    EDATA    DWORD     used_budget_us
      0000087EH   SYMBOL    EDATA    DWORD     final_range_timeout_us
      00000882H   SYMBOL    EDATA    WORD      final_range_timeout_mclks
      00000884H   SYMBOL    EDATA    ---       enables
      00000889H   SYMBOL    EDATA    ---       timeouts
      ---         BLOCKEND  ---      ---       LVL=1
      00FF6DEAH   LINE      CODE     ---       #598
      00FF6DEEH   LINE      CODE     ---       #599
      00FF6DEEH   LINE      CODE     ---       #600
      00FF6DF3H   LINE      CODE     ---       #602
      00FF6DF9H   LINE      CODE     ---       #610
      00FF6DF9H   LINE      CODE     ---       #612
      00FF6E03H   LINE      CODE     ---       #614
      00FF6E09H   LINE      CODE     ---       #615
      00FF6E0CH   LINE      CODE     ---       #616
      00FF6E0CH   LINE      CODE     ---       #618
      00FF6E14H   LINE      CODE     ---       #619
      00FF6E1BH   LINE      CODE     ---       #620
      00FF6E26H   LINE      CODE     ---       #622
      00FF6E2FH   LINE      CODE     ---       #624
      00FF6E43H   LINE      CODE     ---       #625
      00FF6E43H   LINE      CODE     ---       #627
      00FF6E4CH   LINE      CODE     ---       #629
      00FF6E64H   LINE      CODE     ---       #630
      00FF6E66H   LINE      CODE     ---       #631
      00FF6E6FH   LINE      CODE     ---       #633
      00FF6E83H   LINE      CODE     ---       #634
      00FF6E83H   LINE      CODE     ---       #636
      00FF6E8CH   LINE      CODE     ---       #638
      00FF6EA0H   LINE      CODE     ---       #639
      00FF6EA0H   LINE      CODE     ---       #641
      00FF6EACH   LINE      CODE     ---       #646
      00FF6EBAH   LINE      CODE     ---       #647
      00FF6EC6H   LINE      CODE     ---       #650
      00FF6ECCH   LINE      CODE     ---       #651
      00FF6ECEH   LINE      CODE     ---       #652
      00FF6ECEH   LINE      CODE     ---       #657
      00FF6EDCH   LINE      CODE     ---       #658
      00FF6EE7H   LINE      CODE     ---       #662
      00FF6EF0H   LINE      CODE     ---       #664
      00FF6EFEH   LINE      CODE     ---       #665
      00FF6EFEH   LINE      CODE     ---       #667
      00FF6F09H   LINE      CODE     ---       #668
      00FF6F0FH   LINE      CODE     ---       #669
      00FF6F19H   LINE      CODE     ---       #670
      00FF6F21H   LINE      CODE     ---       #671
      00FF6F2EH   LINE      CODE     ---       #672
      00FF6F2EH   LINE      CODE     ---       #674
      00FF6F32H   LINE      CODE     ---       #675
      ---         BLOCKEND  ---      ---       LVL=0

      00FF807EH   BLOCK     CODE     ---       LVL=0
      00000AB9H   SYMBOL    EDATA    ---       enables
      00000ABEH   SYMBOL    EDATA    ---       timeouts
      00000AD4H   SYMBOL    EDATA    DWORD     budget_us
      00FF807EH   LINE      CODE     ---       #684
      00FF807EH   LINE      CODE     ---       #685
      00FF807EH   LINE      CODE     ---       #690
      00FF8086H   LINE      CODE     ---       #692
      00FF808DH   LINE      CODE     ---       #693
      00FF8098H   LINE      CODE     ---       #695
      00FF80A1H   LINE      CODE     ---       #697
      00FF80B5H   LINE      CODE     ---       #698
      00FF80B5H   LINE      CODE     ---       #700
      00FF80BEH   LINE      CODE     ---       #702
L251 LINKER/LOCATER V4.66.93.0                                                        11/18/2024  23:30:20  PAGE 81


      00FF80D6H   LINE      CODE     ---       #703
      00FF80D8H   LINE      CODE     ---       #704
      00FF80E1H   LINE      CODE     ---       #706
      00FF80F5H   LINE      CODE     ---       #707
      00FF80F5H   LINE      CODE     ---       #709
      00FF80FEH   LINE      CODE     ---       #711
      00FF8112H   LINE      CODE     ---       #712
      00FF8112H   LINE      CODE     ---       #714
      00FF811BH   LINE      CODE     ---       #716
      00FF812FH   LINE      CODE     ---       #717
      00FF812FH   LINE      CODE     ---       #719
      00FF8133H   LINE      CODE     ---       #720
      ---         BLOCKEND  ---      ---       LVL=0

      00FF9FB5H   BLOCK     CODE     ---       LVL=0
      00000F4CH   SYMBOL    EDATA    FLOAT     limit_mcps
      00FF9FB9H   BLOCK     CODE     NEAR LAB  LVL=1
      00000F50H   SYMBOL    EDATA    ---       data_buffer
      00000F53H   SYMBOL    EDATA    WORD      limit_mcps_16bit
      ---         BLOCKEND  ---      ---       LVL=1
      00FF9FB5H   LINE      CODE     ---       #733
      00FF9FB9H   LINE      CODE     ---       #734
      00FF9FB9H   LINE      CODE     ---       #736
      00FF9FCDH   LINE      CODE     ---       #740
      00FF9FD3H   LINE      CODE     ---       #741
      00FF9FDDH   LINE      CODE     ---       #742
      00FF9FE5H   LINE      CODE     ---       #744
      00FF9FF2H   LINE      CODE     ---       #745
      ---         BLOCKEND  ---      ---       LVL=0
      00001243H   SYMBOL    EDATA    ---       reg_databuffer
      00000BF6H   SYMBOL    EDATA    DWORD     measurement_timing_budget_us
      00000BFAH   SYMBOL    EDATA    BYTE      stop_variable
      00000BFBH   SYMBOL    EDATA    BYTE      return_state
      00000BFCH   SYMBOL    EDATA    BYTE      reg_data_buffer
      00000BFDH   SYMBOL    EDATA    ---       ref_spad_map
      00000C03H   SYMBOL    EDATA    ---       data_buffer
      00000C0AH   SYMBOL    EDATA    BYTE      i

      ---         MODULE    ---      ---       SEEKFREE_DL1B
      00FF894DH   PUBLIC    CODE     ---       dl1b_iic_transfer_8bit_array
      000011E6H   PUBLIC    EDATA    WORD      dl1b_distance_mm
      000011E8H   PUBLIC    EDATA    BYTE      dl1b_finsh_flag
      000011E9H   PUBLIC    EDATA    BYTE      dl1b_init_flag
      00000CC1H   PUBLIC    EDATA    BYTE      ?dl1b_iic_transfer_8bit_array?BYTE
      000000D0H   SFRSYM    DATA     BYTE      PSW
      0000009DH   SFRSYM    DATA     BYTE      IRCBAND
      00000097H   SFRSYM    DATA     BYTE      AUXR2
      000000EFH   SFRSYM    DATA     BYTE      AUXINTIF
      000000FDH   SFRSYM    DATA     BYTE      S4CON
      000000ACH   SFRSYM    DATA     BYTE      S3CON
      0000009AH   SFRSYM    DATA     BYTE      S2CON
      000000B7H   SFRSYM    DATA     BYTE      IPH
      000000CDH   SFRSYM    DATA     BYTE      SPSTAT
      000000DDH   SFRSYM    DATA     BYTE      T4T3M
      000000C1H   SFRSYM    DATA     BYTE      WDT_CONTR
      000000DFH   SFRSYM    DATA     BYTE      IP3
      000000F4H   SFRSYM    DATA     BYTE      USBCON
      000000B5H   SFRSYM    DATA     BYTE      IP2
      000000FFH   SFRSYM    DATA     BYTE      RSTCFG
      000000C7H   SFRSYM    DATA     BYTE      IAP_CONTR
      000000F9H   SFRSYM    DATA     BYTE      LINICR
      0000008EH   SFRSYM    DATA     BYTE      AUXR
      000000AFH   SFRSYM    DATA     BYTE      IE2
      000000B0H.7 SFRSYM    DATA     BIT       P37
      000000B0H.6 SFRSYM    DATA     BIT       P36
L251 LINKER/LOCATER V4.66.93.0                                                        11/18/2024  23:30:20  PAGE 82


      000000C8H.2 SFRSYM    DATA     BIT       P52
      00000088H   SFRSYM    DATA     BYTE      TCON
      00000089H   SFRSYM    DATA     BYTE      TMOD
      00000098H   SFRSYM    DATA     BYTE      SCON
      000000F1H   SFRSYM    DATA     BYTE      CANICR
      00000087H   SFRSYM    DATA     BYTE      PCON
      000000BCH   SFRSYM    DATA     BYTE      ADC_CONTR
      000000E7H   SFRSYM    DATA     BYTE      CMPCR2
      000000E6H   SFRSYM    DATA     BYTE      CMPCR1
      000000DEH   SFRSYM    DATA     BYTE      ADCCFG
      000000B8H   SFRSYM    DATA     BYTE      IP
      0000008FH   SFRSYM    DATA     BYTE      INTCLKO
      000000EEH   SFRSYM    DATA     BYTE      IP3H
      000000B6H   SFRSYM    DATA     BYTE      IP2H
      000000A8H   SFRSYM    DATA     BYTE      IE
      000000BBH   SFRSYM    DATA     BYTE      P_SW3
      000000BAH   SFRSYM    DATA     BYTE      P_SW2
      000000A2H   SFRSYM    DATA     BYTE      P_SW1
      000000CEH   SFRSYM    DATA     BYTE      SPCTL
      000000F8H   SFRSYM    DATA     BYTE      P7
      000000E8H   SFRSYM    DATA     BYTE      P6
      000000C8H   SFRSYM    DATA     BYTE      P5
      000000C0H   SFRSYM    DATA     BYTE      P4
      000000B0H   SFRSYM    DATA     BYTE      P3
      000000A0H   SFRSYM    DATA     BYTE      P2
      00000090H   SFRSYM    DATA     BYTE      P1
      00000080H   SFRSYM    DATA     BYTE      P0
      00FFA47FH   SYMBOL    CODE     ---       dl1b_simiic_sendack
      00FF8E98H   SYMBOL    CODE     ---       dl1b_read_ch
      00FF9D98H   SYMBOL    CODE     ---       dl1b_send_ch
      00FFA67DH   SYMBOL    CODE     ---       dl1b_sccb_waitack
      00FF0026H   SYMBOL    CODE     ---       dl1b_simiic_delay
      00FFAA27H   SYMBOL    CODE     ---       dl1b_simiic_start
      00FFA8C3H   SYMBOL    CODE     ---       dl1b_simiic_stop

      00FF0026H   BLOCK     CODE     ---       LVL=0
      0000127FH   SYMBOL    EDATA    WORD      j
      00FF0026H   LINE      CODE     ---       #58
      00FF0026H   LINE      CODE     ---       #59
      00FF0026H   LINE      CODE     ---       #60
      00FF002CH   LINE      CODE     ---       #61
      00FF0042H   LINE      CODE     ---       #62
      ---         BLOCKEND  ---      ---       LVL=0

      00FFAA27H   BLOCK     CODE     ---       LVL=0
      00FFAA27H   LINE      CODE     ---       #65
      00FFAA27H   LINE      CODE     ---       #67
      00FFAA2AH   LINE      CODE     ---       #68
      00FFAA2DH   LINE      CODE     ---       #69
      00FFAA30H   LINE      CODE     ---       #70
      00FFAA33H   LINE      CODE     ---       #71
      00FFAA36H   LINE      CODE     ---       #72
      00FFAA39H   LINE      CODE     ---       #73
      ---         BLOCKEND  ---      ---       LVL=0

      00FFA8C3H   BLOCK     CODE     ---       LVL=0
      00FFA8C3H   LINE      CODE     ---       #76
      00FFA8C3H   LINE      CODE     ---       #78
      00FFA8C6H   LINE      CODE     ---       #79
      00FFA8C9H   LINE      CODE     ---       #80
      00FFA8CCH   LINE      CODE     ---       #81
      00FFA8CFH   LINE      CODE     ---       #82
      00FFA8D2H   LINE      CODE     ---       #83
      00FFA8D5H   LINE      CODE     ---       #84
      00FFA8D8H   LINE      CODE     ---       #85
L251 LINKER/LOCATER V4.66.93.0                                                        11/18/2024  23:30:20  PAGE 83


      ---         BLOCKEND  ---      ---       LVL=0

      00FFA47FH   BLOCK     CODE     ---       LVL=0
      000012C8H   SYMBOL    EDATA    BYTE      ack_dat
      00FFA47FH   LINE      CODE     ---       #89
      00FFA483H   LINE      CODE     ---       #91
      00FFA486H   LINE      CODE     ---       #92
      00FFA489H   LINE      CODE     ---       #93
      00FFA497H   LINE      CODE     ---       #94
      00FFA49AH   LINE      CODE     ---       #96
      00FFA49DH   LINE      CODE     ---       #97
      00FFA4A0H   LINE      CODE     ---       #98
      00FFA4A3H   LINE      CODE     ---       #99
      00FFA4A6H   LINE      CODE     ---       #100
      ---         BLOCKEND  ---      ---       LVL=0

      00FFA67DH   BLOCK     CODE     ---       LVL=0
      00FFA67DH   LINE      CODE     ---       #103
      00FFA67DH   LINE      CODE     ---       #105
      00FFA680H   LINE      CODE     ---       #107
      00FFA683H   LINE      CODE     ---       #109
      00FFA686H   LINE      CODE     ---       #110
      00FFA689H   LINE      CODE     ---       #112
      00FFA68CH   LINE      CODE     ---       #115
      00FFA68FH   LINE      CODE     ---       #116
      00FFA693H   LINE      CODE     ---       #117
      00FFA693H   LINE      CODE     ---       #119
      00FFA696H   LINE      CODE     ---       #120
      00FFA699H   LINE      CODE     ---       #121
      00FFA69DH   LINE      CODE     ---       #122
      ---         BLOCKEND  ---      ---       LVL=0

      00FF9D98H   BLOCK     CODE     ---       LVL=0
      00001281H   SYMBOL    EDATA    BYTE      c
      00FF9D9CH   BLOCK     CODE     NEAR LAB  LVL=1
      00001282H   SYMBOL    EDATA    BYTE      i
      ---         BLOCKEND  ---      ---       LVL=1
      00FF9D98H   LINE      CODE     ---       #128
      00FF9D9CH   LINE      CODE     ---       #129
      00FF9D9CH   LINE      CODE     ---       #130
      00FF9DA2H   LINE      CODE     ---       #131
      00FF9DA4H   LINE      CODE     ---       #133
      00FF9DB0H   LINE      CODE     ---       #134
      00FF9DB3H   LINE      CODE     ---       #135
      00FF9DBDH   LINE      CODE     ---       #136
      00FF9DC0H   LINE      CODE     ---       #137
      00FF9DC3H   LINE      CODE     ---       #138
      00FF9DC6H   LINE      CODE     ---       #139
      00FF9DC9H   LINE      CODE     ---       #140
      00FF9DDDH   LINE      CODE     ---       #141
      00FF9DE0H   LINE      CODE     ---       #142
      ---         BLOCKEND  ---      ---       LVL=0

      00FF8E98H   BLOCK     CODE     ---       LVL=0
      00001246H   SYMBOL    EDATA    BYTE      ack_x
      00FF8E9CH   BLOCK     CODE     NEAR LAB  LVL=1
      00001247H   SYMBOL    EDATA    BYTE      i
      00001248H   SYMBOL    EDATA    BYTE      c
      ---         BLOCKEND  ---      ---       LVL=1
      00FF8E98H   LINE      CODE     ---       #148
      00FF8E9CH   LINE      CODE     ---       #149
      00FF8E9CH   LINE      CODE     ---       #152
      00FF8EA1H   LINE      CODE     ---       #153
      00FF8EA4H   LINE      CODE     ---       #154
      00FF8EA7H   LINE      CODE     ---       #155
L251 LINKER/LOCATER V4.66.93.0                                                        11/18/2024  23:30:20  PAGE 84


      00FF8EAAH   LINE      CODE     ---       #157
      00FF8EB1H   LINE      CODE     ---       #159
      00FF8EB4H   LINE      CODE     ---       #160
      00FF8EB7H   LINE      CODE     ---       #161
      00FF8EBAH   LINE      CODE     ---       #162
      00FF8EBDH   LINE      CODE     ---       #163
      00FF8EC0H   LINE      CODE     ---       #164
      00FF8ECAH   LINE      CODE     ---       #165
      00FF8ECDH   LINE      CODE     ---       #167
      00FF8ED9H   LINE      CODE     ---       #168
      00FF8EF0H   LINE      CODE     ---       #171
      00FF8EF3H   LINE      CODE     ---       #172
      00FF8EF6H   LINE      CODE     ---       #173
      00FF8EFDH   LINE      CODE     ---       #175
      00FF8F01H   LINE      CODE     ---       #176
      ---         BLOCKEND  ---      ---       LVL=0

      00FF894DH   BLOCK     CODE     ---       LVL=0
      00000CC1H   SYMBOL    EDATA    ---       write_data
      00000CC5H   SYMBOL    EDATA    DWORD     write_len
      00000CC9H   SYMBOL    EDATA    ---       read_data
      00000CCDH   SYMBOL    EDATA    DWORD     read_len
      00FF894DH   LINE      CODE     ---       #189
      00FF8955H   LINE      CODE     ---       #192
      00FF8958H   LINE      CODE     ---       #193
      00FF895DH   LINE      CODE     ---       #194
      00FF895FH   LINE      CODE     ---       #196
      00FF896FH   LINE      CODE     ---       #197
      00FF8983H   LINE      CODE     ---       #198
      00FF8986H   LINE      CODE     ---       #199
      00FF898BH   LINE      CODE     ---       #200
      00FF898DH   LINE      CODE     ---       #203
      00FF89AEH   LINE      CODE     ---       #204
      00FF89C2H   LINE      CODE     ---       #205
      00FF89C5H   LINE      CODE     ---       #206
      ---         BLOCKEND  ---      ---       LVL=0
      0000119FH   SYMBOL    EDATA    ---       data_buffer
      000011A2H   SYMBOL    EDATA    INT       dl1b_distance_temp
      000004D9H   SYMBOL    EDATA    BYTE      return_state
      000004DAH   SYMBOL    EDATA    ---       data_buffer
      00000563H   SYMBOL    EDATA    WORD      time_out_count

      ---         MODULE    ---      ---       SEEKFREE_FONT
      00FF212DH   PUBLIC    CODE     ---       ascii_font_8x16
      00FF271DH   PUBLIC    CODE     ---       oled_8x16
      00FF2D0DH   PUBLIC    CODE     ---       tft_ascii
      00FF32FDH   PUBLIC    CODE     ---       ascii_font_6x8
      00FF3525H   PUBLIC    CODE     ---       oled_6x8
      000000D0H   SFRSYM    DATA     BYTE      PSW
      0000009DH   SFRSYM    DATA     BYTE      IRCBAND
      00000097H   SFRSYM    DATA     BYTE      AUXR2
      000000EFH   SFRSYM    DATA     BYTE      AUXINTIF
      000000FDH   SFRSYM    DATA     BYTE      S4CON
      000000ACH   SFRSYM    DATA     BYTE      S3CON
      0000009AH   SFRSYM    DATA     BYTE      S2CON
      000000B7H   SFRSYM    DATA     BYTE      IPH
      000000CDH   SFRSYM    DATA     BYTE      SPSTAT
      000000DDH   SFRSYM    DATA     BYTE      T4T3M
      000000C1H   SFRSYM    DATA     BYTE      WDT_CONTR
      000000DFH   SFRSYM    DATA     BYTE      IP3
      000000F4H   SFRSYM    DATA     BYTE      USBCON
      000000B5H   SFRSYM    DATA     BYTE      IP2
      000000FFH   SFRSYM    DATA     BYTE      RSTCFG
      000000C7H   SFRSYM    DATA     BYTE      IAP_CONTR
      000000F9H   SFRSYM    DATA     BYTE      LINICR
L251 LINKER/LOCATER V4.66.93.0                                                        11/18/2024  23:30:20  PAGE 85


      0000008EH   SFRSYM    DATA     BYTE      AUXR
      000000AFH   SFRSYM    DATA     BYTE      IE2
      00000088H   SFRSYM    DATA     BYTE      TCON
      00000089H   SFRSYM    DATA     BYTE      TMOD
      00000098H   SFRSYM    DATA     BYTE      SCON
      000000F1H   SFRSYM    DATA     BYTE      CANICR
      00000087H   SFRSYM    DATA     BYTE      PCON
      000000BCH   SFRSYM    DATA     BYTE      ADC_CONTR
      000000E7H   SFRSYM    DATA     BYTE      CMPCR2
      000000E6H   SFRSYM    DATA     BYTE      CMPCR1
      000000DEH   SFRSYM    DATA     BYTE      ADCCFG
      000000B8H   SFRSYM    DATA     BYTE      IP
      0000008FH   SFRSYM    DATA     BYTE      INTCLKO
      000000EEH   SFRSYM    DATA     BYTE      IP3H
      000000B6H   SFRSYM    DATA     BYTE      IP2H
      000000A8H   SFRSYM    DATA     BYTE      IE
      000000BBH   SFRSYM    DATA     BYTE      P_SW3
      000000BAH   SFRSYM    DATA     BYTE      P_SW2
      000000A2H   SFRSYM    DATA     BYTE      P_SW1
      000000CEH   SFRSYM    DATA     BYTE      SPCTL
      000000F8H   SFRSYM    DATA     BYTE      P7
      000000E8H   SFRSYM    DATA     BYTE      P6
      000000C8H   SFRSYM    DATA     BYTE      P5
      000000C0H   SFRSYM    DATA     BYTE      P4
      000000B0H   SFRSYM    DATA     BYTE      P3
      000000A0H   SFRSYM    DATA     BYTE      P2
      00000090H   SFRSYM    DATA     BYTE      P1
      00000080H   SFRSYM    DATA     BYTE      P0

      ---         MODULE    ---      ---       SEEKFREE_FUNCTION
      00FF64AEH   PUBLIC    CODE     ---       func_double_to_str
      00FF474AH   PUBLIC    CODE     ---       zf_sprintf
      00FF8348H   PUBLIC    CODE     ---       func_uint_to_str
      00FF7692H   PUBLIC    CODE     ---       func_int_to_str
      000005EFH   PUBLIC    EDATA    BYTE      ?zf_sprintf?BYTE
      000000D0H   SFRSYM    DATA     BYTE      PSW
      0000009DH   SFRSYM    DATA     BYTE      IRCBAND
      00000097H   SFRSYM    DATA     BYTE      AUXR2
      000000EFH   SFRSYM    DATA     BYTE      AUXINTIF
      000000FDH   SFRSYM    DATA     BYTE      S4CON
      000000ACH   SFRSYM    DATA     BYTE      S3CON
      0000009AH   SFRSYM    DATA     BYTE      S2CON
      000000B7H   SFRSYM    DATA     BYTE      IPH
      000000CDH   SFRSYM    DATA     BYTE      SPSTAT
      000000DDH   SFRSYM    DATA     BYTE      T4T3M
      000000C1H   SFRSYM    DATA     BYTE      WDT_CONTR
      000000DFH   SFRSYM    DATA     BYTE      IP3
      000000F4H   SFRSYM    DATA     BYTE      USBCON
      000000B5H   SFRSYM    DATA     BYTE      IP2
      000000FFH   SFRSYM    DATA     BYTE      RSTCFG
      000000C7H   SFRSYM    DATA     BYTE      IAP_CONTR
      000000F9H   SFRSYM    DATA     BYTE      LINICR
      0000008EH   SFRSYM    DATA     BYTE      AUXR
      000000AFH   SFRSYM    DATA     BYTE      IE2
      00000088H   SFRSYM    DATA     BYTE      TCON
      00000089H   SFRSYM    DATA     BYTE      TMOD
      00000098H   SFRSYM    DATA     BYTE      SCON
      000000F1H   SFRSYM    DATA     BYTE      CANICR
      00000087H   SFRSYM    DATA     BYTE      PCON
      000000BCH   SFRSYM    DATA     BYTE      ADC_CONTR
      000000E7H   SFRSYM    DATA     BYTE      CMPCR2
      000000E6H   SFRSYM    DATA     BYTE      CMPCR1
      000000DEH   SFRSYM    DATA     BYTE      ADCCFG
      000000B8H   SFRSYM    DATA     BYTE      IP
      0000008FH   SFRSYM    DATA     BYTE      INTCLKO
L251 LINKER/LOCATER V4.66.93.0                                                        11/18/2024  23:30:20  PAGE 86


      000000EEH   SFRSYM    DATA     BYTE      IP3H
      000000B6H   SFRSYM    DATA     BYTE      IP2H
      000000A8H   SFRSYM    DATA     BYTE      IE
      000000BBH   SFRSYM    DATA     BYTE      P_SW3
      000000BAH   SFRSYM    DATA     BYTE      P_SW2
      000000A2H   SFRSYM    DATA     BYTE      P_SW1
      000000CEH   SFRSYM    DATA     BYTE      SPCTL
      000000F8H   SFRSYM    DATA     BYTE      P7
      000000E8H   SFRSYM    DATA     BYTE      P6
      000000C8H   SFRSYM    DATA     BYTE      P5
      000000C0H   SFRSYM    DATA     BYTE      P4
      000000B0H   SFRSYM    DATA     BYTE      P3
      000000A0H   SFRSYM    DATA     BYTE      P2
      00000090H   SFRSYM    DATA     BYTE      P1
      00000080H   SFRSYM    DATA     BYTE      P0
      00FF7169H   SYMBOL    CODE     ---       number_conversion_ascii
      00FF848BH   SYMBOL    CODE     ---       printf_reverse_order
      00FFB0B5H   SYMBOL    HCONST   ---       ?tpl?0001
      00001038H   SYMBOL    EDATA    DWORD     num1
      0000103CH   SYMBOL    EDATA    DWORD     num2
      000011EAH   SYMBOL    EDATA    LONG      t
      00000F55H   SYMBOL    EDATA    ---       str
      00000F59H   SYMBOL    EDATA    BYTE      sign
      00000F5AH   SYMBOL    EDATA    LONG      temp

      00FF7692H   BLOCK     CODE     ---       LVL=0
      00000AF7H   SYMBOL    EDATA    ---       str
      00000AFBH   SYMBOL    EDATA    LONG      number
      00FF769AH   BLOCK     CODE     NEAR LAB  LVL=1
      00000AFFH   SYMBOL    EDATA    ---       data_temp
      00000B0FH   SYMBOL    EDATA    BYTE      dat_bit
      00000B10H   SYMBOL    EDATA    LONG      number_temp
      ---         BLOCKEND  ---      ---       LVL=1
      00FF7692H   LINE      CODE     ---       #129
      00FF769AH   LINE      CODE     ---       #130
      00FF769AH   LINE      CODE     ---       #132
      00FF769FH   LINE      CODE     ---       #133
      00FF76A5H   LINE      CODE     ---       #135
      00FF76A5H   LINE      CODE     ---       #137
      00FF76B0H   LINE      CODE     ---       #139
      00FF76B0H   LINE      CODE     ---       #140
      00FF76B0H   LINE      CODE     ---       #142
      00FF76BAH   LINE      CODE     ---       #144
      00FF76CDH   LINE      CODE     ---       #145
      00FF76DFH   LINE      CODE     ---       #146
      00FF76E1H   LINE      CODE     ---       #147
      00FF76E9H   LINE      CODE     ---       #149
      00FF76F2H   LINE      CODE     ---       #150
      00FF76F5H   LINE      CODE     ---       #151
      00FF76F5H   LINE      CODE     ---       #153
      00FF76F7H   LINE      CODE     ---       #155
      00FF7706H   LINE      CODE     ---       #156
      00FF773AH   LINE      CODE     ---       #157
      00FF7749H   LINE      CODE     ---       #158
      00FF7751H   LINE      CODE     ---       #159
      00FF7753H   LINE      CODE     ---       #161
      00FF777BH   LINE      CODE     ---       #162
      00FF7787H   LINE      CODE     ---       #163
      00FF7790H   LINE      CODE     ---       #164
      00FF7790H   LINE      CODE     ---       #165
      ---         BLOCKEND  ---      ---       LVL=0
      00001040H   SYMBOL    EDATA    ---       str
      00001044H   SYMBOL    EDATA    DWORD     temp

      00FF8348H   BLOCK     CODE     ---       LVL=0
L251 LINKER/LOCATER V4.66.93.0                                                        11/18/2024  23:30:20  PAGE 87


      00000B4EH   SYMBOL    EDATA    ---       str
      00000B52H   SYMBOL    EDATA    DWORD     number
      00FF8350H   BLOCK     CODE     NEAR LAB  LVL=1
      00000B56H   SYMBOL    EDATA    ---       data_temp
      00000B66H   SYMBOL    EDATA    BYTE      dat_bit
      ---         BLOCKEND  ---      ---       LVL=1
      00FF8348H   LINE      CODE     ---       #203
      00FF8350H   LINE      CODE     ---       #204
      00FF8350H   LINE      CODE     ---       #207
      00FF8355H   LINE      CODE     ---       #209
      00FF8355H   LINE      CODE     ---       #211
      00FF8360H   LINE      CODE     ---       #213
      00FF8360H   LINE      CODE     ---       #214
      00FF8360H   LINE      CODE     ---       #216
      00FF8368H   LINE      CODE     ---       #218
      00FF8371H   LINE      CODE     ---       #219
      00FF8373H   LINE      CODE     ---       #220
      00FF8373H   LINE      CODE     ---       #222
      00FF8375H   LINE      CODE     ---       #224
      00FF839AH   LINE      CODE     ---       #225
      00FF83A9H   LINE      CODE     ---       #226
      00FF83B1H   LINE      CODE     ---       #227
      00FF83B3H   LINE      CODE     ---       #229
      00FF83DBH   LINE      CODE     ---       #230
      00FF83E7H   LINE      CODE     ---       #231
      00FF83F0H   LINE      CODE     ---       #232
      00FF83F0H   LINE      CODE     ---       #233
      ---         BLOCKEND  ---      ---       LVL=0
      00000C8FH   SYMBOL    EDATA    ---       str
      00000C93H   SYMBOL    EDATA    BYTE      sign
      00000C94H   SYMBOL    EDATA    FLOAT     temp
      00000C98H   SYMBOL    EDATA    FLOAT     temp_point
      00000C9CH   SYMBOL    EDATA    FLOAT     point_bit
      000009D5H   SYMBOL    EDATA    ---       str
      000009D9H   SYMBOL    EDATA    FLOAT     number
      000009DDH   SYMBOL    EDATA    BYTE      point_bit
      000009DEH   SYMBOL    EDATA    INT       data_int
      000009E0H   SYMBOL    EDATA    INT       data_float
      000009E2H   SYMBOL    EDATA    ---       data_temp
      000009F2H   SYMBOL    EDATA    ---       data_temp_point
      000009FEH   SYMBOL    EDATA    BYTE      dat_bit
      00000CA0H   SYMBOL    EDATA    ---       str
      00000CA4H   SYMBOL    EDATA    BYTE      sign
      00000CA5H   SYMBOL    EDATA    FLOAT     temp
      00000CA9H   SYMBOL    EDATA    FLOAT     temp_point
      00000CADH   SYMBOL    EDATA    FLOAT     point_bit

      00FF64AEH   BLOCK     CODE     ---       LVL=0
      00000718H   SYMBOL    EDATA    ---       str
      0000071CH   SYMBOL    EDATA    FLOAT     number
      00000720H   SYMBOL    EDATA    BYTE      point_bit
      00FF64BAH   BLOCK     CODE     NEAR LAB  LVL=1
      00000721H   SYMBOL    EDATA    INT       data_int
      00000723H   SYMBOL    EDATA    INT       data_float
      00000725H   SYMBOL    EDATA    ---       data_temp
      0000073DH   SYMBOL    EDATA    ---       data_temp_point
      0000074FH   SYMBOL    EDATA    BYTE      dat_bit
      ---         BLOCKEND  ---      ---       LVL=1
      00FF64AEH   LINE      CODE     ---       #449
      00FF64BAH   LINE      CODE     ---       #450
      00FF64BAH   LINE      CODE     ---       #452
      00FF64C0H   LINE      CODE     ---       #453
      00FF64C6H   LINE      CODE     ---       #456
      00FF64CEH   LINE      CODE     ---       #458
      00FF64CEH   LINE      CODE     ---       #460
L251 LINKER/LOCATER V4.66.93.0                                                        11/18/2024  23:30:20  PAGE 88


      00FF64D9H   LINE      CODE     ---       #462
      00FF64D9H   LINE      CODE     ---       #463
      00FF64D9H   LINE      CODE     ---       #466
      00FF64E4H   LINE      CODE     ---       #467
      00FF64EFH   LINE      CODE     ---       #469
      00FF6502H   LINE      CODE     ---       #470
      00FF6504H   LINE      CODE     ---       #471
      00FF650CH   LINE      CODE     ---       #473
      00FF651FH   LINE      CODE     ---       #474
      00FF6532H   LINE      CODE     ---       #475
      00FF653BH   LINE      CODE     ---       #476
      00FF653EH   LINE      CODE     ---       #477
      00FF653EH   LINE      CODE     ---       #480
      00FF6554H   LINE      CODE     ---       #481
      00FF6556H   LINE      CODE     ---       #483
      00FF6567H   LINE      CODE     ---       #484
      00FF657BH   LINE      CODE     ---       #485
      00FF6586H   LINE      CODE     ---       #488
      00FF658BH   LINE      CODE     ---       #489
      00FF658BH   LINE      CODE     ---       #491
      00FF65B3H   LINE      CODE     ---       #492
      00FF65C2H   LINE      CODE     ---       #493
      00FF65CCH   LINE      CODE     ---       #494
      00FF65CEH   LINE      CODE     ---       #496
      00FF6627H   LINE      CODE     ---       #497
      00FF6633H   LINE      CODE     ---       #498
      00FF663CH   LINE      CODE     ---       #501
      00FF6648H   LINE      CODE     ---       #503
      00FF664DH   LINE      CODE     ---       #504
      00FF6660H   LINE      CODE     ---       #505
      00FF666AH   LINE      CODE     ---       #506
      00FF6676H   LINE      CODE     ---       #509
      00FF6678H   LINE      CODE     ---       #511
      00FF66A0H   LINE      CODE     ---       #512
      00FF66AFH   LINE      CODE     ---       #513
      00FF66BBH   LINE      CODE     ---       #514
      00FF66C4H   LINE      CODE     ---       #515
      00FF66C6H   LINE      CODE     ---       #517
      00FF671FH   LINE      CODE     ---       #518
      00FF672BH   LINE      CODE     ---       #519
      00FF6734H   LINE      CODE     ---       #520
      00FF6734H   LINE      CODE     ---       #521
      00FF6734H   LINE      CODE     ---       #523
      ---         BLOCKEND  ---      ---       LVL=0
      00000CFCH   SYMBOL    EDATA    ---       str
      00000D00H   SYMBOL    EDATA    DWORD     str_len
      00000D04H   SYMBOL    EDATA    DWORD     result_data
      00000D08H   SYMBOL    EDATA    BYTE      temp
      00000D09H   SYMBOL    EDATA    BYTE      flag
      00000A51H   SYMBOL    EDATA    ---       str
      00000A55H   SYMBOL    EDATA    DWORD     number
      00000A59H   SYMBOL    EDATA    ---       hex_index
      00000A69H   SYMBOL    EDATA    ---       data_temp
      00000A75H   SYMBOL    EDATA    BYTE      dat_bit

      00FF7169H   BLOCK     CODE     ---       LVL=0
      00000C33H   SYMBOL    EDATA    DWORD     dat
      00000C37H   SYMBOL    EDATA    ---       p
      00000C3BH   SYMBOL    EDATA    BYTE      neg_type
      00000C3CH   SYMBOL    EDATA    BYTE      radix
      00FF7175H   BLOCK     CODE     NEAR LAB  LVL=1
      00000C3DH   SYMBOL    EDATA    LONG      neg_dat
      00000C41H   SYMBOL    EDATA    DWORD     pos_dat
      00000C45H   SYMBOL    EDATA    BYTE      temp_data
      00000C46H   SYMBOL    EDATA    BYTE      valid_num
L251 LINKER/LOCATER V4.66.93.0                                                        11/18/2024  23:30:20  PAGE 89


      ---         BLOCKEND  ---      ---       LVL=1
      00FF7169H   LINE      CODE     ---       #639
      00FF7175H   LINE      CODE     ---       #640
      00FF7175H   LINE      CODE     ---       #643
      00FF717AH   LINE      CODE     ---       #644
      00FF717FH   LINE      CODE     ---       #646
      00FF7188H   LINE      CODE     ---       #648
      00FF7190H   LINE      CODE     ---       #649
      00FF7196H   LINE      CODE     ---       #651
      00FF71A8H   LINE      CODE     ---       #652
      00FF71A8H   LINE      CODE     ---       #653
      00FF71A8H   LINE      CODE     ---       #655
      00FF71C4H   LINE      CODE     ---       #656
      00FF71D7H   LINE      CODE     ---       #657
      00FF71E4H   LINE      CODE     ---       #659
      00FF71ECH   LINE      CODE     ---       #661
      00FF71ECH   LINE      CODE     ---       #662
      00FF71ECH   LINE      CODE     ---       #663
      00FF71F6H   LINE      CODE     ---       #664
      00FF71F8H   LINE      CODE     ---       #665
      00FF71FBH   LINE      CODE     ---       #668
      00FF7203H   LINE      CODE     ---       #669
      00FF7203H   LINE      CODE     ---       #671
      00FF7218H   LINE      CODE     ---       #672
      00FF7222H   LINE      CODE     ---       #674
      00FF722EH   LINE      CODE     ---       #675
      00FF7230H   LINE      CODE     ---       #678
      00FF723CH   LINE      CODE     ---       #679
      00FF723CH   LINE      CODE     ---       #681
      00FF7247H   LINE      CODE     ---       #683
      00FF725AH   LINE      CODE     ---       #684
      00FF7267H   LINE      CODE     ---       #686
      00FF726FH   LINE      CODE     ---       #688
      00FF726FH   LINE      CODE     ---       #689
      00FF726FH   LINE      CODE     ---       #690
      00FF7279H   LINE      CODE     ---       #691
      00FF727BH   LINE      CODE     ---       #692
      00FF727BH   LINE      CODE     ---       #693
      00FF727FH   LINE      CODE     ---       #694
      ---         BLOCKEND  ---      ---       LVL=0

      00FF848BH   BLOCK     CODE     ---       LVL=0
      00000D4FH   SYMBOL    EDATA    ---       d_buff
      00000D53H   SYMBOL    EDATA    DWORD     len
      00FF8493H   BLOCK     CODE     NEAR LAB  LVL=1
      00000D57H   SYMBOL    EDATA    DWORD     i
      00000D5BH   SYMBOL    EDATA    CHAR      temp_data
      ---         BLOCKEND  ---      ---       LVL=1
      00FF848BH   LINE      CODE     ---       #704
      00FF8493H   LINE      CODE     ---       #705
      00FF8493H   LINE      CODE     ---       #708
      00FF849BH   LINE      CODE     ---       #710
      00FF84BAH   LINE      CODE     ---       #711
      00FF84E4H   LINE      CODE     ---       #712
      00FF84F7H   LINE      CODE     ---       #713
      00FF851FH   LINE      CODE     ---       #714
      ---         BLOCKEND  ---      ---       LVL=0

      00FF474AH   BLOCK     CODE     ---       LVL=0
      000005EFH   SYMBOL    EDATA    ---       buff
      000005F3H   SYMBOL    EDATA    ---       format
      00FF4752H   BLOCK     CODE     NEAR LAB  LVL=1
      000005F7H   SYMBOL    EDATA    DWORD     buff_len
      000005FBH   SYMBOL    EDATA    ---       arg
      00FF4767H   BLOCK     CODE     NEAR LAB  LVL=2
L251 LINKER/LOCATER V4.66.93.0                                                        11/18/2024  23:30:20  PAGE 90


      000005FFH   SYMBOL    EDATA    CHAR      ret
      00FF489CH   BLOCK     CODE     NEAR LAB  LVL=3
      00000600H   SYMBOL    EDATA    CHAR      ch
      ---         BLOCKEND  ---      ---       LVL=3
      00FF48DBH   BLOCK     CODE     NEAR LAB  LVL=3
      00000600H   SYMBOL    EDATA    ---       vstr
      00000621H   SYMBOL    EDATA    LONG      ival
      00000625H   SYMBOL    EDATA    BYTE      vlen
      ---         BLOCKEND  ---      ---       LVL=3
      00FF497CH   BLOCK     CODE     NEAR LAB  LVL=3
      00000600H   SYMBOL    EDATA    ---       vstr
      00000621H   SYMBOL    EDATA    FLOAT     ival
      00000625H   SYMBOL    EDATA    BYTE      vlen
      ---         BLOCKEND  ---      ---       LVL=3
      00FF4B1DH   BLOCK     CODE     NEAR LAB  LVL=3
      00000600H   SYMBOL    EDATA    ---       vstr
      00000621H   SYMBOL    EDATA    DWORD     ival
      00000625H   SYMBOL    EDATA    BYTE      vlen
      ---         BLOCKEND  ---      ---       LVL=3
      00FF4B95H   BLOCK     CODE     NEAR LAB  LVL=3
      00000600H   SYMBOL    EDATA    ---       vstr
      00000621H   SYMBOL    EDATA    DWORD     ival
      00000625H   SYMBOL    EDATA    BYTE      vlen
      ---         BLOCKEND  ---      ---       LVL=3
      00FF4C0DH   BLOCK     CODE     NEAR LAB  LVL=3
      00000600H   SYMBOL    EDATA    ---       vstr
      00000621H   SYMBOL    EDATA    DWORD     ival
      00000625H   SYMBOL    EDATA    BYTE      vlen
      ---         BLOCKEND  ---      ---       LVL=3
      00FF4C85H   BLOCK     CODE     NEAR LAB  LVL=3
      00000600H   SYMBOL    EDATA    ---       pc
      ---         BLOCKEND  ---      ---       LVL=3
      00FF4CDFH   BLOCK     CODE     NEAR LAB  LVL=3
      00000600H   SYMBOL    EDATA    ---       vstr
      00000621H   SYMBOL    EDATA    DWORD     ival
      ---         BLOCKEND  ---      ---       LVL=3
      ---         BLOCKEND  ---      ---       LVL=2
      ---         BLOCKEND  ---      ---       LVL=1
      00FF474AH   LINE      CODE     ---       #725
      00FF4752H   LINE      CODE     ---       #726
      00FF4752H   LINE      CODE     ---       #727
      00FF4758H   LINE      CODE     ---       #729
      00FF4764H   LINE      CODE     ---       #731
      00FF4767H   LINE      CODE     ---       #732
      00FF4767H   LINE      CODE     ---       #733
      00FF4772H   LINE      CODE     ---       #734
      00FF477EH   LINE      CODE     ---       #736
      00FF4899H   LINE      CODE     ---       #738
      00FF4899H   LINE      CODE     ---       #742
      00FF489CH   LINE      CODE     ---       #745
      00FF489CH   LINE      CODE     ---       #746
      00FF489CH   LINE      CODE     ---       #747
      00FF48B5H   LINE      CODE     ---       #748
      00FF48C0H   LINE      CODE     ---       #749
      00FF48CAH   LINE      CODE     ---       #750
      00FF48D8H   LINE      CODE     ---       #752
      00FF48DBH   LINE      CODE     ---       #755
      00FF48DBH   LINE      CODE     ---       #756
      00FF48DBH   LINE      CODE     ---       #757
      00FF48DBH   LINE      CODE     ---       #759
      00FF48F4H   LINE      CODE     ---       #760
      00FF490BH   LINE      CODE     ---       #762
      00FF4915H   LINE      CODE     ---       #764
      00FF4926H   LINE      CODE     ---       #765
      00FF4933H   LINE      CODE     ---       #766
L251 LINKER/LOCATER V4.66.93.0                                                        11/18/2024  23:30:20  PAGE 91


      00FF4933H   LINE      CODE     ---       #767
      00FF4942H   LINE      CODE     ---       #768
      00FF4957H   LINE      CODE     ---       #769
      00FF4967H   LINE      CODE     ---       #770
      00FF4979H   LINE      CODE     ---       #773
      00FF497CH   LINE      CODE     ---       #775
      00FF497CH   LINE      CODE     ---       #776
      00FF497CH   LINE      CODE     ---       #777
      00FF497CH   LINE      CODE     ---       #779
      00FF4995H   LINE      CODE     ---       #780
      00FF49AFH   LINE      CODE     ---       #782
      00FF49BAH   LINE      CODE     ---       #784
      00FF49CBH   LINE      CODE     ---       #785
      00FF49D8H   LINE      CODE     ---       #786
      00FF49D8H   LINE      CODE     ---       #787
      00FF49E7H   LINE      CODE     ---       #788
      00FF49FCH   LINE      CODE     ---       #789
      00FF4A0CH   LINE      CODE     ---       #790
      00FF4A1EH   LINE      CODE     ---       #792
      00FF4A42H   LINE      CODE     ---       #793
      00FF4A46H   LINE      CODE     ---       #795
      00FF4A60H   LINE      CODE     ---       #796
      00FF4A62H   LINE      CODE     ---       #799
      00FF4A86H   LINE      CODE     ---       #800
      00FF4A8CH   LINE      CODE     ---       #801
      00FF4A8CH   LINE      CODE     ---       #803
      00FF4A8EH   LINE      CODE     ---       #805
      00FF4A9FH   LINE      CODE     ---       #806
      00FF4AACH   LINE      CODE     ---       #807
      00FF4AB6H   LINE      CODE     ---       #809
      00FF4AC7H   LINE      CODE     ---       #810
      00FF4AD4H   LINE      CODE     ---       #812
      00FF4AE3H   LINE      CODE     ---       #813
      00FF4AF8H   LINE      CODE     ---       #814
      00FF4B08H   LINE      CODE     ---       #815
      00FF4B1AH   LINE      CODE     ---       #817
      00FF4B1DH   LINE      CODE     ---       #820
      00FF4B1DH   LINE      CODE     ---       #821
      00FF4B1DH   LINE      CODE     ---       #823
      00FF4B36H   LINE      CODE     ---       #824
      00FF4B4CH   LINE      CODE     ---       #826
      00FF4B5BH   LINE      CODE     ---       #827
      00FF4B70H   LINE      CODE     ---       #828
      00FF4B80H   LINE      CODE     ---       #829
      00FF4B92H   LINE      CODE     ---       #830
      00FF4B95H   LINE      CODE     ---       #832
      00FF4B95H   LINE      CODE     ---       #833
      00FF4B95H   LINE      CODE     ---       #835
      00FF4BAEH   LINE      CODE     ---       #836
      00FF4BC4H   LINE      CODE     ---       #838
      00FF4BD3H   LINE      CODE     ---       #839
      00FF4BE8H   LINE      CODE     ---       #840
      00FF4BF8H   LINE      CODE     ---       #841
      00FF4C0AH   LINE      CODE     ---       #843
      00FF4C0DH   LINE      CODE     ---       #845
      00FF4C0DH   LINE      CODE     ---       #846
      00FF4C0DH   LINE      CODE     ---       #847
      00FF4C0DH   LINE      CODE     ---       #849
      00FF4C26H   LINE      CODE     ---       #850
      00FF4C3CH   LINE      CODE     ---       #852
      00FF4C4BH   LINE      CODE     ---       #853
      00FF4C60H   LINE      CODE     ---       #854
      00FF4C70H   LINE      CODE     ---       #855
      00FF4C82H   LINE      CODE     ---       #856
      00FF4C85H   LINE      CODE     ---       #859
L251 LINKER/LOCATER V4.66.93.0                                                        11/18/2024  23:30:20  PAGE 92


      00FF4C85H   LINE      CODE     ---       #860
      00FF4C85H   LINE      CODE     ---       #861
      00FF4C9EH   LINE      CODE     ---       #862
      00FF4CA0H   LINE      CODE     ---       #864
      00FF4CAEH   LINE      CODE     ---       #865
      00FF4CB8H   LINE      CODE     ---       #866
      00FF4CC6H   LINE      CODE     ---       #867
      00FF4CD0H   LINE      CODE     ---       #868
      00FF4CDCH   LINE      CODE     ---       #869
      00FF4CDFH   LINE      CODE     ---       #871
      00FF4CDFH   LINE      CODE     ---       #872
      00FF4CDFH   LINE      CODE     ---       #874
      00FF4CF8H   LINE      CODE     ---       #876
      00FF4D0AH   LINE      CODE     ---       #878
      00FF4D15H   LINE      CODE     ---       #879
      00FF4D28H   LINE      CODE     ---       #880
      00FF4D34H   LINE      CODE     ---       #881
      00FF4D42H   LINE      CODE     ---       #883
      00FF4D44H   LINE      CODE     ---       #886
      00FF4D44H   LINE      CODE     ---       #888
      00FF4D4DH   LINE      CODE     ---       #889
      00FF4D57H   LINE      CODE     ---       #890
      00FF4D65H   LINE      CODE     ---       #891
      00FF4D67H   LINE      CODE     ---       #893
      00FF4D67H   LINE      CODE     ---       #894
      00FF4D67H   LINE      CODE     ---       #895
      00FF4D67H   LINE      CODE     ---       #898
      00FF4D75H   LINE      CODE     ---       #899
      00FF4D7FH   LINE      CODE     ---       #900
      00FF4D8DH   LINE      CODE     ---       #901
      00FF4D8DH   LINE      CODE     ---       #902
      00FF4D97H   LINE      CODE     ---       #903
      00FF4DA6H   LINE      CODE     ---       #906
      00FF4DAAH   LINE      CODE     ---       #907
      ---         BLOCKEND  ---      ---       LVL=0

      ---         MODULE    ---      ---       SEEKFREE_ICM20602
      00000DD5H   PUBLIC    EDATA    INT       icm20602_acc_x
      00000DD7H   PUBLIC    EDATA    INT       icm20602_acc_y
      00000DD9H   PUBLIC    EDATA    INT       icm20602_acc_z
      00000DDBH   PUBLIC    EDATA    INT       icm20602_gyro_x
      00000DDDH   PUBLIC    EDATA    INT       icm20602_gyro_y
      00000DDFH   PUBLIC    EDATA    INT       icm20602_gyro_z
      000000D0H   SFRSYM    DATA     BYTE      PSW
      0000009DH   SFRSYM    DATA     BYTE      IRCBAND
      00000097H   SFRSYM    DATA     BYTE      AUXR2
      000000EFH   SFRSYM    DATA     BYTE      AUXINTIF
      000000FDH   SFRSYM    DATA     BYTE      S4CON
      000000ACH   SFRSYM    DATA     BYTE      S3CON
      0000009AH   SFRSYM    DATA     BYTE      S2CON
      000000B7H   SFRSYM    DATA     BYTE      IPH
      000000CDH   SFRSYM    DATA     BYTE      SPSTAT
      000000DDH   SFRSYM    DATA     BYTE      T4T3M
      000000C1H   SFRSYM    DATA     BYTE      WDT_CONTR
      000000DFH   SFRSYM    DATA     BYTE      IP3
      000000F4H   SFRSYM    DATA     BYTE      USBCON
      000000B5H   SFRSYM    DATA     BYTE      IP2
      000000FFH   SFRSYM    DATA     BYTE      RSTCFG
      000000C7H   SFRSYM    DATA     BYTE      IAP_CONTR
      000000F9H   SFRSYM    DATA     BYTE      LINICR
      0000008EH   SFRSYM    DATA     BYTE      AUXR
      000000AFH   SFRSYM    DATA     BYTE      IE2
      000000C0H.3 SFRSYM    DATA     BIT       P43
      000000C0H.2 SFRSYM    DATA     BIT       P42
      00000088H   SFRSYM    DATA     BYTE      TCON
L251 LINKER/LOCATER V4.66.93.0                                                        11/18/2024  23:30:20  PAGE 93


      00000089H   SFRSYM    DATA     BYTE      TMOD
      000000C0H.1 SFRSYM    DATA     BIT       P41
      00000098H   SFRSYM    DATA     BYTE      SCON
      000000C0H.0 SFRSYM    DATA     BIT       P40
      000000F1H   SFRSYM    DATA     BYTE      CANICR
      00000087H   SFRSYM    DATA     BYTE      PCON
      000000BCH   SFRSYM    DATA     BYTE      ADC_CONTR
      000000E7H   SFRSYM    DATA     BYTE      CMPCR2
      000000E6H   SFRSYM    DATA     BYTE      CMPCR1
      000000DEH   SFRSYM    DATA     BYTE      ADCCFG
      000000B8H   SFRSYM    DATA     BYTE      IP
      0000008FH   SFRSYM    DATA     BYTE      INTCLKO
      000000EEH   SFRSYM    DATA     BYTE      IP3H
      000000B6H   SFRSYM    DATA     BYTE      IP2H
      000000A8H   SFRSYM    DATA     BYTE      IE
      000000BBH   SFRSYM    DATA     BYTE      P_SW3
      000000BAH   SFRSYM    DATA     BYTE      P_SW2
      000000A2H   SFRSYM    DATA     BYTE      P_SW1
      000000CEH   SFRSYM    DATA     BYTE      SPCTL
      000000F8H   SFRSYM    DATA     BYTE      P7
      000000E8H   SFRSYM    DATA     BYTE      P6
      000000C8H   SFRSYM    DATA     BYTE      P5
      000000C0H   SFRSYM    DATA     BYTE      P4
      000000B0H   SFRSYM    DATA     BYTE      P3
      000000A0H   SFRSYM    DATA     BYTE      P2
      00000090H   SFRSYM    DATA     BYTE      P1
      00000080H   SFRSYM    DATA     BYTE      P0
      00FFA720H   SYMBOL    CODE     ---       icm20602_read_register
      00FFA7E2H   SYMBOL    CODE     ---       icm20602_write_register
      00FF9506H   SYMBOL    CODE     ---       icm20602_simspi_wr_byte
      00FF9A58H   SYMBOL    CODE     ---       icm20602_self_check
      00FF99B6H   SYMBOL    CODE     ---       icm20602_simspi_r_reg_bytes
      00FFA4CFH   SYMBOL    CODE     ---       icm20602_simspi_r_reg_byte
      00FFA778H   SYMBOL    CODE     ---       icm20602_simspi_w_reg_byte
      00FFA4F6H   SYMBOL    CODE     ---       icm20602_read_registers

      00FF9506H   BLOCK     CODE     ---       LVL=0
      00001283H   SYMBOL    EDATA    BYTE      byte
      00FF950AH   BLOCK     CODE     NEAR LAB  LVL=1
      00001284H   SYMBOL    EDATA    BYTE      i
      ---         BLOCKEND  ---      ---       LVL=1
      00FF9506H   LINE      CODE     ---       #278
      00FF950AH   LINE      CODE     ---       #279
      00FF950AH   LINE      CODE     ---       #282
      00FF9511H   LINE      CODE     ---       #284
      00FF951FH   LINE      CODE     ---       #285
      00FF9529H   LINE      CODE     ---       #286
      00FF952CH   LINE      CODE     ---       #287
      00FF952FH   LINE      CODE     ---       #289
      00FF9532H   LINE      CODE     ---       #290
      00FF9535H   LINE      CODE     ---       #291
      00FF9543H   LINE      CODE     ---       #292
      00FF955AH   LINE      CODE     ---       #293
      00FF955EH   LINE      CODE     ---       #294
      ---         BLOCKEND  ---      ---       LVL=0

      00FFA778H   BLOCK     CODE     ---       LVL=0
      00001285H   SYMBOL    EDATA    BYTE      cmd
      00001286H   SYMBOL    EDATA    BYTE      val
      00FFA778H   LINE      CODE     ---       #302
      00FFA780H   LINE      CODE     ---       #305
      00FFA784H   LINE      CODE     ---       #306
      00FFA78BH   LINE      CODE     ---       #307
      00FFA792H   LINE      CODE     ---       #309
      ---         BLOCKEND  ---      ---       LVL=0
L251 LINKER/LOCATER V4.66.93.0                                                        11/18/2024  23:30:20  PAGE 94



      00FFA4CFH   BLOCK     CODE     ---       LVL=0
      000011A4H   SYMBOL    EDATA    BYTE      cmd
      000011A5H   SYMBOL    EDATA    ---       val
      00FFA4CFH   LINE      CODE     ---       #340
      00FFA4D7H   LINE      CODE     ---       #343
      00FFA4E3H   LINE      CODE     ---       #344
      00FFA4EAH   LINE      CODE     ---       #345
      00FFA4F5H   LINE      CODE     ---       #347
      ---         BLOCKEND  ---      ---       LVL=0

      00FF99B6H   BLOCK     CODE     ---       LVL=0
      00000D5CH   SYMBOL    EDATA    BYTE      cmd
      00000D5DH   SYMBOL    EDATA    ---       val
      00000D61H   SYMBOL    EDATA    DWORD     num
      00FF99C2H   BLOCK     CODE     NEAR LAB  LVL=1
      00000D65H   SYMBOL    EDATA    DWORD     i
      ---         BLOCKEND  ---      ---       LVL=1
      00FF99B6H   LINE      CODE     ---       #357
      00FF99C2H   LINE      CODE     ---       #358
      00FF99C2H   LINE      CODE     ---       #359
      00FF99C8H   LINE      CODE     ---       #360
      00FF99D4H   LINE      CODE     ---       #361
      00FF99DBH   LINE      CODE     ---       #363
      00FF99DDH   LINE      CODE     ---       #365
      00FF99F2H   LINE      CODE     ---       #366
      00FF9A06H   LINE      CODE     ---       #367
      ---         BLOCKEND  ---      ---       LVL=0

      00FFA7E2H   BLOCK     CODE     ---       LVL=0
      00001287H   SYMBOL    EDATA    BYTE      reg
      00001288H   SYMBOL    EDATA    BYTE      dat
      00FFA7E2H   LINE      CODE     ---       #378
      00FFA7EAH   LINE      CODE     ---       #380
      00FFA7EDH   LINE      CODE     ---       #381
      00FFA7F8H   LINE      CODE     ---       #382
      00FFA7FBH   LINE      CODE     ---       #383
      ---         BLOCKEND  ---      ---       LVL=0

      00FFA720H   BLOCK     CODE     ---       LVL=0
      00001289H   SYMBOL    EDATA    BYTE      reg
      00FFA724H   BLOCK     CODE     NEAR LAB  LVL=1
      0000128AH   SYMBOL    EDATA    BYTE      dat
      ---         BLOCKEND  ---      ---       LVL=1
      00FFA720H   LINE      CODE     ---       #407
      00FFA724H   LINE      CODE     ---       #408
      00FFA724H   LINE      CODE     ---       #410
      00FFA727H   LINE      CODE     ---       #411
      00FFA736H   LINE      CODE     ---       #412
      00FFA739H   LINE      CODE     ---       #413
      00FFA73DH   LINE      CODE     ---       #414
      ---         BLOCKEND  ---      ---       LVL=0

      00FFA4F6H   BLOCK     CODE     ---       LVL=0
      00000F5EH   SYMBOL    EDATA    BYTE      reg
      00000F5FH   SYMBOL    EDATA    ---       dat
      00000F63H   SYMBOL    EDATA    DWORD     len
      00FFA4F6H   LINE      CODE     ---       #425
      00FFA502H   LINE      CODE     ---       #427
      00FFA505H   LINE      CODE     ---       #428
      00FFA518H   LINE      CODE     ---       #429
      00FFA51BH   LINE      CODE     ---       #430
      ---         BLOCKEND  ---      ---       LVL=0

      00FF9A58H   BLOCK     CODE     ---       LVL=0
L251 LINKER/LOCATER V4.66.93.0                                                        11/18/2024  23:30:20  PAGE 95


      000011EEH   SYMBOL    EDATA    BYTE      dat
      000011EFH   SYMBOL    EDATA    BYTE      return_state
      000011F0H   SYMBOL    EDATA    WORD      timeout_count
      00FF9A58H   LINE      CODE     ---       #442
      00FF9A58H   LINE      CODE     ---       #443
      00FF9A58H   LINE      CODE     ---       #444
      00FF9A62H   LINE      CODE     ---       #445
      00FF9A68H   LINE      CODE     ---       #447
      00FF9A6AH   LINE      CODE     ---       #449
      00FF9A80H   LINE      CODE     ---       #451
      00FF9A86H   LINE      CODE     ---       #452
      00FF9A88H   LINE      CODE     ---       #453
      00FF9A88H   LINE      CODE     ---       #454
      00FF9A91H   LINE      CODE     ---       #456
      00FF9A98H   LINE      CODE     ---       #457
      00FF9AA1H   LINE      CODE     ---       #458
      00FF9AA5H   LINE      CODE     ---       #459
      ---         BLOCKEND  ---      ---       LVL=0
      00001106H   SYMBOL    EDATA    ---       dat
      0000110CH   SYMBOL    EDATA    ---       dat
      00001112H   SYMBOL    EDATA    INT       acc_value
      00001114H   SYMBOL    EDATA    FLOAT     acc_data
      00001118H   SYMBOL    EDATA    INT       gyro_value
      0000111AH   SYMBOL    EDATA    FLOAT     gyro_data
      000011F2H   SYMBOL    EDATA    BYTE      val
      000011F3H   SYMBOL    EDATA    BYTE      return_state
      000011F4H   SYMBOL    EDATA    WORD      timeout_count

      ---         MODULE    ---      ---       SEEKFREE_IMU660RA
      00000DE1H   PUBLIC    EDATA    INT       imu660ra_acc_x
      00000DE3H   PUBLIC    EDATA    INT       imu660ra_acc_y
      00000DE5H   PUBLIC    EDATA    INT       imu660ra_acc_z
      00000DE7H   PUBLIC    EDATA    INT       imu660ra_gyro_x
      00000DE9H   PUBLIC    EDATA    INT       imu660ra_gyro_y
      00000DEBH   PUBLIC    EDATA    INT       imu660ra_gyro_z
      000000D0H   SFRSYM    DATA     BYTE      PSW
      0000009DH   SFRSYM    DATA     BYTE      IRCBAND
      00000097H   SFRSYM    DATA     BYTE      AUXR2
      000000EFH   SFRSYM    DATA     BYTE      AUXINTIF
      000000FDH   SFRSYM    DATA     BYTE      S4CON
      000000ACH   SFRSYM    DATA     BYTE      S3CON
      0000009AH   SFRSYM    DATA     BYTE      S2CON
      000000B7H   SFRSYM    DATA     BYTE      IPH
      000000CDH   SFRSYM    DATA     BYTE      SPSTAT
      000000DDH   SFRSYM    DATA     BYTE      T4T3M
      000000C1H   SFRSYM    DATA     BYTE      WDT_CONTR
      000000DFH   SFRSYM    DATA     BYTE      IP3
      000000F4H   SFRSYM    DATA     BYTE      USBCON
      000000B5H   SFRSYM    DATA     BYTE      IP2
      000000FFH   SFRSYM    DATA     BYTE      RSTCFG
      000000C7H   SFRSYM    DATA     BYTE      IAP_CONTR
      000000F9H   SFRSYM    DATA     BYTE      LINICR
      0000008EH   SFRSYM    DATA     BYTE      AUXR
      000000AFH   SFRSYM    DATA     BYTE      IE2
      000000C0H.3 SFRSYM    DATA     BIT       P43
      000000C0H.2 SFRSYM    DATA     BIT       P42
      00000088H   SFRSYM    DATA     BYTE      TCON
      00000089H   SFRSYM    DATA     BYTE      TMOD
      000000C0H.1 SFRSYM    DATA     BIT       P41
      00000098H   SFRSYM    DATA     BYTE      SCON
      000000C0H.0 SFRSYM    DATA     BIT       P40
      000000F1H   SFRSYM    DATA     BYTE      CANICR
      00000087H   SFRSYM    DATA     BYTE      PCON
      000000BCH   SFRSYM    DATA     BYTE      ADC_CONTR
      000000E7H   SFRSYM    DATA     BYTE      CMPCR2
L251 LINKER/LOCATER V4.66.93.0                                                        11/18/2024  23:30:20  PAGE 96


      000000E6H   SFRSYM    DATA     BYTE      CMPCR1
      000000DEH   SFRSYM    DATA     BYTE      ADCCFG
      000000B8H   SFRSYM    DATA     BYTE      IP
      0000008FH   SFRSYM    DATA     BYTE      INTCLKO
      000000EEH   SFRSYM    DATA     BYTE      IP3H
      000000B6H   SFRSYM    DATA     BYTE      IP2H
      000000A8H   SFRSYM    DATA     BYTE      IE
      000000BBH   SFRSYM    DATA     BYTE      P_SW3
      000000BAH   SFRSYM    DATA     BYTE      P_SW2
      000000A2H   SFRSYM    DATA     BYTE      P_SW1
      000000CEH   SFRSYM    DATA     BYTE      SPCTL
      000000F8H   SFRSYM    DATA     BYTE      P7
      000000E8H   SFRSYM    DATA     BYTE      P6
      000000C8H   SFRSYM    DATA     BYTE      P5
      000000C0H   SFRSYM    DATA     BYTE      P4
      000000B0H   SFRSYM    DATA     BYTE      P3
      000000A0H   SFRSYM    DATA     BYTE      P2
      00000090H   SFRSYM    DATA     BYTE      P1
      00000080H   SFRSYM    DATA     BYTE      P0
      00FFA5F7H   SYMBOL    CODE     ---       imu660ra_read_register
      00FFA619H   SYMBOL    CODE     ---       imu660ra_write_registers
      00FFA7FCH   SYMBOL    CODE     ---       imu660ra_write_register
      00FF955FH   SYMBOL    CODE     ---       imu660ra_simspi_wr_byte
      00FF9C6EH   SYMBOL    CODE     ---       imu660ra_self_check
      00FF9CB9H   SYMBOL    CODE     ---       imu660ra_simspi_r_reg_bytes
      00FF9FF3H   SYMBOL    CODE     ---       imu660ra_simspi_w_reg_bytes
      00FFA793H   SYMBOL    CODE     ---       imu660ra_simspi_w_reg_byte

      00FF955FH   BLOCK     CODE     ---       LVL=0
      0000128BH   SYMBOL    EDATA    BYTE      byte
      00FF9563H   BLOCK     CODE     NEAR LAB  LVL=1
      0000128CH   SYMBOL    EDATA    BYTE      i
      ---         BLOCKEND  ---      ---       LVL=1
      00FF955FH   LINE      CODE     ---       #310
      00FF9563H   LINE      CODE     ---       #311
      00FF9563H   LINE      CODE     ---       #314
      00FF956AH   LINE      CODE     ---       #316
      00FF9578H   LINE      CODE     ---       #317
      00FF9582H   LINE      CODE     ---       #318
      00FF9585H   LINE      CODE     ---       #319
      00FF9588H   LINE      CODE     ---       #320
      00FF958BH   LINE      CODE     ---       #321
      00FF958EH   LINE      CODE     ---       #323
      00FF959CH   LINE      CODE     ---       #324
      00FF95B3H   LINE      CODE     ---       #325
      00FF95B7H   LINE      CODE     ---       #326
      ---         BLOCKEND  ---      ---       LVL=0

      00FFA793H   BLOCK     CODE     ---       LVL=0
      0000128DH   SYMBOL    EDATA    BYTE      cmd
      0000128EH   SYMBOL    EDATA    BYTE      val
      00FFA793H   LINE      CODE     ---       #334
      00FFA79BH   LINE      CODE     ---       #336
      00FFA79FH   LINE      CODE     ---       #337
      00FFA7A6H   LINE      CODE     ---       #338
      00FFA7ADH   LINE      CODE     ---       #339
      ---         BLOCKEND  ---      ---       LVL=0

      00FF9FF3H   BLOCK     CODE     ---       LVL=0
      00000F67H   SYMBOL    EDATA    BYTE      cmd
      00000F68H   SYMBOL    EDATA    ---       dat_addr
      00000F6CH   SYMBOL    EDATA    DWORD     len
      00FF9FF3H   LINE      CODE     ---       #349
      00FF9FFFH   LINE      CODE     ---       #351
      00FFA003H   LINE      CODE     ---       #352
L251 LINKER/LOCATER V4.66.93.0                                                        11/18/2024  23:30:20  PAGE 97


      00FFA00AH   LINE      CODE     ---       #353
      00FFA00CH   LINE      CODE     ---       #355
      00FFA01CH   LINE      CODE     ---       #356
      00FFA030H   LINE      CODE     ---       #357
      ---         BLOCKEND  ---      ---       LVL=0

      00FF9CB9H   BLOCK     CODE     ---       LVL=0
      00000F70H   SYMBOL    EDATA    BYTE      cmd
      00000F71H   SYMBOL    EDATA    ---       val
      00000F75H   SYMBOL    EDATA    DWORD     num
      00FF9CB9H   LINE      CODE     ---       #383
      00FF9CC5H   LINE      CODE     ---       #385
      00FF9CD1H   LINE      CODE     ---       #386
      00FF9CD8H   LINE      CODE     ---       #388
      00FF9CDAH   LINE      CODE     ---       #390
      00FF9CEFH   LINE      CODE     ---       #391
      00FF9D03H   LINE      CODE     ---       #392
      ---         BLOCKEND  ---      ---       LVL=0

      00FFA7FCH   BLOCK     CODE     ---       LVL=0
      0000128FH   SYMBOL    EDATA    BYTE      reg
      00001290H   SYMBOL    EDATA    BYTE      dat
      00FFA7FCH   LINE      CODE     ---       #403
      00FFA804H   LINE      CODE     ---       #405
      00FFA807H   LINE      CODE     ---       #406
      00FFA812H   LINE      CODE     ---       #407
      00FFA815H   LINE      CODE     ---       #408
      ---         BLOCKEND  ---      ---       LVL=0

      00FFA619H   BLOCK     CODE     ---       LVL=0
      00000F79H   SYMBOL    EDATA    BYTE      reg
      00000F7AH   SYMBOL    EDATA    ---       dat
      00000F7EH   SYMBOL    EDATA    DWORD     len
      00FFA619H   LINE      CODE     ---       #418
      00FFA625H   LINE      CODE     ---       #420
      00FFA628H   LINE      CODE     ---       #422
      00FFA637H   LINE      CODE     ---       #423
      00FFA63AH   LINE      CODE     ---       #424
      ---         BLOCKEND  ---      ---       LVL=0

      00FFA5F7H   BLOCK     CODE     ---       LVL=0
      00001249H   SYMBOL    EDATA    BYTE      reg
      00FFA5FBH   BLOCK     CODE     NEAR LAB  LVL=1
      0000124AH   SYMBOL    EDATA    ---       dat
      ---         BLOCKEND  ---      ---       LVL=1
      00FFA5F7H   LINE      CODE     ---       #433
      00FFA5FBH   LINE      CODE     ---       #434
      00FFA5FBH   LINE      CODE     ---       #436
      00FFA5FEH   LINE      CODE     ---       #437
      00FFA611H   LINE      CODE     ---       #438
      00FFA614H   LINE      CODE     ---       #439
      00FFA618H   LINE      CODE     ---       #440
      ---         BLOCKEND  ---      ---       LVL=0
      00000F82H   SYMBOL    EDATA    BYTE      reg
      00000F83H   SYMBOL    EDATA    ---       dat
      00000F87H   SYMBOL    EDATA    DWORD     len

      00FF9C6EH   BLOCK     CODE     ---       LVL=0
      000011F6H   SYMBOL    EDATA    BYTE      dat
      000011F7H   SYMBOL    EDATA    BYTE      return_state
      000011F8H   SYMBOL    EDATA    WORD      timeout_count
      00FF9C6EH   LINE      CODE     ---       #466
      00FF9C6EH   LINE      CODE     ---       #467
      00FF9C6EH   LINE      CODE     ---       #468
      00FF9C78H   LINE      CODE     ---       #469
L251 LINKER/LOCATER V4.66.93.0                                                        11/18/2024  23:30:20  PAGE 98


      00FF9C7EH   LINE      CODE     ---       #470
      00FF9C7EH   LINE      CODE     ---       #472
      00FF9C94H   LINE      CODE     ---       #474
      00FF9C9AH   LINE      CODE     ---       #475
      00FF9C9CH   LINE      CODE     ---       #476
      00FF9C9CH   LINE      CODE     ---       #477
      00FF9CA4H   LINE      CODE     ---       #478
      00FF9CABH   LINE      CODE     ---       #479
      00FF9CB4H   LINE      CODE     ---       #480
      00FF9CB8H   LINE      CODE     ---       #481
      ---         BLOCKEND  ---      ---       LVL=0
      000010A6H   SYMBOL    EDATA    ---       dat
      000010ADH   SYMBOL    EDATA    ---       dat
      0000111EH   SYMBOL    EDATA    INT       acc_value
      00001120H   SYMBOL    EDATA    FLOAT     acc_dat
      00001124H   SYMBOL    EDATA    INT       gyro_value
      00001126H   SYMBOL    EDATA    FLOAT     gyro_dat
      000012C9H   SYMBOL    EDATA    BYTE      return_state

      ---         MODULE    ---      ---       SEEKFREE_IMU963RA
      00000C59H   PUBLIC    EDATA    INT       imu963ra_acc_x
      00000C5BH   PUBLIC    EDATA    INT       imu963ra_acc_y
      00000C5DH   PUBLIC    EDATA    INT       imu963ra_acc_z
      00000C5FH   PUBLIC    EDATA    INT       imu963ra_mag_x
      00000C61H   PUBLIC    EDATA    INT       imu963ra_mag_y
      00000C63H   PUBLIC    EDATA    INT       imu963ra_mag_z
      00000C65H   PUBLIC    EDATA    INT       imu963ra_gyro_x
      00000C67H   PUBLIC    EDATA    INT       imu963ra_gyro_y
      00000C69H   PUBLIC    EDATA    INT       imu963ra_gyro_z
      000000D0H   SFRSYM    DATA     BYTE      PSW
      0000009DH   SFRSYM    DATA     BYTE      IRCBAND
      00000097H   SFRSYM    DATA     BYTE      AUXR2
      000000EFH   SFRSYM    DATA     BYTE      AUXINTIF
      000000FDH   SFRSYM    DATA     BYTE      S4CON
      000000ACH   SFRSYM    DATA     BYTE      S3CON
      0000009AH   SFRSYM    DATA     BYTE      S2CON
      000000B7H   SFRSYM    DATA     BYTE      IPH
      000000CDH   SFRSYM    DATA     BYTE      SPSTAT
      000000DDH   SFRSYM    DATA     BYTE      T4T3M
      000000C1H   SFRSYM    DATA     BYTE      WDT_CONTR
      000000DFH   SFRSYM    DATA     BYTE      IP3
      000000F4H   SFRSYM    DATA     BYTE      USBCON
      000000B5H   SFRSYM    DATA     BYTE      IP2
      000000FFH   SFRSYM    DATA     BYTE      RSTCFG
      000000C7H   SFRSYM    DATA     BYTE      IAP_CONTR
      000000F9H   SFRSYM    DATA     BYTE      LINICR
      0000008EH   SFRSYM    DATA     BYTE      AUXR
      000000AFH   SFRSYM    DATA     BYTE      IE2
      000000C0H.3 SFRSYM    DATA     BIT       P43
      000000C0H.2 SFRSYM    DATA     BIT       P42
      00000088H   SFRSYM    DATA     BYTE      TCON
      00000089H   SFRSYM    DATA     BYTE      TMOD
      000000C0H.1 SFRSYM    DATA     BIT       P41
      00000098H   SFRSYM    DATA     BYTE      SCON
      000000C0H.0 SFRSYM    DATA     BIT       P40
      000000F1H   SFRSYM    DATA     BYTE      CANICR
      00000087H   SFRSYM    DATA     BYTE      PCON
      000000BCH   SFRSYM    DATA     BYTE      ADC_CONTR
      000000E7H   SFRSYM    DATA     BYTE      CMPCR2
      000000E6H   SFRSYM    DATA     BYTE      CMPCR1
      000000DEH   SFRSYM    DATA     BYTE      ADCCFG
      000000B8H   SFRSYM    DATA     BYTE      IP
      0000008FH   SFRSYM    DATA     BYTE      INTCLKO
      000000EEH   SFRSYM    DATA     BYTE      IP3H
      000000B6H   SFRSYM    DATA     BYTE      IP2H
L251 LINKER/LOCATER V4.66.93.0                                                        11/18/2024  23:30:20  PAGE 99


      000000A8H   SFRSYM    DATA     BYTE      IE
      000000BBH   SFRSYM    DATA     BYTE      P_SW3
      000000BAH   SFRSYM    DATA     BYTE      P_SW2
      000000A2H   SFRSYM    DATA     BYTE      P_SW1
      000000CEH   SFRSYM    DATA     BYTE      SPCTL
      000000F8H   SFRSYM    DATA     BYTE      P7
      000000E8H   SFRSYM    DATA     BYTE      P6
      000000C8H   SFRSYM    DATA     BYTE      P5
      000000C0H   SFRSYM    DATA     BYTE      P4
      000000B0H   SFRSYM    DATA     BYTE      P3
      000000A0H   SFRSYM    DATA     BYTE      P2
      00000090H   SFRSYM    DATA     BYTE      P1
      00000080H   SFRSYM    DATA     BYTE      P0
      00FF95B8H   SYMBOL    CODE     ---       imu963ra_simspi_wr_byte
      00FF8D56H   SYMBOL    CODE     ---       imu963ra_read_mag_register
      00FFA15CH   SYMBOL    CODE     ---       imu963ra_connect_mag
      00FFA51CH   SYMBOL    CODE     ---       imu963ra_read_acc_gyro_registers
      00FF87D7H   SYMBOL    CODE     ---       imu963ra_write_mag_register
      00FFA5D4H   SYMBOL    CODE     ---       imu963ra_read_acc_gyro_register
      00FF9D04H   SYMBOL    CODE     ---       imu963ra_simspi_r_reg_bytes
      00FFA303H   SYMBOL    CODE     ---       imu963ra_simspi_r_reg_byte
      00FF9A07H   SYMBOL    CODE     ---       imu963ra_mag_self_check
      00FFA816H   SYMBOL    CODE     ---       imu963ra_write_acc_gyro_register
      00FFA69EH   SYMBOL    CODE     ---       imu963ra_simspi_w_reg_byte

      00FF95B8H   BLOCK     CODE     ---       LVL=0
      00001291H   SYMBOL    EDATA    BYTE      byte
      00FF95BCH   BLOCK     CODE     NEAR LAB  LVL=1
      00001292H   SYMBOL    EDATA    BYTE      i
      ---         BLOCKEND  ---      ---       LVL=1
      00FF95B8H   LINE      CODE     ---       #344
      00FF95BCH   LINE      CODE     ---       #345
      00FF95BCH   LINE      CODE     ---       #348
      00FF95C3H   LINE      CODE     ---       #350
      00FF95D1H   LINE      CODE     ---       #351
      00FF95DBH   LINE      CODE     ---       #352
      00FF95DEH   LINE      CODE     ---       #353
      00FF95E1H   LINE      CODE     ---       #355
      00FF95E4H   LINE      CODE     ---       #356
      00FF95E7H   LINE      CODE     ---       #357
      00FF95F5H   LINE      CODE     ---       #358
      00FF960CH   LINE      CODE     ---       #359
      00FF9610H   LINE      CODE     ---       #360
      ---         BLOCKEND  ---      ---       LVL=0

      00FFA69EH   BLOCK     CODE     ---       LVL=0
      00001293H   SYMBOL    EDATA    BYTE      cmd
      00001294H   SYMBOL    EDATA    BYTE      val
      00FFA69EH   LINE      CODE     ---       #368
      00FFA6A6H   LINE      CODE     ---       #370
      00FFA6A9H   LINE      CODE     ---       #371
      00FFA6ADH   LINE      CODE     ---       #372
      00FFA6B4H   LINE      CODE     ---       #373
      00FFA6BBH   LINE      CODE     ---       #374
      00FFA6BEH   LINE      CODE     ---       #375
      ---         BLOCKEND  ---      ---       LVL=0

      00FFA303H   BLOCK     CODE     ---       LVL=0
      000011A9H   SYMBOL    EDATA    BYTE      cmd
      000011AAH   SYMBOL    EDATA    ---       val
      00FFA303H   LINE      CODE     ---       #406
      00FFA30BH   LINE      CODE     ---       #408
      00FFA30EH   LINE      CODE     ---       #409
      00FFA31AH   LINE      CODE     ---       #410
      00FFA321H   LINE      CODE     ---       #411
L251 LINKER/LOCATER V4.66.93.0                                                        11/18/2024  23:30:20  PAGE 100


      00FFA32CH   LINE      CODE     ---       #412
      00FFA32FH   LINE      CODE     ---       #413
      ---         BLOCKEND  ---      ---       LVL=0

      00FF9D04H   BLOCK     CODE     ---       LVL=0
      00000F8BH   SYMBOL    EDATA    BYTE      cmd
      00000F8CH   SYMBOL    EDATA    ---       val
      00000F90H   SYMBOL    EDATA    DWORD     num
      00FF9D04H   LINE      CODE     ---       #423
      00FF9D10H   LINE      CODE     ---       #426
      00FF9D1CH   LINE      CODE     ---       #427
      00FF9D23H   LINE      CODE     ---       #429
      00FF9D25H   LINE      CODE     ---       #431
      00FF9D3AH   LINE      CODE     ---       #432
      00FF9D4EH   LINE      CODE     ---       #433
      ---         BLOCKEND  ---      ---       LVL=0

      00FFA816H   BLOCK     CODE     ---       LVL=0
      00001295H   SYMBOL    EDATA    BYTE      reg
      00001296H   SYMBOL    EDATA    BYTE      dat
      00FFA816H   LINE      CODE     ---       #445
      00FFA81EH   LINE      CODE     ---       #447
      00FFA821H   LINE      CODE     ---       #448
      00FFA82CH   LINE      CODE     ---       #450
      00FFA82FH   LINE      CODE     ---       #451
      ---         BLOCKEND  ---      ---       LVL=0

      00FFA5D4H   BLOCK     CODE     ---       LVL=0
      00001297H   SYMBOL    EDATA    BYTE      reg
      00FFA5D8H   BLOCK     CODE     NEAR LAB  LVL=1
      00001298H   SYMBOL    EDATA    BYTE      dat
      ---         BLOCKEND  ---      ---       LVL=1
      00FFA5D4H   LINE      CODE     ---       #460
      00FFA5D8H   LINE      CODE     ---       #461
      00FFA5D8H   LINE      CODE     ---       #462
      00FFA5DDH   LINE      CODE     ---       #463
      00FFA5E0H   LINE      CODE     ---       #464
      00FFA5EFH   LINE      CODE     ---       #465
      00FFA5F2H   LINE      CODE     ---       #466
      00FFA5F6H   LINE      CODE     ---       #467
      ---         BLOCKEND  ---      ---       LVL=0

      00FFA51CH   BLOCK     CODE     ---       LVL=0
      00000F94H   SYMBOL    EDATA    BYTE      reg
      00000F95H   SYMBOL    EDATA    ---       dat
      00000F99H   SYMBOL    EDATA    DWORD     len
      00FFA51CH   LINE      CODE     ---       #478
      00FFA528H   LINE      CODE     ---       #480
      00FFA52BH   LINE      CODE     ---       #481
      00FFA53EH   LINE      CODE     ---       #483
      00FFA541H   LINE      CODE     ---       #484
      ---         BLOCKEND  ---      ---       LVL=0

      00FF87D7H   BLOCK     CODE     ---       LVL=0
      0000112AH   SYMBOL    EDATA    BYTE      addr
      0000112BH   SYMBOL    EDATA    BYTE      reg
      0000112CH   SYMBOL    EDATA    BYTE      dat
      00FF87E3H   BLOCK     CODE     NEAR LAB  LVL=1
      0000112DH   SYMBOL    EDATA    BYTE      return_state
      0000112EH   SYMBOL    EDATA    WORD      timeout_count
      ---         BLOCKEND  ---      ---       LVL=1
      00FF87D7H   LINE      CODE     ---       #496
      00FF87E3H   LINE      CODE     ---       #497
      00FF87E3H   LINE      CODE     ---       #498
      00FF87E8H   LINE      CODE     ---       #499
L251 LINKER/LOCATER V4.66.93.0                                                        11/18/2024  23:30:20  PAGE 101


      00FF87EEH   LINE      CODE     ---       #501
      00FF87F8H   LINE      CODE     ---       #502
      00FF87FFH   LINE      CODE     ---       #503
      00FF8808H   LINE      CODE     ---       #504
      00FF8811H   LINE      CODE     ---       #505
      00FF881AH   LINE      CODE     ---       #506
      00FF8822H   LINE      CODE     ---       #509
      00FF8824H   LINE      CODE     ---       #511
      00FF883AH   LINE      CODE     ---       #513
      00FF8840H   LINE      CODE     ---       #514
      00FF8842H   LINE      CODE     ---       #515
      00FF8842H   LINE      CODE     ---       #516
      00FF8849H   LINE      CODE     ---       #517
      00FF8851H   LINE      CODE     ---       #518
      00FF8855H   LINE      CODE     ---       #519
      ---         BLOCKEND  ---      ---       LVL=0

      00FF8D56H   BLOCK     CODE     ---       LVL=0
      000011FAH   SYMBOL    EDATA    BYTE      addr
      000011FBH   SYMBOL    EDATA    BYTE      reg
      00FF8D5EH   BLOCK     CODE     NEAR LAB  LVL=1
      000011FCH   SYMBOL    EDATA    WORD      timeout_count
      ---         BLOCKEND  ---      ---       LVL=1
      00FF8D56H   LINE      CODE     ---       #529
      00FF8D5EH   LINE      CODE     ---       #530
      00FF8D5EH   LINE      CODE     ---       #531
      00FF8D64H   LINE      CODE     ---       #533
      00FF8D6EH   LINE      CODE     ---       #534
      00FF8D7CH   LINE      CODE     ---       #535
      00FF8D85H   LINE      CODE     ---       #536
      00FF8D8DH   LINE      CODE     ---       #537
      00FF8D95H   LINE      CODE     ---       #540
      00FF8D97H   LINE      CODE     ---       #542
      00FF8DADH   LINE      CODE     ---       #544
      00FF8DADH   LINE      CODE     ---       #545
      00FF8DADH   LINE      CODE     ---       #546
      00FF8DB4H   LINE      CODE     ---       #547
      00FF8DBCH   LINE      CODE     ---       #549
      00FF8DC1H   LINE      CODE     ---       #550
      ---         BLOCKEND  ---      ---       LVL=0

      00FFA15CH   BLOCK     CODE     ---       LVL=0
      00001299H   SYMBOL    EDATA    BYTE      addr
      0000129AH   SYMBOL    EDATA    BYTE      reg
      00FFA15CH   LINE      CODE     ---       #560
      00FFA164H   LINE      CODE     ---       #562
      00FFA16EH   LINE      CODE     ---       #564
      00FFA17CH   LINE      CODE     ---       #565
      00FFA185H   LINE      CODE     ---       #566
      00FFA18DH   LINE      CODE     ---       #567
      00FFA195H   LINE      CODE     ---       #568
      ---         BLOCKEND  ---      ---       LVL=0
      000011FEH   SYMBOL    EDATA    BYTE      return_state
      000011FFH   SYMBOL    EDATA    BYTE      dat
      00001200H   SYMBOL    EDATA    WORD      timeout_count

      00FF9A07H   BLOCK     CODE     ---       LVL=0
      00001202H   SYMBOL    EDATA    BYTE      return_state
      00001203H   SYMBOL    EDATA    BYTE      dat
      00001204H   SYMBOL    EDATA    WORD      timeout_count
      00FF9A07H   LINE      CODE     ---       #604
      00FF9A07H   LINE      CODE     ---       #605
      00FF9A07H   LINE      CODE     ---       #606
      00FF9A0CH   LINE      CODE     ---       #607
      00FF9A11H   LINE      CODE     ---       #608
L251 LINKER/LOCATER V4.66.93.0                                                        11/18/2024  23:30:20  PAGE 102


      00FF9A17H   LINE      CODE     ---       #610
      00FF9A19H   LINE      CODE     ---       #612
      00FF9A2FH   LINE      CODE     ---       #614
      00FF9A35H   LINE      CODE     ---       #615
      00FF9A37H   LINE      CODE     ---       #616
      00FF9A37H   LINE      CODE     ---       #617
      00FF9A43H   LINE      CODE     ---       #618
      00FF9A4AH   LINE      CODE     ---       #619
      00FF9A53H   LINE      CODE     ---       #620
      00FF9A57H   LINE      CODE     ---       #621
      ---         BLOCKEND  ---      ---       LVL=0
      00001130H   SYMBOL    EDATA    ---       dat
      00001136H   SYMBOL    EDATA    ---       dat
      000010B4H   SYMBOL    EDATA    BYTE      temp_status
      000010B5H   SYMBOL    EDATA    ---       dat
      0000113CH   SYMBOL    EDATA    INT       acc_value
      0000113EH   SYMBOL    EDATA    FLOAT     acc_dat
      00001142H   SYMBOL    EDATA    INT       gyro_value
      00001144H   SYMBOL    EDATA    FLOAT     gyro_dat
      00001148H   SYMBOL    EDATA    INT       mag_value
      0000114AH   SYMBOL    EDATA    FLOAT     mag_dat
      000012CAH   SYMBOL    EDATA    BYTE      return_state

      ---         MODULE    ---      ---       SEEKFREE_IPS114_SPI
      00FFA3DBH   PUBLIC    CODE     ---       ips114_writedata_16bit
      00FF7F00H   PUBLIC    CODE     ---       ips114_showchar_simspi
      00FF7FBFH   PUBLIC    CODE     ---       ips114_showchar
      00FF9161H   PUBLIC    CODE     ---       ips114_clear_simspi
      00FF91C0H   PUBLIC    CODE     ---       ips114_clear
      00FF97C1H   PUBLIC    CODE     ---       ips114_writeDatai_16bit_simspi
      00FF9B3EH   PUBLIC    CODE     ---       ips114_writeIndex_simspi
      00FF9B8AH   PUBLIC    CODE     ---       ips114_writeData_simspi
      00FFA96DH   PUBLIC    CODE     ---       ips114_writeIndex
      00FFA982H   PUBLIC    CODE     ---       ips114_writeData
      00FF986AH   PUBLIC    CODE     ---       ips114_set_region_simspi
      00FF98BEH   PUBLIC    CODE     ---       ips114_set_region
      000007B0H   PUBLIC    EDATA    BYTE      ?ips114_showfloat_simspi?BYTE
      000007E0H   PUBLIC    EDATA    BYTE      ?ips114_showfloat?BYTE
      000000D0H   SFRSYM    DATA     BYTE      PSW
      0000009DH   SFRSYM    DATA     BYTE      IRCBAND
      00000097H   SFRSYM    DATA     BYTE      AUXR2
      000000EFH   SFRSYM    DATA     BYTE      AUXINTIF
      000000FDH   SFRSYM    DATA     BYTE      S4CON
      000000ACH   SFRSYM    DATA     BYTE      S3CON
      0000009AH   SFRSYM    DATA     BYTE      S2CON
      000000B7H   SFRSYM    DATA     BYTE      IPH
      000000CDH   SFRSYM    DATA     BYTE      SPSTAT
      000000DDH   SFRSYM    DATA     BYTE      T4T3M
      000000C1H   SFRSYM    DATA     BYTE      WDT_CONTR
      000000DFH   SFRSYM    DATA     BYTE      IP3
      000000F4H   SFRSYM    DATA     BYTE      USBCON
      000000B5H   SFRSYM    DATA     BYTE      IP2
      000000FFH   SFRSYM    DATA     BYTE      RSTCFG
      000000C7H   SFRSYM    DATA     BYTE      IAP_CONTR
      000000F9H   SFRSYM    DATA     BYTE      LINICR
      0000008EH   SFRSYM    DATA     BYTE      AUXR
      000000AFH   SFRSYM    DATA     BYTE      IE2
      000000A0H.7 SFRSYM    DATA     BIT       P27
      000000A0H.5 SFRSYM    DATA     BIT       P25
      00000088H   SFRSYM    DATA     BYTE      TCON
      00000089H   SFRSYM    DATA     BYTE      TMOD
      000000A0H.3 SFRSYM    DATA     BIT       P23
      00000098H   SFRSYM    DATA     BYTE      SCON
      000000A0H.2 SFRSYM    DATA     BIT       P22
      000000A0H.1 SFRSYM    DATA     BIT       P21
L251 LINKER/LOCATER V4.66.93.0                                                        11/18/2024  23:30:20  PAGE 103


      000000A0H.0 SFRSYM    DATA     BIT       P20
      000000F1H   SFRSYM    DATA     BYTE      CANICR
      00000087H   SFRSYM    DATA     BYTE      PCON
      000000BCH   SFRSYM    DATA     BYTE      ADC_CONTR
      000000E7H   SFRSYM    DATA     BYTE      CMPCR2
      000000E6H   SFRSYM    DATA     BYTE      CMPCR1
      000000DEH   SFRSYM    DATA     BYTE      ADCCFG
      000000B8H   SFRSYM    DATA     BYTE      IP
      0000008FH   SFRSYM    DATA     BYTE      INTCLKO
      000000EEH   SFRSYM    DATA     BYTE      IP3H
      000000B6H   SFRSYM    DATA     BYTE      IP2H
      000000A8H   SFRSYM    DATA     BYTE      IE
      000000BBH   SFRSYM    DATA     BYTE      P_SW3
      000000BAH   SFRSYM    DATA     BYTE      P_SW2
      000000A2H   SFRSYM    DATA     BYTE      P_SW1
      000000CEH   SFRSYM    DATA     BYTE      SPCTL
      000000F8H   SFRSYM    DATA     BYTE      P7
      000000E8H   SFRSYM    DATA     BYTE      P6
      000000C8H   SFRSYM    DATA     BYTE      P5
      000000C0H   SFRSYM    DATA     BYTE      P4
      000000B0H   SFRSYM    DATA     BYTE      P3
      000000A0H   SFRSYM    DATA     BYTE      P2
      00000090H   SFRSYM    DATA     BYTE      P1
      00000080H   SFRSYM    DATA     BYTE      P0

      00FF9B3EH   BLOCK     CODE     ---       LVL=0
      0000129BH   SYMBOL    EDATA    BYTE      dat
      00FF9B42H   BLOCK     CODE     NEAR LAB  LVL=1
      0000129CH   SYMBOL    EDATA    BYTE      i
      ---         BLOCKEND  ---      ---       LVL=1
      00FF9B3EH   LINE      CODE     ---       #61
      00FF9B42H   LINE      CODE     ---       #62
      00FF9B42H   LINE      CODE     ---       #63
      00FF9B48H   LINE      CODE     ---       #64
      00FF9B4BH   LINE      CODE     ---       #65
      00FF9B4EH   LINE      CODE     ---       #67
      00FF9B51H   LINE      CODE     ---       #69
      00FF9B53H   LINE      CODE     ---       #71
      00FF9B5FH   LINE      CODE     ---       #72
      00FF9B62H   LINE      CODE     ---       #73
      00FF9B65H   LINE      CODE     ---       #75
      00FF9B68H   LINE      CODE     ---       #76
      00FF9B72H   LINE      CODE     ---       #77
      00FF9B86H   LINE      CODE     ---       #78
      00FF9B89H   LINE      CODE     ---       #79
      ---         BLOCKEND  ---      ---       LVL=0

      00FF9B8AH   BLOCK     CODE     ---       LVL=0
      0000129DH   SYMBOL    EDATA    BYTE      dat
      00FF9B8EH   BLOCK     CODE     NEAR LAB  LVL=1
      0000129EH   SYMBOL    EDATA    BYTE      i
      ---         BLOCKEND  ---      ---       LVL=1
      00FF9B8AH   LINE      CODE     ---       #88
      00FF9B8EH   LINE      CODE     ---       #89
      00FF9B8EH   LINE      CODE     ---       #90
      00FF9B94H   LINE      CODE     ---       #91
      00FF9B97H   LINE      CODE     ---       #92
      00FF9B9AH   LINE      CODE     ---       #94
      00FF9B9DH   LINE      CODE     ---       #96
      00FF9B9FH   LINE      CODE     ---       #98
      00FF9BABH   LINE      CODE     ---       #99
      00FF9BAEH   LINE      CODE     ---       #100
      00FF9BB1H   LINE      CODE     ---       #102
      00FF9BB4H   LINE      CODE     ---       #103
      00FF9BBEH   LINE      CODE     ---       #104
L251 LINKER/LOCATER V4.66.93.0                                                        11/18/2024  23:30:20  PAGE 104


      00FF9BD2H   LINE      CODE     ---       #105
      00FF9BD5H   LINE      CODE     ---       #106
      ---         BLOCKEND  ---      ---       LVL=0

      00FF97C1H   BLOCK     CODE     ---       LVL=0
      0000124CH   SYMBOL    EDATA    WORD      dat
      00FF97C5H   BLOCK     CODE     NEAR LAB  LVL=1
      0000124EH   SYMBOL    EDATA    BYTE      i
      ---         BLOCKEND  ---      ---       LVL=1
      00FF97C1H   LINE      CODE     ---       #115
      00FF97C5H   LINE      CODE     ---       #116
      00FF97C5H   LINE      CODE     ---       #117
      00FF97CBH   LINE      CODE     ---       #118
      00FF97CEH   LINE      CODE     ---       #119
      00FF97D1H   LINE      CODE     ---       #120
      00FF97D4H   LINE      CODE     ---       #121
      00FF97D6H   LINE      CODE     ---       #123
      00FF97EBH   LINE      CODE     ---       #124
      00FF97EEH   LINE      CODE     ---       #125
      00FF97F1H   LINE      CODE     ---       #127
      00FF97F4H   LINE      CODE     ---       #128
      00FF97FEH   LINE      CODE     ---       #129
      00FF9812H   LINE      CODE     ---       #130
      00FF9815H   LINE      CODE     ---       #131
      ---         BLOCKEND  ---      ---       LVL=0

      00FF986AH   BLOCK     CODE     ---       LVL=0
      00001048H   SYMBOL    EDATA    WORD      x1
      0000104AH   SYMBOL    EDATA    WORD      y1
      0000104CH   SYMBOL    EDATA    WORD      x2
      0000104EH   SYMBOL    EDATA    WORD      y2
      00FF986AH   LINE      CODE     ---       #240
      00FF987AH   LINE      CODE     ---       #274
      00FF987FH   LINE      CODE     ---       #275
      00FF988CH   LINE      CODE     ---       #276
      00FF9899H   LINE      CODE     ---       #277
      00FF989EH   LINE      CODE     ---       #278
      00FF98ABH   LINE      CODE     ---       #279
      00FF98B8H   LINE      CODE     ---       #280
      00FF98BDH   LINE      CODE     ---       #283
      ---         BLOCKEND  ---      ---       LVL=0

      00FF9161H   BLOCK     CODE     ---       LVL=0
      0000114EH   SYMBOL    EDATA    WORD      color
      00FF9165H   BLOCK     CODE     NEAR LAB  LVL=1
      00001150H   SYMBOL    EDATA    WORD      i
      00001152H   SYMBOL    EDATA    WORD      j
      ---         BLOCKEND  ---      ---       LVL=1
      00FF9161H   LINE      CODE     ---       #292
      00FF9165H   LINE      CODE     ---       #293
      00FF9165H   LINE      CODE     ---       #295
      00FF9174H   LINE      CODE     ---       #296
      00FF917CH   LINE      CODE     ---       #298
      00FF9184H   LINE      CODE     ---       #300
      00FF918BH   LINE      CODE     ---       #301
      00FF91A5H   LINE      CODE     ---       #302
      00FF91BFH   LINE      CODE     ---       #303
      ---         BLOCKEND  ---      ---       LVL=0
      00001154H   SYMBOL    EDATA    WORD      x
      00001156H   SYMBOL    EDATA    WORD      y
      00001158H   SYMBOL    EDATA    WORD      color

      00FF7F00H   BLOCK     CODE     ---       LVL=0
      00001050H   SYMBOL    EDATA    WORD      x
      00001052H   SYMBOL    EDATA    WORD      y
L251 LINKER/LOCATER V4.66.93.0                                                        11/18/2024  23:30:20  PAGE 105


      00001054H   SYMBOL    EDATA    CHAR      dat
      00FF7F0CH   BLOCK     CODE     NEAR LAB  LVL=1
      00001055H   SYMBOL    EDATA    BYTE      i
      00001056H   SYMBOL    EDATA    BYTE      j
      00001057H   SYMBOL    EDATA    BYTE      temp
      ---         BLOCKEND  ---      ---       LVL=1
      00FF7F00H   LINE      CODE     ---       #331
      00FF7F0CH   LINE      CODE     ---       #332
      00FF7F0CH   LINE      CODE     ---       #336
      00FF7F14H   LINE      CODE     ---       #338
      00FF7F3DH   LINE      CODE     ---       #339
      00FF7F65H   LINE      CODE     ---       #340
      00FF7F6CH   LINE      CODE     ---       #342
      00FF7F73H   LINE      CODE     ---       #344
      00FF7F7AH   LINE      CODE     ---       #345
      00FF7F7CH   LINE      CODE     ---       #346
      00FF7F83H   LINE      CODE     ---       #347
      00FF7F8DH   LINE      CODE     ---       #348
      00FF7FA4H   LINE      CODE     ---       #349
      00FF7FBEH   LINE      CODE     ---       #350
      ---         BLOCKEND  ---      ---       LVL=0
      00000ED0H   SYMBOL    EDATA    WORD      x
      00000ED2H   SYMBOL    EDATA    WORD      y
      00000ED4H   SYMBOL    EDATA    ---       dat
      00000ED8H   SYMBOL    EDATA    WORD      j
      00000F9DH   SYMBOL    EDATA    WORD      x
      00000F9FH   SYMBOL    EDATA    WORD      y
      00000FA1H   SYMBOL    EDATA    CHAR      dat
      00000FA2H   SYMBOL    EDATA    ---       a
      00000FA5H   SYMBOL    EDATA    BYTE      i
      00000FA6H   SYMBOL    EDATA    WORD      x
      00000FA8H   SYMBOL    EDATA    WORD      y
      00000FAAH   SYMBOL    EDATA    BYTE      dat
      00000FABH   SYMBOL    EDATA    ---       a
      00000FAEH   SYMBOL    EDATA    BYTE      i
      00000DEDH   SYMBOL    EDATA    WORD      x
      00000DEFH   SYMBOL    EDATA    WORD      y
      00000DF1H   SYMBOL    EDATA    INT       dat
      00000DF3H   SYMBOL    EDATA    ---       a
      00000DF8H   SYMBOL    EDATA    BYTE      i
      00000DF9H   SYMBOL    EDATA    WORD      x
      00000DFBH   SYMBOL    EDATA    WORD      y
      00000DFDH   SYMBOL    EDATA    WORD      dat
      00000DFFH   SYMBOL    EDATA    ---       a
      00000E04H   SYMBOL    EDATA    BYTE      i
      00000925H   SYMBOL    EDATA    WORD      x
      00000927H   SYMBOL    EDATA    WORD      y
      00000929H   SYMBOL    EDATA    LONG      dat
      0000092DH   SYMBOL    EDATA    BYTE      num
      0000092EH   SYMBOL    EDATA    ---       buff
      00000950H   SYMBOL    EDATA    BYTE      length
      000007B0H   SYMBOL    EDATA    WORD      x
      000007B2H   SYMBOL    EDATA    WORD      y
      000007B4H   SYMBOL    EDATA    FLOAT     dat
      000007B8H   SYMBOL    EDATA    BYTE      num
      000007B9H   SYMBOL    EDATA    BYTE      pointnum
      000007BAH   SYMBOL    EDATA    BYTE      length
      000007BBH   SYMBOL    EDATA    ---       buff
      000007DDH   SYMBOL    EDATA    CHAR      start
      000007DEH   SYMBOL    EDATA    CHAR      end
      000007DFH   SYMBOL    EDATA    CHAR      point

      00FFA96DH   BLOCK     CODE     ---       LVL=0
      000012CBH   SYMBOL    EDATA    BYTE      dat
      00FFA96DH   LINE      CODE     ---       #594
L251 LINKER/LOCATER V4.66.93.0                                                        11/18/2024  23:30:20  PAGE 106


      00FFA971H   LINE      CODE     ---       #596
      00FFA974H   LINE      CODE     ---       #597
      00FFA977H   LINE      CODE     ---       #599
      00FFA97EH   LINE      CODE     ---       #600
      00FFA981H   LINE      CODE     ---       #601
      ---         BLOCKEND  ---      ---       LVL=0

      00FFA982H   BLOCK     CODE     ---       LVL=0
      000012CCH   SYMBOL    EDATA    BYTE      dat
      00FFA982H   LINE      CODE     ---       #610
      00FFA986H   LINE      CODE     ---       #612
      00FFA989H   LINE      CODE     ---       #613
      00FFA98CH   LINE      CODE     ---       #615
      00FFA993H   LINE      CODE     ---       #616
      00FFA996H   LINE      CODE     ---       #617
      ---         BLOCKEND  ---      ---       LVL=0

      00FFA3DBH   BLOCK     CODE     ---       LVL=0
      00001206H   SYMBOL    EDATA    WORD      dat
      00FFA3DFH   BLOCK     CODE     NEAR LAB  LVL=1
      00001208H   SYMBOL    EDATA    ---       dat1
      ---         BLOCKEND  ---      ---       LVL=1
      00FFA3DBH   LINE      CODE     ---       #626
      00FFA3DFH   LINE      CODE     ---       #627
      00FFA3DFH   LINE      CODE     ---       #629
      00FFA3E5H   LINE      CODE     ---       #630
      00FFA3EDH   LINE      CODE     ---       #631
      00FFA3F0H   LINE      CODE     ---       #632
      00FFA3F3H   LINE      CODE     ---       #633
      00FFA3FAH   LINE      CODE     ---       #634
      00FFA401H   LINE      CODE     ---       #635
      00FFA404H   LINE      CODE     ---       #636
      ---         BLOCKEND  ---      ---       LVL=0

      00FF98BEH   BLOCK     CODE     ---       LVL=0
      00001058H   SYMBOL    EDATA    WORD      x1
      0000105AH   SYMBOL    EDATA    WORD      y1
      0000105CH   SYMBOL    EDATA    WORD      x2
      0000105EH   SYMBOL    EDATA    WORD      y2
      00FF98BEH   LINE      CODE     ---       #747
      00FF98CEH   LINE      CODE     ---       #781
      00FF98D3H   LINE      CODE     ---       #782
      00FF98E0H   LINE      CODE     ---       #783
      00FF98EDH   LINE      CODE     ---       #784
      00FF98F2H   LINE      CODE     ---       #785
      00FF98FFH   LINE      CODE     ---       #786
      00FF990CH   LINE      CODE     ---       #787
      00FF9911H   LINE      CODE     ---       #790
      ---         BLOCKEND  ---      ---       LVL=0

      00FF91C0H   BLOCK     CODE     ---       LVL=0
      0000115AH   SYMBOL    EDATA    WORD      color
      00FF91C4H   BLOCK     CODE     NEAR LAB  LVL=1
      0000115CH   SYMBOL    EDATA    WORD      i
      0000115EH   SYMBOL    EDATA    WORD      j
      ---         BLOCKEND  ---      ---       LVL=1
      00FF91C0H   LINE      CODE     ---       #799
      00FF91C4H   LINE      CODE     ---       #800
      00FF91C4H   LINE      CODE     ---       #802
      00FF91D3H   LINE      CODE     ---       #803
      00FF91DBH   LINE      CODE     ---       #805
      00FF91E3H   LINE      CODE     ---       #807
      00FF91EAH   LINE      CODE     ---       #808
      00FF9204H   LINE      CODE     ---       #809
      00FF921EH   LINE      CODE     ---       #810
L251 LINKER/LOCATER V4.66.93.0                                                        11/18/2024  23:30:20  PAGE 107


      ---         BLOCKEND  ---      ---       LVL=0
      00001160H   SYMBOL    EDATA    WORD      x
      00001162H   SYMBOL    EDATA    WORD      y
      00001164H   SYMBOL    EDATA    WORD      color

      00FF7FBFH   BLOCK     CODE     ---       LVL=0
      00001060H   SYMBOL    EDATA    WORD      x
      00001062H   SYMBOL    EDATA    WORD      y
      00001064H   SYMBOL    EDATA    CHAR      dat
      00FF7FCBH   BLOCK     CODE     NEAR LAB  LVL=1
      00001065H   SYMBOL    EDATA    BYTE      i
      00001066H   SYMBOL    EDATA    BYTE      j
      00001067H   SYMBOL    EDATA    BYTE      temp
      ---         BLOCKEND  ---      ---       LVL=1
      00FF7FBFH   LINE      CODE     ---       #838
      00FF7FCBH   LINE      CODE     ---       #839
      00FF7FCBH   LINE      CODE     ---       #843
      00FF7FD3H   LINE      CODE     ---       #845
      00FF7FFCH   LINE      CODE     ---       #846
      00FF8024H   LINE      CODE     ---       #847
      00FF802BH   LINE      CODE     ---       #849
      00FF8032H   LINE      CODE     ---       #851
      00FF8039H   LINE      CODE     ---       #852
      00FF803BH   LINE      CODE     ---       #853
      00FF8042H   LINE      CODE     ---       #854
      00FF804CH   LINE      CODE     ---       #855
      00FF8063H   LINE      CODE     ---       #856
      00FF807DH   LINE      CODE     ---       #857
      ---         BLOCKEND  ---      ---       LVL=0
      00000EDAH   SYMBOL    EDATA    WORD      x
      00000EDCH   SYMBOL    EDATA    WORD      y
      00000EDEH   SYMBOL    EDATA    ---       dat
      00000EE2H   SYMBOL    EDATA    WORD      j
      00000FAFH   SYMBOL    EDATA    WORD      x
      00000FB1H   SYMBOL    EDATA    WORD      y
      00000FB3H   SYMBOL    EDATA    CHAR      dat
      00000FB4H   SYMBOL    EDATA    ---       a
      00000FB7H   SYMBOL    EDATA    BYTE      i
      00000FB8H   SYMBOL    EDATA    WORD      x
      00000FBAH   SYMBOL    EDATA    WORD      y
      00000FBCH   SYMBOL    EDATA    BYTE      dat
      00000FBDH   SYMBOL    EDATA    ---       a
      00000FC0H   SYMBOL    EDATA    BYTE      i
      00000E05H   SYMBOL    EDATA    WORD      x
      00000E07H   SYMBOL    EDATA    WORD      y
      00000E09H   SYMBOL    EDATA    INT       dat
      00000E0BH   SYMBOL    EDATA    ---       a
      00000E10H   SYMBOL    EDATA    BYTE      i
      00000E11H   SYMBOL    EDATA    WORD      x
      00000E13H   SYMBOL    EDATA    WORD      y
      00000E15H   SYMBOL    EDATA    WORD      dat
      00000E17H   SYMBOL    EDATA    ---       a
      00000E1CH   SYMBOL    EDATA    BYTE      i
      00000951H   SYMBOL    EDATA    WORD      x
      00000953H   SYMBOL    EDATA    WORD      y
      00000955H   SYMBOL    EDATA    LONG      dat
      00000959H   SYMBOL    EDATA    BYTE      num
      0000095AH   SYMBOL    EDATA    ---       buff
      0000097CH   SYMBOL    EDATA    BYTE      length
      000007E0H   SYMBOL    EDATA    WORD      x
      000007E2H   SYMBOL    EDATA    WORD      y
      000007E4H   SYMBOL    EDATA    FLOAT     dat
      000007E8H   SYMBOL    EDATA    BYTE      num
      000007E9H   SYMBOL    EDATA    BYTE      pointnum
      000007EAH   SYMBOL    EDATA    BYTE      length
L251 LINKER/LOCATER V4.66.93.0                                                        11/18/2024  23:30:20  PAGE 108


      000007EBH   SYMBOL    EDATA    ---       buff
      0000080DH   SYMBOL    EDATA    CHAR      start
      0000080EH   SYMBOL    EDATA    CHAR      end
      0000080FH   SYMBOL    EDATA    CHAR      point

      ---         MODULE    ---      ---       SEEKFREE_IPS200_SPI
      00FFA330H   PUBLIC    CODE     ---       ips200_draw_point
      00FF85B4H   PUBLIC    CODE     ---       ips200_show_string
      00FF6735H   PUBLIC    CODE     ---       ips200_show_char
      00FFA997H   PUBLIC    CODE     ---       ips200_set_color
      00FFA6BFH   PUBLIC    CODE     ---       ips200_write_16bit_data_spi
      00FF6926H   PUBLIC    CODE     ---       ips200_init_spi
      00FFA196H   PUBLIC    CODE     ---       ips200_set_dir
      00FF8CE9H   PUBLIC    CODE     ---       ips200_clear
      00FFAACCH   PUBLIC    CODE     ---       ips200_write_8bit_data_spi
      00000BE0H   PUBLIC    EDATA    BYTE      ?ips200_draw_line?BYTE
      00000A76H   PUBLIC    EDATA    BYTE      ?ips200_show_float?BYTE
      00000A99H   PUBLIC    EDATA    BYTE      ?ips200_show_wave?BYTE
      00000B67H   PUBLIC    EDATA    BYTE      ?ips200_show_chinese?BYTE
      000000D0H   SFRSYM    DATA     BYTE      PSW
      0000009DH   SFRSYM    DATA     BYTE      IRCBAND
      00000097H   SFRSYM    DATA     BYTE      AUXR2
      000000EFH   SFRSYM    DATA     BYTE      AUXINTIF
      000000FDH   SFRSYM    DATA     BYTE      S4CON
      000000ACH   SFRSYM    DATA     BYTE      S3CON
      0000009AH   SFRSYM    DATA     BYTE      S2CON
      000000B7H   SFRSYM    DATA     BYTE      IPH
      000000CDH   SFRSYM    DATA     BYTE      SPSTAT
      000000DDH   SFRSYM    DATA     BYTE      T4T3M
      000000C1H   SFRSYM    DATA     BYTE      WDT_CONTR
      000000DFH   SFRSYM    DATA     BYTE      IP3
      000000F4H   SFRSYM    DATA     BYTE      USBCON
      000000B5H   SFRSYM    DATA     BYTE      IP2
      000000FFH   SFRSYM    DATA     BYTE      RSTCFG
      000000C7H   SFRSYM    DATA     BYTE      IAP_CONTR
      000000F9H   SFRSYM    DATA     BYTE      LINICR
      0000008EH   SFRSYM    DATA     BYTE      AUXR
      000000AFH   SFRSYM    DATA     BYTE      IE2
      000000A0H.7 SFRSYM    DATA     BIT       P27
      00000088H   SFRSYM    DATA     BYTE      TCON
      00000089H   SFRSYM    DATA     BYTE      TMOD
      00000098H   SFRSYM    DATA     BYTE      SCON
      000000A0H.2 SFRSYM    DATA     BIT       P22
      000000A0H.1 SFRSYM    DATA     BIT       P21
      000000A0H.0 SFRSYM    DATA     BIT       P20
      000000F1H   SFRSYM    DATA     BYTE      CANICR
      00000087H   SFRSYM    DATA     BYTE      PCON
      000000BCH   SFRSYM    DATA     BYTE      ADC_CONTR
      000000E7H   SFRSYM    DATA     BYTE      CMPCR2
      000000E6H   SFRSYM    DATA     BYTE      CMPCR1
      000000DEH   SFRSYM    DATA     BYTE      ADCCFG
      000000B8H   SFRSYM    DATA     BYTE      IP
      0000008FH   SFRSYM    DATA     BYTE      INTCLKO
      000000EEH   SFRSYM    DATA     BYTE      IP3H
      000000B6H   SFRSYM    DATA     BYTE      IP2H
      000000A8H   SFRSYM    DATA     BYTE      IE
      000000BBH   SFRSYM    DATA     BYTE      P_SW3
      000000BAH   SFRSYM    DATA     BYTE      P_SW2
      000000A2H   SFRSYM    DATA     BYTE      P_SW1
      000000CEH   SFRSYM    DATA     BYTE      SPCTL
      000000F8H   SFRSYM    DATA     BYTE      P7
      000000E8H   SFRSYM    DATA     BYTE      P6
      000000C8H   SFRSYM    DATA     BYTE      P5
      000000C0H   SFRSYM    DATA     BYTE      P4
      000000B0H   SFRSYM    DATA     BYTE      P3
L251 LINKER/LOCATER V4.66.93.0                                                        11/18/2024  23:30:20  PAGE 109


      000000A0H   SFRSYM    DATA     BYTE      P2
      00000090H   SFRSYM    DATA     BYTE      P1
      00000080H   SFRSYM    DATA     BYTE      P0
      00FFA73EH   SYMBOL    CODE     ---       ips200_write_command
      00FFA9ACH   SYMBOL    CODE     ---       ips200_write_8bit_data
      00FFA9C1H   SYMBOL    CODE     ---       ips200_write_16bit_data
      00FFA06EH   SYMBOL    CODE     ---       ips200_set_region
      00000D0AH   SYMBOL    EDATA    WORD      ips200_pencolor
      00000D0CH   SYMBOL    EDATA    WORD      ips200_bgcolor
      00000D0EH   SYMBOL    EDATA    INT       ips200_display_font
      00000D10H   SYMBOL    EDATA    INT       ips200_display_dir
      00000D12H   SYMBOL    EDATA    WORD      ips200_x_max
      00000D14H   SYMBOL    EDATA    INT       ips200_display_type
      00000D16H   SYMBOL    EDATA    WORD      ips200_y_max

      00FFAACCH   BLOCK     CODE     ---       LVL=0
      000012CDH   SYMBOL    EDATA    BYTE      dat
      00FFAACCH   LINE      CODE     ---       #62
      00FFAAD0H   LINE      CODE     ---       #64
      00FFAAD3H   LINE      CODE     ---       #66
      ---         BLOCKEND  ---      ---       LVL=0

      00FFA6BFH   BLOCK     CODE     ---       LVL=0
      0000120AH   SYMBOL    EDATA    WORD      dat
      00FFA6C3H   BLOCK     CODE     NEAR LAB  LVL=1
      0000120CH   SYMBOL    EDATA    ---       dat1
      ---         BLOCKEND  ---      ---       LVL=1
      00FFA6BFH   LINE      CODE     ---       #75
      00FFA6C3H   LINE      CODE     ---       #76
      00FFA6C3H   LINE      CODE     ---       #78
      00FFA6C9H   LINE      CODE     ---       #79
      00FFA6D1H   LINE      CODE     ---       #81
      00FFA6D8H   LINE      CODE     ---       #82
      00FFA6DFH   LINE      CODE     ---       #83
      ---         BLOCKEND  ---      ---       LVL=0

      00FFA73EH   BLOCK     CODE     ---       LVL=0
      000012CEH   SYMBOL    EDATA    BYTE      command
      00FFA73EH   LINE      CODE     ---       #93
      00FFA742H   LINE      CODE     ---       #96
      00FFA745H   LINE      CODE     ---       #97
      00FFA748H   LINE      CODE     ---       #98
      00FFA74BH   LINE      CODE     ---       #99
      00FFA752H   LINE      CODE     ---       #100
      00FFA755H   LINE      CODE     ---       #101
      00FFA758H   LINE      CODE     ---       #102
      00FFA75BH   LINE      CODE     ---       #104
      ---         BLOCKEND  ---      ---       LVL=0

      00FFA9ACH   BLOCK     CODE     ---       LVL=0
      000012CFH   SYMBOL    EDATA    BYTE      dat
      00FFA9ACH   LINE      CODE     ---       #113
      00FFA9B0H   LINE      CODE     ---       #115
      00FFA9B3H   LINE      CODE     ---       #116
      00FFA9B6H   LINE      CODE     ---       #117
      00FFA9BDH   LINE      CODE     ---       #118
      00FFA9C0H   LINE      CODE     ---       #119
      ---         BLOCKEND  ---      ---       LVL=0

      00FFA9C1H   BLOCK     CODE     ---       LVL=0
      0000129FH   SYMBOL    EDATA    WORD      dat
      00FFA9C1H   LINE      CODE     ---       #128
      00FFA9C5H   LINE      CODE     ---       #130
      00FFA9C8H   LINE      CODE     ---       #131
      00FFA9CBH   LINE      CODE     ---       #132
L251 LINKER/LOCATER V4.66.93.0                                                        11/18/2024  23:30:20  PAGE 110


      00FFA9D2H   LINE      CODE     ---       #133
      00FFA9D5H   LINE      CODE     ---       #134
      ---         BLOCKEND  ---      ---       LVL=0

      00FFA06EH   BLOCK     CODE     ---       LVL=0
      00001068H   SYMBOL    EDATA    WORD      x1
      0000106AH   SYMBOL    EDATA    WORD      y1
      0000106CH   SYMBOL    EDATA    WORD      x2
      0000106EH   SYMBOL    EDATA    WORD      y2
      00FFA06EH   LINE      CODE     ---       #146
      00FFA07EH   LINE      CODE     ---       #150
      00FFA083H   LINE      CODE     ---       #151
      00FFA08AH   LINE      CODE     ---       #152
      00FFA091H   LINE      CODE     ---       #154
      00FFA096H   LINE      CODE     ---       #155
      00FFA09DH   LINE      CODE     ---       #156
      00FFA0A4H   LINE      CODE     ---       #158
      00FFA0A9H   LINE      CODE     ---       #159
      ---         BLOCKEND  ---      ---       LVL=0

      00FF8CE9H   BLOCK     CODE     ---       LVL=0
      0000120EH   SYMBOL    EDATA    WORD      i
      00001210H   SYMBOL    EDATA    WORD      j
      00FF8CE9H   LINE      CODE     ---       #169
      00FF8CE9H   LINE      CODE     ---       #170
      00FF8CE9H   LINE      CODE     ---       #172
      00FF8CECH   LINE      CODE     ---       #174
      00FF8D07H   LINE      CODE     ---       #175
      00FF8D0FH   LINE      CODE     ---       #177
      00FF8D17H   LINE      CODE     ---       #179
      00FF8D1EH   LINE      CODE     ---       #180
      00FF8D38H   LINE      CODE     ---       #181
      00FF8D52H   LINE      CODE     ---       #183
      00FF8D55H   LINE      CODE     ---       #185
      ---         BLOCKEND  ---      ---       LVL=0
      00001166H   SYMBOL    EDATA    WORD      color
      00001168H   SYMBOL    EDATA    WORD      i
      0000116AH   SYMBOL    EDATA    WORD      j

      00FFA196H   BLOCK     CODE     ---       LVL=0
      000012A1H   SYMBOL    EDATA    INT       dir
      00FFA196H   LINE      CODE     ---       #220
      00FFA19AH   LINE      CODE     ---       #222
      00FFA19EH   LINE      CODE     ---       #223
      00FFA1AAH   LINE      CODE     ---       #225
      00FFA1B2H   LINE      CODE     ---       #226
      00FFA1BAH   LINE      CODE     ---       #227
      00FFA1BCH   LINE      CODE     ---       #230
      00FFA1C4H   LINE      CODE     ---       #231
      00FFA1CCH   LINE      CODE     ---       #232
      00FFA1CCH   LINE      CODE     ---       #233
      ---         BLOCKEND  ---      ---       LVL=0
      000012A3H   SYMBOL    EDATA    INT       font

      00FFA997H   BLOCK     CODE     ---       LVL=0
      00001212H   SYMBOL    EDATA    WORD      pen
      00001214H   SYMBOL    EDATA    WORD      bgcolor
      00FFA997H   LINE      CODE     ---       #255
      00FFA99FH   LINE      CODE     ---       #257
      00FFA9A3H   LINE      CODE     ---       #258
      00FFA9ABH   LINE      CODE     ---       #259
      ---         BLOCKEND  ---      ---       LVL=0

      00FFA330H   BLOCK     CODE     ---       LVL=0
      0000116CH   SYMBOL    EDATA    WORD      x
L251 LINKER/LOCATER V4.66.93.0                                                        11/18/2024  23:30:20  PAGE 111


      0000116EH   SYMBOL    EDATA    WORD      y
      00001170H   SYMBOL    EDATA    WORD      color
      00FFA330H   LINE      CODE     ---       #270
      00FFA33CH   LINE      CODE     ---       #274
      00FFA33FH   LINE      CODE     ---       #276
      00FFA352H   LINE      CODE     ---       #277
      00FFA359H   LINE      CODE     ---       #279
      00FFA35CH   LINE      CODE     ---       #281
      ---         BLOCKEND  ---      ---       LVL=0
      00000BE0H   SYMBOL    EDATA    WORD      x_start
      00000BE2H   SYMBOL    EDATA    WORD      y_start
      00000BE4H   SYMBOL    EDATA    WORD      x_end
      00000BE6H   SYMBOL    EDATA    WORD      y_end
      00000BE8H   SYMBOL    EDATA    WORD      color
      00000BEAH   SYMBOL    EDATA    INT       x_dir
      00000BECH   SYMBOL    EDATA    INT       y_dir
      00000BEEH   SYMBOL    EDATA    FLOAT     temp_rate
      00000BF2H   SYMBOL    EDATA    FLOAT     temp_b

      00FF6735H   BLOCK     CODE     ---       LVL=0
      00000FC1H   SYMBOL    EDATA    WORD      x
      00000FC3H   SYMBOL    EDATA    WORD      y
      00000FC5H   SYMBOL    EDATA    CHAR      dat
      00FF6741H   BLOCK     CODE     NEAR LAB  LVL=1
      00000FC6H   SYMBOL    EDATA    BYTE      i
      00000FC7H   SYMBOL    EDATA    BYTE      j
      00000FC8H   SYMBOL    EDATA    BYTE      temp_top
      00000FC9H   SYMBOL    EDATA    BYTE      temp_bottom
      ---         BLOCKEND  ---      ---       LVL=1
      00FF6735H   LINE      CODE     ---       #349
      00FF6741H   LINE      CODE     ---       #350
      00FF6741H   LINE      CODE     ---       #355
      00FF6744H   LINE      CODE     ---       #357
      00FF6756H   LINE      CODE     ---       #359
      00FF6756H   LINE      CODE     ---       #360
      00FF675EH   LINE      CODE     ---       #362
      00FF6787H   LINE      CODE     ---       #364
      00FF67ADH   LINE      CODE     ---       #365
      00FF67B4H   LINE      CODE     ---       #367
      00FF67BBH   LINE      CODE     ---       #369
      00FF67C2H   LINE      CODE     ---       #370
      00FF67C4H   LINE      CODE     ---       #373
      00FF67CBH   LINE      CODE     ---       #374
      00FF67CBH   LINE      CODE     ---       #375
      00FF67D5H   LINE      CODE     ---       #376
      00FF67ECH   LINE      CODE     ---       #377
      00FF6806H   LINE      CODE     ---       #378
      00FF6809H   LINE      CODE     ---       #379
      00FF6809H   LINE      CODE     ---       #380
      00FF6811H   LINE      CODE     ---       #382
      00FF683AH   LINE      CODE     ---       #384
      00FF6862H   LINE      CODE     ---       #385
      00FF688AH   LINE      CODE     ---       #386
      00FF6891H   LINE      CODE     ---       #388
      00FF6898H   LINE      CODE     ---       #390
      00FF689FH   LINE      CODE     ---       #391
      00FF68A1H   LINE      CODE     ---       #394
      00FF68A8H   LINE      CODE     ---       #395
      00FF68A8H   LINE      CODE     ---       #396
      00FF68B2H   LINE      CODE     ---       #397
      00FF68C9H   LINE      CODE     ---       #398
      00FF68D0H   LINE      CODE     ---       #400
      00FF68D7H   LINE      CODE     ---       #402
      00FF68DEH   LINE      CODE     ---       #403
      00FF68E0H   LINE      CODE     ---       #406
L251 LINKER/LOCATER V4.66.93.0                                                        11/18/2024  23:30:20  PAGE 112


      00FF68E7H   LINE      CODE     ---       #407
      00FF68E7H   LINE      CODE     ---       #408
      00FF68F1H   LINE      CODE     ---       #409
      00FF6908H   LINE      CODE     ---       #410
      00FF6922H   LINE      CODE     ---       #411
      00FF6922H   LINE      CODE     ---       #412
      00FF6922H   LINE      CODE     ---       #414
      00FF6922H   LINE      CODE     ---       #415
      00FF6922H   LINE      CODE     ---       #417
      00FF6925H   LINE      CODE     ---       #419
      ---         BLOCKEND  ---      ---       LVL=0

      00FF85B4H   BLOCK     CODE     ---       LVL=0
      00000EE4H   SYMBOL    EDATA    WORD      x
      00000EE6H   SYMBOL    EDATA    WORD      y
      00000EE8H   SYMBOL    EDATA    ---       dat
      00FF85C0H   BLOCK     CODE     NEAR LAB  LVL=1
      00000EECH   SYMBOL    EDATA    WORD      j
      ---         BLOCKEND  ---      ---       LVL=1
      00FF85B4H   LINE      CODE     ---       #430
      00FF85C0H   LINE      CODE     ---       #431
      00FF85C0H   LINE      CODE     ---       #433
      00FF85C6H   LINE      CODE     ---       #434
      00FF85C8H   LINE      CODE     ---       #436
      00FF85D4H   LINE      CODE     ---       #438
      00FF85D4H   LINE      CODE     ---       #439
      00FF85F6H   LINE      CODE     ---       #440
      00FF8604H   LINE      CODE     ---       #441
      00FF8606H   LINE      CODE     ---       #442
      00FF8606H   LINE      CODE     ---       #443
      00FF8628H   LINE      CODE     ---       #444
      00FF8636H   LINE      CODE     ---       #445
      00FF8636H   LINE      CODE     ---       #446
      00FF8636H   LINE      CODE     ---       #448
      00FF8636H   LINE      CODE     ---       #449
      00FF8636H   LINE      CODE     ---       #450
      00FF8646H   LINE      CODE     ---       #451
      ---         BLOCKEND  ---      ---       LVL=0
      00000B14H   SYMBOL    EDATA    WORD      x
      00000B16H   SYMBOL    EDATA    WORD      y
      00000B18H   SYMBOL    EDATA    LONG      dat
      00000B1CH   SYMBOL    EDATA    BYTE      num
      00000B1DH   SYMBOL    EDATA    LONG      dat_temp
      00000B21H   SYMBOL    EDATA    LONG      offset
      00000B25H   SYMBOL    EDATA    ---       data_buffer
      00000B31H   SYMBOL    EDATA    WORD      x
      00000B33H   SYMBOL    EDATA    WORD      y
      00000B35H   SYMBOL    EDATA    DWORD     dat
      00000B39H   SYMBOL    EDATA    BYTE      num
      00000B3AH   SYMBOL    EDATA    DWORD     dat_temp
      00000B3EH   SYMBOL    EDATA    LONG      offset
      00000B42H   SYMBOL    EDATA    ---       data_buffer
      00000A76H   SYMBOL    EDATA    WORD      x
      00000A78H   SYMBOL    EDATA    WORD      y
      00000A7AH   SYMBOL    EDATA    FLOAT     dat
      00000A7EH   SYMBOL    EDATA    BYTE      num
      00000A7FH   SYMBOL    EDATA    BYTE      pointnum
      00000A80H   SYMBOL    EDATA    FLOAT     dat_temp
      00000A84H   SYMBOL    EDATA    FLOAT     offset
      00000A88H   SYMBOL    EDATA    ---       data_buffer
      00000A99H   SYMBOL    EDATA    WORD      x
      00000A9BH   SYMBOL    EDATA    WORD      y
      00000A9DH   SYMBOL    EDATA    ---       wave
      00000AA1H   SYMBOL    EDATA    WORD      width
      00000AA3H   SYMBOL    EDATA    WORD      value_max
L251 LINKER/LOCATER V4.66.93.0                                                        11/18/2024  23:30:20  PAGE 113


      00000AA5H   SYMBOL    EDATA    WORD      dis_width
      00000AA7H   SYMBOL    EDATA    WORD      dis_value_max
      00000AA9H   SYMBOL    EDATA    DWORD     i
      00000AADH   SYMBOL    EDATA    DWORD     j
      00000AB1H   SYMBOL    EDATA    DWORD     width_index
      00000AB5H   SYMBOL    EDATA    DWORD     value_max_index
      00000B67H   SYMBOL    EDATA    WORD      x
      00000B69H   SYMBOL    EDATA    WORD      y
      00000B6BH   SYMBOL    EDATA    BYTE      size
      00000B6CH   SYMBOL    EDATA    ---       chinese_buffer
      00000B70H   SYMBOL    EDATA    BYTE      number
      00000B71H   SYMBOL    EDATA    WORD      color
      00000B73H   SYMBOL    EDATA    INT       i
      00000B75H   SYMBOL    EDATA    INT       j
      00000B77H   SYMBOL    EDATA    INT       k
      00000B79H   SYMBOL    EDATA    BYTE      temp
      00000B7AH   SYMBOL    EDATA    BYTE      temp1
      00000B7BH   SYMBOL    EDATA    BYTE      temp2
      00000B7CH   SYMBOL    EDATA    ---       p_data

      00FF6926H   BLOCK     CODE     ---       LVL=0
      00FF6926H   LINE      CODE     ---       #660
      00FF6926H   LINE      CODE     ---       #662
      00FF6929H   LINE      CODE     ---       #663
      00FF692CH   LINE      CODE     ---       #664
      00FF692FH   LINE      CODE     ---       #667
      00FF6951H   LINE      CODE     ---       #672
      00FF6958H   LINE      CODE     ---       #673
      00FF6963H   LINE      CODE     ---       #676
      00FF6966H   LINE      CODE     ---       #677
      00FF6969H   LINE      CODE     ---       #678
      00FF6970H   LINE      CODE     ---       #679
      00FF6973H   LINE      CODE     ---       #680
      00FF697AH   LINE      CODE     ---       #683
      00FF697DH   LINE      CODE     ---       #685
      00FF6982H   LINE      CODE     ---       #686
      00FF6989H   LINE      CODE     ---       #688
      00FF698EH   LINE      CODE     ---       #689
      00FF6998H   LINE      CODE     ---       #691
      00FF699CH   LINE      CODE     ---       #692
      00FF699EH   LINE      CODE     ---       #693
      00FF69AAH   LINE      CODE     ---       #695
      00FF69AFH   LINE      CODE     ---       #696
      00FF69B1H   LINE      CODE     ---       #697
      00FF69BDH   LINE      CODE     ---       #699
      00FF69C2H   LINE      CODE     ---       #700
      00FF69C4H   LINE      CODE     ---       #703
      00FF69C9H   LINE      CODE     ---       #704
      00FF69C9H   LINE      CODE     ---       #706
      00FF69CEH   LINE      CODE     ---       #707
      00FF69D3H   LINE      CODE     ---       #709
      00FF69D8H   LINE      CODE     ---       #710
      00FF69DDH   LINE      CODE     ---       #711
      00FF69E2H   LINE      CODE     ---       #712
      00FF69E6H   LINE      CODE     ---       #713
      00FF69EBH   LINE      CODE     ---       #714
      00FF69F0H   LINE      CODE     ---       #716
      00FF69F5H   LINE      CODE     ---       #717
      00FF69FAH   LINE      CODE     ---       #719
      00FF69FFH   LINE      CODE     ---       #720
      00FF6A04H   LINE      CODE     ---       #722
      00FF6A09H   LINE      CODE     ---       #723
      00FF6A0EH   LINE      CODE     ---       #725
      00FF6A13H   LINE      CODE     ---       #726
      00FF6A18H   LINE      CODE     ---       #728
L251 LINKER/LOCATER V4.66.93.0                                                        11/18/2024  23:30:20  PAGE 114


      00FF6A1DH   LINE      CODE     ---       #729
      00FF6A22H   LINE      CODE     ---       #731
      00FF6A27H   LINE      CODE     ---       #732
      00FF6A2CH   LINE      CODE     ---       #734
      00FF6A31H   LINE      CODE     ---       #735
      00FF6A36H   LINE      CODE     ---       #737
      00FF6A3BH   LINE      CODE     ---       #738
      00FF6A40H   LINE      CODE     ---       #739
      00FF6A45H   LINE      CODE     ---       #741
      00FF6A4AH   LINE      CODE     ---       #742
      00FF6A4FH   LINE      CODE     ---       #743
      00FF6A54H   LINE      CODE     ---       #744
      00FF6A59H   LINE      CODE     ---       #745
      00FF6A5EH   LINE      CODE     ---       #746
      00FF6A63H   LINE      CODE     ---       #747
      00FF6A68H   LINE      CODE     ---       #748
      00FF6A6DH   LINE      CODE     ---       #749
      00FF6A72H   LINE      CODE     ---       #750
      00FF6A77H   LINE      CODE     ---       #751
      00FF6A7CH   LINE      CODE     ---       #752
      00FF6A81H   LINE      CODE     ---       #753
      00FF6A86H   LINE      CODE     ---       #754
      00FF6A8BH   LINE      CODE     ---       #755
      00FF6A90H   LINE      CODE     ---       #757
      00FF6A95H   LINE      CODE     ---       #758
      00FF6A9AH   LINE      CODE     ---       #759
      00FF6A9FH   LINE      CODE     ---       #760
      00FF6AA4H   LINE      CODE     ---       #761
      00FF6AA9H   LINE      CODE     ---       #762
      00FF6AAEH   LINE      CODE     ---       #763
      00FF6AB3H   LINE      CODE     ---       #764
      00FF6AB8H   LINE      CODE     ---       #765
      00FF6ABDH   LINE      CODE     ---       #766
      00FF6AC2H   LINE      CODE     ---       #767
      00FF6AC7H   LINE      CODE     ---       #768
      00FF6ACCH   LINE      CODE     ---       #769
      00FF6AD1H   LINE      CODE     ---       #770
      00FF6AD6H   LINE      CODE     ---       #771
      00FF6ADBH   LINE      CODE     ---       #773
      00FF6AE0H   LINE      CODE     ---       #775
      00FF6AE5H   LINE      CODE     ---       #777
      00FF6AE8H   LINE      CODE     ---       #780
      00FF6AEBH   LINE      CODE     ---       #781
      ---         BLOCKEND  ---      ---       LVL=0

      ---         MODULE    ---      ---       SEEKFREE_MPU6050
      00FF8DC2H   PUBLIC    CODE     ---       mpu6050_simiic_read_regs
      00FFA121H   PUBLIC    CODE     ---       mpu6050_simiic_read_reg
      00000E1DH   PUBLIC    EDATA    INT       mpu6050_acc_x
      00000E1FH   PUBLIC    EDATA    INT       mpu6050_acc_y
      00000E21H   PUBLIC    EDATA    INT       mpu6050_acc_z
      00000E23H   PUBLIC    EDATA    INT       mpu6050_gyro_x
      00000E25H   PUBLIC    EDATA    INT       mpu6050_gyro_y
      00000E27H   PUBLIC    EDATA    INT       mpu6050_gyro_z
      000000D0H   SFRSYM    DATA     BYTE      PSW
      0000009DH   SFRSYM    DATA     BYTE      IRCBAND
      00000097H   SFRSYM    DATA     BYTE      AUXR2
      000000EFH   SFRSYM    DATA     BYTE      AUXINTIF
      000000FDH   SFRSYM    DATA     BYTE      S4CON
      000000ACH   SFRSYM    DATA     BYTE      S3CON
      0000009AH   SFRSYM    DATA     BYTE      S2CON
      000000B7H   SFRSYM    DATA     BYTE      IPH
      000000CDH   SFRSYM    DATA     BYTE      SPSTAT
      000000DDH   SFRSYM    DATA     BYTE      T4T3M
      000000C1H   SFRSYM    DATA     BYTE      WDT_CONTR
L251 LINKER/LOCATER V4.66.93.0                                                        11/18/2024  23:30:20  PAGE 115


      000000DFH   SFRSYM    DATA     BYTE      IP3
      000000F4H   SFRSYM    DATA     BYTE      USBCON
      000000B5H   SFRSYM    DATA     BYTE      IP2
      000000FFH   SFRSYM    DATA     BYTE      RSTCFG
      000000C7H   SFRSYM    DATA     BYTE      IAP_CONTR
      000000F9H   SFRSYM    DATA     BYTE      LINICR
      0000008EH   SFRSYM    DATA     BYTE      AUXR
      000000AFH   SFRSYM    DATA     BYTE      IE2
      00000088H   SFRSYM    DATA     BYTE      TCON
      00000089H   SFRSYM    DATA     BYTE      TMOD
      000000C0H.1 SFRSYM    DATA     BIT       P41
      00000098H   SFRSYM    DATA     BYTE      SCON
      000000C0H.0 SFRSYM    DATA     BIT       P40
      000000F1H   SFRSYM    DATA     BYTE      CANICR
      00000087H   SFRSYM    DATA     BYTE      PCON
      000000BCH   SFRSYM    DATA     BYTE      ADC_CONTR
      000000E7H   SFRSYM    DATA     BYTE      CMPCR2
      000000E6H   SFRSYM    DATA     BYTE      CMPCR1
      000000DEH   SFRSYM    DATA     BYTE      ADCCFG
      000000B8H   SFRSYM    DATA     BYTE      IP
      0000008FH   SFRSYM    DATA     BYTE      INTCLKO
      000000EEH   SFRSYM    DATA     BYTE      IP3H
      000000B6H   SFRSYM    DATA     BYTE      IP2H
      000000A8H   SFRSYM    DATA     BYTE      IE
      000000BBH   SFRSYM    DATA     BYTE      P_SW3
      000000BAH   SFRSYM    DATA     BYTE      P_SW2
      000000A2H   SFRSYM    DATA     BYTE      P_SW1
      000000CEH   SFRSYM    DATA     BYTE      SPCTL
      000000F8H   SFRSYM    DATA     BYTE      P7
      000000E8H   SFRSYM    DATA     BYTE      P6
      000000C8H   SFRSYM    DATA     BYTE      P5
      000000C0H   SFRSYM    DATA     BYTE      P4
      000000B0H   SFRSYM    DATA     BYTE      P3
      000000A0H   SFRSYM    DATA     BYTE      P2
      00000090H   SFRSYM    DATA     BYTE      P1
      00000080H   SFRSYM    DATA     BYTE      P0
      00FFAA3AH   SYMBOL    CODE     ---       mpu6050_simiic_start
      00FFA8D9H   SYMBOL    CODE     ---       mpu6050_simiic_stop
      00FFA405H   SYMBOL    CODE     ---       mpu6050_simiic_write_reg
      00FFA4A7H   SYMBOL    CODE     ---       mpu6050_simiic_sendack
      00FF8F02H   SYMBOL    CODE     ---       mpu6050_read_ch
      00FF9DE1H   SYMBOL    CODE     ---       mpu6050_send_ch
      00FFA6E0H   SYMBOL    CODE     ---       mpu6050_sccb_waitack
      00FF0066H   SYMBOL    CODE     ---       mpu6050_simiic_delay

      00FF0066H   BLOCK     CODE     ---       LVL=0
      000012A5H   SYMBOL    EDATA    WORD      j
      00FF0066H   LINE      CODE     ---       #52
      00FF0066H   LINE      CODE     ---       #53
      00FF0066H   LINE      CODE     ---       #54
      00FF006CH   LINE      CODE     ---       #55
      00FF0082H   LINE      CODE     ---       #56
      ---         BLOCKEND  ---      ---       LVL=0

      00FFAA3AH   BLOCK     CODE     ---       LVL=0
      00FFAA3AH   LINE      CODE     ---       #59
      00FFAA3AH   LINE      CODE     ---       #61
      00FFAA3DH   LINE      CODE     ---       #62
      00FFAA40H   LINE      CODE     ---       #63
      00FFAA43H   LINE      CODE     ---       #64
      00FFAA46H   LINE      CODE     ---       #65
      00FFAA49H   LINE      CODE     ---       #66
      00FFAA4CH   LINE      CODE     ---       #67
      ---         BLOCKEND  ---      ---       LVL=0

L251 LINKER/LOCATER V4.66.93.0                                                        11/18/2024  23:30:20  PAGE 116


      00FFA8D9H   BLOCK     CODE     ---       LVL=0
      00FFA8D9H   LINE      CODE     ---       #70
      00FFA8D9H   LINE      CODE     ---       #72
      00FFA8DCH   LINE      CODE     ---       #73
      00FFA8DFH   LINE      CODE     ---       #74
      00FFA8E2H   LINE      CODE     ---       #75
      00FFA8E5H   LINE      CODE     ---       #76
      00FFA8E8H   LINE      CODE     ---       #77
      00FFA8EBH   LINE      CODE     ---       #78
      00FFA8EEH   LINE      CODE     ---       #79
      ---         BLOCKEND  ---      ---       LVL=0

      00FFA4A7H   BLOCK     CODE     ---       LVL=0
      000012D0H   SYMBOL    EDATA    BYTE      ack_dat
      00FFA4A7H   LINE      CODE     ---       #83
      00FFA4ABH   LINE      CODE     ---       #85
      00FFA4AEH   LINE      CODE     ---       #86
      00FFA4B1H   LINE      CODE     ---       #87
      00FFA4BFH   LINE      CODE     ---       #88
      00FFA4C2H   LINE      CODE     ---       #90
      00FFA4C5H   LINE      CODE     ---       #91
      00FFA4C8H   LINE      CODE     ---       #92
      00FFA4CBH   LINE      CODE     ---       #93
      00FFA4CEH   LINE      CODE     ---       #94
      ---         BLOCKEND  ---      ---       LVL=0

      00FFA6E0H   BLOCK     CODE     ---       LVL=0
      00FFA6E0H   LINE      CODE     ---       #97
      00FFA6E0H   LINE      CODE     ---       #99
      00FFA6E3H   LINE      CODE     ---       #101
      00FFA6E6H   LINE      CODE     ---       #103
      00FFA6E9H   LINE      CODE     ---       #104
      00FFA6ECH   LINE      CODE     ---       #106
      00FFA6EFH   LINE      CODE     ---       #109
      00FFA6F2H   LINE      CODE     ---       #110
      00FFA6F6H   LINE      CODE     ---       #111
      00FFA6F6H   LINE      CODE     ---       #113
      00FFA6F9H   LINE      CODE     ---       #114
      00FFA6FCH   LINE      CODE     ---       #115
      00FFA700H   LINE      CODE     ---       #116
      ---         BLOCKEND  ---      ---       LVL=0

      00FF9DE1H   BLOCK     CODE     ---       LVL=0
      000012A7H   SYMBOL    EDATA    BYTE      c
      00FF9DE5H   BLOCK     CODE     NEAR LAB  LVL=1
      000012A8H   SYMBOL    EDATA    BYTE      i
      ---         BLOCKEND  ---      ---       LVL=1
      00FF9DE1H   LINE      CODE     ---       #122
      00FF9DE5H   LINE      CODE     ---       #123
      00FF9DE5H   LINE      CODE     ---       #124
      00FF9DEBH   LINE      CODE     ---       #125
      00FF9DEDH   LINE      CODE     ---       #127
      00FF9DF9H   LINE      CODE     ---       #128
      00FF9DFCH   LINE      CODE     ---       #129
      00FF9E06H   LINE      CODE     ---       #130
      00FF9E09H   LINE      CODE     ---       #131
      00FF9E0CH   LINE      CODE     ---       #132
      00FF9E0FH   LINE      CODE     ---       #133
      00FF9E12H   LINE      CODE     ---       #134
      00FF9E26H   LINE      CODE     ---       #135
      00FF9E29H   LINE      CODE     ---       #136
      ---         BLOCKEND  ---      ---       LVL=0

      00FF8F02H   BLOCK     CODE     ---       LVL=0
      0000124FH   SYMBOL    EDATA    BYTE      ack_x
L251 LINKER/LOCATER V4.66.93.0                                                        11/18/2024  23:30:20  PAGE 117


      00FF8F06H   BLOCK     CODE     NEAR LAB  LVL=1
      00001250H   SYMBOL    EDATA    BYTE      i
      00001251H   SYMBOL    EDATA    BYTE      c
      ---         BLOCKEND  ---      ---       LVL=1
      00FF8F02H   LINE      CODE     ---       #142
      00FF8F06H   LINE      CODE     ---       #143
      00FF8F06H   LINE      CODE     ---       #146
      00FF8F0BH   LINE      CODE     ---       #147
      00FF8F0EH   LINE      CODE     ---       #148
      00FF8F11H   LINE      CODE     ---       #149
      00FF8F14H   LINE      CODE     ---       #151
      00FF8F1BH   LINE      CODE     ---       #153
      00FF8F1EH   LINE      CODE     ---       #154
      00FF8F21H   LINE      CODE     ---       #155
      00FF8F24H   LINE      CODE     ---       #156
      00FF8F27H   LINE      CODE     ---       #157
      00FF8F2AH   LINE      CODE     ---       #158
      00FF8F34H   LINE      CODE     ---       #159
      00FF8F37H   LINE      CODE     ---       #161
      00FF8F43H   LINE      CODE     ---       #162
      00FF8F5AH   LINE      CODE     ---       #165
      00FF8F5DH   LINE      CODE     ---       #166
      00FF8F60H   LINE      CODE     ---       #167
      00FF8F67H   LINE      CODE     ---       #169
      00FF8F6BH   LINE      CODE     ---       #170
      ---         BLOCKEND  ---      ---       LVL=0

      00FFA405H   BLOCK     CODE     ---       LVL=0
      00001252H   SYMBOL    EDATA    BYTE      dev_add
      00001253H   SYMBOL    EDATA    BYTE      reg
      00001254H   SYMBOL    EDATA    BYTE      dat
      00FFA405H   LINE      CODE     ---       #182
      00FFA411H   LINE      CODE     ---       #184
      00FFA414H   LINE      CODE     ---       #185
      00FFA41DH   LINE      CODE     ---       #186
      00FFA424H   LINE      CODE     ---       #187
      00FFA42BH   LINE      CODE     ---       #188
      00FFA42EH   LINE      CODE     ---       #189
      ---         BLOCKEND  ---      ---       LVL=0

      00FFA121H   BLOCK     CODE     ---       LVL=0
      00001255H   SYMBOL    EDATA    BYTE      dev_add
      00001256H   SYMBOL    EDATA    BYTE      reg
      00FFA129H   BLOCK     CODE     NEAR LAB  LVL=1
      00001257H   SYMBOL    EDATA    BYTE      dat
      ---         BLOCKEND  ---      ---       LVL=1
      00FFA121H   LINE      CODE     ---       #200
      00FFA129H   LINE      CODE     ---       #201
      00FFA129H   LINE      CODE     ---       #203
      00FFA12CH   LINE      CODE     ---       #204
      00FFA135H   LINE      CODE     ---       #205
      00FFA13CH   LINE      CODE     ---       #208
      00FFA13FH   LINE      CODE     ---       #209
      00FFA14CH   LINE      CODE     ---       #210
      00FFA154H   LINE      CODE     ---       #211
      00FFA157H   LINE      CODE     ---       #213
      00FFA15BH   LINE      CODE     ---       #214
      ---         BLOCKEND  ---      ---       LVL=0

      00FF8DC2H   BLOCK     CODE     ---       LVL=0
      000010BBH   SYMBOL    EDATA    BYTE      dev_add
      000010BCH   SYMBOL    EDATA    BYTE      reg
      000010BDH   SYMBOL    EDATA    ---       dat_add
      000010C1H   SYMBOL    EDATA    BYTE      num
      00FF8DC2H   LINE      CODE     ---       #227
L251 LINKER/LOCATER V4.66.93.0                                                        11/18/2024  23:30:20  PAGE 118


      00FF8DD2H   LINE      CODE     ---       #229
      00FF8DD5H   LINE      CODE     ---       #230
      00FF8DDEH   LINE      CODE     ---       #231
      00FF8DE5H   LINE      CODE     ---       #234
      00FF8DE8H   LINE      CODE     ---       #235
      00FF8DF5H   LINE      CODE     ---       #236
      00FF8DF7H   LINE      CODE     ---       #238
      00FF8E03H   LINE      CODE     ---       #239
      00FF8E0DH   LINE      CODE     ---       #240
      00FF8E1FH   LINE      CODE     ---       #241
      00FF8E2AH   LINE      CODE     ---       #242
      00FF8E2DH   LINE      CODE     ---       #243
      ---         BLOCKEND  ---      ---       LVL=0
      00001172H   SYMBOL    EDATA    ---       dat
      00001178H   SYMBOL    EDATA    ---       dat

      ---         MODULE    ---      ---       SEEKFREE_OLED
      00FF8C7AH   PUBLIC    CODE     ---       oled_hexascii_spi
      00FFA26DH   PUBLIC    CODE     ---       oled_set_pos
      00FF9BD6H   PUBLIC    CODE     ---       oled_wrcmd
      00FF9C22H   PUBLIC    CODE     ---       oled_wrdat
      00FF93F2H   PUBLIC    CODE     ---       oled_fill
      00FFA1CDH   PUBLIC    CODE     ---       oled_set_pos_spi
      00FF7A47H   PUBLIC    CODE     ---       oled_p6x8str
      00FFA9D6H   PUBLIC    CODE     ---       oled_wrcmd_spi
      00FFA9EBH   PUBLIC    CODE     ---       oled_wrdat_spi
      00FF944FH   PUBLIC    CODE     ---       oled_fill_spi
      00FF7B18H   PUBLIC    CODE     ---       oled_p6x8str_spi
      00000810H   PUBLIC    EDATA    BYTE      ?oled_printf_float?BYTE
      00000840H   PUBLIC    EDATA    BYTE      ?oled_printf_float_spi?BYTE
      000000D0H   SFRSYM    DATA     BYTE      PSW
      0000009DH   SFRSYM    DATA     BYTE      IRCBAND
      00000097H   SFRSYM    DATA     BYTE      AUXR2
      000000EFH   SFRSYM    DATA     BYTE      AUXINTIF
      000000FDH   SFRSYM    DATA     BYTE      S4CON
      000000ACH   SFRSYM    DATA     BYTE      S3CON
      0000009AH   SFRSYM    DATA     BYTE      S2CON
      000000B7H   SFRSYM    DATA     BYTE      IPH
      000000CDH   SFRSYM    DATA     BYTE      SPSTAT
      000000DDH   SFRSYM    DATA     BYTE      T4T3M
      000000C1H   SFRSYM    DATA     BYTE      WDT_CONTR
      000000DFH   SFRSYM    DATA     BYTE      IP3
      000000F4H   SFRSYM    DATA     BYTE      USBCON
      000000B5H   SFRSYM    DATA     BYTE      IP2
      000000FFH   SFRSYM    DATA     BYTE      RSTCFG
      000000C7H   SFRSYM    DATA     BYTE      IAP_CONTR
      000000F9H   SFRSYM    DATA     BYTE      LINICR
      0000008EH   SFRSYM    DATA     BYTE      AUXR
      000000AFH   SFRSYM    DATA     BYTE      IE2
      000000A0H.5 SFRSYM    DATA     BIT       P25
      00000088H   SFRSYM    DATA     BYTE      TCON
      00000089H   SFRSYM    DATA     BYTE      TMOD
      000000A0H.3 SFRSYM    DATA     BIT       P23
      00000098H   SFRSYM    DATA     BYTE      SCON
      000000A0H.2 SFRSYM    DATA     BIT       P22
      000000A0H.1 SFRSYM    DATA     BIT       P21
      000000A0H.0 SFRSYM    DATA     BIT       P20
      000000F1H   SFRSYM    DATA     BYTE      CANICR
      00000087H   SFRSYM    DATA     BYTE      PCON
      000000BCH   SFRSYM    DATA     BYTE      ADC_CONTR
      000000E7H   SFRSYM    DATA     BYTE      CMPCR2
      000000E6H   SFRSYM    DATA     BYTE      CMPCR1
      000000DEH   SFRSYM    DATA     BYTE      ADCCFG
      000000B8H   SFRSYM    DATA     BYTE      IP
      0000008FH   SFRSYM    DATA     BYTE      INTCLKO
L251 LINKER/LOCATER V4.66.93.0                                                        11/18/2024  23:30:20  PAGE 119


      000000EEH   SFRSYM    DATA     BYTE      IP3H
      000000B6H   SFRSYM    DATA     BYTE      IP2H
      000000A8H   SFRSYM    DATA     BYTE      IE
      000000BBH   SFRSYM    DATA     BYTE      P_SW3
      000000BAH   SFRSYM    DATA     BYTE      P_SW2
      000000A2H   SFRSYM    DATA     BYTE      P_SW1
      000000CEH   SFRSYM    DATA     BYTE      SPCTL
      000000F8H   SFRSYM    DATA     BYTE      P7
      000000E8H   SFRSYM    DATA     BYTE      P6
      000000C8H   SFRSYM    DATA     BYTE      P5
      000000C0H   SFRSYM    DATA     BYTE      P4
      000000B0H   SFRSYM    DATA     BYTE      P3
      000000A0H   SFRSYM    DATA     BYTE      P2
      00000090H   SFRSYM    DATA     BYTE      P1
      00000080H   SFRSYM    DATA     BYTE      P0

      00FF9C22H   BLOCK     CODE     ---       LVL=0
      000012A9H   SYMBOL    EDATA    BYTE      dat
      00FF9C26H   BLOCK     CODE     NEAR LAB  LVL=1
      000012AAH   SYMBOL    EDATA    BYTE      i
      ---         BLOCKEND  ---      ---       LVL=1
      00FF9C22H   LINE      CODE     ---       #47
      00FF9C26H   LINE      CODE     ---       #48
      00FF9C26H   LINE      CODE     ---       #49
      00FF9C2CH   LINE      CODE     ---       #51
      00FF9C2FH   LINE      CODE     ---       #52
      00FF9C32H   LINE      CODE     ---       #53
      00FF9C35H   LINE      CODE     ---       #54
      00FF9C37H   LINE      CODE     ---       #56
      00FF9C43H   LINE      CODE     ---       #57
      00FF9C46H   LINE      CODE     ---       #58
      00FF9C49H   LINE      CODE     ---       #60
      00FF9C4CH   LINE      CODE     ---       #61
      00FF9C56H   LINE      CODE     ---       #62
      00FF9C6AH   LINE      CODE     ---       #63
      00FF9C6DH   LINE      CODE     ---       #64
      ---         BLOCKEND  ---      ---       LVL=0

      00FF9BD6H   BLOCK     CODE     ---       LVL=0
      000012ABH   SYMBOL    EDATA    BYTE      cmd
      00FF9BDAH   BLOCK     CODE     NEAR LAB  LVL=1
      000012ACH   SYMBOL    EDATA    BYTE      i
      ---         BLOCKEND  ---      ---       LVL=1
      00FF9BD6H   LINE      CODE     ---       #98
      00FF9BDAH   LINE      CODE     ---       #99
      00FF9BDAH   LINE      CODE     ---       #100
      00FF9BE0H   LINE      CODE     ---       #102
      00FF9BE3H   LINE      CODE     ---       #103
      00FF9BE6H   LINE      CODE     ---       #104
      00FF9BE9H   LINE      CODE     ---       #106
      00FF9BEBH   LINE      CODE     ---       #108
      00FF9BF7H   LINE      CODE     ---       #109
      00FF9BFAH   LINE      CODE     ---       #110
      00FF9BFDH   LINE      CODE     ---       #112
      00FF9C00H   LINE      CODE     ---       #113
      00FF9C0AH   LINE      CODE     ---       #114
      00FF9C1EH   LINE      CODE     ---       #115
      00FF9C21H   LINE      CODE     ---       #116
      ---         BLOCKEND  ---      ---       LVL=0
      00001070H   SYMBOL    EDATA    WORD      hex
      00001072H   SYMBOL    EDATA    ---       Print
      00001076H   SYMBOL    EDATA    BYTE      hexcheck
      00001077H   SYMBOL    EDATA    BYTE      TEMP

      00FFA26DH   BLOCK     CODE     ---       LVL=0
L251 LINKER/LOCATER V4.66.93.0                                                        11/18/2024  23:30:20  PAGE 120


      000012ADH   SYMBOL    EDATA    BYTE      x
      000012AEH   SYMBOL    EDATA    BYTE      y
      00FFA26DH   LINE      CODE     ---       #205
      00FFA275H   LINE      CODE     ---       #207
      00FFA280H   LINE      CODE     ---       #208
      00FFA296H   LINE      CODE     ---       #209
      00FFA2A1H   LINE      CODE     ---       #210
      ---         BLOCKEND  ---      ---       LVL=0

      00FF93F2H   BLOCK     CODE     ---       LVL=0
      00001258H   SYMBOL    EDATA    BYTE      bmp_data
      00FF93F6H   BLOCK     CODE     NEAR LAB  LVL=1
      00001259H   SYMBOL    EDATA    BYTE      y
      0000125AH   SYMBOL    EDATA    BYTE      x
      ---         BLOCKEND  ---      ---       LVL=1
      00FF93F2H   LINE      CODE     ---       #219
      00FF93F6H   LINE      CODE     ---       #220
      00FF93F6H   LINE      CODE     ---       #223
      00FF93FDH   LINE      CODE     ---       #225
      00FF9408H   LINE      CODE     ---       #226
      00FF940DH   LINE      CODE     ---       #227
      00FF9412H   LINE      CODE     ---       #228
      00FF9437H   LINE      CODE     ---       #229
      00FF944EH   LINE      CODE     ---       #230
      ---         BLOCKEND  ---      ---       LVL=0
      0000125BH   SYMBOL    EDATA    BYTE      x
      0000125CH   SYMBOL    EDATA    BYTE      y
      0000125DH   SYMBOL    EDATA    BYTE      data1
      000012AFH   SYMBOL    EDATA    BYTE      x
      000012B0H   SYMBOL    EDATA    BYTE      y

      00FF7A47H   BLOCK     CODE     ---       LVL=0
      00000FCAH   SYMBOL    EDATA    BYTE      x
      00000FCBH   SYMBOL    EDATA    BYTE      y
      00000FCCH   SYMBOL    EDATA    ---       ch
      00FF7A53H   BLOCK     CODE     NEAR LAB  LVL=1
      00000FD0H   SYMBOL    EDATA    BYTE      c
      00000FD1H   SYMBOL    EDATA    BYTE      i
      00000FD2H   SYMBOL    EDATA    BYTE      j
      ---         BLOCKEND  ---      ---       LVL=1
      00FF7A47H   LINE      CODE     ---       #279
      00FF7A53H   LINE      CODE     ---       #280
      00FF7A53H   LINE      CODE     ---       #281
      00FF7A62H   LINE      CODE     ---       #282
      00FF7A65H   LINE      CODE     ---       #284
      00FF7A80H   LINE      CODE     ---       #285
      00FF7A9CH   LINE      CODE     ---       #286
      00FF7AA7H   LINE      CODE     ---       #287
      00FF7AE7H   LINE      CODE     ---       #288
      00FF7AF3H   LINE      CODE     ---       #289
      00FF7B00H   LINE      CODE     ---       #290
      00FF7B17H   LINE      CODE     ---       #291
      ---         BLOCKEND  ---      ---       LVL=0
      00000FD3H   SYMBOL    EDATA    BYTE      x
      00000FD4H   SYMBOL    EDATA    BYTE      y
      00000FD5H   SYMBOL    EDATA    ---       ch
      00000FD9H   SYMBOL    EDATA    BYTE      c
      00000FDAH   SYMBOL    EDATA    BYTE      i
      00000FDBH   SYMBOL    EDATA    BYTE      j
      00000E35H   SYMBOL    EDATA    BYTE      x
      00000E36H   SYMBOL    EDATA    BYTE      y
      00000E37H   SYMBOL    EDATA    WORD      num
      00000E39H   SYMBOL    EDATA    ---       ch
      00000E40H   SYMBOL    EDATA    BYTE      x
      00000E41H   SYMBOL    EDATA    BYTE      y
L251 LINKER/LOCATER V4.66.93.0                                                        11/18/2024  23:30:20  PAGE 121


      00000E42H   SYMBOL    EDATA    INT       num
      00000E44H   SYMBOL    EDATA    ---       ch
      0000097DH   SYMBOL    EDATA    WORD      x
      0000097FH   SYMBOL    EDATA    WORD      y
      00000981H   SYMBOL    EDATA    LONG      dat
      00000985H   SYMBOL    EDATA    BYTE      num
      00000986H   SYMBOL    EDATA    ---       buff
      000009A8H   SYMBOL    EDATA    BYTE      length
      00000810H   SYMBOL    EDATA    WORD      x
      00000812H   SYMBOL    EDATA    WORD      y
      00000814H   SYMBOL    EDATA    FLOAT     dat
      00000818H   SYMBOL    EDATA    BYTE      num
      00000819H   SYMBOL    EDATA    BYTE      pointnum
      0000081AH   SYMBOL    EDATA    BYTE      length
      0000081BH   SYMBOL    EDATA    ---       buff
      0000083DH   SYMBOL    EDATA    CHAR      start
      0000083EH   SYMBOL    EDATA    CHAR      end
      0000083FH   SYMBOL    EDATA    CHAR      point
      00000C6BH   SYMBOL    EDATA    WORD      high
      00000C6DH   SYMBOL    EDATA    WORD      width
      00000C6FH   SYMBOL    EDATA    ---       p
      00000C73H   SYMBOL    EDATA    BYTE      value
      00000C74H   SYMBOL    EDATA    WORD      i
      00000C76H   SYMBOL    EDATA    WORD      j
      00000C78H   SYMBOL    EDATA    WORD      temp
      00000C7AH   SYMBOL    EDATA    WORD      temp1
      00000C7CH   SYMBOL    EDATA    BYTE      dat
      00000D18H   SYMBOL    EDATA    BYTE      x
      00000D19H   SYMBOL    EDATA    BYTE      y
      00000D1AH   SYMBOL    EDATA    BYTE      size
      00000D1BH   SYMBOL    EDATA    ---       p
      00000D1FH   SYMBOL    EDATA    BYTE      len
      00000D20H   SYMBOL    EDATA    WORD      i
      00000D22H   SYMBOL    EDATA    WORD      j
      00000D24H   SYMBOL    EDATA    WORD      k

      00FFA9EBH   BLOCK     CODE     ---       LVL=0
      000012D1H   SYMBOL    EDATA    BYTE      dat
      00FFA9EBH   LINE      CODE     ---       #534
      00FFA9EFH   LINE      CODE     ---       #536
      00FFA9F2H   LINE      CODE     ---       #537
      00FFA9F5H   LINE      CODE     ---       #538
      00FFA9FCH   LINE      CODE     ---       #539
      00FFA9FFH   LINE      CODE     ---       #542
      ---         BLOCKEND  ---      ---       LVL=0

      00FFA9D6H   BLOCK     CODE     ---       LVL=0
      000012D2H   SYMBOL    EDATA    BYTE      cmd
      00FFA9D6H   LINE      CODE     ---       #576
      00FFA9DAH   LINE      CODE     ---       #578
      00FFA9DDH   LINE      CODE     ---       #579
      00FFA9E0H   LINE      CODE     ---       #580
      00FFA9E7H   LINE      CODE     ---       #581
      00FFA9EAH   LINE      CODE     ---       #582
      ---         BLOCKEND  ---      ---       LVL=0

      00FF8C7AH   BLOCK     CODE     ---       LVL=0
      00001078H   SYMBOL    EDATA    WORD      hex
      0000107AH   SYMBOL    EDATA    ---       Print
      00FF8C82H   BLOCK     CODE     NEAR LAB  LVL=1
      0000107EH   SYMBOL    EDATA    BYTE      hexcheck
      0000107FH   SYMBOL    EDATA    BYTE      TEMP
      ---         BLOCKEND  ---      ---       LVL=1
      00FF8C7AH   LINE      CODE     ---       #591
      00FF8C82H   LINE      CODE     ---       #592
L251 LINKER/LOCATER V4.66.93.0                                                        11/18/2024  23:30:20  PAGE 122


      00FF8C82H   LINE      CODE     ---       #595
      00FF8C88H   LINE      CODE     ---       #596
      00FF8C98H   LINE      CODE     ---       #597
      00FF8C9AH   LINE      CODE     ---       #599
      00FF8CA6H   LINE      CODE     ---       #600
      00FF8CB6H   LINE      CODE     ---       #601
      00FF8CC4H   LINE      CODE     ---       #602
      00FF8CDFH   LINE      CODE     ---       #603
      00FF8CE8H   LINE      CODE     ---       #605
      ---         BLOCKEND  ---      ---       LVL=0

      00FFA1CDH   BLOCK     CODE     ---       LVL=0
      000012B1H   SYMBOL    EDATA    BYTE      x
      000012B2H   SYMBOL    EDATA    BYTE      y
      00FFA1CDH   LINE      CODE     ---       #672
      00FFA1D5H   LINE      CODE     ---       #676
      00FFA1E0H   LINE      CODE     ---       #677
      00FFA1F7H   LINE      CODE     ---       #678
      00FFA202H   LINE      CODE     ---       #679
      ---         BLOCKEND  ---      ---       LVL=0

      00FF944FH   BLOCK     CODE     ---       LVL=0
      0000125EH   SYMBOL    EDATA    BYTE      bmp_data
      00FF9453H   BLOCK     CODE     NEAR LAB  LVL=1
      0000125FH   SYMBOL    EDATA    BYTE      y
      00001260H   SYMBOL    EDATA    BYTE      x
      ---         BLOCKEND  ---      ---       LVL=1
      00FF944FH   LINE      CODE     ---       #688
      00FF9453H   LINE      CODE     ---       #689
      00FF9453H   LINE      CODE     ---       #692
      00FF945AH   LINE      CODE     ---       #694
      00FF9465H   LINE      CODE     ---       #695
      00FF946AH   LINE      CODE     ---       #696
      00FF946FH   LINE      CODE     ---       #697
      00FF9494H   LINE      CODE     ---       #698
      00FF94ABH   LINE      CODE     ---       #699
      ---         BLOCKEND  ---      ---       LVL=0
      00001261H   SYMBOL    EDATA    BYTE      x
      00001262H   SYMBOL    EDATA    BYTE      y
      00001263H   SYMBOL    EDATA    BYTE      data1
      000012B3H   SYMBOL    EDATA    BYTE      x
      000012B4H   SYMBOL    EDATA    BYTE      y

      00FF7B18H   BLOCK     CODE     ---       LVL=0
      00000FDCH   SYMBOL    EDATA    BYTE      x
      00000FDDH   SYMBOL    EDATA    BYTE      y
      00000FDEH   SYMBOL    EDATA    ---       ch
      00FF7B24H   BLOCK     CODE     NEAR LAB  LVL=1
      00000FE2H   SYMBOL    EDATA    BYTE      c
      00000FE3H   SYMBOL    EDATA    BYTE      i
      00000FE4H   SYMBOL    EDATA    BYTE      j
      ---         BLOCKEND  ---      ---       LVL=1
      00FF7B18H   LINE      CODE     ---       #748
      00FF7B24H   LINE      CODE     ---       #749
      00FF7B24H   LINE      CODE     ---       #750
      00FF7B33H   LINE      CODE     ---       #751
      00FF7B36H   LINE      CODE     ---       #753
      00FF7B51H   LINE      CODE     ---       #754
      00FF7B6DH   LINE      CODE     ---       #755
      00FF7B78H   LINE      CODE     ---       #756
      00FF7BB8H   LINE      CODE     ---       #757
      00FF7BC4H   LINE      CODE     ---       #758
      00FF7BD1H   LINE      CODE     ---       #759
      00FF7BE8H   LINE      CODE     ---       #760
      ---         BLOCKEND  ---      ---       LVL=0
L251 LINKER/LOCATER V4.66.93.0                                                        11/18/2024  23:30:20  PAGE 123


      00000FE5H   SYMBOL    EDATA    BYTE      x
      00000FE6H   SYMBOL    EDATA    BYTE      y
      00000FE7H   SYMBOL    EDATA    ---       ch
      00000FEBH   SYMBOL    EDATA    BYTE      c
      00000FECH   SYMBOL    EDATA    BYTE      i
      00000FEDH   SYMBOL    EDATA    BYTE      j
      00000E4BH   SYMBOL    EDATA    BYTE      x
      00000E4CH   SYMBOL    EDATA    BYTE      y
      00000E4DH   SYMBOL    EDATA    WORD      num
      00000E4FH   SYMBOL    EDATA    ---       ch
      00000E56H   SYMBOL    EDATA    BYTE      x
      00000E57H   SYMBOL    EDATA    BYTE      y
      00000E58H   SYMBOL    EDATA    INT       num
      00000E5AH   SYMBOL    EDATA    ---       ch
      000009A9H   SYMBOL    EDATA    WORD      x
      000009ABH   SYMBOL    EDATA    WORD      y
      000009ADH   SYMBOL    EDATA    LONG      dat
      000009B1H   SYMBOL    EDATA    BYTE      num
      000009B2H   SYMBOL    EDATA    ---       buff
      000009D4H   SYMBOL    EDATA    BYTE      length
      00000840H   SYMBOL    EDATA    WORD      x
      00000842H   SYMBOL    EDATA    WORD      y
      00000844H   SYMBOL    EDATA    FLOAT     dat
      00000848H   SYMBOL    EDATA    BYTE      num
      00000849H   SYMBOL    EDATA    BYTE      pointnum
      0000084AH   SYMBOL    EDATA    BYTE      length
      0000084BH   SYMBOL    EDATA    ---       buff
      0000086DH   SYMBOL    EDATA    CHAR      start
      0000086EH   SYMBOL    EDATA    CHAR      end
      0000086FH   SYMBOL    EDATA    CHAR      point
      00000C7DH   SYMBOL    EDATA    WORD      high
      00000C7FH   SYMBOL    EDATA    WORD      width
      00000C81H   SYMBOL    EDATA    ---       p
      00000C85H   SYMBOL    EDATA    BYTE      value
      00000C86H   SYMBOL    EDATA    WORD      i
      00000C88H   SYMBOL    EDATA    WORD      j
      00000C8AH   SYMBOL    EDATA    WORD      temp
      00000C8CH   SYMBOL    EDATA    WORD      temp1
      00000C8EH   SYMBOL    EDATA    BYTE      dat
      00000D26H   SYMBOL    EDATA    BYTE      x
      00000D27H   SYMBOL    EDATA    BYTE      y
      00000D28H   SYMBOL    EDATA    BYTE      size
      00000D29H   SYMBOL    EDATA    ---       p
      00000D2DH   SYMBOL    EDATA    BYTE      len
      00000D2EH   SYMBOL    EDATA    WORD      i
      00000D30H   SYMBOL    EDATA    WORD      j
      00000D32H   SYMBOL    EDATA    WORD      k

      ---         MODULE    ---      ---       SEEKFREE_TSL1401
      00000008H   PUBLIC    EDATA    BYTE      tsl1401_finish_flag
      00000009H   PUBLIC    EDATA    ---       ccd_data_ch1
      00000109H   PUBLIC    EDATA    ---       ccd_data_ch2
      000000D0H   SFRSYM    DATA     BYTE      PSW
      0000009DH   SFRSYM    DATA     BYTE      IRCBAND
      00000097H   SFRSYM    DATA     BYTE      AUXR2
      000000EFH   SFRSYM    DATA     BYTE      AUXINTIF
      000000FDH   SFRSYM    DATA     BYTE      S4CON
      000000ACH   SFRSYM    DATA     BYTE      S3CON
      0000009AH   SFRSYM    DATA     BYTE      S2CON
      000000B7H   SFRSYM    DATA     BYTE      IPH
      000000CDH   SFRSYM    DATA     BYTE      SPSTAT
      000000DDH   SFRSYM    DATA     BYTE      T4T3M
      000000C1H   SFRSYM    DATA     BYTE      WDT_CONTR
      000000DFH   SFRSYM    DATA     BYTE      IP3
      000000F4H   SFRSYM    DATA     BYTE      USBCON
L251 LINKER/LOCATER V4.66.93.0                                                        11/18/2024  23:30:20  PAGE 124


      000000B5H   SFRSYM    DATA     BYTE      IP2
      000000FFH   SFRSYM    DATA     BYTE      RSTCFG
      000000C7H   SFRSYM    DATA     BYTE      IAP_CONTR
      000000F9H   SFRSYM    DATA     BYTE      LINICR
      0000008EH   SFRSYM    DATA     BYTE      AUXR
      000000AFH   SFRSYM    DATA     BYTE      IE2
      00000080H.7 SFRSYM    DATA     BIT       P07
      00000088H   SFRSYM    DATA     BYTE      TCON
      00000089H   SFRSYM    DATA     BYTE      TMOD
      00000098H   SFRSYM    DATA     BYTE      SCON
      00000080H.2 SFRSYM    DATA     BIT       P02
      000000F1H   SFRSYM    DATA     BYTE      CANICR
      00000087H   SFRSYM    DATA     BYTE      PCON
      000000BCH   SFRSYM    DATA     BYTE      ADC_CONTR
      000000E7H   SFRSYM    DATA     BYTE      CMPCR2
      000000E6H   SFRSYM    DATA     BYTE      CMPCR1
      000000DEH   SFRSYM    DATA     BYTE      ADCCFG
      000000B8H   SFRSYM    DATA     BYTE      IP
      0000008FH   SFRSYM    DATA     BYTE      INTCLKO
      000000EEH   SFRSYM    DATA     BYTE      IP3H
      000000B6H   SFRSYM    DATA     BYTE      IP2H
      000000A8H   SFRSYM    DATA     BYTE      IE
      000000BBH   SFRSYM    DATA     BYTE      P_SW3
      000000BAH   SFRSYM    DATA     BYTE      P_SW2
      000000A2H   SFRSYM    DATA     BYTE      P_SW1
      000000CEH   SFRSYM    DATA     BYTE      SPCTL
      000000F8H   SFRSYM    DATA     BYTE      P7
      000000E8H   SFRSYM    DATA     BYTE      P6
      000000C8H   SFRSYM    DATA     BYTE      P5
      000000C0H   SFRSYM    DATA     BYTE      P4
      000000B0H   SFRSYM    DATA     BYTE      P3
      000000A0H   SFRSYM    DATA     BYTE      P2
      00000090H   SFRSYM    DATA     BYTE      P1
      00000080H   SFRSYM    DATA     BYTE      P0
      000010C2H   SYMBOL    EDATA    INT       uart_n
      000010C4H   SYMBOL    EDATA    ---       dat
      000010C8H   SYMBOL    EDATA    BYTE      i
      000012D3H   SYMBOL    EDATA    BYTE      i

      ---         MODULE    ---      ---       SEEKFREE_VIRSCO
      00FF83F1H   PUBLIC    CODE     ---       CRC_CHECK
      00000EEEH   PUBLIC    EDATA    ---       virtual_scope_data
      00000D34H   PUBLIC    EDATA    BYTE      ?data_conversion?BYTE
      000000D0H   SFRSYM    DATA     BYTE      PSW
      0000009DH   SFRSYM    DATA     BYTE      IRCBAND
      00000097H   SFRSYM    DATA     BYTE      AUXR2
      000000EFH   SFRSYM    DATA     BYTE      AUXINTIF
      000000FDH   SFRSYM    DATA     BYTE      S4CON
      000000ACH   SFRSYM    DATA     BYTE      S3CON
      0000009AH   SFRSYM    DATA     BYTE      S2CON
      000000B7H   SFRSYM    DATA     BYTE      IPH
      000000CDH   SFRSYM    DATA     BYTE      SPSTAT
      000000DDH   SFRSYM    DATA     BYTE      T4T3M
      000000C1H   SFRSYM    DATA     BYTE      WDT_CONTR
      000000DFH   SFRSYM    DATA     BYTE      IP3
      000000F4H   SFRSYM    DATA     BYTE      USBCON
      000000B5H   SFRSYM    DATA     BYTE      IP2
      000000FFH   SFRSYM    DATA     BYTE      RSTCFG
      000000C7H   SFRSYM    DATA     BYTE      IAP_CONTR
      000000F9H   SFRSYM    DATA     BYTE      LINICR
      0000008EH   SFRSYM    DATA     BYTE      AUXR
      000000AFH   SFRSYM    DATA     BYTE      IE2
      00000088H   SFRSYM    DATA     BYTE      TCON
      00000089H   SFRSYM    DATA     BYTE      TMOD
      00000098H   SFRSYM    DATA     BYTE      SCON
L251 LINKER/LOCATER V4.66.93.0                                                        11/18/2024  23:30:20  PAGE 125


      000000F1H   SFRSYM    DATA     BYTE      CANICR
      00000087H   SFRSYM    DATA     BYTE      PCON
      000000BCH   SFRSYM    DATA     BYTE      ADC_CONTR
      000000E7H   SFRSYM    DATA     BYTE      CMPCR2
      000000E6H   SFRSYM    DATA     BYTE      CMPCR1
      000000DEH   SFRSYM    DATA     BYTE      ADCCFG
      000000B8H   SFRSYM    DATA     BYTE      IP
      0000008FH   SFRSYM    DATA     BYTE      INTCLKO
      000000EEH   SFRSYM    DATA     BYTE      IP3H
      000000B6H   SFRSYM    DATA     BYTE      IP2H
      000000A8H   SFRSYM    DATA     BYTE      IE
      000000BBH   SFRSYM    DATA     BYTE      P_SW3
      000000BAH   SFRSYM    DATA     BYTE      P_SW2
      000000A2H   SFRSYM    DATA     BYTE      P_SW1
      000000CEH   SFRSYM    DATA     BYTE      SPCTL
      000000F8H   SFRSYM    DATA     BYTE      P7
      000000E8H   SFRSYM    DATA     BYTE      P6
      000000C8H   SFRSYM    DATA     BYTE      P5
      000000C0H   SFRSYM    DATA     BYTE      P4
      000000B0H   SFRSYM    DATA     BYTE      P3
      000000A0H   SFRSYM    DATA     BYTE      P2
      00000090H   SFRSYM    DATA     BYTE      P1
      00000080H   SFRSYM    DATA     BYTE      P0

      00FF83F1H   BLOCK     CODE     ---       LVL=0
      00000FEEH   SYMBOL    EDATA    ---       Buf
      00000FF2H   SYMBOL    EDATA    BYTE      CRC_CNT
      00FF83F9H   BLOCK     CODE     NEAR LAB  LVL=1
      00000FF3H   SYMBOL    EDATA    WORD      CRC_Temp
      00000FF5H   SYMBOL    EDATA    BYTE      i
      00000FF6H   SYMBOL    EDATA    BYTE      j
      ---         BLOCKEND  ---      ---       LVL=1
      00FF83F1H   LINE      CODE     ---       #38
      00FF83F9H   LINE      CODE     ---       #39
      00FF83F9H   LINE      CODE     ---       #42
      00FF8401H   LINE      CODE     ---       #44
      00FF8408H   LINE      CODE     ---       #45
      00FF8423H   LINE      CODE     ---       #46
      00FF842AH   LINE      CODE     ---       #47
      00FF843AH   LINE      CODE     ---       #48
      00FF844CH   LINE      CODE     ---       #50
      00FF8456H   LINE      CODE     ---       #51
      00FF846DH   LINE      CODE     ---       #52
      00FF8486H   LINE      CODE     ---       #53
      00FF848AH   LINE      CODE     ---       #54
      ---         BLOCKEND  ---      ---       LVL=0
      00000D34H   SYMBOL    EDATA    INT       data1
      00000D36H   SYMBOL    EDATA    INT       data2
      00000D38H   SYMBOL    EDATA    INT       data3
      00000D3AH   SYMBOL    EDATA    INT       data4
      00000D3CH   SYMBOL    EDATA    ---       dat
      00000D40H   SYMBOL    EDATA    WORD      CRC16

      ---         MODULE    ---      ---       SEEKFREE_WIRELESS
      00FFA2D5H   PUBLIC    CODE     ---       wireless_uart_read_buff
      00FF8AB2H   PUBLIC    CODE     ---       wireless_uart_send_buff
      00FFA830H   PUBLIC    CODE     ---       wireless_uart_callback
      00FF9E6FH   PUBLIC    CODE     ---       wireless_uart_init
      000000D0H   SFRSYM    DATA     BYTE      PSW
      0000009DH   SFRSYM    DATA     BYTE      IRCBAND
      00000097H   SFRSYM    DATA     BYTE      AUXR2
      000000EFH   SFRSYM    DATA     BYTE      AUXINTIF
      000000FDH   SFRSYM    DATA     BYTE      S4CON
      000000ACH   SFRSYM    DATA     BYTE      S3CON
      0000009AH   SFRSYM    DATA     BYTE      S2CON
L251 LINKER/LOCATER V4.66.93.0                                                        11/18/2024  23:30:20  PAGE 126


      000000FEH   SFRSYM    DATA     BYTE      S4BUF
      000000B7H   SFRSYM    DATA     BYTE      IPH
      000000CDH   SFRSYM    DATA     BYTE      SPSTAT
      000000DDH   SFRSYM    DATA     BYTE      T4T3M
      000000C1H   SFRSYM    DATA     BYTE      WDT_CONTR
      000000DFH   SFRSYM    DATA     BYTE      IP3
      000000F4H   SFRSYM    DATA     BYTE      USBCON
      000000B5H   SFRSYM    DATA     BYTE      IP2
      000000FFH   SFRSYM    DATA     BYTE      RSTCFG
      000000C7H   SFRSYM    DATA     BYTE      IAP_CONTR
      000000F9H   SFRSYM    DATA     BYTE      LINICR
      0000008EH   SFRSYM    DATA     BYTE      AUXR
      000000AFH   SFRSYM    DATA     BYTE      IE2
      00000080H.7 SFRSYM    DATA     BIT       P07
      00000088H   SFRSYM    DATA     BYTE      TCON
      00000089H   SFRSYM    DATA     BYTE      TMOD
      00000098H   SFRSYM    DATA     BYTE      SCON
      000000F1H   SFRSYM    DATA     BYTE      CANICR
      00000087H   SFRSYM    DATA     BYTE      PCON
      000000BCH   SFRSYM    DATA     BYTE      ADC_CONTR
      000000E7H   SFRSYM    DATA     BYTE      CMPCR2
      000000E6H   SFRSYM    DATA     BYTE      CMPCR1
      000000DEH   SFRSYM    DATA     BYTE      ADCCFG
      000000B8H   SFRSYM    DATA     BYTE      IP
      0000008FH   SFRSYM    DATA     BYTE      INTCLKO
      000000EEH   SFRSYM    DATA     BYTE      IP3H
      000000B6H   SFRSYM    DATA     BYTE      IP2H
      000000A8H   SFRSYM    DATA     BYTE      IE
      000000BBH   SFRSYM    DATA     BYTE      P_SW3
      000000BAH   SFRSYM    DATA     BYTE      P_SW2
      000000A2H   SFRSYM    DATA     BYTE      P_SW1
      000000CEH   SFRSYM    DATA     BYTE      SPCTL
      000000F8H   SFRSYM    DATA     BYTE      P7
      000000E8H   SFRSYM    DATA     BYTE      P6
      000000C8H   SFRSYM    DATA     BYTE      P5
      000000C0H   SFRSYM    DATA     BYTE      P4
      000000B0H   SFRSYM    DATA     BYTE      P3
      000000A0H   SFRSYM    DATA     BYTE      P2
      00000090H   SFRSYM    DATA     BYTE      P1
      00000080H   SFRSYM    DATA     BYTE      P0
      0000067EH   SYMBOL    EDATA    BYTE      wireless_uart_data
      0000067FH   SYMBOL    EDATA    ---       wireless_uart_fifo
      00000696H   SYMBOL    EDATA    ---       wireless_uart_buffer

      00FFA830H   BLOCK     CODE     ---       LVL=0
      00FFA830H   LINE      CODE     ---       #48
      00FFA830H   LINE      CODE     ---       #51
      00FFA836H   LINE      CODE     ---       #52
      00FFA849H   LINE      CODE     ---       #53
      ---         BLOCKEND  ---      ---       LVL=0
      000012D4H   SYMBOL    EDATA    BYTE      dat

      00FF8AB2H   BLOCK     CODE     ---       LVL=0
      00001080H   SYMBOL    EDATA    ---       buff
      00001084H   SYMBOL    EDATA    DWORD     len
      00FF8AB2H   LINE      CODE     ---       #81
      00FF8ABAH   LINE      CODE     ---       #83
      00FF8ABCH   LINE      CODE     ---       #85
      00FF8AC5H   LINE      CODE     ---       #87
      00FF8ACBH   LINE      CODE     ---       #88
      00FF8ACBH   LINE      CODE     ---       #90
      00FF8ADEH   LINE      CODE     ---       #92
      00FF8AEAH   LINE      CODE     ---       #93
      00FF8AF8H   LINE      CODE     ---       #94
      00FF8B02H   LINE      CODE     ---       #96
L251 LINKER/LOCATER V4.66.93.0                                                        11/18/2024  23:30:20  PAGE 127


      00FF8B0BH   LINE      CODE     ---       #98
      00FF8B11H   LINE      CODE     ---       #99
      00FF8B11H   LINE      CODE     ---       #101
      00FF8B24H   LINE      CODE     ---       #103
      00FF8B26H   LINE      CODE     ---       #104
      ---         BLOCKEND  ---      ---       LVL=0

      00FFA2D5H   BLOCK     CODE     ---       LVL=0
      00000E29H   SYMBOL    EDATA    ---       buff
      00000E2DH   SYMBOL    EDATA    DWORD     len
      00FFA2DDH   BLOCK     CODE     NEAR LAB  LVL=1
      00000E31H   SYMBOL    EDATA    DWORD     data_len
      ---         BLOCKEND  ---      ---       LVL=1
      00FFA2D5H   LINE      CODE     ---       #115
      00FFA2DDH   LINE      CODE     ---       #116
      00FFA2DDH   LINE      CODE     ---       #117
      00FFA2E5H   LINE      CODE     ---       #118
      00FFA2FEH   LINE      CODE     ---       #119
      00FFA302H   LINE      CODE     ---       #120
      ---         BLOCKEND  ---      ---       LVL=0

      00FF9E6FH   BLOCK     CODE     ---       LVL=0
      00FF9E6FH   LINE      CODE     ---       #133
      00FF9E6FH   LINE      CODE     ---       #135
      00FF9E72H   LINE      CODE     ---       #136
      00FF9E7AH   LINE      CODE     ---       #138
      00FF9E93H   LINE      CODE     ---       #139
      00FF9EB2H   LINE      CODE     ---       #141
      ---         BLOCKEND  ---      ---       LVL=0

      ---         MODULE    ---      ---       isr
      00FF9EF5H   PUBLIC    CODE     ---       UART1_Isr
      00FF921FH   PUBLIC    CODE     ---       UART2_Isr
      00FFA84AH   PUBLIC    CODE     ---       UART3_Isr
      00FF927DH   PUBLIC    CODE     ---       UART4_Isr
      00FF0086H   PUBLIC    CODE     ---       INT0_Isr
      00FF000AH   PUBLIC    CODE     ---       INT1_Isr
      00FF008EH   PUBLIC    CODE     ---       INT2_Isr
      00FF0096H   PUBLIC    CODE     ---       INT3_Isr
      00FF009EH   PUBLIC    CODE     ---       INT4_Isr
      00FF0012H   PUBLIC    CODE     ---       TM0_Isr
      00FF001AH   PUBLIC    CODE     ---       TM1_Isr
      00FFAAE7H   PUBLIC    CODE     ---       TM2_Isr
      00FFAAEBH   PUBLIC    CODE     ---       TM3_Isr
      00FFAAEFH   PUBLIC    CODE     ---       TM4_Isr
      000000D0H   SFRSYM    DATA     BYTE      PSW
      0000009DH   SFRSYM    DATA     BYTE      IRCBAND
      00000097H   SFRSYM    DATA     BYTE      AUXR2
      000000EFH   SFRSYM    DATA     BYTE      AUXINTIF
      000000FDH   SFRSYM    DATA     BYTE      S4CON
      000000ACH   SFRSYM    DATA     BYTE      S3CON
      0000009AH   SFRSYM    DATA     BYTE      S2CON
      000000B7H   SFRSYM    DATA     BYTE      IPH
      000000CDH   SFRSYM    DATA     BYTE      SPSTAT
      000000DDH   SFRSYM    DATA     BYTE      T4T3M
      000000C1H   SFRSYM    DATA     BYTE      WDT_CONTR
      000000DFH   SFRSYM    DATA     BYTE      IP3
      000000F4H   SFRSYM    DATA     BYTE      USBCON
      000000B5H   SFRSYM    DATA     BYTE      IP2
      000000FFH   SFRSYM    DATA     BYTE      RSTCFG
      000000C7H   SFRSYM    DATA     BYTE      IAP_CONTR
      000000F9H   SFRSYM    DATA     BYTE      LINICR
      0000008EH   SFRSYM    DATA     BYTE      AUXR
      000000AFH   SFRSYM    DATA     BYTE      IE2
      000000C8H.2 SFRSYM    DATA     BIT       P52
L251 LINKER/LOCATER V4.66.93.0                                                        11/18/2024  23:30:20  PAGE 128


      00000088H   SFRSYM    DATA     BYTE      TCON
      00000089H   SFRSYM    DATA     BYTE      TMOD
      00000098H   SFRSYM    DATA     BYTE      SCON
      000000F1H   SFRSYM    DATA     BYTE      CANICR
      00000087H   SFRSYM    DATA     BYTE      PCON
      00000099H   SFRSYM    DATA     BYTE      SBUF
      000000BCH   SFRSYM    DATA     BYTE      ADC_CONTR
      000000E7H   SFRSYM    DATA     BYTE      CMPCR2
      000000E6H   SFRSYM    DATA     BYTE      CMPCR1
      000000DEH   SFRSYM    DATA     BYTE      ADCCFG
      000000B8H   SFRSYM    DATA     BYTE      IP
      0000008FH   SFRSYM    DATA     BYTE      INTCLKO
      000000EEH   SFRSYM    DATA     BYTE      IP3H
      000000B6H   SFRSYM    DATA     BYTE      IP2H
      000000A8H   SFRSYM    DATA     BYTE      IE
      000000BBH   SFRSYM    DATA     BYTE      P_SW3
      000000BAH   SFRSYM    DATA     BYTE      P_SW2
      000000A2H   SFRSYM    DATA     BYTE      P_SW1
      000000CEH   SFRSYM    DATA     BYTE      SPCTL
      000000F8H   SFRSYM    DATA     BYTE      P7
      000000E8H   SFRSYM    DATA     BYTE      P6
      000000C8H   SFRSYM    DATA     BYTE      P5
      000000C0H   SFRSYM    DATA     BYTE      P4
      000000B0H   SFRSYM    DATA     BYTE      P3
      000000A0H   SFRSYM    DATA     BYTE      P2
      00000090H   SFRSYM    DATA     BYTE      P1
      00000080H   SFRSYM    DATA     BYTE      P0

      00FF9EF5H   BLOCK     CODE     ---       LVL=0
      00FF9EF7H   BLOCK     CODE     NEAR LAB  LVL=1
      000012D5H   SYMBOL    EDATA    BYTE      res
      000012D6H   SYMBOL    EDATA    BYTE      dwon_count
      ---         BLOCKEND  ---      ---       LVL=1
      00FF9EF5H   LINE      CODE     ---       #22
      00FF9EF7H   LINE      CODE     ---       #23
      00FF9EF7H   LINE      CODE     ---       #26
      00FF9EFCH   LINE      CODE     ---       #28
      00FF9EFFH   LINE      CODE     ---       #29
      00FF9F04H   LINE      CODE     ---       #30
      00FF9F04H   LINE      CODE     ---       #31
      00FF9F09H   LINE      CODE     ---       #33
      00FF9F0CH   LINE      CODE     ---       #34
      00FF9F12H   LINE      CODE     ---       #36
      00FF9F17H   LINE      CODE     ---       #38
      00FF9F29H   LINE      CODE     ---       #39
      00FF9F2DH   LINE      CODE     ---       #40
      00FF9F2FH   LINE      CODE     ---       #43
      00FF9F34H   LINE      CODE     ---       #44
      00FF9F34H   LINE      CODE     ---       #45
      ---         BLOCKEND  ---      ---       LVL=0

      00FF921FH   BLOCK     CODE     ---       LVL=0
      00FF921FH   LINE      CODE     ---       #49
      00FF9233H   LINE      CODE     ---       #51
      00FF9238H   LINE      CODE     ---       #53
      00FF923BH   LINE      CODE     ---       #54
      00FF9240H   LINE      CODE     ---       #55
      00FF9240H   LINE      CODE     ---       #56
      00FF9245H   LINE      CODE     ---       #58
      00FF9248H   LINE      CODE     ---       #60
      00FF9254H   LINE      CODE     ---       #62
      00FF9257H   LINE      CODE     ---       #63
      00FF9259H   LINE      CODE     ---       #64
      00FF9265H   LINE      CODE     ---       #66
      00FF9268H   LINE      CODE     ---       #67
L251 LINKER/LOCATER V4.66.93.0                                                        11/18/2024  23:30:20  PAGE 129


      00FF9268H   LINE      CODE     ---       #70
      ---         BLOCKEND  ---      ---       LVL=0

      00FFA84AH   BLOCK     CODE     ---       LVL=0
      00FFA84AH   LINE      CODE     ---       #74
      00FFA84CH   LINE      CODE     ---       #76
      00FFA851H   LINE      CODE     ---       #78
      00FFA854H   LINE      CODE     ---       #79
      00FFA859H   LINE      CODE     ---       #80
      00FFA859H   LINE      CODE     ---       #81
      00FFA85EH   LINE      CODE     ---       #83
      00FFA861H   LINE      CODE     ---       #86
      ---         BLOCKEND  ---      ---       LVL=0

      00FF927DH   BLOCK     CODE     ---       LVL=0
      00FF927DH   LINE      CODE     ---       #91
      00FF9291H   LINE      CODE     ---       #93
      00FF9296H   LINE      CODE     ---       #95
      00FF9299H   LINE      CODE     ---       #96
      00FF929EH   LINE      CODE     ---       #97
      00FF929EH   LINE      CODE     ---       #98
      00FF92A3H   LINE      CODE     ---       #100
      00FF92A6H   LINE      CODE     ---       #102
      00FF92B2H   LINE      CODE     ---       #104
      00FF92B5H   LINE      CODE     ---       #105
      00FF92B7H   LINE      CODE     ---       #106
      00FF92C3H   LINE      CODE     ---       #108
      00FF92C6H   LINE      CODE     ---       #109
      00FF92C6H   LINE      CODE     ---       #111
      ---         BLOCKEND  ---      ---       LVL=0

      00FF0086H   BLOCK     CODE     ---       LVL=0
      00FF0086H   LINE      CODE     ---       #114
      00FF0086H   LINE      CODE     ---       #116
      00FF0089H   LINE      CODE     ---       #117
      ---         BLOCKEND  ---      ---       LVL=0

      00FF000AH   BLOCK     CODE     ---       LVL=0
      00FF000AH   LINE      CODE     ---       #118
      00FF000AH   LINE      CODE     ---       #121
      ---         BLOCKEND  ---      ---       LVL=0

      00FF008EH   BLOCK     CODE     ---       LVL=0
      00FF008EH   LINE      CODE     ---       #122
      00FF008EH   LINE      CODE     ---       #124
      00FF0091H   LINE      CODE     ---       #125
      ---         BLOCKEND  ---      ---       LVL=0

      00FF0096H   BLOCK     CODE     ---       LVL=0
      00FF0096H   LINE      CODE     ---       #126
      00FF0096H   LINE      CODE     ---       #128
      00FF0099H   LINE      CODE     ---       #129
      ---         BLOCKEND  ---      ---       LVL=0

      00FF009EH   BLOCK     CODE     ---       LVL=0
      00FF009EH   LINE      CODE     ---       #131
      00FF009EH   LINE      CODE     ---       #133
      00FF00A1H   LINE      CODE     ---       #134
      ---         BLOCKEND  ---      ---       LVL=0

      00FF0012H   BLOCK     CODE     ---       LVL=0
      00FF0012H   LINE      CODE     ---       #136
      00FF0012H   LINE      CODE     ---       #139
      ---         BLOCKEND  ---      ---       LVL=0

L251 LINKER/LOCATER V4.66.93.0                                                        11/18/2024  23:30:20  PAGE 130


      00FF001AH   BLOCK     CODE     ---       LVL=0
      00FF001AH   LINE      CODE     ---       #140
      00FF001AH   LINE      CODE     ---       #143
      ---         BLOCKEND  ---      ---       LVL=0

      00FFAAE7H   BLOCK     CODE     ---       LVL=0
      00FFAAE7H   LINE      CODE     ---       #144
      00FFAAE7H   LINE      CODE     ---       #146
      00FFAAEAH   LINE      CODE     ---       #148
      ---         BLOCKEND  ---      ---       LVL=0

      00FFAAEBH   BLOCK     CODE     ---       LVL=0
      00FFAAEBH   LINE      CODE     ---       #149
      00FFAAEBH   LINE      CODE     ---       #151
      00FFAAEEH   LINE      CODE     ---       #153
      ---         BLOCKEND  ---      ---       LVL=0

      00FFAAEFH   BLOCK     CODE     ---       LVL=0
      00FFAAEFH   LINE      CODE     ---       #155
      00FFAAEFH   LINE      CODE     ---       #157
      00FFAAF2H   LINE      CODE     ---       #160
      ---         BLOCKEND  ---      ---       LVL=0

      ---         MODULE    ---      ---       main
      00FF8520H   PUBLIC    CODE     ---       main
      00001264H   PUBLIC    EDATA    BYTE      dir
      00001265H   PUBLIC    EDATA    INT       duty
      000000D0H   SFRSYM    DATA     BYTE      PSW
      0000009DH   SFRSYM    DATA     BYTE      IRCBAND
      00000097H   SFRSYM    DATA     BYTE      AUXR2
      000000EFH   SFRSYM    DATA     BYTE      AUXINTIF
      000000FDH   SFRSYM    DATA     BYTE      S4CON
      000000ACH   SFRSYM    DATA     BYTE      S3CON
      0000009AH   SFRSYM    DATA     BYTE      S2CON
      000000B7H   SFRSYM    DATA     BYTE      IPH
      000000CDH   SFRSYM    DATA     BYTE      SPSTAT
      000000DDH   SFRSYM    DATA     BYTE      T4T3M
      000000C1H   SFRSYM    DATA     BYTE      WDT_CONTR
      000000DFH   SFRSYM    DATA     BYTE      IP3
      000000F4H   SFRSYM    DATA     BYTE      USBCON
      000000B5H   SFRSYM    DATA     BYTE      IP2
      000000FFH   SFRSYM    DATA     BYTE      RSTCFG
      000000C7H   SFRSYM    DATA     BYTE      IAP_CONTR
      000000F9H   SFRSYM    DATA     BYTE      LINICR
      0000008EH   SFRSYM    DATA     BYTE      AUXR
      000000AFH   SFRSYM    DATA     BYTE      IE2
      00000088H   SFRSYM    DATA     BYTE      TCON
      00000089H   SFRSYM    DATA     BYTE      TMOD
      00000098H   SFRSYM    DATA     BYTE      SCON
      000000F1H   SFRSYM    DATA     BYTE      CANICR
      00000087H   SFRSYM    DATA     BYTE      PCON
      000000BCH   SFRSYM    DATA     BYTE      ADC_CONTR
      000000E7H   SFRSYM    DATA     BYTE      CMPCR2
      000000E6H   SFRSYM    DATA     BYTE      CMPCR1
      000000DEH   SFRSYM    DATA     BYTE      ADCCFG
      000000B8H   SFRSYM    DATA     BYTE      IP
      0000008FH   SFRSYM    DATA     BYTE      INTCLKO
      000000EEH   SFRSYM    DATA     BYTE      IP3H
      000000B6H   SFRSYM    DATA     BYTE      IP2H
      000000A8H   SFRSYM    DATA     BYTE      IE
      000000BBH   SFRSYM    DATA     BYTE      P_SW3
      000000BAH   SFRSYM    DATA     BYTE      P_SW2
      000000A2H   SFRSYM    DATA     BYTE      P_SW1
      000000CEH   SFRSYM    DATA     BYTE      SPCTL
      000000F8H   SFRSYM    DATA     BYTE      P7
L251 LINKER/LOCATER V4.66.93.0                                                        11/18/2024  23:30:20  PAGE 131


      000000E8H   SFRSYM    DATA     BYTE      P6
      000000C8H   SFRSYM    DATA     BYTE      P5
      000000C0H   SFRSYM    DATA     BYTE      P4
      000000B0H   SFRSYM    DATA     BYTE      P3
      000000A0H   SFRSYM    DATA     BYTE      P2
      00000090H   SFRSYM    DATA     BYTE      P1
      00000080H   SFRSYM    DATA     BYTE      P0

      00FF8520H   BLOCK     CODE     ---       LVL=0
      000006D6H   SYMBOL    EDATA    ---       str
      00000716H   SYMBOL    EDATA    INT       recv
      00FF8520H   LINE      CODE     ---       #32
      00FF8520H   LINE      CODE     ---       #33
      00FF8520H   LINE      CODE     ---       #35
      00FF8528H   LINE      CODE     ---       #37
      00FF8533H   LINE      CODE     ---       #38
      00FF8536H   LINE      CODE     ---       #41
      00FF8539H   LINE      CODE     ---       #42
      00FF853CH   LINE      CODE     ---       #43
      00FF853FH   LINE      CODE     ---       #44
      00FF8542H   LINE      CODE     ---       #45
      00FF8545H   LINE      CODE     ---       #46
      00FF8548H   LINE      CODE     ---       #47
      00FF854BH   LINE      CODE     ---       #48
      00FF854EH   LINE      CODE     ---       #51
      00FF855DH   LINE      CODE     ---       #52
      00FF856DH   LINE      CODE     ---       #54
      00FF856DH   LINE      CODE     ---       #56
      00FF8574H   LINE      CODE     ---       #57
      00FF8580H   LINE      CODE     ---       #58
      00FF8593H   LINE      CODE     ---       #60
      00FF85A2H   LINE      CODE     ---       #61
      00FF85B1H   LINE      CODE     ---       #62
      00FF85B3H   LINE      CODE     ---       #64
      ---         BLOCKEND  ---      ---       LVL=0

      ---         MODULE    ---      ---       seekfree_assistant
      00FF7490H   PUBLIC    CODE     ---       seekfree_assistant_camera_dot_send
      00FF7591H   PUBLIC    CODE     ---       seekfree_assistant_camera_data_send
      00000211H   PUBLIC    EDATA    ---       seekfree_assistant_oscilloscope_data
      0000024CH   PUBLIC    EDATA    ---       seekfree_assistant_parameter_update_flag
      00000254H   PUBLIC    EDATA    ---       seekfree_assistant_parameter
      00000CD1H   PUBLIC    EDATA    BYTE      ?seekfree_assistant_camera_data_send?BYTE
      00000EF8H   PUBLIC    EDATA    BYTE      ?seekfree_assistant_camera_information_config?BYTE
      00000AD8H   PUBLIC    EDATA    BYTE      ?seekfree_assistant_camera_boundary_config?BYTE
      000000D0H   SFRSYM    DATA     BYTE      PSW
      0000009DH   SFRSYM    DATA     BYTE      IRCBAND
      00000097H   SFRSYM    DATA     BYTE      AUXR2
      000000EFH   SFRSYM    DATA     BYTE      AUXINTIF
      000000FDH   SFRSYM    DATA     BYTE      S4CON
      000000ACH   SFRSYM    DATA     BYTE      S3CON
      0000009AH   SFRSYM    DATA     BYTE      S2CON
      000000B7H   SFRSYM    DATA     BYTE      IPH
      000000CDH   SFRSYM    DATA     BYTE      SPSTAT
      000000DDH   SFRSYM    DATA     BYTE      T4T3M
      000000C1H   SFRSYM    DATA     BYTE      WDT_CONTR
      000000DFH   SFRSYM    DATA     BYTE      IP3
      000000F4H   SFRSYM    DATA     BYTE      USBCON
      000000B5H   SFRSYM    DATA     BYTE      IP2
      000000FFH   SFRSYM    DATA     BYTE      RSTCFG
      000000C7H   SFRSYM    DATA     BYTE      IAP_CONTR
      000000F9H   SFRSYM    DATA     BYTE      LINICR
      0000008EH   SFRSYM    DATA     BYTE      AUXR
      000000AFH   SFRSYM    DATA     BYTE      IE2
      00000088H   SFRSYM    DATA     BYTE      TCON
L251 LINKER/LOCATER V4.66.93.0                                                        11/18/2024  23:30:20  PAGE 132


      00000089H   SFRSYM    DATA     BYTE      TMOD
      00000098H   SFRSYM    DATA     BYTE      SCON
      000000F1H   SFRSYM    DATA     BYTE      CANICR
      00000087H   SFRSYM    DATA     BYTE      PCON
      000000BCH   SFRSYM    DATA     BYTE      ADC_CONTR
      000000E7H   SFRSYM    DATA     BYTE      CMPCR2
      000000E6H   SFRSYM    DATA     BYTE      CMPCR1
      000000DEH   SFRSYM    DATA     BYTE      ADCCFG
      000000B8H   SFRSYM    DATA     BYTE      IP
      0000008FH   SFRSYM    DATA     BYTE      INTCLKO
      000000EEH   SFRSYM    DATA     BYTE      IP3H
      000000B6H   SFRSYM    DATA     BYTE      IP2H
      000000A8H   SFRSYM    DATA     BYTE      IE
      000000BBH   SFRSYM    DATA     BYTE      P_SW3
      000000BAH   SFRSYM    DATA     BYTE      P_SW2
      000000A2H   SFRSYM    DATA     BYTE      P_SW1
      000000CEH   SFRSYM    DATA     BYTE      SPCTL
      000000F8H   SFRSYM    DATA     BYTE      P7
      000000E8H   SFRSYM    DATA     BYTE      P6
      000000C8H   SFRSYM    DATA     BYTE      P5
      000000C0H   SFRSYM    DATA     BYTE      P4
      000000B0H   SFRSYM    DATA     BYTE      P3
      000000A0H   SFRSYM    DATA     BYTE      P2
      00000090H   SFRSYM    DATA     BYTE      P1
      00000080H   SFRSYM    DATA     BYTE      P0
      00FF9F37H   SYMBOL    CODE     ---       seekfree_assistant_sum
      00000209H   SYMBOL    EDATA    ---       seekfree_assistant_camera_dot_data
      00000235H   SYMBOL    EDATA    ---       seekfree_assistant_fifo
      00000274H   SYMBOL    EDATA    ---       seekfree_assistant_camera_buffer
      000002BEH   SYMBOL    EDATA    ---       seekfree_assistant_camera_data
      000002C6H   SYMBOL    EDATA    ---       seekfree_assistant_buffer

      00FF9F37H   BLOCK     CODE     ---       LVL=0
      00000FF7H   SYMBOL    EDATA    ---       buffer
      00000FFBH   SYMBOL    EDATA    DWORD     length
      00FF9F3FH   BLOCK     CODE     NEAR LAB  LVL=1
      00000FFFH   SYMBOL    EDATA    BYTE      temp_sum
      ---         BLOCKEND  ---      ---       LVL=1
      00FF9F37H   LINE      CODE     ---       #39
      00FF9F3FH   LINE      CODE     ---       #40
      00FF9F3FH   LINE      CODE     ---       #41
      00FF9F44H   LINE      CODE     ---       #43
      00FF9F46H   LINE      CODE     ---       #45
      00FF9F5DH   LINE      CODE     ---       #46
      00FF9F71H   LINE      CODE     ---       #48
      00FF9F75H   LINE      CODE     ---       #49
      ---         BLOCKEND  ---      ---       LVL=0

      00FF7591H   BLOCK     CODE     ---       LVL=0
      00000CD1H   SYMBOL    EDATA    INT       camera_type
      00000CD3H   SYMBOL    EDATA    ---       image_addr
      00000CD7H   SYMBOL    EDATA    BYTE      boundary_num
      00000CD8H   SYMBOL    EDATA    WORD      width
      00000CDAH   SYMBOL    EDATA    WORD      height
      00FF75A1H   BLOCK     CODE     NEAR LAB  LVL=1
      00000CDCH   SYMBOL    EDATA    DWORD     image_size
      ---         BLOCKEND  ---      ---       LVL=1
      00FF7591H   LINE      CODE     ---       #61
      00FF75A1H   LINE      CODE     ---       #62
      00FF75A1H   LINE      CODE     ---       #63
      00FF75A7H   LINE      CODE     ---       #65
      00FF75ADH   LINE      CODE     ---       #66
      00FF75B3H   LINE      CODE     ---       #67
      00FF75E7H   LINE      CODE     ---       #69
      00FF75EDH   LINE      CODE     ---       #70
L251 LINKER/LOCATER V4.66.93.0                                                        11/18/2024  23:30:20  PAGE 133


      00FF7607H   LINE      CODE     ---       #71
      00FF7621H   LINE      CODE     ---       #74
      00FF762FH   LINE      CODE     ---       #77
      00FF763FH   LINE      CODE     ---       #79
      00FF763FH   LINE      CODE     ---       #81
      00FF7655H   LINE      CODE     ---       #82
      00FF7657H   LINE      CODE     ---       #84
      00FF7657H   LINE      CODE     ---       #86
      00FF7667H   LINE      CODE     ---       #87
      00FF7669H   LINE      CODE     ---       #89
      00FF7669H   LINE      CODE     ---       #91
      00FF767BH   LINE      CODE     ---       #92
      00FF767BH   LINE      CODE     ---       #93
      00FF767BH   LINE      CODE     ---       #96
      00FF7683H   LINE      CODE     ---       #98
      00FF7691H   LINE      CODE     ---       #99
      ---         BLOCKEND  ---      ---       LVL=0
      00000EF8H   SYMBOL    EDATA    INT       camera_type
      00000EFAH   SYMBOL    EDATA    ---       image_addr
      00000EFEH   SYMBOL    EDATA    WORD      width
      00000F00H   SYMBOL    EDATA    WORD      height
      000009FFH   SYMBOL    EDATA    ---       seekfree_assistant_oscilloscope
      00000A03H   SYMBOL    EDATA    BYTE      packet_size
      00000A04H   SYMBOL    EDATA    BYTE      i
      00000A05H   SYMBOL    EDATA    ---       temp_oscilloscope

      00FF7490H   BLOCK     CODE     ---       LVL=0
      000010C9H   SYMBOL    EDATA    ---       buffer
      00FF7494H   BLOCK     CODE     NEAR LAB  LVL=1
      000010CDH   SYMBOL    EDATA    BYTE      i
      000010CEH   SYMBOL    EDATA    WORD      dot_bytes
      ---         BLOCKEND  ---      ---       LVL=1
      00FF7490H   LINE      CODE     ---       #167
      00FF7494H   LINE      CODE     ---       #168
      00FF7494H   LINE      CODE     ---       #170
      00FF749AH   LINE      CODE     ---       #172
      00FF74A2H   LINE      CODE     ---       #173
      00FF74B8H   LINE      CODE     ---       #174
      00FF74CAH   LINE      CODE     ---       #176
      00FF74D8H   LINE      CODE     ---       #177
      00FF74D8H   LINE      CODE     ---       #180
      00FF74E6H   LINE      CODE     ---       #182
      00FF74EEH   LINE      CODE     ---       #185
      00FF750CH   LINE      CODE     ---       #187
      00FF7532H   LINE      CODE     ---       #188
      00FF7532H   LINE      CODE     ---       #191
      00FF7550H   LINE      CODE     ---       #195
      00FF7576H   LINE      CODE     ---       #196
      00FF7590H   LINE      CODE     ---       #198
      ---         BLOCKEND  ---      ---       LVL=0
      00000AD8H   SYMBOL    EDATA    INT       boundary_type
      00000ADAH   SYMBOL    EDATA    WORD      dot_num
      00000ADCH   SYMBOL    EDATA    ---       dot_x1
      00000AE0H   SYMBOL    EDATA    ---       dot_x2
      00000AE4H   SYMBOL    EDATA    ---       dot_x3
      00000AE8H   SYMBOL    EDATA    ---       dot_y1
      00000AECH   SYMBOL    EDATA    ---       dot_y2
      00000AF0H   SYMBOL    EDATA    ---       dot_y3
      00000AF4H   SYMBOL    EDATA    BYTE      i
      00000AF5H   SYMBOL    EDATA    BYTE      boundary_num
      00000AF6H   SYMBOL    EDATA    BYTE      boundary_data_type
      0000044CH   SYMBOL    EDATA    BYTE      temp_sum
      0000044DH   SYMBOL    EDATA    DWORD     read_length
      00000451H   SYMBOL    EDATA    ---       receive_packet
      00000455H   SYMBOL    EDATA    ---       temp_buffer
L251 LINKER/LOCATER V4.66.93.0                                                        11/18/2024  23:30:20  PAGE 134


      000004D5H   SYMBOL    EDATA    DWORD     i

      ---         MODULE    ---      ---       seekfree_assistant_inface
      00001216H   PUBLIC    EDATA    ---       seekfree_assistant_receive
      00001218H   PUBLIC    EDATA    ---       seekfree_assistant_transfer
      000000D0H   SFRSYM    DATA     BYTE      PSW
      0000009DH   SFRSYM    DATA     BYTE      IRCBAND
      00000097H   SFRSYM    DATA     BYTE      AUXR2
      000000EFH   SFRSYM    DATA     BYTE      AUXINTIF
      000000FDH   SFRSYM    DATA     BYTE      S4CON
      000000ACH   SFRSYM    DATA     BYTE      S3CON
      0000009AH   SFRSYM    DATA     BYTE      S2CON
      000000B7H   SFRSYM    DATA     BYTE      IPH
      000000CDH   SFRSYM    DATA     BYTE      SPSTAT
      000000DDH   SFRSYM    DATA     BYTE      T4T3M
      000000C1H   SFRSYM    DATA     BYTE      WDT_CONTR
      000000DFH   SFRSYM    DATA     BYTE      IP3
      000000F4H   SFRSYM    DATA     BYTE      USBCON
      000000B5H   SFRSYM    DATA     BYTE      IP2
      000000FFH   SFRSYM    DATA     BYTE      RSTCFG
      000000C7H   SFRSYM    DATA     BYTE      IAP_CONTR
      000000F9H   SFRSYM    DATA     BYTE      LINICR
      0000008EH   SFRSYM    DATA     BYTE      AUXR
      000000AFH   SFRSYM    DATA     BYTE      IE2
      00000088H   SFRSYM    DATA     BYTE      TCON
      00000089H   SFRSYM    DATA     BYTE      TMOD
      00000098H   SFRSYM    DATA     BYTE      SCON
      000000F1H   SFRSYM    DATA     BYTE      CANICR
      00000087H   SFRSYM    DATA     BYTE      PCON
      000000BCH   SFRSYM    DATA     BYTE      ADC_CONTR
      000000E7H   SFRSYM    DATA     BYTE      CMPCR2
      000000E6H   SFRSYM    DATA     BYTE      CMPCR1
      000000DEH   SFRSYM    DATA     BYTE      ADCCFG
      000000B8H   SFRSYM    DATA     BYTE      IP
      0000008FH   SFRSYM    DATA     BYTE      INTCLKO
      000000EEH   SFRSYM    DATA     BYTE      IP3H
      000000B6H   SFRSYM    DATA     BYTE      IP2H
      000000A8H   SFRSYM    DATA     BYTE      IE
      000000BBH   SFRSYM    DATA     BYTE      P_SW3
      000000BAH   SFRSYM    DATA     BYTE      P_SW2
      000000A2H   SFRSYM    DATA     BYTE      P_SW1
      000000CEH   SFRSYM    DATA     BYTE      SPCTL
      000000F8H   SFRSYM    DATA     BYTE      P7
      000000E8H   SFRSYM    DATA     BYTE      P6
      000000C8H   SFRSYM    DATA     BYTE      P5
      000000C0H   SFRSYM    DATA     BYTE      P4
      000000B0H   SFRSYM    DATA     BYTE      P3
      000000A0H   SFRSYM    DATA     BYTE      P2
      00000090H   SFRSYM    DATA     BYTE      P1
      00000080H   SFRSYM    DATA     BYTE      P0

      ---         MODULE    ---      ---       drv8701_dual
      00FF7970H   PUBLIC    CODE     ---       drv8701_control
      00FFA031H   PUBLIC    CODE     ---       drv8701_init
      00FF9E2AH   PUBLIC    CODE     ---       drv8701_stop
      000000D0H   SFRSYM    DATA     BYTE      PSW
      0000009DH   SFRSYM    DATA     BYTE      IRCBAND
      00000097H   SFRSYM    DATA     BYTE      AUXR2
      000000EFH   SFRSYM    DATA     BYTE      AUXINTIF
      000000FDH   SFRSYM    DATA     BYTE      S4CON
      000000ACH   SFRSYM    DATA     BYTE      S3CON
      0000009AH   SFRSYM    DATA     BYTE      S2CON
      000000B7H   SFRSYM    DATA     BYTE      IPH
      000000CDH   SFRSYM    DATA     BYTE      SPSTAT
      000000DDH   SFRSYM    DATA     BYTE      T4T3M
L251 LINKER/LOCATER V4.66.93.0                                                        11/18/2024  23:30:20  PAGE 135


      000000C1H   SFRSYM    DATA     BYTE      WDT_CONTR
      000000DFH   SFRSYM    DATA     BYTE      IP3
      000000F4H   SFRSYM    DATA     BYTE      USBCON
      000000B5H   SFRSYM    DATA     BYTE      IP2
      000000FFH   SFRSYM    DATA     BYTE      RSTCFG
      000000C7H   SFRSYM    DATA     BYTE      IAP_CONTR
      000000F9H   SFRSYM    DATA     BYTE      LINICR
      0000008EH   SFRSYM    DATA     BYTE      AUXR
      000000AFH   SFRSYM    DATA     BYTE      IE2
      000000A0H.4 SFRSYM    DATA     BIT       P24
      00000088H   SFRSYM    DATA     BYTE      TCON
      00000089H   SFRSYM    DATA     BYTE      TMOD
      00000098H   SFRSYM    DATA     BYTE      SCON
      000000F1H   SFRSYM    DATA     BYTE      CANICR
      00000087H   SFRSYM    DATA     BYTE      PCON
      00000090H.0 SFRSYM    DATA     BIT       P10
      000000BCH   SFRSYM    DATA     BYTE      ADC_CONTR
      000000E7H   SFRSYM    DATA     BYTE      CMPCR2
      000000E6H   SFRSYM    DATA     BYTE      CMPCR1
      000000DEH   SFRSYM    DATA     BYTE      ADCCFG
      000000B8H   SFRSYM    DATA     BYTE      IP
      0000008FH   SFRSYM    DATA     BYTE      INTCLKO
      000000EEH   SFRSYM    DATA     BYTE      IP3H
      000000B6H   SFRSYM    DATA     BYTE      IP2H
      000000A8H   SFRSYM    DATA     BYTE      IE
      000000BBH   SFRSYM    DATA     BYTE      P_SW3
      000000BAH   SFRSYM    DATA     BYTE      P_SW2
      000000A2H   SFRSYM    DATA     BYTE      P_SW1
      000000CEH   SFRSYM    DATA     BYTE      SPCTL
      000000F8H   SFRSYM    DATA     BYTE      P7
      000000E8H   SFRSYM    DATA     BYTE      P6
      000000C8H   SFRSYM    DATA     BYTE      P5
      000000C0H   SFRSYM    DATA     BYTE      P4
      000000B0H   SFRSYM    DATA     BYTE      P3
      000000A0H   SFRSYM    DATA     BYTE      P2
      00000090H   SFRSYM    DATA     BYTE      P1
      00000080H   SFRSYM    DATA     BYTE      P0

      00FFA031H   BLOCK     CODE     ---       LVL=0
      00FFA031H   LINE      CODE     ---       #31
      00FFA031H   LINE      CODE     ---       #34
      00FFA042H   LINE      CODE     ---       #35
      00FFA053H   LINE      CODE     ---       #38
      00FFA060H   LINE      CODE     ---       #39
      00FFA06DH   LINE      CODE     ---       #40
      ---         BLOCKEND  ---      ---       LVL=0

      00FF7970H   BLOCK     CODE     ---       LVL=0
      0000117EH   SYMBOL    EDATA    INT       motor_select
      00001180H   SYMBOL    EDATA    LONG      speed
      00FF7970H   LINE      CODE     ---       #47
      00FF7978H   LINE      CODE     ---       #49
      00FF7982H   LINE      CODE     ---       #51
      00FF798AH   LINE      CODE     ---       #52
      00FF798CH   LINE      CODE     ---       #53
      00FF7996H   LINE      CODE     ---       #55
      00FF799EH   LINE      CODE     ---       #56
      00FF799EH   LINE      CODE     ---       #57
      00FF79B4H   LINE      CODE     ---       #58
      00FF79CAH   LINE      CODE     ---       #60
      00FF79D4H   LINE      CODE     ---       #62
      00FF79D7H   LINE      CODE     ---       #63
      00FF79E2H   LINE      CODE     ---       #64
      00FF79E4H   LINE      CODE     ---       #67
      00FF79E7H   LINE      CODE     ---       #68
L251 LINKER/LOCATER V4.66.93.0                                                        11/18/2024  23:30:20  PAGE 136


      00FF79FCH   LINE      CODE     ---       #69
      00FF79FCH   LINE      CODE     ---       #70
      00FF79FCH   LINE      CODE     ---       #71
      00FF7A14H   LINE      CODE     ---       #73
      00FF7A1EH   LINE      CODE     ---       #75
      00FF7A21H   LINE      CODE     ---       #76
      00FF7A2CH   LINE      CODE     ---       #77
      00FF7A2EH   LINE      CODE     ---       #80
      00FF7A31H   LINE      CODE     ---       #81
      00FF7A46H   LINE      CODE     ---       #82
      00FF7A46H   LINE      CODE     ---       #83
      ---         BLOCKEND  ---      ---       LVL=0

      00FF9E2AH   BLOCK     CODE     ---       LVL=0
      000012B5H   SYMBOL    EDATA    INT       motor_select
      00FF9E2AH   LINE      CODE     ---       #90
      00FF9E2EH   LINE      CODE     ---       #92
      00FF9E44H   LINE      CODE     ---       #94
      00FF9E4DH   LINE      CODE     ---       #95
      00FF9E4DH   LINE      CODE     ---       #97
      00FF9E65H   LINE      CODE     ---       #99
      00FF9E6EH   LINE      CODE     ---       #100
      ---         BLOCKEND  ---      ---       LVL=0

      ---         MODULE    ---      ---       servo
      00FF94ACH   PUBLIC    CODE     ---       servo_set_position
      00FFA87EH   PUBLIC    CODE     ---       servo_init
      00000E61H   PUBLIC    EDATA    CHAR      servo_position
      00000E64H   PUBLIC    EDATA    FLOAT     servo_Kd
      00000E68H   PUBLIC    EDATA    FLOAT     servo_Kp
      000000D0H   SFRSYM    DATA     BYTE      PSW
      0000009DH   SFRSYM    DATA     BYTE      IRCBAND
      00000097H   SFRSYM    DATA     BYTE      AUXR2
      000000EFH   SFRSYM    DATA     BYTE      AUXINTIF
      000000FDH   SFRSYM    DATA     BYTE      S4CON
      000000ACH   SFRSYM    DATA     BYTE      S3CON
      0000009AH   SFRSYM    DATA     BYTE      S2CON
      000000B7H   SFRSYM    DATA     BYTE      IPH
      000000CDH   SFRSYM    DATA     BYTE      SPSTAT
      000000DDH   SFRSYM    DATA     BYTE      T4T3M
      000000C1H   SFRSYM    DATA     BYTE      WDT_CONTR
      000000DFH   SFRSYM    DATA     BYTE      IP3
      000000F4H   SFRSYM    DATA     BYTE      USBCON
      000000B5H   SFRSYM    DATA     BYTE      IP2
      000000FFH   SFRSYM    DATA     BYTE      RSTCFG
      000000C7H   SFRSYM    DATA     BYTE      IAP_CONTR
      000000F9H   SFRSYM    DATA     BYTE      LINICR
      0000008EH   SFRSYM    DATA     BYTE      AUXR
      000000AFH   SFRSYM    DATA     BYTE      IE2
      00000088H   SFRSYM    DATA     BYTE      TCON
      00000089H   SFRSYM    DATA     BYTE      TMOD
      00000098H   SFRSYM    DATA     BYTE      SCON
      000000F1H   SFRSYM    DATA     BYTE      CANICR
      00000087H   SFRSYM    DATA     BYTE      PCON
      000000BCH   SFRSYM    DATA     BYTE      ADC_CONTR
      000000E7H   SFRSYM    DATA     BYTE      CMPCR2
      000000E6H   SFRSYM    DATA     BYTE      CMPCR1
      000000DEH   SFRSYM    DATA     BYTE      ADCCFG
      000000B8H   SFRSYM    DATA     BYTE      IP
      0000008FH   SFRSYM    DATA     BYTE      INTCLKO
      000000EEH   SFRSYM    DATA     BYTE      IP3H
      000000B6H   SFRSYM    DATA     BYTE      IP2H
      000000A8H   SFRSYM    DATA     BYTE      IE
      000000BBH   SFRSYM    DATA     BYTE      P_SW3
      000000BAH   SFRSYM    DATA     BYTE      P_SW2
L251 LINKER/LOCATER V4.66.93.0                                                        11/18/2024  23:30:20  PAGE 137


      000000A2H   SFRSYM    DATA     BYTE      P_SW1
      000000CEH   SFRSYM    DATA     BYTE      SPCTL
      000000F8H   SFRSYM    DATA     BYTE      P7
      000000E8H   SFRSYM    DATA     BYTE      P6
      000000C8H   SFRSYM    DATA     BYTE      P5
      000000C0H   SFRSYM    DATA     BYTE      P4
      000000B0H   SFRSYM    DATA     BYTE      P3
      000000A0H   SFRSYM    DATA     BYTE      P2
      00000090H   SFRSYM    DATA     BYTE      P1
      00000080H   SFRSYM    DATA     BYTE      P0
      00000E62H   SYMBOL    EDATA    INT       previous_error

      00FFA87EH   BLOCK     CODE     ---       LVL=0
      0000121AH   SYMBOL    EDATA    DWORD     duty
      00FFA87EH   LINE      CODE     ---       #42
      00FFA87EH   LINE      CODE     ---       #43
      00FFA87EH   LINE      CODE     ---       #44
      00FFA886H   LINE      CODE     ---       #45
      00FFA895H   LINE      CODE     ---       #46
      ---         BLOCKEND  ---      ---       LVL=0

      00FF94ACH   BLOCK     CODE     ---       LVL=0
      00001184H   SYMBOL    EDATA    INT       angle
      00FF94B0H   BLOCK     CODE     NEAR LAB  LVL=1
      00001186H   SYMBOL    EDATA    DWORD     pulseWide
      ---         BLOCKEND  ---      ---       LVL=1
      00FF94ACH   LINE      CODE     ---       #56
      00FF94B0H   LINE      CODE     ---       #57
      00FF94B0H   LINE      CODE     ---       #58
      00FF94B8H   LINE      CODE     ---       #59
      00FF94C4H   LINE      CODE     ---       #61
      00FF94CCH   LINE      CODE     ---       #62
      00FF94CCH   LINE      CODE     ---       #63
      00FF94D8H   LINE      CODE     ---       #65
      00FF94E0H   LINE      CODE     ---       #66
      00FF94E0H   LINE      CODE     ---       #67
      00FF94F2H   LINE      CODE     ---       #68
      00FF94FDH   LINE      CODE     ---       #69
      00FF9505H   LINE      CODE     ---       #70
      ---         BLOCKEND  ---      ---       LVL=0

      ---         MODULE    ---      ---       battery
      00FFAA95H   PUBLIC    CODE     ---       Beep_init
      00FF9100H   PUBLIC    CODE     ---       get_battery_percentage
      00FFAAA4H   PUBLIC    CODE     ---       Beep_set
      00FF909CH   PUBLIC    CODE     ---       get_battery_voltage
      00000F02H   PUBLIC    EDATA    WORD      battery_percentage
      00000F04H   PUBLIC    EDATA    DWORD     temp
      00000F08H   PUBLIC    EDATA    WORD      ad_result
      00000F0AH   PUBLIC    EDATA    WORD      battery_voltage
      000000D0H   SFRSYM    DATA     BYTE      PSW
      0000009DH   SFRSYM    DATA     BYTE      IRCBAND
      00000097H   SFRSYM    DATA     BYTE      AUXR2
      000000EFH   SFRSYM    DATA     BYTE      AUXINTIF
      000000FDH   SFRSYM    DATA     BYTE      S4CON
      000000ACH   SFRSYM    DATA     BYTE      S3CON
      0000009AH   SFRSYM    DATA     BYTE      S2CON
      000000B7H   SFRSYM    DATA     BYTE      IPH
      000000CDH   SFRSYM    DATA     BYTE      SPSTAT
      000000DDH   SFRSYM    DATA     BYTE      T4T3M
      000000C1H   SFRSYM    DATA     BYTE      WDT_CONTR
      000000DFH   SFRSYM    DATA     BYTE      IP3
      000000F4H   SFRSYM    DATA     BYTE      USBCON
      000000B5H   SFRSYM    DATA     BYTE      IP2
      000000FFH   SFRSYM    DATA     BYTE      RSTCFG
L251 LINKER/LOCATER V4.66.93.0                                                        11/18/2024  23:30:20  PAGE 138


      000000C7H   SFRSYM    DATA     BYTE      IAP_CONTR
      000000F9H   SFRSYM    DATA     BYTE      LINICR
      0000008EH   SFRSYM    DATA     BYTE      AUXR
      000000AFH   SFRSYM    DATA     BYTE      IE2
      00000088H   SFRSYM    DATA     BYTE      TCON
      00000089H   SFRSYM    DATA     BYTE      TMOD
      000000B0H.2 SFRSYM    DATA     BIT       P32
      00000098H   SFRSYM    DATA     BYTE      SCON
      000000F1H   SFRSYM    DATA     BYTE      CANICR
      00000087H   SFRSYM    DATA     BYTE      PCON
      000000BCH   SFRSYM    DATA     BYTE      ADC_CONTR
      000000E7H   SFRSYM    DATA     BYTE      CMPCR2
      000000E6H   SFRSYM    DATA     BYTE      CMPCR1
      000000DEH   SFRSYM    DATA     BYTE      ADCCFG
      000000B8H   SFRSYM    DATA     BYTE      IP
      0000008FH   SFRSYM    DATA     BYTE      INTCLKO
      000000EEH   SFRSYM    DATA     BYTE      IP3H
      000000B6H   SFRSYM    DATA     BYTE      IP2H
      000000A8H   SFRSYM    DATA     BYTE      IE
      000000BBH   SFRSYM    DATA     BYTE      P_SW3
      000000BAH   SFRSYM    DATA     BYTE      P_SW2
      000000A2H   SFRSYM    DATA     BYTE      P_SW1
      000000CEH   SFRSYM    DATA     BYTE      SPCTL
      000000F8H   SFRSYM    DATA     BYTE      P7
      000000E8H   SFRSYM    DATA     BYTE      P6
      000000C8H   SFRSYM    DATA     BYTE      P5
      000000C0H   SFRSYM    DATA     BYTE      P4
      000000B0H   SFRSYM    DATA     BYTE      P3
      000000A0H   SFRSYM    DATA     BYTE      P2
      00000090H   SFRSYM    DATA     BYTE      P1
      00000080H   SFRSYM    DATA     BYTE      P0

      00FFAA95H   BLOCK     CODE     ---       LVL=0
      00FFAA95H   LINE      CODE     ---       #36
      00FFAA95H   LINE      CODE     ---       #37
      00FFAAA0H   LINE      CODE     ---       #38
      00FFAAA3H   LINE      CODE     ---       #39
      ---         BLOCKEND  ---      ---       LVL=0

      00FFAAA4H   BLOCK     CODE     ---       LVL=0
      000012D7H   SYMBOL    EDATA    BYTE      status
      00FFAAA4H   LINE      CODE     ---       #48
      00FFAAA8H   LINE      CODE     ---       #49
      00FFAAB1H   LINE      CODE     ---       #50
      ---         BLOCKEND  ---      ---       LVL=0

      00FF909CH   BLOCK     CODE     ---       LVL=0
      00FF909CH   LINE      CODE     ---       #69
      00FF909CH   LINE      CODE     ---       #70
      00FF90A9H   LINE      CODE     ---       #71
      00FF90BEH   LINE      CODE     ---       #72
      00FF90CAH   LINE      CODE     ---       #73
      00FF90CCH   LINE      CODE     ---       #74
      00FF90DFH   LINE      CODE     ---       #75
      00FF90E6H   LINE      CODE     ---       #76
      00FF90EFH   LINE      CODE     ---       #78
      00FF90FBH   LINE      CODE     ---       #80
      00FF90FFH   LINE      CODE     ---       #81
      ---         BLOCKEND  ---      ---       LVL=0

      00FF9100H   BLOCK     CODE     ---       LVL=0
      00001088H   SYMBOL    EDATA    INT       max_voltage
      0000108AH   SYMBOL    EDATA    INT       min_voltage
      0000108CH   SYMBOL    EDATA    INT       current_voltage
      0000108EH   SYMBOL    EDATA    INT       percentage
L251 LINKER/LOCATER V4.66.93.0                                                        11/18/2024  23:30:20  PAGE 139


      00FF9100H   LINE      CODE     ---       #83
      00FF9100H   LINE      CODE     ---       #84
      00FF9108H   LINE      CODE     ---       #85
      00FF9110H   LINE      CODE     ---       #86
      00FF9117H   LINE      CODE     ---       #87
      00FF9138H   LINE      CODE     ---       #88
      00FF9144H   LINE      CODE     ---       #89
      00FF914CH   LINE      CODE     ---       #90
      00FF914CH   LINE      CODE     ---       #91
      00FF9156H   LINE      CODE     ---       #92
      00FF915CH   LINE      CODE     ---       #93
      00FF915CH   LINE      CODE     ---       #94
      00FF9160H   LINE      CODE     ---       #95
      ---         BLOCKEND  ---      ---       LVL=0

      ---         MODULE    ---      ---       encoder
      00FFAA4DH   PUBLIC    CODE     ---       clear_encoder_distance
      00FF8B27H   PUBLIC    CODE     ---       encoder_read1
      00FF8856H   PUBLIC    CODE     ---       encoder_read2
      00FFA896H   PUBLIC    CODE     ---       get_encoder_distance
      00FF0046H   PUBLIC    CODE     ---       encoder_init
      000000D0H   SFRSYM    DATA     BYTE      PSW
      0000009DH   SFRSYM    DATA     BYTE      IRCBAND
      00000097H   SFRSYM    DATA     BYTE      AUXR2
      000000EFH   SFRSYM    DATA     BYTE      AUXINTIF
      000000FDH   SFRSYM    DATA     BYTE      S4CON
      000000ACH   SFRSYM    DATA     BYTE      S3CON
      0000009AH   SFRSYM    DATA     BYTE      S2CON
      000000B7H   SFRSYM    DATA     BYTE      IPH
      000000CDH   SFRSYM    DATA     BYTE      SPSTAT
      000000DDH   SFRSYM    DATA     BYTE      T4T3M
      000000C1H   SFRSYM    DATA     BYTE      WDT_CONTR
      000000DFH   SFRSYM    DATA     BYTE      IP3
      000000F4H   SFRSYM    DATA     BYTE      USBCON
      000000B5H   SFRSYM    DATA     BYTE      IP2
      000000FFH   SFRSYM    DATA     BYTE      RSTCFG
      000000C7H   SFRSYM    DATA     BYTE      IAP_CONTR
      000000F9H   SFRSYM    DATA     BYTE      LINICR
      0000008EH   SFRSYM    DATA     BYTE      AUXR
      000000AFH   SFRSYM    DATA     BYTE      IE2
      000000B0H.5 SFRSYM    DATA     BIT       P35
      000000C8H.3 SFRSYM    DATA     BIT       P53
      00000088H   SFRSYM    DATA     BYTE      TCON
      00000089H   SFRSYM    DATA     BYTE      TMOD
      00000098H   SFRSYM    DATA     BYTE      SCON
      000000F1H   SFRSYM    DATA     BYTE      CANICR
      00000087H   SFRSYM    DATA     BYTE      PCON
      000000BCH   SFRSYM    DATA     BYTE      ADC_CONTR
      000000E7H   SFRSYM    DATA     BYTE      CMPCR2
      000000E6H   SFRSYM    DATA     BYTE      CMPCR1
      000000DEH   SFRSYM    DATA     BYTE      ADCCFG
      000000B8H   SFRSYM    DATA     BYTE      IP
      0000008FH   SFRSYM    DATA     BYTE      INTCLKO
      000000EEH   SFRSYM    DATA     BYTE      IP3H
      000000B6H   SFRSYM    DATA     BYTE      IP2H
      000000A8H   SFRSYM    DATA     BYTE      IE
      000000BBH   SFRSYM    DATA     BYTE      P_SW3
      000000BAH   SFRSYM    DATA     BYTE      P_SW2
      000000A2H   SFRSYM    DATA     BYTE      P_SW1
      000000CEH   SFRSYM    DATA     BYTE      SPCTL
      000000F8H   SFRSYM    DATA     BYTE      P7
      000000E8H   SFRSYM    DATA     BYTE      P6
      000000C8H   SFRSYM    DATA     BYTE      P5
      000000C0H   SFRSYM    DATA     BYTE      P4
      000000B0H   SFRSYM    DATA     BYTE      P3
L251 LINKER/LOCATER V4.66.93.0                                                        11/18/2024  23:30:20  PAGE 140


      000000A0H   SFRSYM    DATA     BYTE      P2
      00000090H   SFRSYM    DATA     BYTE      P1
      00000080H   SFRSYM    DATA     BYTE      P0
      0000118AH   SYMBOL    EDATA    WORD      TravelDistance
      0000118CH   SYMBOL    EDATA    WORD      TravelDistanceL
      0000118EH   SYMBOL    EDATA    WORD      TravelDistanceR

      00FF0046H   BLOCK     CODE     ---       LVL=0
      00FF0046H   LINE      CODE     ---       #30
      00FF0046H   LINE      CODE     ---       #33
      00FF004BH   LINE      CODE     ---       #35
      00FF0052H   LINE      CODE     ---       #36
      ---         BLOCKEND  ---      ---       LVL=0

      00FF8B27H   BLOCK     CODE     ---       LVL=0
      000012B7H   SYMBOL    EDATA    INT       dat
      00FF8B27H   LINE      CODE     ---       #45
      00FF8B27H   LINE      CODE     ---       #46
      00FF8B27H   LINE      CODE     ---       #48
      00FF8B30H   LINE      CODE     ---       #50
      00FF8B39H   LINE      CODE     ---       #51
      00FF8B3BH   LINE      CODE     ---       #54
      00FF8B4AH   LINE      CODE     ---       #55
      00FF8B4AH   LINE      CODE     ---       #56
      00FF8B58H   LINE      CODE     ---       #57
      00FF8B5DH   LINE      CODE     ---       #58
      00FF8B64H   LINE      CODE     ---       #59
      00FF8B6DH   LINE      CODE     ---       #61
      00FF8B76H   LINE      CODE     ---       #62
      00FF8B78H   LINE      CODE     ---       #65
      00FF8B87H   LINE      CODE     ---       #66
      00FF8B87H   LINE      CODE     ---       #67
      00FF8B95H   LINE      CODE     ---       #68
      00FF8B99H   LINE      CODE     ---       #69
      ---         BLOCKEND  ---      ---       LVL=0

      00FF8856H   BLOCK     CODE     ---       LVL=0
      000012B9H   SYMBOL    EDATA    INT       dat
      00FF8856H   LINE      CODE     ---       #78
      00FF8856H   LINE      CODE     ---       #79
      00FF8856H   LINE      CODE     ---       #81
      00FF885FH   LINE      CODE     ---       #83
      00FF886AH   LINE      CODE     ---       #84
      00FF886CH   LINE      CODE     ---       #87
      00FF887DH   LINE      CODE     ---       #88
      00FF887DH   LINE      CODE     ---       #89
      00FF888BH   LINE      CODE     ---       #90
      00FF8892H   LINE      CODE     ---       #91
      00FF8899H   LINE      CODE     ---       #92
      00FF88A2H   LINE      CODE     ---       #94
      00FF88ADH   LINE      CODE     ---       #95
      00FF88AFH   LINE      CODE     ---       #98
      00FF88C0H   LINE      CODE     ---       #99
      00FF88C0H   LINE      CODE     ---       #100
      00FF88CEH   LINE      CODE     ---       #101
      00FF88D2H   LINE      CODE     ---       #102
      ---         BLOCKEND  ---      ---       LVL=0

      00FFA896H   BLOCK     CODE     ---       LVL=0
      00FFA896H   LINE      CODE     ---       #111
      00FFA896H   LINE      CODE     ---       #113
      00FFA899H   LINE      CODE     ---       #114
      00FFA89CH   LINE      CODE     ---       #115
      00FFA8ACH   LINE      CODE     ---       #116
      00FFA8ACH   LINE      CODE     ---       #117
L251 LINKER/LOCATER V4.66.93.0                                                        11/18/2024  23:30:20  PAGE 141


      ---         BLOCKEND  ---      ---       LVL=0

      00FFAA4DH   BLOCK     CODE     ---       LVL=0
      00FFAA4DH   LINE      CODE     ---       #124
      00FFAA4DH   LINE      CODE     ---       #126
      00FFAA53H   LINE      CODE     ---       #127
      00FFAA59H   LINE      CODE     ---       #128
      00FFAA5FH   LINE      CODE     ---       #129
      ---         BLOCKEND  ---      ---       LVL=0

      ---         MODULE    ---      ---       line
      00FFA567H   PUBLIC    CODE     ---       Line_init
      00FF7CB7H   PUBLIC    CODE     ---       Line_read_raw
      00001090H   PUBLIC    EDATA    ---       adc_value
      000000D0H   SFRSYM    DATA     BYTE      PSW
      0000009DH   SFRSYM    DATA     BYTE      IRCBAND
      00000097H   SFRSYM    DATA     BYTE      AUXR2
      000000EFH   SFRSYM    DATA     BYTE      AUXINTIF
      000000FDH   SFRSYM    DATA     BYTE      S4CON
      000000ACH   SFRSYM    DATA     BYTE      S3CON
      0000009AH   SFRSYM    DATA     BYTE      S2CON
      000000B7H   SFRSYM    DATA     BYTE      IPH
      000000CDH   SFRSYM    DATA     BYTE      SPSTAT
      000000DDH   SFRSYM    DATA     BYTE      T4T3M
      000000C1H   SFRSYM    DATA     BYTE      WDT_CONTR
      000000DFH   SFRSYM    DATA     BYTE      IP3
      000000F4H   SFRSYM    DATA     BYTE      USBCON
      000000B5H   SFRSYM    DATA     BYTE      IP2
      000000FFH   SFRSYM    DATA     BYTE      RSTCFG
      000000C7H   SFRSYM    DATA     BYTE      IAP_CONTR
      000000F9H   SFRSYM    DATA     BYTE      LINICR
      0000008EH   SFRSYM    DATA     BYTE      AUXR
      000000AFH   SFRSYM    DATA     BYTE      IE2
      00000088H   SFRSYM    DATA     BYTE      TCON
      00000089H   SFRSYM    DATA     BYTE      TMOD
      00000098H   SFRSYM    DATA     BYTE      SCON
      000000F1H   SFRSYM    DATA     BYTE      CANICR
      00000087H   SFRSYM    DATA     BYTE      PCON
      000000BCH   SFRSYM    DATA     BYTE      ADC_CONTR
      000000E7H   SFRSYM    DATA     BYTE      CMPCR2
      000000E6H   SFRSYM    DATA     BYTE      CMPCR1
      000000DEH   SFRSYM    DATA     BYTE      ADCCFG
      000000B8H   SFRSYM    DATA     BYTE      IP
      0000008FH   SFRSYM    DATA     BYTE      INTCLKO
      000000EEH   SFRSYM    DATA     BYTE      IP3H
      000000B6H   SFRSYM    DATA     BYTE      IP2H
      000000A8H   SFRSYM    DATA     BYTE      IE
      000000BBH   SFRSYM    DATA     BYTE      P_SW3
      000000BAH   SFRSYM    DATA     BYTE      P_SW2
      000000A2H   SFRSYM    DATA     BYTE      P_SW1
      000000CEH   SFRSYM    DATA     BYTE      SPCTL
      000000F8H   SFRSYM    DATA     BYTE      P7
      000000E8H   SFRSYM    DATA     BYTE      P6
      000000C8H   SFRSYM    DATA     BYTE      P5
      000000C0H   SFRSYM    DATA     BYTE      P4
      000000B0H   SFRSYM    DATA     BYTE      P3
      000000A0H   SFRSYM    DATA     BYTE      P2
      00000090H   SFRSYM    DATA     BYTE      P1
      00000080H   SFRSYM    DATA     BYTE      P0

      00FFA567H   BLOCK     CODE     ---       LVL=0
      00FFA567H   LINE      CODE     ---       #15
      00FFA567H   LINE      CODE     ---       #17
      00FFA570H   LINE      CODE     ---       #18
      00FFA579H   LINE      CODE     ---       #19
L251 LINKER/LOCATER V4.66.93.0                                                        11/18/2024  23:30:20  PAGE 142


      00FFA582H   LINE      CODE     ---       #20
      00FFA58BH   LINE      CODE     ---       #21
      ---         BLOCKEND  ---      ---       LVL=0

      00FF7CB7H   BLOCK     CODE     ---       LVL=0
      00000F0CH   SYMBOL    EDATA    INT       i
      00000F0EH   SYMBOL    EDATA    INT       filter_buffer1
      00000F10H   SYMBOL    EDATA    INT       filter_buffer2
      00000F12H   SYMBOL    EDATA    INT       filter_buffer3
      00000F14H   SYMBOL    EDATA    INT       filter_buffer4
      00FF7CB7H   LINE      CODE     ---       #28
      00FF7CB7H   LINE      CODE     ---       #29
      00FF7CB7H   LINE      CODE     ---       #31
      00FF7CBDH   LINE      CODE     ---       #32
      00FF7CC3H   LINE      CODE     ---       #33
      00FF7CC9H   LINE      CODE     ---       #34
      00FF7CCFH   LINE      CODE     ---       #35
      00FF7CD7H   LINE      CODE     ---       #37
      00FF7CECH   LINE      CODE     ---       #38
      00FF7D01H   LINE      CODE     ---       #39
      00FF7D16H   LINE      CODE     ---       #40
      00FF7D2BH   LINE      CODE     ---       #41
      00FF7D45H   LINE      CODE     ---       #43
      00FF7D54H   LINE      CODE     ---       #44
      00FF7D63H   LINE      CODE     ---       #45
      00FF7D72H   LINE      CODE     ---       #46
      00FF7D81H   LINE      CODE     ---       #47
      ---         BLOCKEND  ---      ---       LVL=0
      0000089FH   SYMBOL    EDATA    WORD      min_adc1
      000008A1H   SYMBOL    EDATA    WORD      max_adc1
      000008A3H   SYMBOL    EDATA    WORD      min_adc2
      000008A5H   SYMBOL    EDATA    WORD      max_adc2
      000008A7H   SYMBOL    EDATA    WORD      min_adc3
      000008A9H   SYMBOL    EDATA    WORD      max_adc3
      000008ABH   SYMBOL    EDATA    WORD      min_adc4
      000008ADH   SYMBOL    EDATA    WORD      max_adc4
      000008AFH   SYMBOL    EDATA    ---       buffer

      ---         MODULE    ---      ---       straight
      00FF7791H   PUBLIC    CODE     ---       Line_calculate_position_ring
      00FFA0AAH   PUBLIC    CODE     ---       straight_entrance
      00FF7280H   PUBLIC    CODE     ---       PID_control_straint
      00FF7388H   PUBLIC    CODE     ---       PID_control_ring
      00FF6F33H   PUBLIC    CODE     ---       Line_calculate_position
      00000565H   PUBLIC    EDATA    INT       angle
      00000567H   PUBLIC    EDATA    FLOAT     MAX_INTEGRAL
      0000056BH   PUBLIC    EDATA    FLOAT     Kd
      0000056FH   PUBLIC    EDATA    INT       recv
      00000571H   PUBLIC    EDATA    FLOAT     Ki
      00000575H   PUBLIC    EDATA    FLOAT     Kp
      00000579H   PUBLIC    EDATA    FLOAT     MAX_DERIVATIVE
      0000057FH   PUBLIC    EDATA    ---       str
      000005C1H   PUBLIC    EDATA    FLOAT     reactFactor
      000005C5H   PUBLIC    EDATA    INT       position
      000000D0H   SFRSYM    DATA     BYTE      PSW
      0000009DH   SFRSYM    DATA     BYTE      IRCBAND
      00000097H   SFRSYM    DATA     BYTE      AUXR2
      000000EFH   SFRSYM    DATA     BYTE      AUXINTIF
      000000FDH   SFRSYM    DATA     BYTE      S4CON
      000000ACH   SFRSYM    DATA     BYTE      S3CON
      0000009AH   SFRSYM    DATA     BYTE      S2CON
      000000B7H   SFRSYM    DATA     BYTE      IPH
      000000CDH   SFRSYM    DATA     BYTE      SPSTAT
      000000DDH   SFRSYM    DATA     BYTE      T4T3M
      000000C1H   SFRSYM    DATA     BYTE      WDT_CONTR
L251 LINKER/LOCATER V4.66.93.0                                                        11/18/2024  23:30:20  PAGE 143


      000000DFH   SFRSYM    DATA     BYTE      IP3
      000000F4H   SFRSYM    DATA     BYTE      USBCON
      000000B5H   SFRSYM    DATA     BYTE      IP2
      000000FFH   SFRSYM    DATA     BYTE      RSTCFG
      000000C7H   SFRSYM    DATA     BYTE      IAP_CONTR
      000000F9H   SFRSYM    DATA     BYTE      LINICR
      0000008EH   SFRSYM    DATA     BYTE      AUXR
      000000AFH   SFRSYM    DATA     BYTE      IE2
      00000088H   SFRSYM    DATA     BYTE      TCON
      00000089H   SFRSYM    DATA     BYTE      TMOD
      00000098H   SFRSYM    DATA     BYTE      SCON
      000000F1H   SFRSYM    DATA     BYTE      CANICR
      00000087H   SFRSYM    DATA     BYTE      PCON
      000000BCH   SFRSYM    DATA     BYTE      ADC_CONTR
      000000E7H   SFRSYM    DATA     BYTE      CMPCR2
      000000E6H   SFRSYM    DATA     BYTE      CMPCR1
      000000DEH   SFRSYM    DATA     BYTE      ADCCFG
      000000B8H   SFRSYM    DATA     BYTE      IP
      0000008FH   SFRSYM    DATA     BYTE      INTCLKO
      000000EEH   SFRSYM    DATA     BYTE      IP3H
      000000B6H   SFRSYM    DATA     BYTE      IP2H
      000000A8H   SFRSYM    DATA     BYTE      IE
      000000BBH   SFRSYM    DATA     BYTE      P_SW3
      000000BAH   SFRSYM    DATA     BYTE      P_SW2
      000000A2H   SFRSYM    DATA     BYTE      P_SW1
      000000CEH   SFRSYM    DATA     BYTE      SPCTL
      000000F8H   SFRSYM    DATA     BYTE      P7
      000000E8H   SFRSYM    DATA     BYTE      P6
      000000C8H   SFRSYM    DATA     BYTE      P5
      000000C0H   SFRSYM    DATA     BYTE      P4
      000000B0H   SFRSYM    DATA     BYTE      P3
      000000A0H   SFRSYM    DATA     BYTE      P2
      00000090H   SFRSYM    DATA     BYTE      P1
      00000080H   SFRSYM    DATA     BYTE      P0
      0000057DH   SYMBOL    EDATA    INT       last_error
      000005BFH   SYMBOL    EDATA    INT       integral

      00FFA0AAH   BLOCK     CODE     ---       LVL=0
      00FFA0AAH   LINE      CODE     ---       #26
      00FFA0AAH   LINE      CODE     ---       #27
      00FFA0ADH   LINE      CODE     ---       #28
      00FFA0BCH   LINE      CODE     ---       #29
      00FFA0BCH   LINE      CODE     ---       #30
      00FFA0BFH   LINE      CODE     ---       #31
      00FFA0D2H   LINE      CODE     ---       #33
      00FFA0D9H   LINE      CODE     ---       #34
      00FFA0DBH   LINE      CODE     ---       #35
      00FFA0DBH   LINE      CODE     ---       #36
      00FFA0E2H   LINE      CODE     ---       #37
      00FFA0E4H   LINE      CODE     ---       #38
      00FFA0E5H   LINE      CODE     ---       #39
      ---         BLOCKEND  ---      ---       LVL=0

      00FF7280H   BLOCK     CODE     ---       LVL=0
      00FF7280H   LINE      CODE     ---       #50
      00FF7280H   LINE      CODE     ---       #52
      00FF7287H   LINE      CODE     ---       #53
      00FF7295H   LINE      CODE     ---       #54
      00FF72E9H   LINE      CODE     ---       #55
      00FF72F1H   LINE      CODE     ---       #56
      00FF72F8H   LINE      CODE     ---       #57
      00FF7303H   LINE      CODE     ---       #59
      00FF7315H   LINE      CODE     ---       #60
      00FF7320H   LINE      CODE     ---       #61
      00FF7337H   LINE      CODE     ---       #62
L251 LINKER/LOCATER V4.66.93.0                                                        11/18/2024  23:30:20  PAGE 144


      00FF7345H   LINE      CODE     ---       #63
      00FF7357H   LINE      CODE     ---       #64
      00FF7362H   LINE      CODE     ---       #65
      00FF7379H   LINE      CODE     ---       #66
      00FF7387H   LINE      CODE     ---       #68
      ---         BLOCKEND  ---      ---       LVL=0

      00FF7388H   BLOCK     CODE     ---       LVL=0
      00FF7388H   LINE      CODE     ---       #71
      00FF7388H   LINE      CODE     ---       #73
      00FF738FH   LINE      CODE     ---       #74
      00FF739DH   LINE      CODE     ---       #75
      00FF73F1H   LINE      CODE     ---       #76
      00FF73F9H   LINE      CODE     ---       #77
      00FF7400H   LINE      CODE     ---       #78
      00FF740BH   LINE      CODE     ---       #80
      00FF741DH   LINE      CODE     ---       #81
      00FF7428H   LINE      CODE     ---       #82
      00FF743FH   LINE      CODE     ---       #83
      00FF744DH   LINE      CODE     ---       #84
      00FF745FH   LINE      CODE     ---       #85
      00FF746AH   LINE      CODE     ---       #86
      00FF7481H   LINE      CODE     ---       #87
      00FF748FH   LINE      CODE     ---       #89
      ---         BLOCKEND  ---      ---       LVL=0
      000012BBH   SYMBOL    EDATA    INT       exception_code

      00FF6F33H   BLOCK     CODE     ---       LVL=0
      00000BB0H   SYMBOL    EDATA    FLOAT     adc1
      00000BB4H   SYMBOL    EDATA    FLOAT     adc2
      00000BB8H   SYMBOL    EDATA    FLOAT     adc3
      00000BBCH   SYMBOL    EDATA    FLOAT     adc4
      00000BC0H   SYMBOL    EDATA    FLOAT     denominator
      00000BC4H   SYMBOL    EDATA    FLOAT     position
      00FF6F33H   LINE      CODE     ---       #134
      00FF6F33H   LINE      CODE     ---       #135
      00FF6F33H   LINE      CODE     ---       #137
      00FF6F36H   LINE      CODE     ---       #140
      00FF6F56H   LINE      CODE     ---       #141
      00FF6F76H   LINE      CODE     ---       #142
      00FF6F96H   LINE      CODE     ---       #143
      00FF6FB6H   LINE      CODE     ---       #145
      00FF6FD5H   LINE      CODE     ---       #147
      00FF6FDAH   LINE      CODE     ---       #148
      00FF6FDAH   LINE      CODE     ---       #149
      00FF6FE9H   LINE      CODE     ---       #150
      00FF6FEDH   LINE      CODE     ---       #151
      00FF6FF7H   LINE      CODE     ---       #152
      00FF7016H   LINE      CODE     ---       #153
      00FF7039H   LINE      CODE     ---       #154
      00FF7049H   LINE      CODE     ---       #155
      00FF7050H   LINE      CODE     ---       #156
      ---         BLOCKEND  ---      ---       LVL=0

      00FF7791H   BLOCK     CODE     ---       LVL=0
      00000BC8H   SYMBOL    EDATA    FLOAT     adc1
      00000BCCH   SYMBOL    EDATA    FLOAT     adc2
      00000BD0H   SYMBOL    EDATA    FLOAT     adc3
      00000BD4H   SYMBOL    EDATA    FLOAT     adc4
      00000BD8H   SYMBOL    EDATA    FLOAT     denominator
      00000BDCH   SYMBOL    EDATA    FLOAT     position
      00FF7791H   LINE      CODE     ---       #169
      00FF7791H   LINE      CODE     ---       #170
      00FF7791H   LINE      CODE     ---       #172
      00FF7794H   LINE      CODE     ---       #175
L251 LINKER/LOCATER V4.66.93.0                                                        11/18/2024  23:30:20  PAGE 145


      00FF77B4H   LINE      CODE     ---       #176
      00FF77D4H   LINE      CODE     ---       #177
      00FF77F4H   LINE      CODE     ---       #178
      00FF7814H   LINE      CODE     ---       #179
      00FF7823H   LINE      CODE     ---       #180
      00FF7827H   LINE      CODE     ---       #181
      00FF7831H   LINE      CODE     ---       #182
      00FF7850H   LINE      CODE     ---       #183
      00FF7873H   LINE      CODE     ---       #184
      00FF7883H   LINE      CODE     ---       #185
      00FF788AH   LINE      CODE     ---       #186
      ---         BLOCKEND  ---      ---       LVL=0

      ---         MODULE    ---      ---       ring
      000012D8H   PUBLIC    EDATA    BYTE      RING_FLAG
      000000D0H   SFRSYM    DATA     BYTE      PSW
      0000009DH   SFRSYM    DATA     BYTE      IRCBAND
      00000097H   SFRSYM    DATA     BYTE      AUXR2
      000000EFH   SFRSYM    DATA     BYTE      AUXINTIF
      000000FDH   SFRSYM    DATA     BYTE      S4CON
      000000ACH   SFRSYM    DATA     BYTE      S3CON
      0000009AH   SFRSYM    DATA     BYTE      S2CON
      000000B7H   SFRSYM    DATA     BYTE      IPH
      000000CDH   SFRSYM    DATA     BYTE      SPSTAT
      000000DDH   SFRSYM    DATA     BYTE      T4T3M
      000000C1H   SFRSYM    DATA     BYTE      WDT_CONTR
      000000DFH   SFRSYM    DATA     BYTE      IP3
      000000F4H   SFRSYM    DATA     BYTE      USBCON
      000000B5H   SFRSYM    DATA     BYTE      IP2
      000000FFH   SFRSYM    DATA     BYTE      RSTCFG
      000000C7H   SFRSYM    DATA     BYTE      IAP_CONTR
      000000F9H   SFRSYM    DATA     BYTE      LINICR
      0000008EH   SFRSYM    DATA     BYTE      AUXR
      000000AFH   SFRSYM    DATA     BYTE      IE2
      00000088H   SFRSYM    DATA     BYTE      TCON
      00000089H   SFRSYM    DATA     BYTE      TMOD
      00000098H   SFRSYM    DATA     BYTE      SCON
      000000F1H   SFRSYM    DATA     BYTE      CANICR
      00000087H   SFRSYM    DATA     BYTE      PCON
      000000BCH   SFRSYM    DATA     BYTE      ADC_CONTR
      000000E7H   SFRSYM    DATA     BYTE      CMPCR2
      000000E6H   SFRSYM    DATA     BYTE      CMPCR1
      000000DEH   SFRSYM    DATA     BYTE      ADCCFG
      000000B8H   SFRSYM    DATA     BYTE      IP
      0000008FH   SFRSYM    DATA     BYTE      INTCLKO
      000000EEH   SFRSYM    DATA     BYTE      IP3H
      000000B6H   SFRSYM    DATA     BYTE      IP2H
      000000A8H   SFRSYM    DATA     BYTE      IE
      000000BBH   SFRSYM    DATA     BYTE      P_SW3
      000000BAH   SFRSYM    DATA     BYTE      P_SW2
      000000A2H   SFRSYM    DATA     BYTE      P_SW1
      000000CEH   SFRSYM    DATA     BYTE      SPCTL
      000000F8H   SFRSYM    DATA     BYTE      P7
      000000E8H   SFRSYM    DATA     BYTE      P6
      000000C8H   SFRSYM    DATA     BYTE      P5
      000000C0H   SFRSYM    DATA     BYTE      P4
      000000B0H   SFRSYM    DATA     BYTE      P3
      000000A0H   SFRSYM    DATA     BYTE      P2
      00000090H   SFRSYM    DATA     BYTE      P1
      00000080H   SFRSYM    DATA     BYTE      P0
      0000121EH   SYMBOL    EDATA    DWORD     distance
      00000346H   SYMBOL    EDATA    DWORD     distance
      0000034AH   SYMBOL    EDATA    ---       str
      0000044AH   SYMBOL    EDATA    INT       recv

L251 LINKER/LOCATER V4.66.93.0                                                        11/18/2024  23:30:20  PAGE 146


      ---         MODULE    ---      ---       SEEKFREE_CONFIG
      00FF00A6H   PUBLIC    CODE     ---       dl1b_default_configuration
      00FF012DH   PUBLIC    CODE     ---       imu660ra_config_file

      ---         MODULE    ---      ---       PRINTF
      00FF405AH   PUBLIC    CODE     NEAR LAB  PRINTF

      ---         MODULE    ---      ---       SPRINTF
      00000A51H   PUBLIC    EDATA    ---       ?SPRINTF?BYTE
      00FF4086H   PUBLIC    CODE     NEAR LAB  SPRINTF

      ---         MODULE    ---      ---       ?C?PRNFMT
      00FF40D3H   PUBLIC    CODE     ---       ?C?PRNFMT

      ---         MODULE    ---      ---       ?C?FPCONVERT
      00FF44F0H   PUBLIC    CODE     ---       ?C?FPCONVERT
      00FF45A8H   PUBLIC    CODE     ---       ?C?FPROUND

      ---         MODULE    ---      ---       ?C?FTNPWR
      00FF461BH   PUBLIC    CODE     ---       ?C?FTNPWR

      ---         MODULE    ---      ---       ?C_START
      00FF0000H   PUBLIC    CODE     ---       ?C?STARTUP
      00FF0000H   PUBLIC    CODE     ---       ?C_STARTUP

      ---         MODULE    ---      ---       ?C?INITEDATA
      00FF9F89H   PUBLIC    CODE     ---       ?C?INITEDATA

      ---         MODULE    ---      ---       ?C?SIDIV
      00FF4652H   PUBLIC    CODE     ---       ?C?SIDIV

      ---         MODULE    ---      ---       ?C?LMUL
      00FF4684H   PUBLIC    CODE     ---       ?C?LMUL

      ---         MODULE    ---      ---       ?C?LIMUL
      00FF4695H   PUBLIC    CODE     ---       ?C?LIMUL

      ---         MODULE    ---      ---       ?C?ULDIV
      00FF46A0H   PUBLIC    CODE     NEAR LAB  ?C?ULDIV
      00FF469EH   PUBLIC    CODE     NEAR LAB  ?C?ULIDIV

      ---         MODULE    ---      ---       ?C?SLDIV
      00FF46F1H   PUBLIC    CODE     NEAR LAB  ?C?SLDIV

      ---         MODULE    ---      ---       ?C?BMOVENP
      00FF4727H   PUBLIC    CODE     ---       ?C?BMOVENP
      00FF4725H   PUBLIC    CODE     ---       ?C?BMOVENP8

      ---         MODULE    ---      ---       STRLEN
      00FFAAB2H   PUBLIC    CODE     ---       strlen?_

      ---         MODULE    ---      ---       memcpy
      00FFA58CH   PUBLIC    CODE     ---       memcpy?_

      ---         MODULE    ---      ---       memset
      00FFA864H   PUBLIC    CODE     ---       memset?_

      ---         MODULE    ---      ---       ?C?INITEDATA_END
      00FFAD9CH   PUBLIC    HCONST   WORD      ?C?INITEDATA_END

Program Size: data=8.0 edata+hdata=5073 xdata=0 const=1524 code=43756
L251 RUN COMPLETE.  0 WARNING(S),  0 ERROR(S)
