L251 LINKER/LOCATER V4.66.93.0                                                          11/05/2024  20:15:43  PAGE 1


L251 LINKER/LOCATER V4.66.93.0, INVOKED BY:
C:\KEIL_V5\C251\BIN\L251.EXE .\Out_File\board.obj, .\Out_File\common.obj, ..\..\Libraries\libraries\STC32_FPMU_LARGE_V1.
>> 0.LIB (STC32F_FPMU), .\Out_File\zf_adc.obj, .\Out_File\zf_delay.obj, .\Out_File\zf_eeprom.obj, .\Out_File\zf_exti.obj
>> , .\Out_File\zf_gpio.obj, .\Out_File\zf_iic.obj, .\Out_File\zf_nvic.obj, .\Out_File\zf_pwm.obj, .\Out_File\zf_spi.obj
>> , .\Out_File\zf_tim.obj, .\Out_File\zf_uart.obj, .\Out_File\zf_fifo.obj, .\Out_File\globals.obj, .\Out_File\SEEKFREE_
>> 18TFT.obj, .\Out_File\SEEKFREE_BLUETOOTH_CH9141.obj, .\Out_File\SEEKFREE_BLE6A20.obj, ..\..\Libraries\seekfree_periph
>> eral\SEEKFREE_CONFIG.LIB, .\Out_File\SEEKFREE_DL1A.obj, .\Out_File\SEEKFREE_DL1B.obj, .\Out_File\SEEKFREE_FONT.obj, .
>> \Out_File\SEEKFREE_FUNCTION.obj, .\Out_File\SEEKFREE_ICM20602.obj, .\Out_File\SEEKFREE_IMU660RA.obj, .\Out_File\SEEKF
>> REE_IMU963RA.obj, .\Out_File\SEEKFREE_IPS114_SPI.obj, .\Out_File\SEEKFREE_IPS200_SPI.obj, .\Out_File\SEEKFREE_MPU6050
>> .obj, .\Out_File\SEEKFREE_OLED.obj, .\Out_File\SEEKFREE_TSL1401.obj, .\Out_File\SEEKFREE_VIRSCO.obj, .\Out_File\SEEKF
>> REE_WIRELESS.obj, .\Out_File\isr.obj, .\Out_File\main.obj, .\Out_File\seekfree_assistant.obj, .\Out_File\seekfree_ass
>> istant_inface.obj, .\Out_File\drv8701_dual.obj, .\Out_File\servo.obj, .\Out_File\battery.obj, .\Out_File\encoder.obj,
>>  .\Out_File\line.obj TO .\Out_File\SEEKFREE PRINT (.\Out_File\SEEKFREE.map) CASE DISABLEWARNING (16, 57) REMOVEUNUSED
>>  CLASSES (EDATA (0X0-0X1FFF), HDATA (0X0-0X1FFF))


CPU MODE:     251 SOURCE MODE
INTR FRAME:   4 BYTES SAVED ON INTERRUPT
MEMORY MODEL: XSMALL WITH FLOATING POINT ARITHMETIC


INPUT MODULES INCLUDED:
  .\Out_File\board.obj (board)
         COMMENT TYPE 0: C251 V5.60.0
  .\Out_File\common.obj (common)
         COMMENT TYPE 0: C251 V5.60.0
  ..\..\Libraries\libraries\STC32_FPMU_LARGE_V1.0.LIB (STC32F_FPMU)
         COMMENT TYPE 0: A251 V4.69.13.0
  .\Out_File\zf_adc.obj (zf_adc)
         COMMENT TYPE 0: C251 V5.60.0
  .\Out_File\zf_delay.obj (zf_delay)
         COMMENT TYPE 0: C251 V5.60.0
  .\Out_File\zf_eeprom.obj (zf_eeprom)
         COMMENT TYPE 0: C251 V5.60.0
  .\Out_File\zf_exti.obj (zf_exti)
         COMMENT TYPE 0: C251 V5.60.0
  .\Out_File\zf_gpio.obj (zf_gpio)
         COMMENT TYPE 0: C251 V5.60.0
  .\Out_File\zf_iic.obj (zf_iic)
         COMMENT TYPE 0: C251 V5.60.0
  .\Out_File\zf_nvic.obj (zf_nvic)
         COMMENT TYPE 0: C251 V5.60.0
  .\Out_File\zf_pwm.obj (zf_pwm)
         COMMENT TYPE 0: C251 V5.60.0
  .\Out_File\zf_spi.obj (zf_spi)
         COMMENT TYPE 0: C251 V5.60.0
  .\Out_File\zf_tim.obj (zf_tim)
         COMMENT TYPE 0: C251 V5.60.0
  .\Out_File\zf_uart.obj (zf_uart)
         COMMENT TYPE 0: C251 V5.60.0
  .\Out_File\zf_fifo.obj (zf_fifo)
         COMMENT TYPE 0: C251 V5.60.0
  .\Out_File\globals.obj (globals)
         COMMENT TYPE 0: C251 V5.60.0
  .\Out_File\SEEKFREE_18TFT.obj (SEEKFREE_18TFT)
         COMMENT TYPE 0: C251 V5.60.0
  .\Out_File\SEEKFREE_BLUETOOTH_CH9141.obj (SEEKFREE_BLUETOOTH_CH9141)
         COMMENT TYPE 0: C251 V5.60.0
  .\Out_File\SEEKFREE_BLE6A20.obj (SEEKFREE_BLE6A20)
         COMMENT TYPE 0: C251 V5.60.0
  .\Out_File\SEEKFREE_DL1A.obj (SEEKFREE_DL1A)
         COMMENT TYPE 0: C251 V5.60.0
  .\Out_File\SEEKFREE_DL1B.obj (SEEKFREE_DL1B)
         COMMENT TYPE 0: C251 V5.60.0
  .\Out_File\SEEKFREE_FONT.obj (SEEKFREE_FONT)
         COMMENT TYPE 0: C251 V5.60.0
L251 LINKER/LOCATER V4.66.93.0                                                        11/05/2024  20:15:43  PAGE 2


  .\Out_File\SEEKFREE_FUNCTION.obj (SEEKFREE_FUNCTION)
         COMMENT TYPE 0: C251 V5.60.0
  .\Out_File\SEEKFREE_ICM20602.obj (SEEKFREE_ICM20602)
         COMMENT TYPE 0: C251 V5.60.0
  .\Out_File\SEEKFREE_IMU660RA.obj (SEEKFREE_IMU660RA)
         COMMENT TYPE 0: C251 V5.60.0
  .\Out_File\SEEKFREE_IMU963RA.obj (SEEKFREE_IMU963RA)
         COMMENT TYPE 0: C251 V5.60.0
  .\Out_File\SEEKFREE_IPS114_SPI.obj (SEEKFREE_IPS114_SPI)
         COMMENT TYPE 0: C251 V5.60.0
  .\Out_File\SEEKFREE_IPS200_SPI.obj (SEEKFREE_IPS200_SPI)
         COMMENT TYPE 0: C251 V5.60.0
  .\Out_File\SEEKFREE_MPU6050.obj (SEEKFREE_MPU6050)
         COMMENT TYPE 0: C251 V5.60.0
  .\Out_File\SEEKFREE_OLED.obj (SEEKFREE_OLED)
         COMMENT TYPE 0: C251 V5.60.0
  .\Out_File\SEEKFREE_TSL1401.obj (SEEKFREE_TSL1401)
         COMMENT TYPE 0: C251 V5.60.0
  .\Out_File\SEEKFREE_VIRSCO.obj (SEEKFREE_VIRSCO)
         COMMENT TYPE 0: C251 V5.60.0
  .\Out_File\SEEKFREE_WIRELESS.obj (SEEKFREE_WIRELESS)
         COMMENT TYPE 0: C251 V5.60.0
  .\Out_File\isr.obj (isr)
         COMMENT TYPE 0: C251 V5.60.0
  .\Out_File\main.obj (main)
         COMMENT TYPE 0: C251 V5.60.0
  .\Out_File\seekfree_assistant.obj (seekfree_assistant)
         COMMENT TYPE 0: C251 V5.60.0
  .\Out_File\seekfree_assistant_inface.obj (seekfree_assistant_inface)
         COMMENT TYPE 0: C251 V5.60.0
  .\Out_File\drv8701_dual.obj (drv8701_dual)
         COMMENT TYPE 0: C251 V5.60.0
  .\Out_File\servo.obj (servo)
         COMMENT TYPE 0: C251 V5.60.0
  .\Out_File\battery.obj (battery)
         COMMENT TYPE 0: C251 V5.60.0
  .\Out_File\encoder.obj (encoder)
         COMMENT TYPE 0: C251 V5.60.0
  .\Out_File\line.obj (line)
         COMMENT TYPE 0: C251 V5.60.0
  ..\..\Libraries\seekfree_peripheral\SEEKFREE_CONFIG.LIB (SEEKFREE_CONFIG)
         COMMENT TYPE 0: C251 V5.60.0
  C:\KEIL_V5\C251\LIB\C2SFPXS.LIB (PRINTF)
         COMMENT TYPE 0: A251 V4.69.6.0
  C:\KEIL_V5\C251\LIB\C2SFPXS.LIB (SPRINTF)
         COMMENT TYPE 0: A251 V4.69.6.0
  C:\KEIL_V5\C251\LIB\C2SFPXS.LIB (?C?PRNFMT)
         COMMENT TYPE 0: A251 V4.69.6.0
  C:\KEIL_V5\C251\LIB\C2SFPXS.LIB (?C?FPCONVERT)
         COMMENT TYPE 0: A251 V4.69.6.0
  C:\KEIL_V5\C251\LIB\C2SFPXS.LIB (?C?FTNPWR)
         COMMENT TYPE 0: A251 V4.69.6.0
  C:\KEIL_V5\C251\LIB\C2SXS.LIB (?C_START)
         COMMENT TYPE 0: A251 V4.69.6.0
  C:\KEIL_V5\C251\LIB\C2SXS.LIB (?C?INITEDATA)
         COMMENT TYPE 0: A251 V4.69.6.0
  C:\KEIL_V5\C251\LIB\C2SXS.LIB (?C?SIDIV)
         COMMENT TYPE 0: A251 V4.69.6.0
  C:\KEIL_V5\C251\LIB\C2SXS.LIB (?C?LMUL)
         COMMENT TYPE 0: A251 V4.69.6.0
  C:\KEIL_V5\C251\LIB\C2SXS.LIB (?C?LIMUL)
         COMMENT TYPE 0: A251 V4.69.6.0
  C:\KEIL_V5\C251\LIB\C2SXS.LIB (?C?ULDIV)
         COMMENT TYPE 0: A251 V4.69.6.0
  C:\KEIL_V5\C251\LIB\C2SXS.LIB (?C?SLDIV)
L251 LINKER/LOCATER V4.66.93.0                                                        11/05/2024  20:15:43  PAGE 3


         COMMENT TYPE 0: A251 V4.69.6.0
  C:\KEIL_V5\C251\LIB\C2SXS.LIB (?C?BMOVENP)
         COMMENT TYPE 0: A251 V4.69.6.0
  C:\KEIL_V5\C251\LIB\C2SXS.LIB (STRLEN)
         COMMENT TYPE 0: C251 V5.58.7
  C:\KEIL_V5\C251\LIB\C2SXS.LIB (memcpy)
         COMMENT TYPE 0: C251 V5.58.7
  C:\KEIL_V5\C251\LIB\C2SXS.LIB (memset)
         COMMENT TYPE 0: C251 V5.58.7
  C:\KEIL_V5\C251\LIB\C2SXS.LIB (?C?INITEDATA_END)
         COMMENT TYPE 0: A251 V4.69.6.0


ACTIVE MEMORY CLASSES OF MODULE:  .\Out_File\SEEKFREE (board)

BASE        START       END         USED      MEMORY CLASS
==========================================================
000000H     000000H     001FFFH     001260H   EDATA
000000H     000000H     001FFFH               HDATA
FF0000H     FF0000H     FFFFFFH     007A62H   CODE
000000H     FF0000H     FFFFFFH     000434H   HCONST
FF0000H     FF0000H     FFFFFFH     000004H   CONST
000000H     000000H     00007FH     000008H   DATA


MEMORY MAP OF MODULE:  .\Out_File\SEEKFREE (board)


START     STOP      LENGTH    ALIGN  RELOC    MEMORY CLASS   SEGMENT NAME
=========================================================================
000000H   000007H   000008H   ---    AT..     DATA           "REG BANK 0"
000008H   000208H   000201H   BYTE   UNIT     EDATA          ?ED?SEEKFREE_TSL1401
000209H   000345H   00013DH   BYTE   UNIT     EDATA          ?ED?SEEKFREE_ASSISTANT
000346H   0003D2H   00008DH   BYTE   UNIT     EDATA          ?ED?SEEKFREE_ASSISTANT_DATA_ANALYSIS?SEEKFREE_ASSISTANT
0003D3H   00045EH   00008CH   BYTE   UNIT     EDATA          ?ED?DL1B_INIT?SEEKFREE_DL1B
00045FH   0004BDH   00005FH   BYTE   UNIT     EDATA          ?ED?ZF_SPRINTF?SEEKFREE_FUNCTION
0004BEH   000515H   000058H   BYTE   UNIT     EDATA          ?ED?SEEKFREE_BLUETOOTH_CH9141
000516H   00056DH   000058H   BYTE   UNIT     EDATA          ?ED?SEEKFREE_WIRELESS
00056EH   0005C4H   000057H   BYTE   UNIT     EDATA          ?ED?SEEKFREE_BLE6A20
0005C5H   0005FCH   000038H   BYTE   UNIT     EDATA          ?ED?FUNC_DOUBLE_TO_STR?SEEKFREE_FUNCTION
0005FDH   00062EH   000032H   BYTE   UNIT     EDATA          ?ED?MAIN?MAIN
00062FH   00065EH   000030H   BYTE   UNIT     EDATA          ?ED?LCD_SHOWFLOAT_SIMSPI?SEEKFREE_18TFT
00065FH   00068EH   000030H   BYTE   UNIT     EDATA          ?ED?LCD_SHOWFLOAT?SEEKFREE_18TFT
00068FH   0006BEH   000030H   BYTE   UNIT     EDATA          ?ED?IPS114_SHOWFLOAT_SIMSPI?SEEKFREE_IPS114_SPI
0006BFH   0006EEH   000030H   BYTE   UNIT     EDATA          ?ED?IPS114_SHOWFLOAT?SEEKFREE_IPS114_SPI
0006EFH   00071EH   000030H   BYTE   UNIT     EDATA          ?ED?OLED_PRINTF_FLOAT?SEEKFREE_OLED
00071FH   00074EH   000030H   BYTE   UNIT     EDATA          ?ED?OLED_PRINTF_FLOAT_SPI?SEEKFREE_OLED
00074FH   00077DH   00002FH   BYTE   UNIT     EDATA          ?ED?DL1A_SET_MEASUREMENT_TIMING_BUDGET?SEEKFREE_DL1A
00077EH   0007A9H   00002CH   BYTE   UNIT     EDATA          ?ED?LCD_SHOWINT32_SIMSPI?SEEKFREE_18TFT
0007AAH   0007D5H   00002CH   BYTE   UNIT     EDATA          ?ED?LCD_SHOWINT32?SEEKFREE_18TFT
0007D6H   000801H   00002CH   BYTE   UNIT     EDATA          ?ED?IPS114_SHOWINT32_SIMSPI?SEEKFREE_IPS114_SPI
000802H   00082DH   00002CH   BYTE   UNIT     EDATA          ?ED?IPS114_SHOWINT32?SEEKFREE_IPS114_SPI
00082EH   000859H   00002CH   BYTE   UNIT     EDATA          ?ED?OLED_PRINTF_INT32?SEEKFREE_OLED
00085AH   000885H   00002CH   BYTE   UNIT     EDATA          ?ED?OLED_PRINTF_INT32_SPI?SEEKFREE_OLED
000886H   0008AFH   00002AH   BYTE   UNIT     EDATA          ?ED?FUNC_FLOAT_TO_STR?SEEKFREE_FUNCTION
0008B0H   0008D9H   00002AH   BYTE   UNIT     EDATA          ?ED?SEEKFREE_ASSISTANT_OSCILLOSCOPE_SEND?SEEKFREE_ASSISTAN
                                                             -T
0008DAH   000901H   000028H   BYTE   UNIT     EDATA          _EDATA_GROUP_
000902H   000926H   000025H   BYTE   UNIT     EDATA          ?ED?FUNC_HEX_TO_STR?SEEKFREE_FUNCTION
000927H   000949H   000023H   BYTE   UNIT     EDATA          ?ED?IPS200_SHOW_FLOAT?SEEKFREE_IPS200_SPI
00094AH   000969H   000020H   BYTE   UNIT     EDATA          ?ED?IPS200_SHOW_WAVE?SEEKFREE_IPS200_SPI
00096AH   000988H   00001FH   BYTE   UNIT     EDATA          ?ED?DL1A_GET_MEASUREMENT_TIMING_BUDGET?SEEKFREE_DL1A
000989H   0009A7H   00001FH   BYTE   UNIT     EDATA          ?ED?SEEKFREE_ASSISTANT_CAMERA_BOUNDARY_CONFIG?SEEKFREE_ASS
                                                             -ISTANT
0009A8H   0009C4H   00001DH   BYTE   UNIT     EDATA          ?ED?FUNC_INT_TO_STR?SEEKFREE_FUNCTION
L251 LINKER/LOCATER V4.66.93.0                                                        11/05/2024  20:15:43  PAGE 4


0009C5H   0009E1H   00001DH   BYTE   UNIT     EDATA          ?ED?IPS200_SHOW_INT?SEEKFREE_IPS200_SPI
0009E2H   0009FEH   00001DH   BYTE   UNIT     EDATA          ?ED?IPS200_SHOW_UINT?SEEKFREE_IPS200_SPI
0009FFH   000A17H   000019H   BYTE   UNIT     EDATA          ?ED?FUNC_UINT_TO_STR?SEEKFREE_FUNCTION
000A18H   000A30H   000019H   BYTE   UNIT     EDATA          ?ED?IPS200_SHOW_CHINESE?SEEKFREE_IPS200_SPI
000A31H   000A48H   000018H   BYTE   UNIT     EDATA          ?ED?FIFO_READ_BUFFER?ZF_FIFO
000A49H   000A60H   000018H   BYTE   UNIT     EDATA          ?ED?FIFO_READ_TAIL_BUFFER?ZF_FIFO
000A61H   000A76H   000016H   BYTE   UNIT     EDATA          ?ED?IPS200_DRAW_LINE?SEEKFREE_IPS200_SPI
000A77H   000A8BH   000015H   BYTE   UNIT     EDATA          ?ED?DL1A_INIT?SEEKFREE_DL1A
000A8CH   000A9FH   000014H   BYTE   UNIT     EDATA          ?ED?PWM_INIT?ZF_PWM
000AA0H   000AB3H   000014H   BYTE   UNIT     EDATA          ?ED?PWM_FREQ?ZF_PWM
000AB4H   000AC7H   000014H   BYTE   UNIT     EDATA          ?ED?NUMBER_CONVERSION_ASCII?SEEKFREE_FUNCTION
000AC8H   000AD9H   000012H   BYTE   UNIT     EDATA          ?ED?FIFO_WRITE_BUFFER?ZF_FIFO
000ADAH   000AEBH   000012H   BYTE   UNIT     EDATA          ?ED?SEEKFREE_IMU963RA
000AECH   000AFDH   000012H   BYTE   UNIT     EDATA          ?ED?OLED_DIS_BMP?SEEKFREE_OLED
000AFEH   000B0FH   000012H   BYTE   UNIT     EDATA          ?ED?OLED_DIS_BMP_SPI?SEEKFREE_OLED
000B10H   000B20H   000011H   BYTE   UNIT     EDATA          ?ED?FUNC_STR_TO_FLOAT?SEEKFREE_FUNCTION
000B21H   000B31H   000011H   BYTE   UNIT     EDATA          ?ED?FUNC_STR_TO_DOUBLE?SEEKFREE_FUNCTION
000B32H   000B41H   000010H   BYTE   UNIT     EDATA          ?ED?FIFO_INIT?ZF_FIFO
000B42H   000B51H   000010H   BYTE   UNIT     EDATA          ?ED?DL1B_IIC_TRANSFER_8BIT_ARRAY?SEEKFREE_DL1B
000B52H   000B60H   00000FH   BYTE   UNIT     EDATA          ?ED?SEEKFREE_ASSISTANT_CAMERA_DATA_SEND?SEEKFREE_ASSISTANT
000B61H   000B6EH   00000EH   BYTE   UNIT     EDATA          ?ED?PWM_DUTY?ZF_PWM
000B6FH   000B7CH   00000EH   BYTE   UNIT     EDATA          ?ED?UART_INIT?ZF_UART
000B7DH   000B8AH   00000EH   BYTE   UNIT     EDATA          ?ED?FUNC_STR_TO_HEX?SEEKFREE_FUNCTION
000B8BH   000B98H   00000EH   BYTE   UNIT     EDATA          ?ED?SEEKFREE_IPS200_SPI
000B99H   000BA6H   00000EH   BYTE   UNIT     EDATA          ?ED?OLED_PRINT_CHINESE?SEEKFREE_OLED
000BA7H   000BB4H   00000EH   BYTE   UNIT     EDATA          ?ED?OLED_PRINT_CHINESE_SPI?SEEKFREE_OLED
000BB5H   000BC2H   00000EH   BYTE   UNIT     EDATA          ?ED?DATA_CONVERSION?SEEKFREE_VIRSCO
000BC3H   000BCFH   00000DH   BYTE   UNIT     EDATA          ?ED?SPI_INIT?ZF_SPI
000BD0H   000BDCH   00000DH   BYTE   UNIT     EDATA          ?ED?PRINTF_REVERSE_ORDER?SEEKFREE_FUNCTION
000BDDH   000BE9H   00000DH   BYTE   UNIT     EDATA          ?ED?ICM20602_SIMSPI_R_REG_BYTES?SEEKFREE_ICM20602
000BEAH   000BF5H   00000CH   BYTE   UNIT     EDATA          ?ED?FIFO_READ_ELEMENT?ZF_FIFO
000BF6H   000C01H   00000CH   BYTE   UNIT     EDATA          ?ED?LCD_SHOWINT16_SIMSPI?SEEKFREE_18TFT
000C02H   000C0DH   00000CH   BYTE   UNIT     EDATA          ?ED?LCD_SHOWUINT16_SIMSPI?SEEKFREE_18TFT
000C0EH   000C19H   00000CH   BYTE   UNIT     EDATA          ?ED?LCD_SHOWINT16?SEEKFREE_18TFT
000C1AH   000C25H   00000CH   BYTE   UNIT     EDATA          ?ED?LCD_SHOWUINT16?SEEKFREE_18TFT
000C26H   000C31H   00000CH   BYTE   UNIT     EDATA          ?ED?SHOWIMAGE?SEEKFREE_18TFT
000C32H   000C3DH   00000CH   BYTE   UNIT     EDATA          ?ED?BLUETOOTH_CH9141_READ_BUFF?SEEKFREE_BLUETOOTH_CH9141
000C3EH   000C49H   00000CH   BYTE   UNIT     EDATA          ?ED?BLE6A20_READ_BUFF?SEEKFREE_BLE6A20
000C4AH   000C55H   00000CH   BYTE   UNIT     EDATA          ?ED?DL1A_GET_SPAD_INFO?SEEKFREE_DL1A
000C56H   000C61H   00000CH   BYTE   UNIT     EDATA          ?ED?DL1A_GET_SEQUENCE_STEP_TIMEOUTS?SEEKFREE_DL1A
000C62H   000C6DH   00000CH   BYTE   UNIT     EDATA          ?ED?SEEKFREE_ICM20602
000C6EH   000C79H   00000CH   BYTE   UNIT     EDATA          ?ED?SEEKFREE_IMU660RA
000C7AH   000C85H   00000CH   BYTE   UNIT     EDATA          ?ED?IPS114_SHOWINT16_SIMSPI?SEEKFREE_IPS114_SPI
000C86H   000C91H   00000CH   BYTE   UNIT     EDATA          ?ED?IPS114_SHOWUINT16_SIMSPI?SEEKFREE_IPS114_SPI
000C92H   000C9DH   00000CH   BYTE   UNIT     EDATA          ?ED?IPS114_SHOWINT16?SEEKFREE_IPS114_SPI
000C9EH   000CA9H   00000CH   BYTE   UNIT     EDATA          ?ED?IPS114_SHOWUINT16?SEEKFREE_IPS114_SPI
000CAAH   000CB5H   00000CH   BYTE   UNIT     EDATA          ?ED?SEEKFREE_MPU6050
000CB6H   000CC1H   00000CH   BYTE   UNIT     EDATA          ?ED?WIRELESS_UART_READ_BUFF?SEEKFREE_WIRELESS
000CC2H   000CCCH   00000BH   BYTE   UNIT     EDATA          ?ED?OLED_UINT16?SEEKFREE_OLED
000CCDH   000CD7H   00000BH   BYTE   UNIT     EDATA          ?ED?OLED_INT16?SEEKFREE_OLED
000CD8H   000CE2H   00000BH   BYTE   UNIT     EDATA          ?ED?OLED_UINT16_SPI?SEEKFREE_OLED
000CE3H   000CEDH   00000BH   BYTE   UNIT     EDATA          ?ED?OLED_INT16_SPI?SEEKFREE_OLED
000CEEH   000CF8H   00000BH   BYTE   UNIT     EDATA          ?ED?SERVO
000CF9H   000D02H   00000AH   BYTE   UNIT     EDATA          ?ED?IAP_READ_BYTES?ZF_EEPROM
000D03H   000D0CH   00000AH   BYTE   UNIT     EDATA          ?ED?IAP_WRITE_BYTES?ZF_EEPROM
000D0DH   000D16H   00000AH   BYTE   UNIT     EDATA          ?ED?UART_PUTBUFF?ZF_UART
000D17H   000D20H   00000AH   BYTE   UNIT     EDATA          ?ED?FIFO_WRITE_ELEMENT?ZF_FIFO
000D21H   000D2AH   00000AH   BYTE   UNIT     EDATA          ?ED?LCD_SHOWSTR_SIMSPI?SEEKFREE_18TFT
000D2BH   000D34H   00000AH   BYTE   UNIT     EDATA          ?ED?LCD_SHOWSTR?SEEKFREE_18TFT
000D35H   000D3EH   00000AH   BYTE   UNIT     EDATA          ?ED?BLUETOOTH_CH9141_SEND_BUFF?SEEKFREE_BLUETOOTH_CH9141
000D3FH   000D48H   00000AH   BYTE   UNIT     EDATA          ?ED?DL1A_SIMIIC_READ_REGS?SEEKFREE_DL1A
000D49H   000D52H   00000AH   BYTE   UNIT     EDATA          ?ED?DL1A_SIMIIC_READ_REGS_1?SEEKFREE_DL1A
000D53H   000D5CH   00000AH   BYTE   UNIT     EDATA          ?ED?DL1A_ENCODE_TIMEOUT?SEEKFREE_DL1A
000D5DH   000D66H   00000AH   BYTE   UNIT     EDATA          ?ED?IPS114_SHOWSTR_SIMSPI?SEEKFREE_IPS114_SPI
000D67H   000D70H   00000AH   BYTE   UNIT     EDATA          ?ED?IPS114_SHOWSTR?SEEKFREE_IPS114_SPI
L251 LINKER/LOCATER V4.66.93.0                                                        11/05/2024  20:15:43  PAGE 5


000D71H   000D7AH   00000AH   BYTE   UNIT     EDATA          ?ED?IPS200_SHOW_STRING?SEEKFREE_IPS200_SPI
000D7BH   000D84H   00000AH   BYTE   UNIT     EDATA          ?ED?SEEKFREE_VIRSCO
000D85H   000D8EH   00000AH   BYTE   UNIT     EDATA          ?ED?SEEKFREE_ASSISTANT_CAMERA_INFORMATION_CONFIG?SEEKFREE_
                                                             -ASSISTANT
000D8FH   000D98H   00000AH   BYTE   UNIT     EDATA          ?ED?BATTERY
000D99H   000DA2H   00000AH   BYTE   UNIT     EDATA          ?ED?LINE_CALCULATE_POSITION?LINE
000DA3H   000DABH   000009H   BYTE   UNIT     EDATA          ?ED?LCD_SHOWINT8_SIMSPI?SEEKFREE_18TFT
000DACH   000DB4H   000009H   BYTE   UNIT     EDATA          ?ED?LCD_SHOWUINT8_SIMSPI?SEEKFREE_18TFT
000DB5H   000DBDH   000009H   BYTE   UNIT     EDATA          ?ED?LCD_SHOWINT8?SEEKFREE_18TFT
000DBEH   000DC6H   000009H   BYTE   UNIT     EDATA          ?ED?LCD_SHOWUINT8?SEEKFREE_18TFT
000DC7H   000DCFH   000009H   BYTE   UNIT     EDATA          ?ED?DL1A_SIMIIC_WRITE_DATS?SEEKFREE_DL1A
000DD0H   000DD8H   000009H   BYTE   UNIT     EDATA          ?ED?DL1A_TIMEOUT_MICROSECONDS_TO_MCLKS?SEEKFREE_DL1A
000DD9H   000DE1H   000009H   BYTE   UNIT     EDATA          ?ED?DL1A_SET_SIGNAL_RATE_LIMIT?SEEKFREE_DL1A
000DE2H   000DEAH   000009H   BYTE   UNIT     EDATA          ?ED?FUNC_STR_TO_INT?SEEKFREE_FUNCTION
000DEBH   000DF3H   000009H   BYTE   UNIT     EDATA          ?ED?ICM20602_READ_REGISTERS?SEEKFREE_ICM20602
000DF4H   000DFCH   000009H   BYTE   UNIT     EDATA          ?ED?IMU660RA_SIMSPI_W_REG_BYTES?SEEKFREE_IMU660RA
000DFDH   000E05H   000009H   BYTE   UNIT     EDATA          ?ED?IMU660RA_SIMSPI_R_REG_BYTES?SEEKFREE_IMU660RA
000E06H   000E0EH   000009H   BYTE   UNIT     EDATA          ?ED?IMU660RA_WRITE_REGISTERS?SEEKFREE_IMU660RA
000E0FH   000E17H   000009H   BYTE   UNIT     EDATA          ?ED?IMU660RA_READ_REGISTERS?SEEKFREE_IMU660RA
000E18H   000E20H   000009H   BYTE   UNIT     EDATA          ?ED?IMU963RA_SIMSPI_R_REG_BYTES?SEEKFREE_IMU963RA
000E21H   000E29H   000009H   BYTE   UNIT     EDATA          ?ED?IMU963RA_READ_ACC_GYRO_REGISTERS?SEEKFREE_IMU963RA
000E2AH   000E32H   000009H   BYTE   UNIT     EDATA          ?ED?IPS114_SHOWINT8_SIMSPI?SEEKFREE_IPS114_SPI
000E33H   000E3BH   000009H   BYTE   UNIT     EDATA          ?ED?IPS114_SHOWUINT8_SIMSPI?SEEKFREE_IPS114_SPI
000E3CH   000E44H   000009H   BYTE   UNIT     EDATA          ?ED?IPS114_SHOWINT8?SEEKFREE_IPS114_SPI
000E45H   000E4DH   000009H   BYTE   UNIT     EDATA          ?ED?IPS114_SHOWUINT8?SEEKFREE_IPS114_SPI
000E4EH   000E56H   000009H   BYTE   UNIT     EDATA          ?ED?IPS200_SHOW_CHAR?SEEKFREE_IPS200_SPI
000E57H   000E5FH   000009H   BYTE   UNIT     EDATA          ?ED?OLED_P6X8STR?SEEKFREE_OLED
000E60H   000E68H   000009H   BYTE   UNIT     EDATA          ?ED?OLED_P8X16STR?SEEKFREE_OLED
000E69H   000E71H   000009H   BYTE   UNIT     EDATA          ?ED?OLED_P6X8STR_SPI?SEEKFREE_OLED
000E72H   000E7AH   000009H   BYTE   UNIT     EDATA          ?ED?OLED_P8X16STR_SPI?SEEKFREE_OLED
000E7BH   000E83H   000009H   BYTE   UNIT     EDATA          ?ED?CRC_CHECK?SEEKFREE_VIRSCO
000E84H   000E8CH   000009H   BYTE   UNIT     EDATA          ?ED?SEEKFREE_ASSISTANT_SUM?SEEKFREE_ASSISTANT
000E8DH   000E94H   000008H   BYTE   UNIT     EDATA          ?ED?SET_CLK?BOARD
000E95H   000E9CH   000008H   BYTE   UNIT     EDATA          ?ED?FIFO_HEAD_OFFSET?ZF_FIFO
000E9DH   000EA4H   000008H   BYTE   UNIT     EDATA          ?ED?FIFO_END_OFFSET?ZF_FIFO
000EA5H   000EACH   000008H   BYTE   UNIT     EDATA          ?ED?LCD_SET_REGION_SIMSPI?SEEKFREE_18TFT
000EADH   000EB4H   000008H   BYTE   UNIT     EDATA          ?ED?LCD_SHOWCHAR_SIMSPI?SEEKFREE_18TFT
000EB5H   000EBCH   000008H   BYTE   UNIT     EDATA          ?ED?LCD_SET_REGION?SEEKFREE_18TFT
000EBDH   000EC4H   000008H   BYTE   UNIT     EDATA          ?ED?LCD_SHOWCHAR?SEEKFREE_18TFT
000EC5H   000ECCH   000008H   BYTE   UNIT     EDATA          ?ED?BLE6A20_SEND_BUFF?SEEKFREE_BLE6A20
000ECDH   000ED4H   000008H   BYTE   UNIT     EDATA          ?ED?FUNC_GET_GREATEST_COMMON_DIVISOR?SEEKFREE_FUNCTION
000ED5H   000EDCH   000008H   BYTE   UNIT     EDATA          ?ED?FUNC_STR_TO_UINT?SEEKFREE_FUNCTION
000EDDH   000EE4H   000008H   BYTE   UNIT     EDATA          ?ED?IPS114_SET_REGION_SIMSPI?SEEKFREE_IPS114_SPI
000EE5H   000EECH   000008H   BYTE   UNIT     EDATA          ?ED?IPS114_SHOWCHAR_SIMSPI?SEEKFREE_IPS114_SPI
000EEDH   000EF4H   000008H   BYTE   UNIT     EDATA          ?ED?IPS114_SET_REGION?SEEKFREE_IPS114_SPI
000EF5H   000EFCH   000008H   BYTE   UNIT     EDATA          ?ED?IPS114_SHOWCHAR?SEEKFREE_IPS114_SPI
000EFDH   000F04H   000008H   BYTE   UNIT     EDATA          ?ED?IPS200_SET_REGION?SEEKFREE_IPS200_SPI
000F05H   000F0CH   000008H   BYTE   UNIT     EDATA          ?ED?OLED_HEXASCII?SEEKFREE_OLED
000F0DH   000F14H   000008H   BYTE   UNIT     EDATA          ?ED?OLED_HEXASCII_SPI?SEEKFREE_OLED
000F15H   000F1CH   000008H   BYTE   UNIT     EDATA          ?ED?WIRELESS_UART_SEND_BUFF?SEEKFREE_WIRELESS
000F1DH   000F24H   000008H   BYTE   UNIT     EDATA          ?ED?GET_BATTERY_PERCENTAGE?BATTERY
000F25H   000F2CH   000008H   BYTE   UNIT     EDATA          ?ED?LINE
000F2DH   000F33H   000007H   BYTE   UNIT     EDATA          ?ED?IIC_READ_REG_BYTES?ZF_IIC
000F34H   000F3AH   000007H   BYTE   UNIT     EDATA          ?ED?DL1A_TIMEOUT_MCLKS_TO_MICROSECONDS?SEEKFREE_DL1A
000F3BH   000F41H   000007H   BYTE   UNIT     EDATA          ?ED?IMU660RA_GET_ACC?SEEKFREE_IMU660RA
000F42H   000F48H   000007H   BYTE   UNIT     EDATA          ?ED?IMU660RA_GET_GYRO?SEEKFREE_IMU660RA
000F49H   000F4FH   000007H   BYTE   UNIT     EDATA          ?ED?IMU963RA_GET_MAG?SEEKFREE_IMU963RA
000F50H   000F56H   000007H   BYTE   UNIT     EDATA          ?ED?MPU6050_SIMIIC_READ_REGS?SEEKFREE_MPU6050
000F57H   000F5DH   000007H   BYTE   UNIT     EDATA          ?ED?CCD_SEND_DATA?SEEKFREE_TSL1401
000F5EH   000F64H   000007H   BYTE   UNIT     EDATA          ?ED?SEEKFREE_ASSISTANT_CAMERA_DOT_SEND?SEEKFREE_ASSISTANT
000F65H   000F6AH   000006H   BYTE   UNIT     EDATA          ?ED?ADC_ONCE?ZF_ADC
000F6BH   000F70H   000006H   BYTE   UNIT     EDATA          ?ED?DELAY_US?ZF_DELAY
000F71H   000F76H   000006H   BYTE   UNIT     EDATA          ?ED?IIC_INIT?ZF_IIC
000F77H   000F7CH   000006H   BYTE   UNIT     EDATA          ?ED?IIC_READ_REG?ZF_IIC
000F7DH   000F82H   000006H   BYTE   UNIT     EDATA          ?ED?PIT_TIMER_MS?ZF_TIM
L251 LINKER/LOCATER V4.66.93.0                                                        11/05/2024  20:15:43  PAGE 6


000F83H   000F88H   000006H   BYTE   UNIT     EDATA          ?ED?UART_PUTSTR?ZF_UART
000F89H   000F8EH   000006H   BYTE   UNIT     EDATA          ?ED?FIFO_CLEAR?ZF_FIFO
000F8FH   000F94H   000006H   BYTE   UNIT     EDATA          ?ED?LCD_DRAWPOINT_SIMSPI?SEEKFREE_18TFT
000F95H   000F9AH   000006H   BYTE   UNIT     EDATA          ?ED?LCD_DRAWPOINT?SEEKFREE_18TFT
000F9BH   000FA0H   000006H   BYTE   UNIT     EDATA          ?ED?ICM20602_GET_ACC?SEEKFREE_ICM20602
000FA1H   000FA6H   000006H   BYTE   UNIT     EDATA          ?ED?ICM20602_GET_GYRO?SEEKFREE_ICM20602
000FA7H   000FACH   000006H   BYTE   UNIT     EDATA          ?ED?ICM20602_ACC_TRANSITION?SEEKFREE_ICM20602
000FADH   000FB2H   000006H   BYTE   UNIT     EDATA          ?ED?ICM20602_GYRO_TRANSITION?SEEKFREE_ICM20602
000FB3H   000FB8H   000006H   BYTE   UNIT     EDATA          ?ED?IMU660RA_ACC_TRANSITION?SEEKFREE_IMU660RA
000FB9H   000FBEH   000006H   BYTE   UNIT     EDATA          ?ED?IMU660RA_GYRO_TRANSITION?SEEKFREE_IMU660RA
000FBFH   000FC4H   000006H   BYTE   UNIT     EDATA          ?ED?IMU963RA_WRITE_MAG_REGISTER?SEEKFREE_IMU963RA
000FC5H   000FCAH   000006H   BYTE   UNIT     EDATA          ?ED?IMU963RA_GET_ACC?SEEKFREE_IMU963RA
000FCBH   000FD0H   000006H   BYTE   UNIT     EDATA          ?ED?IMU963RA_GET_GYRO?SEEKFREE_IMU963RA
000FD1H   000FD6H   000006H   BYTE   UNIT     EDATA          ?ED?IMU963RA_ACC_TRANSITION?SEEKFREE_IMU963RA
000FD7H   000FDCH   000006H   BYTE   UNIT     EDATA          ?ED?IMU963RA_GYRO_TRANSITION?SEEKFREE_IMU963RA
000FDDH   000FE2H   000006H   BYTE   UNIT     EDATA          ?ED?IMU963RA_MAG_TRANSITION?SEEKFREE_IMU963RA
000FE3H   000FE8H   000006H   BYTE   UNIT     EDATA          ?ED?IPS114_CLEAR_SIMSPI?SEEKFREE_IPS114_SPI
000FE9H   000FEEH   000006H   BYTE   UNIT     EDATA          ?ED?IPS114_DRAWPOINT_SIMSPI?SEEKFREE_IPS114_SPI
000FEFH   000FF4H   000006H   BYTE   UNIT     EDATA          ?ED?IPS114_CLEAR?SEEKFREE_IPS114_SPI
000FF5H   000FFAH   000006H   BYTE   UNIT     EDATA          ?ED?IPS114_DRAWPOINT?SEEKFREE_IPS114_SPI
000FFBH   001000H   000006H   BYTE   UNIT     EDATA          ?ED?IPS200_FULL?SEEKFREE_IPS200_SPI
001001H   001006H   000006H   BYTE   UNIT     EDATA          ?ED?IPS200_DRAW_POINT?SEEKFREE_IPS200_SPI
001007H   00100CH   000006H   BYTE   UNIT     EDATA          ?ED?MPU6050_GET_ACCDATA?SEEKFREE_MPU6050
00100DH   001012H   000006H   BYTE   UNIT     EDATA          ?ED?MPU6050_GET_GYRO?SEEKFREE_MPU6050
001013H   001018H   000006H   BYTE   UNIT     EDATA          ?ED?DRV8701_CONTROL?DRV8701_DUAL
001019H   00101EH   000006H   BYTE   UNIT     EDATA          ?ED?SERVO_SET_POSITION?SERVO
00101FH   001023H   000005H   BYTE   UNIT     EDATA          ?ED?ZF_UART
001024H   001028H   000005H   BYTE   UNIT     EDATA          ?ED?DL1A_GET_SEQUENCE_STEP_ENABLES?SEEKFREE_DL1A
001029H   00102DH   000005H   BYTE   UNIT     EDATA          ?ED?DL1A_PERFORM_SINGLE_REF_CALIBRATION?SEEKFREE_DL1A
00102EH   001032H   000005H   BYTE   UNIT     EDATA          ?ED?DL1B_GET_DISTANCE?SEEKFREE_DL1B
001033H   001037H   000005H   BYTE   UNIT     EDATA          ?ED?ICM20602_SIMSPI_R_REG_BYTE?SEEKFREE_ICM20602
001038H   00103CH   000005H   BYTE   UNIT     EDATA          ?ED?IMU963RA_SIMSPI_R_REG_BYTE?SEEKFREE_IMU963RA
00103DH   001040H   000004H   BYTE   UNIT     EDATA          ?ED?BOARD
001041H   001044H   000004H   BYTE   UNIT     EDATA          ?ED?CLOCK_INIT?BOARD
001045H   001048H   000004H   BYTE   UNIT     EDATA          ?ED?COMMON
001049H   00104CH   000004H   BYTE   UNIT     EDATA          ?ED?ADC_INIT?ZF_ADC
00104DH   001050H   000004H   BYTE   UNIT     EDATA          ?ED?ZF_DELAY
001051H   001054H   000004H   BYTE   UNIT     EDATA          ?ED?DELAY_MS?ZF_DELAY
001055H   001058H   000004H   BYTE   UNIT     EDATA          ?ED?IAP_ERASE_PAGE?ZF_EEPROM
001059H   00105CH   000004H   BYTE   UNIT     EDATA          ?ED?EXIT_INIT?ZF_EXTI
00105DH   001060H   000004H   BYTE   UNIT     EDATA          ?ED?GPIO_PULL_SET?ZF_GPIO
001061H   001064H   000004H   BYTE   UNIT     EDATA          ?ED?GPIO_MODE?ZF_GPIO
001065H   001068H   000004H   BYTE   UNIT     EDATA          ?ED?CTIMER_COUNT_READ?ZF_TIM
001069H   00106CH   000004H   BYTE   UNIT     EDATA          ?ED?FIFO_USED?ZF_FIFO
00106DH   001070H   000004H   BYTE   UNIT     EDATA          ?ED?LCD_CLEAR_SIMSPI?SEEKFREE_18TFT
001071H   001074H   000004H   BYTE   UNIT     EDATA          ?ED?LCD_WRITEDATA_16BIT?SEEKFREE_18TFT
001075H   001078H   000004H   BYTE   UNIT     EDATA          ?ED?LCD_CLEAR?SEEKFREE_18TFT
001079H   00107CH   000004H   BYTE   UNIT     EDATA          ?ED?SEEKFREE_DL1B
00107DH   001080H   000004H   BYTE   UNIT     EDATA          ?ED?FUNC_SOFT_DELAY?SEEKFREE_FUNCTION
001081H   001084H   000004H   BYTE   UNIT     EDATA          ?ED?ICM20602_SELF_CHECK?SEEKFREE_ICM20602
001085H   001088H   000004H   BYTE   UNIT     EDATA          ?ED?ICM20602_INIT?SEEKFREE_ICM20602
001089H   00108CH   000004H   BYTE   UNIT     EDATA          ?ED?IMU660RA_SELF_CHECK?SEEKFREE_IMU660RA
00108DH   001090H   000004H   BYTE   UNIT     EDATA          ?ED?IMU963RA_READ_MAG_REGISTER?SEEKFREE_IMU963RA
001091H   001094H   000004H   BYTE   UNIT     EDATA          ?ED?IMU963RA_ACC_GYRO_SELF_CHECK?SEEKFREE_IMU963RA
001095H   001098H   000004H   BYTE   UNIT     EDATA          ?ED?IMU963RA_MAG_SELF_CHECK?SEEKFREE_IMU963RA
001099H   00109CH   000004H   BYTE   UNIT     EDATA          ?ED?IPS114_WRITEDATA_16BIT?SEEKFREE_IPS114_SPI
00109DH   0010A0H   000004H   BYTE   UNIT     EDATA          ?ED?IPS200_WRITE_16BIT_DATA_SPI?SEEKFREE_IPS200_SPI
0010A1H   0010A4H   000004H   BYTE   UNIT     EDATA          ?ED?IPS200_CLEAR?SEEKFREE_IPS200_SPI
0010A5H   0010A8H   000004H   BYTE   UNIT     EDATA          ?ED?IPS200_SET_COLOR?SEEKFREE_IPS200_SPI
0010A9H   0010ACH   000004H   BYTE   UNIT     EDATA          ?ED?SEEKFREE_ASSISTANT_INFACE
0010ADH   0010B0H   000004H   BYTE   UNIT     EDATA          ?ED?SET_MOTOR?DRV8701_DUAL
0010B1H   0010B4H   000004H   BYTE   UNIT     EDATA          ?ED?SERVO_INIT?SERVO
0010B5H   0010B7H   000003H   BYTE   UNIT     EDATA          ?ED?IIC_DELAY_US?ZF_IIC
0010B8H   0010BAH   000003H   BYTE   UNIT     EDATA          ?ED?WAIT?ZF_IIC
0010BBH   0010BDH   000003H   BYTE   UNIT     EDATA          ?ED?IIC_WRITE_REG?ZF_IIC
L251 LINKER/LOCATER V4.66.93.0                                                        11/05/2024  20:15:43  PAGE 7


0010BEH   0010C0H   000003H   BYTE   UNIT     EDATA          ?ED?NVIC_SETPRIORITY?ZF_NVIC
0010C1H   0010C3H   000003H   BYTE   UNIT     EDATA          ?ED?UART_PUTCHAR?ZF_UART
0010C4H   0010C6H   000003H   BYTE   UNIT     EDATA          ?ED?LCD_WRITEDATA_16BIT_SIMSPI?SEEKFREE_18TFT
0010C7H   0010C9H   000003H   BYTE   UNIT     EDATA          ?ED?SEEKFREE_DL1A
0010CAH   0010CCH   000003H   BYTE   UNIT     EDATA          ?ED?DL1A_READ_CH?SEEKFREE_DL1A
0010CDH   0010CFH   000003H   BYTE   UNIT     EDATA          ?ED?DL1A_SIMIIC_WRITE_REG?SEEKFREE_DL1A
0010D0H   0010D2H   000003H   BYTE   UNIT     EDATA          ?ED?DL1A_SIMIIC_READ_REG?SEEKFREE_DL1A
0010D3H   0010D5H   000003H   BYTE   UNIT     EDATA          ?ED?DL1A_GET_VCSEL_PULSE_PERIOD?SEEKFREE_DL1A
0010D6H   0010D8H   000003H   BYTE   UNIT     EDATA          ?ED?DL1A_GET_DISTANCE?SEEKFREE_DL1A
0010D9H   0010DBH   000003H   BYTE   UNIT     EDATA          ?ED?DL1B_READ_CH?SEEKFREE_DL1B
0010DCH   0010DEH   000003H   BYTE   UNIT     EDATA          ?ED?IMU660RA_READ_REGISTER?SEEKFREE_IMU660RA
0010DFH   0010E1H   000003H   BYTE   UNIT     EDATA          ?ED?IPS114_WRITEDATAI_16BIT_SIMSPI?SEEKFREE_IPS114_SPI
0010E2H   0010E4H   000003H   BYTE   UNIT     EDATA          ?ED?MPU6050_READ_CH?SEEKFREE_MPU6050
0010E5H   0010E7H   000003H   BYTE   UNIT     EDATA          ?ED?MPU6050_SIMIIC_WRITE_REG?SEEKFREE_MPU6050
0010E8H   0010EAH   000003H   BYTE   UNIT     EDATA          ?ED?MPU6050_SIMIIC_READ_REG?SEEKFREE_MPU6050
0010EBH   0010EDH   000003H   BYTE   UNIT     EDATA          ?ED?OLED_FILL?SEEKFREE_OLED
0010EEH   0010F0H   000003H   BYTE   UNIT     EDATA          ?ED?OLED_PUTPIXEL?SEEKFREE_OLED
0010F1H   0010F3H   000003H   BYTE   UNIT     EDATA          ?ED?OLED_FILL_SPI?SEEKFREE_OLED
0010F4H   0010F6H   000003H   BYTE   UNIT     EDATA          ?ED?OLED_PUTPIXEL_SPI?SEEKFREE_OLED
0010F7H   0010F8H   000002H   BYTE   UNIT     EDATA          ?ED?SEND_DATA?ZF_IIC
0010F9H   0010FAH   000002H   BYTE   UNIT     EDATA          ?ED?IIC_CHANGE_PIN?ZF_IIC
0010FBH   0010FCH   000002H   BYTE   UNIT     EDATA          ?ED?PWM_SET_GPIO?ZF_PWM
0010FDH   0010FEH   000002H   BYTE   UNIT     EDATA          ?ED?SPI_CHANGE_PIN?ZF_SPI
0010FFH   001100H   000002H   BYTE   UNIT     EDATA          ?ED?CTIMER_COUNT_INIT?ZF_TIM
001101H   001102H   000002H   BYTE   UNIT     EDATA          ?ED?CTIMER_COUNT_CLEAN?ZF_TIM
001103H   001104H   000002H   BYTE   UNIT     EDATA          ?ED?LCD_WRITEINDEX_SIMSPI?SEEKFREE_18TFT
001105H   001106H   000002H   BYTE   UNIT     EDATA          ?ED?LCD_WRITEDATA_SIMSPI?SEEKFREE_18TFT
001107H   001108H   000002H   BYTE   UNIT     EDATA          ?ED?DL1A_SIMIIC_DELAY?SEEKFREE_DL1A
001109H   00110AH   000002H   BYTE   UNIT     EDATA          ?ED?DL1A_SEND_CH?SEEKFREE_DL1A
00110BH   00110CH   000002H   BYTE   UNIT     EDATA          ?ED?DL1A_DECODE_TIMEOUT?SEEKFREE_DL1A
00110DH   00110EH   000002H   BYTE   UNIT     EDATA          ?ED?DL1B_SIMIIC_DELAY?SEEKFREE_DL1B
00110FH   001110H   000002H   BYTE   UNIT     EDATA          ?ED?DL1B_SEND_CH?SEEKFREE_DL1B
001111H   001112H   000002H   BYTE   UNIT     EDATA          ?ED?ICM20602_SIMSPI_WR_BYTE?SEEKFREE_ICM20602
001113H   001114H   000002H   BYTE   UNIT     EDATA          ?ED?ICM20602_SIMSPI_W_REG_BYTE?SEEKFREE_ICM20602
001115H   001116H   000002H   BYTE   UNIT     EDATA          ?ED?ICM20602_WRITE_REGISTER?SEEKFREE_ICM20602
001117H   001118H   000002H   BYTE   UNIT     EDATA          ?ED?ICM20602_READ_REGISTER?SEEKFREE_ICM20602
001119H   00111AH   000002H   BYTE   UNIT     EDATA          ?ED?IMU660RA_SIMSPI_WR_BYTE?SEEKFREE_IMU660RA
00111BH   00111CH   000002H   BYTE   UNIT     EDATA          ?ED?IMU660RA_SIMSPI_W_REG_BYTE?SEEKFREE_IMU660RA
00111DH   00111EH   000002H   BYTE   UNIT     EDATA          ?ED?IMU660RA_WRITE_REGISTER?SEEKFREE_IMU660RA
00111FH   001120H   000002H   BYTE   UNIT     EDATA          ?ED?IMU963RA_SIMSPI_WR_BYTE?SEEKFREE_IMU963RA
001121H   001122H   000002H   BYTE   UNIT     EDATA          ?ED?IMU963RA_SIMSPI_W_REG_BYTE?SEEKFREE_IMU963RA
001123H   001124H   000002H   BYTE   UNIT     EDATA          ?ED?IMU963RA_WRITE_ACC_GYRO_REGISTER?SEEKFREE_IMU963RA
001125H   001126H   000002H   BYTE   UNIT     EDATA          ?ED?IMU963RA_READ_ACC_GYRO_REGISTER?SEEKFREE_IMU963RA
001127H   001128H   000002H   BYTE   UNIT     EDATA          ?ED?IMU963RA_CONNECT_MAG?SEEKFREE_IMU963RA
001129H   00112AH   000002H   BYTE   UNIT     EDATA          ?ED?IPS114_WRITEINDEX_SIMSPI?SEEKFREE_IPS114_SPI
00112BH   00112CH   000002H   BYTE   UNIT     EDATA          ?ED?IPS114_WRITEDATA_SIMSPI?SEEKFREE_IPS114_SPI
00112DH   00112EH   000002H   BYTE   UNIT     EDATA          ?ED?IPS200_WRITE_16BIT_DATA?SEEKFREE_IPS200_SPI
00112FH   001130H   000002H   BYTE   UNIT     EDATA          ?ED?IPS200_SET_DIR?SEEKFREE_IPS200_SPI
001131H   001132H   000002H   BYTE   UNIT     EDATA          ?ED?IPS200_SET_FONT?SEEKFREE_IPS200_SPI
001133H   001134H   000002H   BYTE   UNIT     EDATA          ?ED?MPU6050_SIMIIC_DELAY?SEEKFREE_MPU6050
001135H   001136H   000002H   BYTE   UNIT     EDATA          ?ED?MPU6050_SEND_CH?SEEKFREE_MPU6050
001137H   001138H   000002H   BYTE   UNIT     EDATA          ?ED?OLED_WRDAT?SEEKFREE_OLED
001139H   00113AH   000002H   BYTE   UNIT     EDATA          ?ED?OLED_WRCMD?SEEKFREE_OLED
00113BH   00113CH   000002H   BYTE   UNIT     EDATA          ?ED?OLED_SET_POS?SEEKFREE_OLED
00113DH   00113EH   000002H   BYTE   UNIT     EDATA          ?ED?OLED_CLRPIXEL?SEEKFREE_OLED
00113FH   001140H   000002H   BYTE   UNIT     EDATA          ?ED?OLED_SET_POS_SPI?SEEKFREE_OLED
001141H   001142H   000002H   BYTE   UNIT     EDATA          ?ED?OLED_CLRPIXEL_SPI?SEEKFREE_OLED
001143H   001144H   000002H   BYTE   UNIT     EDATA          ?ED?DRV8701_STOP?DRV8701_DUAL
001145H   001146H   000002H   BYTE   UNIT     EDATA          ?ED?ENCODER_READ1?ENCODER
001147H   001148H   000002H   BYTE   UNIT     EDATA          ?ED?ENCODER_READ2?ENCODER
001149H   001149H   000001H   BYTE   UNIT     EDATA          ?ED?PUTCHAR?BOARD
00114AH   00114AH   000001H   BYTE   UNIT     EDATA          ?ED?IAP_SET_TPS?ZF_EEPROM
00114BH   00114BH   000001H   BYTE   UNIT     EDATA          ?ED?START?ZF_IIC
00114CH   00114CH   000001H   BYTE   UNIT     EDATA          ?ED?RECV_ACK?ZF_IIC
00114DH   00114DH   000001H   BYTE   UNIT     EDATA          ?ED?SEND_ACK?ZF_IIC
L251 LINKER/LOCATER V4.66.93.0                                                        11/05/2024  20:15:43  PAGE 8


00114EH   00114EH   000001H   BYTE   UNIT     EDATA          ?ED?STOP?ZF_IIC
00114FH   00114FH   000001H   BYTE   UNIT     EDATA          ?ED?SPI_MOSI?ZF_SPI
001150H   001150H   000001H   BYTE   UNIT     EDATA          ?ED?SPI_CHANGE_MODE?ZF_SPI
001151H   001151H   000001H   BYTE   UNIT     EDATA          ?ED?LCD_WRITEINDEX?SEEKFREE_18TFT
001152H   001152H   000001H   BYTE   UNIT     EDATA          ?ED?LCD_WRITEDATA?SEEKFREE_18TFT
001153H   001153H   000001H   BYTE   UNIT     EDATA          ?ED?BLUETOOTH_CH9141_UART_CALLBACK?SEEKFREE_BLUETOOTH_CH91
                                                             -41
001154H   001154H   000001H   BYTE   UNIT     EDATA          ?ED?BLUETOOTH_CH9141SEND_BYTE?SEEKFREE_BLUETOOTH_CH9141
001155H   001155H   000001H   BYTE   UNIT     EDATA          ?ED?BLE6A20_CALLBACK?SEEKFREE_BLE6A20
001156H   001156H   000001H   BYTE   UNIT     EDATA          ?ED?BLE6A20_SEND_BYTE?SEEKFREE_BLE6A20
001157H   001157H   000001H   BYTE   UNIT     EDATA          ?ED?DL1A_SIMIIC_SENDACK?SEEKFREE_DL1A
001158H   001158H   000001H   BYTE   UNIT     EDATA          ?ED?DL1B_SIMIIC_SENDACK?SEEKFREE_DL1B
001159H   001159H   000001H   BYTE   UNIT     EDATA          ?ED?IMU660RA_INIT?SEEKFREE_IMU660RA
00115AH   00115AH   000001H   BYTE   UNIT     EDATA          ?ED?IMU963RA_INIT?SEEKFREE_IMU963RA
00115BH   00115BH   000001H   BYTE   UNIT     EDATA          ?ED?IPS114_WRITEINDEX?SEEKFREE_IPS114_SPI
00115CH   00115CH   000001H   BYTE   UNIT     EDATA          ?ED?IPS114_WRITEDATA?SEEKFREE_IPS114_SPI
00115DH   00115DH   000001H   BYTE   UNIT     EDATA          ?ED?IPS200_WRITE_8BIT_DATA_SPI?SEEKFREE_IPS200_SPI
00115EH   00115EH   000001H   BYTE   UNIT     EDATA          ?ED?IPS200_WRITE_COMMAND?SEEKFREE_IPS200_SPI
00115FH   00115FH   000001H   BYTE   UNIT     EDATA          ?ED?IPS200_WRITE_8BIT_DATA?SEEKFREE_IPS200_SPI
001160H   001160H   000001H   BYTE   UNIT     EDATA          ?ED?MPU6050_SIMIIC_SENDACK?SEEKFREE_MPU6050
001161H   001161H   000001H   BYTE   UNIT     EDATA          ?ED?OLED_WRDAT_SPI?SEEKFREE_OLED
001162H   001162H   000001H   BYTE   UNIT     EDATA          ?ED?OLED_WRCMD_SPI?SEEKFREE_OLED
001163H   001163H   000001H   BYTE   UNIT     EDATA          ?ED?CCD_COLLECT?SEEKFREE_TSL1401
001164H   001164H   000001H   BYTE   UNIT     EDATA          ?ED?WIRELESS_UART_CALLBACK?SEEKFREE_WIRELESS
001165H   001165H   000001H   BYTE   UNIT     EDATA          ?ED?WIRELESS_UART_SEND_BYTE?SEEKFREE_WIRELESS
001166H   001166H   000001H   BYTE   UNIT     EDATA          ?ED?UART1_ISR?ISR
001167H   001167H   000001H   BYTE   UNIT     EDATA          ?ED?ISR
001168H   001267H   000100H   BYTE   UNIT     EDATA          ?STACK
001268H   FEFFFFH   FEED98H   ---    ---      **GAP**
FF0000H   FF0002H   000003H   ---    OFFS..   CODE           ?CO?start251?4
FF0003H   FF0005H   000003H   ---    OFFS..   CODE           ?PR?IV?0
FF0006H   FF0009H   000004H   BYTE   INSEG    CODE           ?PR?ENABLEGLOBALIRQ?BOARD
FF000AH   FF000AH   000001H   BYTE   INSEG    CODE           ?PR?INT1_ISR?ISR
FF000BH   FF000DH   000003H   ---    OFFS..   CODE           ?PR?IV?1
FF000EH   FF0011H   000004H   BYTE   UNIT     CODE           ?PR?FPSUB?STC32F_FPMU
FF0012H   FF0012H   000001H   BYTE   INSEG    CODE           ?PR?TM0_ISR?ISR
FF0013H   FF0015H   000003H   ---    OFFS..   CODE           ?PR?IV?2
FF0016H   FF0019H   000004H   BYTE   UNIT     CODE           ?PR?FPMUL?STC32F_FPMU
FF001AH   FF001AH   000001H   BYTE   INSEG    CODE           ?PR?TM1_ISR?ISR
FF001BH   FF001DH   000003H   ---    OFFS..   CODE           ?PR?IV?3
FF001EH   FF0021H   000004H   BYTE   UNIT     CODE           ?PR?FPDIV?STC32F_FPMU
FF0022H   FF0022H   000001H   ---    ---      **GAP**
FF0023H   FF0025H   000003H   ---    OFFS..   CODE           ?PR?IV?4
FF0026H   FF0042H   00001DH   BYTE   INSEG    CODE           ?PR?DL1B_SIMIIC_DELAY?SEEKFREE_DL1B
FF0043H   FF0045H   000003H   ---    OFFS..   CODE           ?PR?IV?8
FF0046H   FF0051H   00000CH   BYTE   UNIT     CODE           ?PR?FPCMP?STC32F_FPMU
FF0052H   FF0052H   000001H   ---    ---      **GAP**
FF0053H   FF0055H   000003H   ---    OFFS..   CODE           ?PR?IV?10
FF0056H   FF0059H   000004H   BYTE   UNIT     CODE           ?PR?FCASTL?STC32F_FPMU
FF005AH   FF005AH   000001H   ---    ---      **GAP**
FF005BH   FF005DH   000003H   ---    OFFS..   CODE           ?PR?IV?11
FF005EH   FF0061H   000004H   BYTE   INSEG    CODE           ?PR?INT0_ISR?ISR
FF0062H   FF0062H   000001H   ---    ---      **GAP**
FF0063H   FF0065H   000003H   ---    OFFS..   CODE           ?PR?IV?12
FF0066H   FF0082H   00001DH   BYTE   INSEG    CODE           ?PR?MPU6050_SIMIIC_DELAY?SEEKFREE_MPU6050
FF0083H   FF0085H   000003H   ---    OFFS..   CODE           ?PR?IV?16
FF0086H   FF0089H   000004H   BYTE   INSEG    CODE           ?PR?INT2_ISR?ISR
FF008AH   FF008AH   000001H   ---    ---      **GAP**
FF008BH   FF008DH   000003H   ---    OFFS..   CODE           ?PR?IV?17
FF008EH   FF0091H   000004H   BYTE   INSEG    CODE           ?PR?INT3_ISR?ISR
FF0092H   FF0092H   000001H   ---    ---      **GAP**
FF0093H   FF0095H   000003H   ---    OFFS..   CODE           ?PR?IV?18
FF0096H   FF0099H   000004H   BYTE   INSEG    CODE           ?PR?INT4_ISR?ISR
FF009AH   FF009AH   000001H   ---    ---      **GAP**
FF009BH   FF009DH   000003H   ---    OFFS..   CODE           ?PR?IV?19
L251 LINKER/LOCATER V4.66.93.0                                                        11/05/2024  20:15:43  PAGE 9


FF009EH   FF00A1H   000004H   BYTE   INSEG    CODE           ?PR?TM2_ISR?ISR
FF00A2H   FF00A2H   000001H   ---    ---      **GAP**
FF00A3H   FF00A5H   000003H   ---    OFFS..   CODE           ?PR?IV?20
FF00A6H   FF212CH   002087H   BYTE   UNIT     CODE           ?CO?SEEKFREE_CONFIG
FF212DH   FF374CH   001620H   BYTE   UNIT     CODE           ?CO?SEEKFREE_FONT
FF374DH   FF4059H   00090DH   BYTE   INSEG    CODE           ?PR?GPIO_MODE?ZF_GPIO
FF405AH   FF4749H   0006F0H   BYTE   UNIT     CODE           ?C?LIB_CODE
FF474AH   FF4D75H   00062CH   BYTE   INSEG    CODE           ?PR?SET_CLK?BOARD
FF4D76H   FF514FH   0003DAH   BYTE   INSEG    CODE           ?PR?PWM_INIT?ZF_PWM
FF5150H   FF54E1H   000392H   BYTE   INSEG    CODE           ?PR?FIFO_WRITE_BUFFER?ZF_FIFO
FF54E2H   FF57EDH   00030CH   BYTE   INSEG    CODE           ?PR?PWM_SET_GPIO?ZF_PWM
FF57EEH   FF5AA0H   0002B3H   BYTE   INSEG    CODE           ?PR?UART_INIT?ZF_UART
FF5AA1H   FF5C91H   0001F1H   BYTE   INSEG    CODE           ?PR?IPS200_SHOW_CHAR?SEEKFREE_IPS200_SPI
FF5C92H   FF5E57H   0001C6H   BYTE   INSEG    CODE           ?PR?IPS200_INIT_SPI?SEEKFREE_IPS200_SPI
FF5E58H   FF5FC0H   000169H   BYTE   INSEG    CODE           ?PR?DL1A_GET_SEQUENCE_STEP_TIMEOUTS?SEEKFREE_DL1A
FF5FC1H   FF610FH   00014FH   BYTE   INSEG    CODE           ?PR?MAIN?MAIN
FF6110H   FF6227H   000118H   BYTE   INSEG    CODE           ?PR?PWM_DUTY?ZF_PWM
FF6228H   FF633EH   000117H   BYTE   INSEG    CODE           ?PR?NUMBER_CONVERSION_ASCII?SEEKFREE_FUNCTION
FF633FH   FF640CH   0000CEH   BYTE   INSEG    CODE           ?PR?SPI_INIT?ZF_SPI
FF640DH   FF64C1H   0000B5H   BYTE   INSEG    CODE           ?PR?ADC_INIT?ZF_ADC
FF64C2H   FF6554H   000093H   BYTE   INSEG    CODE           ?PR?IPS200_SHOW_STRING?SEEKFREE_IPS200_SPI
FF6555H   FF65E2H   00008EH   BYTE   INSEG    CODE           ?PR?DL1A_GET_SEQUENCE_STEP_ENABLES?SEEKFREE_DL1A
FF65E3H   FF666EH   00008CH   BYTE   INSEG    CODE           ?PR?DRV8701_CONTROL?DRV8701_DUAL
FF666FH   FF66EDH   00007FH   BYTE   INSEG    CODE           ?PR?DL1A_ENCODE_TIMEOUT?SEEKFREE_DL1A
FF66EEH   FF6769H   00007CH   BYTE   INSEG    CODE           ?PR?CCD_COLLECT?SEEKFREE_TSL1401
FF676AH   FF67E3H   00007AH   BYTE   INSEG    CODE           ?PR?DL1A_GET_VCSEL_PULSE_PERIOD?SEEKFREE_DL1A
FF67E4H   FF685AH   000077H   BYTE   INSEG    CODE           ?PR?BOARD_INIT?BOARD
FF685BH   FF68CFH   000075H   BYTE   INSEG    CODE           ?PR?UART_PUTCHAR?ZF_UART
FF68D0H   FF693FH   000070H   BYTE   INSEG    CODE           ?PR?FIFO_HEAD_OFFSET?ZF_FIFO
FF6940H   FF69ACH   00006DH   BYTE   INSEG    CODE           ?PR?IPS200_CLEAR?SEEKFREE_IPS200_SPI
FF69ADH   FF6A18H   00006CH   BYTE   INSEG    CODE           ?PR?IMU963RA_READ_MAG_REGISTER?SEEKFREE_IMU963RA
FF6A19H   FF6A82H   00006AH   BYTE   INSEG    CODE           ?PR?DL1A_READ_CH?SEEKFREE_DL1A
FF6A83H   FF6AECH   00006AH   BYTE   INSEG    CODE           ?PR?DL1B_READ_CH?SEEKFREE_DL1B
FF6AEDH   FF6B54H   000068H   BYTE   INSEG    CODE           ?PR?DL1A_SIMIIC_READ_REGS?SEEKFREE_DL1A
FF6B55H   FF6BB8H   000064H   BYTE   INSEG    CODE           ?PR?LCD_SET_REGION_SIMSPI?SEEKFREE_18TFT
FF6BB9H   FF6C1CH   000064H   BYTE   INSEG    CODE           ?PR?LCD_SET_REGION?SEEKFREE_18TFT
FF6C1DH   FF6C80H   000064H   BYTE   INSEG    CODE           ?PR?GET_BATTERY_VOLTAGE?BATTERY
FF6C81H   FF6CE1H   000061H   BYTE   INSEG    CODE           ?PR?GET_BATTERY_PERCENTAGE?BATTERY
FF6CE2H   FF6D3AH   000059H   BYTE   INSEG    CODE           ?PR?ICM20602_SIMSPI_WR_BYTE?SEEKFREE_ICM20602
FF6D3BH   FF6D93H   000059H   BYTE   INSEG    CODE           ?PR?IMU660RA_SIMSPI_WR_BYTE?SEEKFREE_IMU660RA
FF6D94H   FF6DECH   000059H   BYTE   INSEG    CODE           ?PR?IMU963RA_SIMSPI_WR_BYTE?SEEKFREE_IMU963RA
FF6DEDH   FF6E43H   000057H   BYTE   INSEG    CODE           ?PR?WAIT?ZF_IIC
FF6E44H   FF6E99H   000056H   BYTE   INSEG    CODE           ?PR?ADC_ONCE?ZF_ADC
FF6E9AH   FF6EEEH   000055H   BYTE   INSEG    CODE           ?PR?LCD_WRITEDATA_16BIT_SIMSPI?SEEKFREE_18TFT
FF6EEFH   FF6F43H   000055H   BYTE   INSEG    CODE           ?PR?IPS114_WRITEDATAI_16BIT_SIMSPI?SEEKFREE_IPS114_SPI
FF6F44H   FF6F96H   000053H   BYTE   INSEG    CODE           ?PR?DL1A_TIMEOUT_MCLKS_TO_MICROSECONDS?SEEKFREE_DL1A
FF6F97H   FF6FE7H   000051H   BYTE   INSEG    CODE           ?PR?DL1A_TIMEOUT_MICROSECONDS_TO_MCLKS?SEEKFREE_DL1A
FF6FE8H   FF7038H   000051H   BYTE   INSEG    CODE           ?PR?ICM20602_SIMSPI_R_REG_BYTES?SEEKFREE_ICM20602
FF7039H   FF7088H   000050H   BYTE   INSEG    CODE           ?PR?UART2_ISR?ISR
FF7089H   FF70D4H   00004CH   BYTE   INSEG    CODE           ?PR?LCD_WRITEINDEX_SIMSPI?SEEKFREE_18TFT
FF70D5H   FF7120H   00004CH   BYTE   INSEG    CODE           ?PR?LCD_WRITEDATA_SIMSPI?SEEKFREE_18TFT
FF7121H   FF716CH   00004CH   BYTE   INSEG    CODE           ?PR?IPS114_WRITEINDEX_SIMSPI?SEEKFREE_IPS114_SPI
FF716DH   FF71B8H   00004CH   BYTE   INSEG    CODE           ?PR?OLED_WRCMD?SEEKFREE_OLED
FF71B9H   FF7204H   00004CH   BYTE   INSEG    CODE           ?PR?OLED_WRDAT?SEEKFREE_OLED
FF7205H   FF724FH   00004BH   BYTE   INSEG    CODE           ?PR?IMU660RA_SIMSPI_R_REG_BYTES?SEEKFREE_IMU660RA
FF7250H   FF7298H   000049H   BYTE   INSEG    CODE           ?PR?DL1A_SEND_CH?SEEKFREE_DL1A
FF7299H   FF72E1H   000049H   BYTE   INSEG    CODE           ?PR?DL1B_SEND_CH?SEEKFREE_DL1B
FF72E2H   FF7324H   000043H   BYTE   INSEG    CODE           ?PR?SET_MOTOR?DRV8701_DUAL
FF7325H   FF7366H   000042H   BYTE   INSEG    CODE           ?PR?DL1A_SIMIIC_WRITE_DATS?SEEKFREE_DL1A
FF7367H   FF73A8H   000042H   BYTE   INSEG    CODE           ?PR?UART1_ISR?ISR
FF73A9H   FF73BBH   000013H   BYTE   UNIT     CODE           ?C_C51STARTUP
FF73BCH   FF73E4H   000029H   BYTE   UNIT     CODE           ?C_C51STARTUP?2
FF73E5H   FF73E7H   000003H   BYTE   UNIT     CODE           ?C_C51STARTUP?3
FF73E8H   FF7424H   00003DH   BYTE   INSEG    CODE           ?PR?LINE_READ_RAW?LINE
FF7425H   FF7460H   00003CH   BYTE   INSEG    CODE           ?PR?IPS200_SET_REGION?SEEKFREE_IPS200_SPI
L251 LINKER/LOCATER V4.66.93.0                                                        11/05/2024  20:15:43  PAGE 10


FF7461H   FF7499H   000039H   BYTE   INSEG    CODE           ?PR?DRV8701_INIT?DRV8701_DUAL
FF749AH   FF74D0H   000037H   BYTE   INSEG    CODE           ?PR?IPS200_SET_DIR?SEEKFREE_IPS200_SPI
FF74D1H   FF7506H   000036H   BYTE   INSEG    CODE           ?PR?OLED_SET_POS_SPI?SEEKFREE_OLED
FF7507H   FF753BH   000035H   BYTE   INSEG    CODE           ?PR?DELAY_MS?ZF_DELAY
FF753CH   FF7570H   000035H   BYTE   INSEG    CODE           ?PR?IIC_DELAY_US?ZF_IIC
FF7571H   FF75A5H   000035H   BYTE   INSEG    CODE           ?PR?OLED_SET_POS?SEEKFREE_OLED
FF75A6H   FF75D4H   00002FH   BYTE   INSEG    CODE           ?PR?TM4_ISR?ISR
FF75D5H   FF7601H   00002DH   BYTE   INSEG    CODE           ?PR?IMU963RA_SIMSPI_R_REG_BYTE?SEEKFREE_IMU963RA
FF7602H   FF762BH   00002AH   BYTE   INSEG    CODE           ?PR?LCD_WRITEDATA_16BIT?SEEKFREE_18TFT
FF762CH   FF7655H   00002AH   BYTE   INSEG    CODE           ?PR?DL1A_DECODE_TIMEOUT?SEEKFREE_DL1A
FF7656H   FF767FH   00002AH   BYTE   INSEG    CODE           ?PR?IPS114_WRITEDATA_16BIT?SEEKFREE_IPS114_SPI
FF7680H   FF76A7H   000028H   BYTE   INSEG    CODE           ?PR?DL1A_SIMIIC_SENDACK?SEEKFREE_DL1A
FF76A8H   FF76CFH   000028H   BYTE   INSEG    CODE           ?PR?DL1B_SIMIIC_SENDACK?SEEKFREE_DL1B
FF76D0H   FF76F7H   000028H   BYTE   INSEG    CODE           ?PR?MPU6050_SIMIIC_SENDACK?SEEKFREE_MPU6050
FF76F8H   FF771EH   000027H   BYTE   INSEG    CODE           ?PR?ICM20602_SIMSPI_R_REG_BYTE?SEEKFREE_ICM20602
FF771FH   FF7743H   000025H   BYTE   INSEG    CODE           ?PR?MEMCPY?_?MEMCPY
FF7744H   FF7766H   000023H   BYTE   INSEG    CODE           ?PR?DELAY_INIT?ZF_DELAY
FF7767H   FF7789H   000023H   BYTE   INSEG    CODE           ?PR?IMU963RA_READ_ACC_GYRO_REGISTER?SEEKFREE_IMU963RA
FF778AH   FF77ABH   000022H   BYTE   INSEG    CODE           ?PR?IMU660RA_READ_REGISTER?SEEKFREE_IMU660RA
FF77ACH   FF77CCH   000021H   BYTE   INSEG    CODE           ?PR?DL1A_SCCB_WAITACK?SEEKFREE_DL1A
FF77CDH   FF77EDH   000021H   BYTE   INSEG    CODE           ?PR?DL1B_SCCB_WAITACK?SEEKFREE_DL1B
FF77EEH   FF780EH   000021H   BYTE   INSEG    CODE           ?PR?IMU963RA_SIMSPI_W_REG_BYTE?SEEKFREE_IMU963RA
FF780FH   FF782FH   000021H   BYTE   INSEG    CODE           ?PR?IPS200_WRITE_16BIT_DATA_SPI?SEEKFREE_IPS200_SPI
FF7830H   FF784EH   00001FH   BYTE   INSEG    CODE           ?PR?DL1A_SIMIIC_DELAY?SEEKFREE_DL1A
FF784FH   FF786CH   00001EH   BYTE   INSEG    CODE           ?PR?ICM20602_READ_REGISTER?SEEKFREE_ICM20602
FF786DH   FF788AH   00001EH   BYTE   INSEG    CODE           ?PR?IPS200_WRITE_COMMAND?SEEKFREE_IPS200_SPI
FF788BH   FF78A4H   00001AH   BYTE   INSEG    CODE           ?PR?IMU963RA_WRITE_ACC_GYRO_REGISTER?SEEKFREE_IMU963RA
FF78A5H   FF78BEH   00001AH   BYTE   INSEG    CODE           ?PR?UART3_ISR?ISR
FF78BFH   FF78D8H   00001AH   BYTE   INSEG    CODE           ?PR?UART4_ISR?ISR
FF78D9H   FF78F0H   000018H   BYTE   INSEG    CODE           ?PR?SERVO_INIT?SERVO
FF78F1H   FF7906H   000016H   BYTE   INSEG    CODE           ?PR?DL1A_SIMIIC_STOP?SEEKFREE_DL1A
FF7907H   FF791CH   000016H   BYTE   INSEG    CODE           ?PR?MPU6050_SIMIIC_STOP?SEEKFREE_MPU6050
FF791DH   FF7931H   000015H   BYTE   INSEG    CODE           ?PR?LCD_WRITEINDEX?SEEKFREE_18TFT
FF7932H   FF7946H   000015H   BYTE   INSEG    CODE           ?PR?LCD_WRITEDATA?SEEKFREE_18TFT
FF7947H   FF795BH   000015H   BYTE   INSEG    CODE           ?PR?IPS114_WRITEINDEX?SEEKFREE_IPS114_SPI
FF795CH   FF7970H   000015H   BYTE   INSEG    CODE           ?PR?IPS200_SET_COLOR?SEEKFREE_IPS200_SPI
FF7971H   FF7985H   000015H   BYTE   INSEG    CODE           ?PR?IPS200_WRITE_8BIT_DATA?SEEKFREE_IPS200_SPI
FF7986H   FF799AH   000015H   BYTE   INSEG    CODE           ?PR?IPS200_WRITE_16BIT_DATA?SEEKFREE_IPS200_SPI
FF799BH   FF79AFH   000015H   BYTE   INSEG    CODE           ?PR?OLED_WRCMD_SPI?SEEKFREE_OLED
FF79B0H   FF79C4H   000015H   BYTE   INSEG    CODE           ?PR?OLED_WRDAT_SPI?SEEKFREE_OLED
FF79C5H   FF79D8H   000014H   BYTE   INSEG    CODE           ?PR?CLOCK_INIT?BOARD
FF79D9H   FF79EBH   000013H   BYTE   INSEG    CODE           ?PR?DL1A_SIMIIC_START?SEEKFREE_DL1A
FF79ECH   FF79FEH   000013H   BYTE   INSEG    CODE           ?PR?MPU6050_SIMIIC_START?SEEKFREE_MPU6050
FF79FFH   FF7A10H   000012H   BYTE   INSEG    CODE           ?PR?PUTCHAR?BOARD
FF7A11H   FF7A22H   000012H   BYTE   INSEG    CODE           ?PR?SPI_MOSI?ZF_SPI
FF7A23H   FF7A33H   000011H   BYTE   INSEG    CODE           ?PR?ICACHEON?BOARD
FF7A34H   FF7A3FH   00000CH   BYTE   INSEG    CODE           ?PR?BATTERY_INIT?BATTERY
FF7A40H   FF7A49H   00000AH   BYTE   INSEG    CODE           ?PR?DRV8701_STOP?DRV8701_DUAL
FF7A4AH   FF7A51H   000008H   BYTE   INSEG    CODE           ?PR?IPS200_WRITE_8BIT_DATA_SPI?SEEKFREE_IPS200_SPI
FF7A52H   FF7A59H   000008H   BYTE   INSEG    CODE           ?PR?UPDATE_BATTERY_STATUS?BATTERY
FF7A5AH   FF7A5FH   000006H   BYTE   UNIT     CODE           ?PR?CASTF?STC32F_FPMU
FF7A60H   FF7A65H   000006H   BYTE   UNIT     CODE           ?PR?FCASTI?STC32F_FPMU
FF7A66H   FF7A69H   000004H   BYTE   INSEG    CODE           ?PR?TM3_ISR?ISR
FF7A6AH   FF7A6DH   000004H   BYTE   UNIT     CONST          ?CO?PRINTF
FF7A6EH   FF7CB6H   000249H   BYTE   UNIT     HCONST         ?C_INITEDATA
FF7CB7H   FF7D3AH   000084H   BYTE   UNIT     HCONST         ?HC?MAIN
FF7D3BH   FF7D92H   000058H   BYTE   UNIT     HCONST         ?HC?ZF_PWM
FF7D93H   FF7DDDH   00004BH   BYTE   UNIT     HCONST         ?HC?SEEKFREE_IMU963RA
FF7DDEH   FF7E12H   000035H   BYTE   UNIT     HCONST         ?HC?SEEKFREE_ICM20602
FF7E13H   FF7E46H   000034H   BYTE   UNIT     HCONST         ?HC?SEEKFREE_IMU660RA
FF7E47H   FF7E5CH   000016H   BYTE   UNIT     HCONST         ?HC?SEEKFREE_MPU6050
FF7E5DH   FF7E6FH   000013H   BYTE   UNIT     HCONST         ?HC?SEEKFREE_DL1A
FF7E70H   FF7E7FH   000010H   BYTE   UNIT     HCONST         ?HC?SEEKFREE_FUNCTION
FF7E80H   FF7E8BH   00000CH   BYTE   UNIT     HCONST         ?HC?BATTERY
FF7E8CH   FF7E95H   00000AH   BYTE   UNIT     HCONST         ?HC?SEEKFREE_OLED
L251 LINKER/LOCATER V4.66.93.0                                                        11/05/2024  20:15:43  PAGE 11


FF7E96H   FF7E9BH   000006H   BYTE   UNIT     HCONST         ?HC?SEEKFREE_18TFT
FF7E9CH   FF7EA1H   000006H   BYTE   UNIT     HCONST         ?HC?SEEKFREE_IPS114_SPI

* * * * * * * * *   R E M O V E D     S E G M E N T S   * * * * * * * *
   *DEL*:           000016H   BYTE   INSEG    CODE           ?PR?DISALBE_ICACHE?BOARD
   *DEL*:           000017H   BYTE   INSEG    CODE           ?PR?ENALBE_ICACHE?BOARD
   *DEL*:           000004H   BYTE   INSEG    CODE           ?PR?DISABLEGLOBALIRQ?BOARD
   *DEL*:           000004H   BYTE   UNIT     CODE           ?PR?FPADD?STC32F_FPMU
   *DEL*:           000004H   BYTE   UNIT     CODE           ?PR?SQRT?STC32F_FPMU
   *DEL*:           000006H   BYTE   UNIT     CODE           ?PR?FXAM?STC32F_FPMU
   *DEL*:           000007H   BYTE   UNIT     CODE           ?PR?FCHS?STC32F_FPMU
   *DEL*:           000007H   BYTE   UNIT     CODE           ?PR?FABS?STC32F_FPMU
   *DEL*:           000004H   BYTE   UNIT     CODE           ?PR?SIN?STC32F_FPMU
   *DEL*:           000004H   BYTE   UNIT     CODE           ?PR?COS?STC32F_FPMU
   *DEL*:           000004H   BYTE   UNIT     CODE           ?PR?TAN?STC32F_FPMU
   *DEL*:           00000AH   BYTE   UNIT     CODE           ?PR?ATAN?STC32F_FPMU
   *DEL*:           000006H   BYTE   UNIT     CODE           ?PR?FCASTC?STC32F_FPMU
   *DEL*:           000004H   BYTE   UNIT     CODE           ?PR?FCLEX?STC32F_FPMU
   *DEL*:           000004H   BYTE   UNIT     CODE           ?PR?FINIT?STC32F_FPMU
   *DEL*:           000006H   BYTE   UNIT     CODE           ?PR?FPSRR?STC32F_FPMU
   *DEL*:           000006H   BYTE   UNIT     CODE           ?PR?FPSRW?STC32F_FPMU
   *DEL*:           000006H   BYTE   UNIT     CODE           ?PR?FPCRR?STC32F_FPMU
   *DEL*:           000006H   BYTE   UNIT     CODE           ?PR?FPCRW?STC32F_FPMU
   *DEL*:           000033H   BYTE   INSEG    CODE           ?PR?DELAY_US?ZF_DELAY
   *DEL*:           00001AH   BYTE   INSEG    CODE           ?PR?IAP_SET_TPS?ZF_EEPROM
   *DEL*:           000015H   BYTE   INSEG    CODE           ?PR?EEPROM_TRIG?ZF_EEPROM
   *DEL*:           000029H   BYTE   INSEG    CODE           ?PR?IAP_ERASE_PAGE?ZF_EEPROM
   *DEL*:           000004H   BYTE   INSEG    CODE           ?PR?IAP_IDLE?ZF_EEPROM
   *DEL*:           00005FH   BYTE   INSEG    CODE           ?PR?IAP_READ_BYTES?ZF_EEPROM
   *DEL*:           000008H   BYTE   INSEG    CODE           ?PR?IAP_INIT?ZF_EEPROM
   *DEL*:           00005BH   BYTE   INSEG    CODE           ?PR?IAP_WRITE_BYTES?ZF_EEPROM
   *DEL*:           000012H   BYTE   INSEG    CODE           ?PR?IAP_GET_CMD_STATE?ZF_EEPROM
   *DEL*:           000066H   BYTE   INSEG    CODE           ?PR?EXIT_INIT?ZF_EXTI
   *DEL*:           000095H   BYTE   INSEG    CODE           ?PR?GPIO_PULL_SET?ZF_GPIO
   *DEL*:           000028H   BYTE   INSEG    CODE           ?PR?SEND_DATA?ZF_IIC
   *DEL*:           000037H   BYTE   INSEG    CODE           ?PR?IIC_CHANGE_PIN?ZF_IIC
   *DEL*:           00001CH   BYTE   INSEG    CODE           ?PR?RECV_DATA?ZF_IIC
   *DEL*:           000015H   BYTE   INSEG    CODE           ?PR?START?ZF_IIC
   *DEL*:           000021H   BYTE   INSEG    CODE           ?PR?SEND_ACK?ZF_IIC
   *DEL*:           000015H   BYTE   INSEG    CODE           ?PR?RECV_ACK?ZF_IIC
   *DEL*:           000015H   BYTE   INSEG    CODE           ?PR?STOP?ZF_IIC
   *DEL*:           00001EH   BYTE   INSEG    CODE           ?PR?SEND_NAK?ZF_IIC
   *DEL*:           00007AH   BYTE   INSEG    CODE           ?PR?IIC_INIT?ZF_IIC
   *DEL*:           000099H   BYTE   INSEG    CODE           ?PR?IIC_READ_REG?ZF_IIC
   *DEL*:           0000D4H   BYTE   INSEG    CODE           ?PR?IIC_READ_REG_BYTES?ZF_IIC
   *DEL*:           00007CH   BYTE   INSEG    CODE           ?PR?IIC_WRITE_REG?ZF_IIC
   *DEL*:           0000B9H   BYTE   INSEG    CODE           ?PR?NVIC_SETPRIORITY?ZF_NVIC
   *DEL*:           0001ABH   BYTE   INSEG    CODE           ?PR?PWM_FREQ?ZF_PWM
   *DEL*:           000026H   BYTE   INSEG    CODE           ?PR?SPI_CHANGE_MODE?ZF_SPI
   *DEL*:           0000CCH   BYTE   INSEG    CODE           ?PR?SPI_CHANGE_PIN?ZF_SPI
   *DEL*:           0000B4H   BYTE   INSEG    CODE           ?PR?CTIMER_COUNT_READ?ZF_TIM
   *DEL*:           0000E5H   BYTE   INSEG    CODE           ?PR?PIT_TIMER_MS?ZF_TIM
   *DEL*:           000054H   BYTE   INSEG    CODE           ?PR?CTIMER_COUNT_INIT?ZF_TIM
   *DEL*:           00005DH   BYTE   INSEG    CODE           ?PR?CTIMER_COUNT_CLEAN?ZF_TIM
   *DEL*:           000033H   BYTE   INSEG    CODE           ?PR?UART_PUTBUFF?ZF_UART
   *DEL*:           00002BH   BYTE   INSEG    CODE           ?PR?UART_PUTSTR?ZF_UART
   *DEL*:           0003ACH   BYTE   INSEG    CODE           ?PR?FIFO_READ_BUFFER?ZF_FIFO
   *DEL*:           00013BH   BYTE   INSEG    CODE           ?PR?FIFO_WRITE_ELEMENT?ZF_FIFO
   *DEL*:           000434H   BYTE   INSEG    CODE           ?PR?FIFO_READ_TAIL_BUFFER?ZF_FIFO
   *DEL*:           0000EAH   BYTE   INSEG    CODE           ?PR?FIFO_CLEAR?ZF_FIFO
   *DEL*:           000070H   BYTE   INSEG    CODE           ?PR?FIFO_END_OFFSET?ZF_FIFO
   *DEL*:           000025H   BYTE   INSEG    CODE           ?PR?FIFO_USED?ZF_FIFO
   *DEL*:           000083H   BYTE   INSEG    CODE           ?PR?FIFO_INIT?ZF_FIFO
   *DEL*:           00018BH   BYTE   INSEG    CODE           ?PR?FIFO_READ_ELEMENT?ZF_FIFO
   *DEL*:           0000CDH   BYTE   INSEG    CODE           ?PR?LCD_SHOWUINT16?SEEKFREE_18TFT
L251 LINKER/LOCATER V4.66.93.0                                                        11/05/2024  20:15:43  PAGE 12


   *DEL*:           0000CEH   BYTE   INSEG    CODE           ?PR?LCD_SHOWINT32_SIMSPI?SEEKFREE_18TFT
   *DEL*:           000119H   BYTE   INSEG    CODE           ?PR?LCD_SHOWINT16_SIMSPI?SEEKFREE_18TFT
   *DEL*:           0000CEH   BYTE   INSEG    CODE           ?PR?LCD_SHOWINT32?SEEKFREE_18TFT
   *DEL*:           000119H   BYTE   INSEG    CODE           ?PR?LCD_SHOWINT16?SEEKFREE_18TFT
   *DEL*:           000057H   BYTE   INSEG    CODE           ?PR?LCD_CLEAR_SIMSPI?SEEKFREE_18TFT
   *DEL*:           000057H   BYTE   INSEG    CODE           ?PR?LCD_CLEAR?SEEKFREE_18TFT
   *DEL*:           00005DH   BYTE   INSEG    CODE           ?PR?LCD_SHOWSTR_SIMSPI?SEEKFREE_18TFT
   *DEL*:           00005DH   BYTE   INSEG    CODE           ?PR?LCD_SHOWSTR?SEEKFREE_18TFT
   *DEL*:           0001FDH   BYTE   INSEG    CODE           ?PR?LCD_INIT_SIMSPI?SEEKFREE_18TFT
   *DEL*:           0000ECH   BYTE   INSEG    CODE           ?PR?SHOWIMAGE?SEEKFREE_18TFT
   *DEL*:           0001F3H   BYTE   INSEG    CODE           ?PR?LCD_INIT?SEEKFREE_18TFT
   *DEL*:           0000A9H   BYTE   INSEG    CODE           ?PR?LCD_SHOWUINT8_SIMSPI?SEEKFREE_18TFT
   *DEL*:           0000A9H   BYTE   INSEG    CODE           ?PR?LCD_SHOWUINT8?SEEKFREE_18TFT
   *DEL*:           0000EBH   BYTE   INSEG    CODE           ?PR?LCD_SHOWINT8_SIMSPI?SEEKFREE_18TFT
   *DEL*:           0000EBH   BYTE   INSEG    CODE           ?PR?LCD_SHOWINT8?SEEKFREE_18TFT
   *DEL*:           000145H   BYTE   INSEG    CODE           ?PR?LCD_SHOWFLOAT_SIMSPI?SEEKFREE_18TFT
   *DEL*:           000023H   BYTE   INSEG    CODE           ?PR?LCD_DRAWPOINT_SIMSPI?SEEKFREE_18TFT
   *DEL*:           000145H   BYTE   INSEG    CODE           ?PR?LCD_SHOWFLOAT?SEEKFREE_18TFT
   *DEL*:           000023H   BYTE   INSEG    CODE           ?PR?LCD_DRAWPOINT?SEEKFREE_18TFT
   *DEL*:           0000BFH   BYTE   INSEG    CODE           ?PR?LCD_SHOWCHAR_SIMSPI?SEEKFREE_18TFT
   *DEL*:           0000BFH   BYTE   INSEG    CODE           ?PR?LCD_SHOWCHAR?SEEKFREE_18TFT
   *DEL*:           0000CDH   BYTE   INSEG    CODE           ?PR?LCD_SHOWUINT16_SIMSPI?SEEKFREE_18TFT
   *DEL*:           000018H   BYTE   INSEG    CODE           ?PR?BLUETOOTH_CH9141_UART_CALLBACK?SEEKFREE_BLUETOOTH_CH91
                                                             -41
   *DEL*:           00001EH   BYTE   INSEG    CODE           ?PR?BLUETOOTH_CH9141SEND_BYTE?SEEKFREE_BLUETOOTH_CH9141
   *DEL*:           00002EH   BYTE   INSEG    CODE           ?PR?BLUETOOTH_CH9141_READ_BUFF?SEEKFREE_BLUETOOTH_CH9141
   *DEL*:           0000D4H   BYTE   INSEG    CODE           ?PR?BLUETOOTH_CH9141_SEND_BUFF?SEEKFREE_BLUETOOTH_CH9141
   *DEL*:           00004DH   BYTE   INSEG    CODE           ?PR?BLUETOOTH_CH9141_INIT?SEEKFREE_BLUETOOTH_CH9141
   *DEL*:           00002EH   BYTE   INSEG    CODE           ?PR?BLE6A20_READ_BUFF?SEEKFREE_BLE6A20
   *DEL*:           000075H   BYTE   INSEG    CODE           ?PR?BLE6A20_SEND_BUFF?SEEKFREE_BLE6A20
   *DEL*:           000018H   BYTE   INSEG    CODE           ?PR?BLE6A20_CALLBACK?SEEKFREE_BLE6A20
   *DEL*:           00004CH   BYTE   INSEG    CODE           ?PR?BLE6A20_INIT?SEEKFREE_BLE6A20
   *DEL*:           00001EH   BYTE   INSEG    CODE           ?PR?BLE6A20_SEND_BYTE?SEEKFREE_BLE6A20
   *DEL*:           00003EH   BYTE   INSEG    CODE           ?PR?DL1A_SET_SIGNAL_RATE_LIMIT?SEEKFREE_DL1A
   *DEL*:           000195H   BYTE   INSEG    CODE           ?PR?DL1A_GET_SPAD_INFO?SEEKFREE_DL1A
   *DEL*:           00006CH   BYTE   INSEG    CODE           ?PR?DL1A_GET_DISTANCE?SEEKFREE_DL1A
   *DEL*:           0000ABH   BYTE   INSEG    CODE           ?PR?DL1A_PERFORM_SINGLE_REF_CALIBRATION?SEEKFREE_DL1A
   *DEL*:           0000B6H   BYTE   INSEG    CODE           ?PR?DL1A_GET_MEASUREMENT_TIMING_BUDGET?SEEKFREE_DL1A
   *DEL*:           00003BH   BYTE   INSEG    CODE           ?PR?DL1A_SIMIIC_READ_REG?SEEKFREE_DL1A
   *DEL*:           000068H   BYTE   INSEG    CODE           ?PR?DL1A_SIMIIC_READ_REGS_1?SEEKFREE_DL1A
   *DEL*:           000149H   BYTE   INSEG    CODE           ?PR?DL1A_SET_MEASUREMENT_TIMING_BUDGET?SEEKFREE_DL1A
   *DEL*:           00002AH   BYTE   INSEG    CODE           ?PR?DL1A_SIMIIC_WRITE_REG?SEEKFREE_DL1A
   *DEL*:           0006AEH   BYTE   INSEG    CODE           ?PR?DL1A_INIT?SEEKFREE_DL1A
   *DEL*:           000079H   BYTE   INSEG    CODE           ?PR?DL1B_IIC_TRANSFER_8BIT_ARRAY?SEEKFREE_DL1B
   *DEL*:           000133H   BYTE   INSEG    CODE           ?PR?DL1B_GET_DISTANCE?SEEKFREE_DL1B
   *DEL*:           000013H   BYTE   INSEG    CODE           ?PR?DL1B_SIMIIC_START?SEEKFREE_DL1B
   *DEL*:           000016H   BYTE   INSEG    CODE           ?PR?DL1B_SIMIIC_STOP?SEEKFREE_DL1B
   *DEL*:           000112H   BYTE   INSEG    CODE           ?PR?DL1B_INIT?SEEKFREE_DL1B
   *DEL*:           000287H   BYTE   INSEG    CODE           ?PR?FUNC_DOUBLE_TO_STR?SEEKFREE_FUNCTION
   *DEL*:           000178H   BYTE   INSEG    CODE           ?PR?FUNC_STR_TO_DOUBLE?SEEKFREE_FUNCTION
   *DEL*:           000287H   BYTE   INSEG    CODE           ?PR?FUNC_FLOAT_TO_STR?SEEKFREE_FUNCTION
   *DEL*:           000178H   BYTE   INSEG    CODE           ?PR?FUNC_STR_TO_FLOAT?SEEKFREE_FUNCTION
   *DEL*:           000019H   BYTE   INSEG    CODE           ?PR?FUNC_SOFT_DELAY?SEEKFREE_FUNCTION
   *DEL*:           000661H   BYTE   INSEG    CODE           ?PR?ZF_SPRINTF?SEEKFREE_FUNCTION
   *DEL*:           0000A9H   BYTE   INSEG    CODE           ?PR?FUNC_UINT_TO_STR?SEEKFREE_FUNCTION
   *DEL*:           00005FH   BYTE   INSEG    CODE           ?PR?FUNC_STR_TO_UINT?SEEKFREE_FUNCTION
   *DEL*:           0000E3H   BYTE   INSEG    CODE           ?PR?FUNC_HEX_TO_STR?SEEKFREE_FUNCTION
   *DEL*:           000137H   BYTE   INSEG    CODE           ?PR?FUNC_STR_TO_HEX?SEEKFREE_FUNCTION
   *DEL*:           0000FFH   BYTE   INSEG    CODE           ?PR?FUNC_INT_TO_STR?SEEKFREE_FUNCTION
   *DEL*:           0000B6H   BYTE   INSEG    CODE           ?PR?FUNC_STR_TO_INT?SEEKFREE_FUNCTION
   *DEL*:           00004FH   BYTE   INSEG    CODE           ?PR?FUNC_GET_GREATEST_COMMON_DIVISOR?SEEKFREE_FUNCTION
   *DEL*:           000095H   BYTE   INSEG    CODE           ?PR?PRINTF_REVERSE_ORDER?SEEKFREE_FUNCTION
   *DEL*:           00008DH   BYTE   INSEG    CODE           ?PR?ICM20602_GYRO_TRANSITION?SEEKFREE_ICM20602
   *DEL*:           00001AH   BYTE   INSEG    CODE           ?PR?ICM20602_WRITE_REGISTER?SEEKFREE_ICM20602
   *DEL*:           00004EH   BYTE   INSEG    CODE           ?PR?ICM20602_SELF_CHECK?SEEKFREE_ICM20602
L251 LINKER/LOCATER V4.66.93.0                                                        11/05/2024  20:15:43  PAGE 13


   *DEL*:           00001BH   BYTE   INSEG    CODE           ?PR?ICM20602_SIMSPI_W_REG_BYTE?SEEKFREE_ICM20602
   *DEL*:           0000C2H   BYTE   INSEG    CODE           ?PR?ICM20602_INIT?SEEKFREE_ICM20602
   *DEL*:           000050H   BYTE   INSEG    CODE           ?PR?ICM20602_GET_ACC?SEEKFREE_ICM20602
   *DEL*:           000089H   BYTE   INSEG    CODE           ?PR?ICM20602_ACC_TRANSITION?SEEKFREE_ICM20602
   *DEL*:           000026H   BYTE   INSEG    CODE           ?PR?ICM20602_READ_REGISTERS?SEEKFREE_ICM20602
   *DEL*:           000050H   BYTE   INSEG    CODE           ?PR?ICM20602_GET_GYRO?SEEKFREE_ICM20602
   *DEL*:           000050H   BYTE   INSEG    CODE           ?PR?IMU660RA_GET_GYRO?SEEKFREE_IMU660RA
   *DEL*:           000022H   BYTE   INSEG    CODE           ?PR?IMU660RA_WRITE_REGISTERS?SEEKFREE_IMU660RA
   *DEL*:           0000A8H   BYTE   INSEG    CODE           ?PR?IMU660RA_GYRO_TRANSITION?SEEKFREE_IMU660RA
   *DEL*:           00001AH   BYTE   INSEG    CODE           ?PR?IMU660RA_WRITE_REGISTER?SEEKFREE_IMU660RA
   *DEL*:           00004BH   BYTE   INSEG    CODE           ?PR?IMU660RA_SELF_CHECK?SEEKFREE_IMU660RA
   *DEL*:           00003EH   BYTE   INSEG    CODE           ?PR?IMU660RA_SIMSPI_W_REG_BYTES?SEEKFREE_IMU660RA
   *DEL*:           00001BH   BYTE   INSEG    CODE           ?PR?IMU660RA_SIMSPI_W_REG_BYTE?SEEKFREE_IMU660RA
   *DEL*:           0000AAH   BYTE   INSEG    CODE           ?PR?IMU660RA_INIT?SEEKFREE_IMU660RA
   *DEL*:           000050H   BYTE   INSEG    CODE           ?PR?IMU660RA_GET_ACC?SEEKFREE_IMU660RA
   *DEL*:           00007CH   BYTE   INSEG    CODE           ?PR?IMU660RA_ACC_TRANSITION?SEEKFREE_IMU660RA
   *DEL*:           000026H   BYTE   INSEG    CODE           ?PR?IMU660RA_READ_REGISTERS?SEEKFREE_IMU660RA
   *DEL*:           00008DH   BYTE   INSEG    CODE           ?PR?IMU963RA_ACC_TRANSITION?SEEKFREE_IMU963RA
   *DEL*:           000050H   BYTE   INSEG    CODE           ?PR?IMU963RA_GET_GYRO?SEEKFREE_IMU963RA
   *DEL*:           000051H   BYTE   INSEG    CODE           ?PR?IMU963RA_MAG_TRANSITION?SEEKFREE_IMU963RA
   *DEL*:           0000D2H   BYTE   INSEG    CODE           ?PR?IMU963RA_GYRO_TRANSITION?SEEKFREE_IMU963RA
   *DEL*:           00003AH   BYTE   INSEG    CODE           ?PR?IMU963RA_CONNECT_MAG?SEEKFREE_IMU963RA
   *DEL*:           000026H   BYTE   INSEG    CODE           ?PR?IMU963RA_READ_ACC_GYRO_REGISTERS?SEEKFREE_IMU963RA
   *DEL*:           00007FH   BYTE   INSEG    CODE           ?PR?IMU963RA_WRITE_MAG_REGISTER?SEEKFREE_IMU963RA
   *DEL*:           00004BH   BYTE   INSEG    CODE           ?PR?IMU963RA_SIMSPI_R_REG_BYTES?SEEKFREE_IMU963RA
   *DEL*:           000051H   BYTE   INSEG    CODE           ?PR?IMU963RA_MAG_SELF_CHECK?SEEKFREE_IMU963RA
   *DEL*:           00011DH   BYTE   INSEG    CODE           ?PR?IMU963RA_INIT?SEEKFREE_IMU963RA
   *DEL*:           00004EH   BYTE   INSEG    CODE           ?PR?IMU963RA_ACC_GYRO_SELF_CHECK?SEEKFREE_IMU963RA
   *DEL*:           000050H   BYTE   INSEG    CODE           ?PR?IMU963RA_GET_ACC?SEEKFREE_IMU963RA
   *DEL*:           00006BH   BYTE   INSEG    CODE           ?PR?IMU963RA_GET_MAG?SEEKFREE_IMU963RA
   *DEL*:           0000A9H   BYTE   INSEG    CODE           ?PR?IPS114_SHOWUINT8_SIMSPI?SEEKFREE_IPS114_SPI
   *DEL*:           0000A5H   BYTE   INSEG    CODE           ?PR?IPS114_SHOWUINT8?SEEKFREE_IPS114_SPI
   *DEL*:           0000EBH   BYTE   INSEG    CODE           ?PR?IPS114_SHOWINT8_SIMSPI?SEEKFREE_IPS114_SPI
   *DEL*:           0000E7H   BYTE   INSEG    CODE           ?PR?IPS114_SHOWINT8?SEEKFREE_IPS114_SPI
   *DEL*:           000145H   BYTE   INSEG    CODE           ?PR?IPS114_SHOWFLOAT_SIMSPI?SEEKFREE_IPS114_SPI
   *DEL*:           000023H   BYTE   INSEG    CODE           ?PR?IPS114_DRAWPOINT_SIMSPI?SEEKFREE_IPS114_SPI
   *DEL*:           000145H   BYTE   INSEG    CODE           ?PR?IPS114_SHOWFLOAT?SEEKFREE_IPS114_SPI
   *DEL*:           000023H   BYTE   INSEG    CODE           ?PR?IPS114_DRAWPOINT?SEEKFREE_IPS114_SPI
   *DEL*:           0000BFH   BYTE   INSEG    CODE           ?PR?IPS114_SHOWCHAR_SIMSPI?SEEKFREE_IPS114_SPI
   *DEL*:           0000BFH   BYTE   INSEG    CODE           ?PR?IPS114_SHOWCHAR?SEEKFREE_IPS114_SPI
   *DEL*:           0000CDH   BYTE   INSEG    CODE           ?PR?IPS114_SHOWUINT16_SIMSPI?SEEKFREE_IPS114_SPI
   *DEL*:           0000CDH   BYTE   INSEG    CODE           ?PR?IPS114_SHOWUINT16?SEEKFREE_IPS114_SPI
   *DEL*:           0000CEH   BYTE   INSEG    CODE           ?PR?IPS114_SHOWINT32_SIMSPI?SEEKFREE_IPS114_SPI
   *DEL*:           000119H   BYTE   INSEG    CODE           ?PR?IPS114_SHOWINT16_SIMSPI?SEEKFREE_IPS114_SPI
   *DEL*:           0000CEH   BYTE   INSEG    CODE           ?PR?IPS114_SHOWINT32?SEEKFREE_IPS114_SPI
   *DEL*:           000115H   BYTE   INSEG    CODE           ?PR?IPS114_SHOWINT16?SEEKFREE_IPS114_SPI
   *DEL*:           00005FH   BYTE   INSEG    CODE           ?PR?IPS114_CLEAR_SIMSPI?SEEKFREE_IPS114_SPI
   *DEL*:           00005FH   BYTE   INSEG    CODE           ?PR?IPS114_CLEAR?SEEKFREE_IPS114_SPI
   *DEL*:           00005DH   BYTE   INSEG    CODE           ?PR?IPS114_SHOWSTR_SIMSPI?SEEKFREE_IPS114_SPI
   *DEL*:           00005DH   BYTE   INSEG    CODE           ?PR?IPS114_SHOWSTR?SEEKFREE_IPS114_SPI
   *DEL*:           00004CH   BYTE   INSEG    CODE           ?PR?IPS114_WRITEDATA_SIMSPI?SEEKFREE_IPS114_SPI
   *DEL*:           000015H   BYTE   INSEG    CODE           ?PR?IPS114_WRITEDATA?SEEKFREE_IPS114_SPI
   *DEL*:           000054H   BYTE   INSEG    CODE           ?PR?IPS114_SET_REGION_SIMSPI?SEEKFREE_IPS114_SPI
   *DEL*:           000154H   BYTE   INSEG    CODE           ?PR?IPS114_INIT_SIMSPI?SEEKFREE_IPS114_SPI
   *DEL*:           000054H   BYTE   INSEG    CODE           ?PR?IPS114_SET_REGION?SEEKFREE_IPS114_SPI
   *DEL*:           000176H   BYTE   INSEG    CODE           ?PR?IPS114_INIT?SEEKFREE_IPS114_SPI
   *DEL*:           0000CCH   BYTE   INSEG    CODE           ?PR?IPS200_SHOW_FLOAT?SEEKFREE_IPS200_SPI
   *DEL*:           00002DH   BYTE   INSEG    CODE           ?PR?IPS200_DRAW_POINT?SEEKFREE_IPS200_SPI
   *DEL*:           000132H   BYTE   INSEG    CODE           ?PR?IPS200_SHOW_WAVE?SEEKFREE_IPS200_SPI
   *DEL*:           000095H   BYTE   INSEG    CODE           ?PR?IPS200_SHOW_UINT?SEEKFREE_IPS200_SPI
   *DEL*:           000009H   BYTE   INSEG    CODE           ?PR?IPS200_SET_FONT?SEEKFREE_IPS200_SPI
   *DEL*:           00009BH   BYTE   INSEG    CODE           ?PR?IPS200_SHOW_INT?SEEKFREE_IPS200_SPI
   *DEL*:           000163H   BYTE   INSEG    CODE           ?PR?IPS200_SHOW_CHINESE?SEEKFREE_IPS200_SPI
   *DEL*:           000071H   BYTE   INSEG    CODE           ?PR?IPS200_FULL?SEEKFREE_IPS200_SPI
   *DEL*:           0001BEH   BYTE   INSEG    CODE           ?PR?IPS200_DRAW_LINE?SEEKFREE_IPS200_SPI
L251 LINKER/LOCATER V4.66.93.0                                                        11/05/2024  20:15:43  PAGE 14


   *DEL*:           00006CH   BYTE   INSEG    CODE           ?PR?MPU6050_SIMIIC_READ_REGS?SEEKFREE_MPU6050
   *DEL*:           00003BH   BYTE   INSEG    CODE           ?PR?MPU6050_SIMIIC_READ_REG?SEEKFREE_MPU6050
   *DEL*:           00002AH   BYTE   INSEG    CODE           ?PR?MPU6050_SIMIIC_WRITE_REG?SEEKFREE_MPU6050
   *DEL*:           000060H   BYTE   INSEG    CODE           ?PR?MPU6050_INIT?SEEKFREE_MPU6050
   *DEL*:           000033H   BYTE   INSEG    CODE           ?PR?MPU6050_SELF1_CHECK?SEEKFREE_MPU6050
   *DEL*:           00006AH   BYTE   INSEG    CODE           ?PR?MPU6050_READ_CH?SEEKFREE_MPU6050
   *DEL*:           000049H   BYTE   INSEG    CODE           ?PR?MPU6050_SEND_CH?SEEKFREE_MPU6050
   *DEL*:           000052H   BYTE   INSEG    CODE           ?PR?MPU6050_GET_GYRO?SEEKFREE_MPU6050
   *DEL*:           000021H   BYTE   INSEG    CODE           ?PR?MPU6050_SCCB_WAITACK?SEEKFREE_MPU6050
   *DEL*:           000052H   BYTE   INSEG    CODE           ?PR?MPU6050_GET_ACCDATA?SEEKFREE_MPU6050
   *DEL*:           000047H   BYTE   INSEG    CODE           ?PR?OLED_PUTPIXEL?SEEKFREE_OLED
   *DEL*:           00006FH   BYTE   INSEG    CODE           ?PR?OLED_HEXASCII_SPI?SEEKFREE_OLED
   *DEL*:           00044DH   BYTE   INSEG    CODE           ?PR?OLED_DIS_BMP_SPI?SEEKFREE_OLED
   *DEL*:           000145H   BYTE   INSEG    CODE           ?PR?OLED_PRINTF_FLOAT?SEEKFREE_OLED
   *DEL*:           000121H   BYTE   INSEG    CODE           ?PR?OLED_P8X16STR_SPI?SEEKFREE_OLED
   *DEL*:           000041H   BYTE   INSEG    CODE           ?PR?OLED_CLRPIXEL_SPI?SEEKFREE_OLED
   *DEL*:           0000C0H   BYTE   INSEG    CODE           ?PR?OLED_PRINT_CHINESE_SPI?SEEKFREE_OLED
   *DEL*:           00005DH   BYTE   INSEG    CODE           ?PR?OLED_FILL?SEEKFREE_OLED
   *DEL*:           0000CEH   BYTE   INSEG    CODE           ?PR?OLED_PRINTF_INT32?SEEKFREE_OLED
   *DEL*:           000027H   BYTE   INSEG    CODE           ?PR?OLED_UINT16?SEEKFREE_OLED
   *DEL*:           000048H   BYTE   INSEG    CODE           ?PR?OLED_PUTPIXEL_SPI?SEEKFREE_OLED
   *DEL*:           0000D1H   BYTE   INSEG    CODE           ?PR?OLED_P6X8STR?SEEKFREE_OLED
   *DEL*:           000073H   BYTE   INSEG    CODE           ?PR?OLED_INT16?SEEKFREE_OLED
   *DEL*:           0000A8H   BYTE   INSEG    CODE           ?PR?OLED_INIT?SEEKFREE_OLED
   *DEL*:           000145H   BYTE   INSEG    CODE           ?PR?OLED_PRINTF_FLOAT_SPI?SEEKFREE_OLED
   *DEL*:           00006FH   BYTE   INSEG    CODE           ?PR?OLED_HEXASCII?SEEKFREE_OLED
   *DEL*:           00005DH   BYTE   INSEG    CODE           ?PR?OLED_FILL_SPI?SEEKFREE_OLED
   *DEL*:           0000CEH   BYTE   INSEG    CODE           ?PR?OLED_PRINTF_INT32_SPI?SEEKFREE_OLED
   *DEL*:           000027H   BYTE   INSEG    CODE           ?PR?OLED_UINT16_SPI?SEEKFREE_OLED
   *DEL*:           0000D1H   BYTE   INSEG    CODE           ?PR?OLED_P6X8STR_SPI?SEEKFREE_OLED
   *DEL*:           000073H   BYTE   INSEG    CODE           ?PR?OLED_INT16_SPI?SEEKFREE_OLED
   *DEL*:           00046AH   BYTE   INSEG    CODE           ?PR?OLED_DIS_BMP?SEEKFREE_OLED
   *DEL*:           0000C5H   BYTE   INSEG    CODE           ?PR?OLED_INIT_SPI?SEEKFREE_OLED
   *DEL*:           000121H   BYTE   INSEG    CODE           ?PR?OLED_P8X16STR?SEEKFREE_OLED
   *DEL*:           000040H   BYTE   INSEG    CODE           ?PR?OLED_CLRPIXEL?SEEKFREE_OLED
   *DEL*:           0000C0H   BYTE   INSEG    CODE           ?PR?OLED_PRINT_CHINESE?SEEKFREE_OLED
   *DEL*:           00008AH   BYTE   INSEG    CODE           ?PR?CCD_SEND_DATA?SEEKFREE_TSL1401
   *DEL*:           000022H   BYTE   INSEG    CODE           ?PR?CCD_INIT?SEEKFREE_TSL1401
   *DEL*:           00009AH   BYTE   INSEG    CODE           ?PR?CRC_CHECK?SEEKFREE_VIRSCO
   *DEL*:           0000DCH   BYTE   INSEG    CODE           ?PR?DATA_CONVERSION?SEEKFREE_VIRSCO
   *DEL*:           00002EH   BYTE   INSEG    CODE           ?PR?WIRELESS_UART_READ_BUFF?SEEKFREE_WIRELESS
   *DEL*:           000075H   BYTE   INSEG    CODE           ?PR?WIRELESS_UART_SEND_BUFF?SEEKFREE_WIRELESS
   *DEL*:           000018H   BYTE   INSEG    CODE           ?PR?WIRELESS_UART_CALLBACK?SEEKFREE_WIRELESS
   *DEL*:           00004CH   BYTE   INSEG    CODE           ?PR?WIRELESS_UART_INIT?SEEKFREE_WIRELESS
   *DEL*:           000026H   BYTE   INSEG    CODE           ?PR?WIRELESS_UART_SEND_BYTE?SEEKFREE_WIRELESS
   *DEL*:           0003F2H   BYTE   INSEG    CODE           ?PR?SEEKFREE_ASSISTANT_CAMERA_BOUNDARY_CONFIG?SEEKFREE_ASS
                                                             -ISTANT
   *DEL*:           000101H   BYTE   INSEG    CODE           ?PR?SEEKFREE_ASSISTANT_CAMERA_DOT_SEND?SEEKFREE_ASSISTANT
   *DEL*:           000138H   BYTE   INSEG    CODE           ?PR?SEEKFREE_ASSISTANT_OSCILLOSCOPE_SEND?SEEKFREE_ASSISTAN
                                                             -T
   *DEL*:           00001AH   BYTE   INSEG    CODE           ?PR?SEEKFREE_ASSISTANT_INIT?SEEKFREE_ASSISTANT
   *DEL*:           00003FH   BYTE   INSEG    CODE           ?PR?SEEKFREE_ASSISTANT_SUM?SEEKFREE_ASSISTANT
   *DEL*:           00003FH   BYTE   INSEG    CODE           ?PR?SEEKFREE_ASSISTANT_CAMERA_INFORMATION_CONFIG?SEEKFREE_
                                                             -ASSISTANT
   *DEL*:           000175H   BYTE   INSEG    CODE           ?PR?SEEKFREE_ASSISTANT_DATA_ANALYSIS?SEEKFREE_ASSISTANT
   *DEL*:           000101H   BYTE   INSEG    CODE           ?PR?SEEKFREE_ASSISTANT_CAMERA_DATA_SEND?SEEKFREE_ASSISTANT
   *DEL*:           000034H   BYTE   INSEG    CODE           ?PR?SEEKFREE_ASSISTANT_CAMERA_SEND?SEEKFREE_ASSISTANT
   *DEL*:           00004CH   BYTE   INSEG    CODE           ?PR?SERVO_SET_POSITION?SERVO
   *DEL*:           000034H   BYTE   INSEG    CODE           ?PR?ENCODER_READ1?ENCODER
   *DEL*:           00003AH   BYTE   INSEG    CODE           ?PR?ENCODER_READ2?ENCODER
   *DEL*:           00000DH   BYTE   INSEG    CODE           ?PR?ENCODER_INIT?ENCODER
   *DEL*:           000025H   BYTE   INSEG    CODE           ?PR?LINE_INIT?LINE
   *DEL*:           000091H   BYTE   INSEG    CODE           ?PR?LINE_CALCULATE_POSITION?LINE
   *DEL*:           000028H   BYTE   UNIT     EDATA          ?ED?PRINTF
   *DEL*:           00000EH   BYTE   INSEG    CODE           ?PR?STRLEN?_?STRLEN
L251 LINKER/LOCATER V4.66.93.0                                                        11/05/2024  20:15:43  PAGE 15


   *DEL*:           00001AH   BYTE   INSEG    CODE           ?PR?MEMSET?_?MEMSET



OVERLAY MAP OF MODULE:   .\Out_File\SEEKFREE (board)


FUNCTION/MODULE                               EDATA_GROUP
--> CALLED FUNCTION/MODULE                    START  STOP
=========================================================
UART1_Isr/isr                                 ----- -----

*** NEW ROOT ********************************

UART2_Isr/isr                                 ----- -----

*** NEW ROOT ********************************

UART3_Isr/isr                                 ----- -----

*** NEW ROOT ********************************

UART4_Isr/isr                                 ----- -----

*** NEW ROOT ********************************

INT0_Isr/isr                                  ----- -----

*** NEW ROOT ********************************

INT1_Isr/isr                                  ----- -----

*** NEW ROOT ********************************

INT2_Isr/isr                                  ----- -----

*** NEW ROOT ********************************

INT3_Isr/isr                                  ----- -----

*** NEW ROOT ********************************

INT4_Isr/isr                                  ----- -----

*** NEW ROOT ********************************

TM0_Isr/isr                                   ----- -----

*** NEW ROOT ********************************

TM1_Isr/isr                                   ----- -----

*** NEW ROOT ********************************

TM2_Isr/isr                                   ----- -----

*** NEW ROOT ********************************

TM3_Isr/isr                                   ----- -----

*** NEW ROOT ********************************

TM4_Isr/isr                                   ----- -----
  +--> ccd_collect/SEEKFREE_TSL1401

L251 LINKER/LOCATER V4.66.93.0                                                        11/05/2024  20:15:43  PAGE 16


ccd_collect/SEEKFREE_TSL1401                  ----- -----
  +--> adc_once/zf_adc

adc_once/zf_adc                               ----- -----

*** NEW ROOT ********************************

?C_C51STARTUP                                 ----- -----

*** NEW ROOT ********************************

?C_C51STARTUP?3                               ----- -----
  +--> main/main

main/main                                     ----- -----
  +--> clock_init/board
  +--> board_init/board
  +--> ips200_init_spi/SEEKFREE_IPS200_SPI
  +--> ips200_show_string/SEEKFREE_IPS200_SPI
  +--> battery_init/battery
  +--> SPRINTF/SPRINTF
  +--> servo_init/servo
  +--> drv8701_init/drv8701_dual
  +--> update_battery_status/battery
  +--> Line_read_raw/line
  +--> delay_ms/zf_delay

clock_init/board                              ----- -----
  +--> set_clk/board

set_clk/board                                 ----- -----

board_init/board                              ----- -----
  +--> delay_init/zf_delay
  +--> ICacheOn/board
  +--> uart_init/zf_uart
  +--> EnableGlobalIRQ/board

delay_init/zf_delay                           ----- -----
  +--> ?C?SLDIV/?C?SLDIV

?C?SLDIV/?C?SLDIV                             ----- -----
  +--> ?C?ULIDIV/?C?ULDIV

?C?ULIDIV/?C?ULDIV                            ----- -----

ICacheOn/board                                ----- -----

uart_init/zf_uart                             ----- -----
  +--> ?C?ULIDIV/?C?ULDIV

EnableGlobalIRQ/board                         ----- -----

ips200_init_spi/SEEKFREE_IPS200_SPI           ----- -----
  +--> spi_init/zf_spi
  +--> ips200_set_dir/SEEKFREE_IPS200_SPI
  +--> ips200_set_color/SEEKFREE_IPS200_SPI
  +--> delay_ms/zf_delay
  +--> ips200_write_command/SEEKFREE_IPS200_SPI
  +--> ips200_write_8bit_data/SEEKFREE_IPS200_SPI
  +--> ips200_clear/SEEKFREE_IPS200_SPI

spi_init/zf_spi                               ----- -----
  +--> gpio_mode/zf_gpio

L251 LINKER/LOCATER V4.66.93.0                                                        11/05/2024  20:15:43  PAGE 17


gpio_mode/zf_gpio                             ----- -----

ips200_set_dir/SEEKFREE_IPS200_SPI            ----- -----

ips200_set_color/SEEKFREE_IPS200_SPI          ----- -----

delay_ms/zf_delay                             ----- -----

ips200_write_command/SEEKFREE_IPS200_SPI      ----- -----
  +--> ips200_write_8bit_data_spi/SEEKFREE_IPS200_SPI

ips200_write_8bit_data_spi/SEEKFREE_IPS2+     ----- -----
... 00_SPI
  +--> spi_mosi/zf_spi

spi_mosi/zf_spi                               ----- -----

ips200_write_8bit_data/SEEKFREE_IPS200_S+     ----- -----
... PI
  +--> ips200_write_8bit_data_spi/SEEKFREE_IPS200_SPI

ips200_clear/SEEKFREE_IPS200_SPI              ----- -----
  +--> ips200_set_region/SEEKFREE_IPS200_SPI
  +--> ips200_write_16bit_data/SEEKFREE_IPS200_SPI

ips200_set_region/SEEKFREE_IPS200_SPI         ----- -----
  +--> ips200_write_command/SEEKFREE_IPS200_SPI
  +--> ips200_write_16bit_data/SEEKFREE_IPS200_SPI

ips200_write_16bit_data/SEEKFREE_IPS200_+     ----- -----
... SPI
  +--> ips200_write_16bit_data_spi/SEEKFREE_IPS200_SPI

ips200_write_16bit_data_spi/SEEKFREE_IPS+     ----- -----
... 200_SPI
  +--> spi_mosi/zf_spi

ips200_show_string/SEEKFREE_IPS200_SPI        ----- -----
  +--> ips200_show_char/SEEKFREE_IPS200_SPI

ips200_show_char/SEEKFREE_IPS200_SPI          ----- -----
  +--> ips200_set_region/SEEKFREE_IPS200_SPI
  +--> ips200_write_16bit_data/SEEKFREE_IPS200_SPI

battery_init/battery                          ----- -----
  +--> adc_init/zf_adc

adc_init/zf_adc                               ----- -----

SPRINTF/SPRINTF                               08DAH 0901H
  +--> OUT/SPRINTF

OUT/SPRINTF                                   ----- -----
  +--> PUTCH/SPRINTF

PUTCH/SPRINTF                                 ----- -----

servo_init/servo                              ----- -----
  +--> pwm_init/zf_pwm

pwm_init/zf_pwm                               ----- -----
  +--> pwm_set_gpio/zf_pwm
  +--> ?C?ULIDIV/?C?ULDIV
  +--> FCASTL/STC32F_FPMU
  +--> FPDIV/STC32F_FPMU
L251 LINKER/LOCATER V4.66.93.0                                                        11/05/2024  20:15:43  PAGE 18


  +--> FPMUL/STC32F_FPMU
  +--> CASTF/STC32F_FPMU

pwm_set_gpio/zf_pwm                           ----- -----
  +--> gpio_mode/zf_gpio

FCASTL/STC32F_FPMU                            ----- -----

FPDIV/STC32F_FPMU                             ----- -----

FPMUL/STC32F_FPMU                             ----- -----

CASTF/STC32F_FPMU                             ----- -----

drv8701_init/drv8701_dual                     ----- -----
  +--> pwm_init/zf_pwm
  +--> gpio_mode/zf_gpio

update_battery_status/battery                 ----- -----
  +--> get_battery_percentage/battery

get_battery_percentage/battery                ----- -----
  +--> get_battery_voltage/battery

get_battery_voltage/battery                   ----- -----
  +--> adc_once/zf_adc
  +--> ?C?ULIDIV/?C?ULDIV
  +--> ips200_show_string/SEEKFREE_IPS200_SPI
  +--> drv8701_stop/drv8701_dual
  +--> delay_ms/zf_delay

drv8701_stop/drv8701_dual                     ----- -----
  +--> drv8701_control/drv8701_dual

drv8701_control/drv8701_dual                  ----- -----
  +--> set_motor/drv8701_dual

set_motor/drv8701_dual                        ----- -----
  +--> pwm_duty/zf_pwm

pwm_duty/zf_pwm                               ----- -----
  +--> FCASTL/STC32F_FPMU
  +--> FPDIV/STC32F_FPMU
  +--> FPMUL/STC32F_FPMU
  +--> CASTF/STC32F_FPMU

Line_read_raw/line                            ----- -----
  +--> adc_once/zf_adc

*** NEW ROOT ********************************

?C_C51STARTUP?2                               ----- -----



PUBLIC SYMBOLS OF MODULE:  .\Out_File\SEEKFREE (board)


      VALUE       CLASS    TYPE      PUBLIC SYMBOL NAME
      =================================================
      00FF4727H   CODE     ---       ?C?BMOVENP
      00FF4725H   CODE     ---       ?C?BMOVENP8
      00FF7A5AH   CODE     ---       ?C?CASTF
      000000FFH   NUMBER   ---       ?C?CODESEG
*DEL*:00000000H   CODE     ---       ?C?FCASTC
L251 LINKER/LOCATER V4.66.93.0                                                        11/05/2024  20:15:43  PAGE 19


      00FF7A60H   CODE     ---       ?C?FCASTI
      00FF0056H   CODE     ---       ?C?FCASTL
*DEL*:00000000H   CODE     ---       ?C?FPADD
      00FF0046H   CODE     ---       ?C?FPCMP3
      00FF44F0H   CODE     ---       ?C?FPCONVERT
      00FF001EH   CODE     ---       ?C?FPDIV
      00FF0016H   CODE     ---       ?C?FPMUL
*DEL*:00000000H   CODE     ---       ?C?FPNEG
      00FF45A8H   CODE     ---       ?C?FPROUND
      00FF000EH   CODE     ---       ?C?FPSUB
      00FF461BH   CODE     ---       ?C?FTNPWR
      00FF73BCH   CODE     ---       ?C?INITEDATA
      00FF7CB5H   HCONST   WORD      ?C?INITEDATA_END
      00FF4695H   CODE     ---       ?C?LIMUL
      00FF4684H   CODE     ---       ?C?LMUL
      00FF40D3H   CODE     ---       ?C?PRNFMT
      00FF4652H   CODE     ---       ?C?SIDIV
      00FF46F1H   CODE     NEAR LAB  ?C?SLDIV
      00FF0000H   CODE     ---       ?C?STARTUP
      00FF46A0H   CODE     NEAR LAB  ?C?ULDIV
      00FF469EH   CODE     NEAR LAB  ?C?ULIDIV
      00000001H   NUMBER   ---       ?C?XDATASEG
      00FF0000H   CODE     ---       ?C_STARTUP
      00000BB5H   EDATA    BYTE      ?data_conversion?BYTE
      00000B42H   EDATA    BYTE      ?dl1b_iic_transfer_8bit_array?BYTE
      00000B32H   EDATA    BYTE      ?fifo_init?BYTE
      00000A31H   EDATA    BYTE      ?fifo_read_buffer?BYTE
      00000BEAH   EDATA    BYTE      ?fifo_read_element?BYTE
      00000A49H   EDATA    BYTE      ?fifo_read_tail_buffer?BYTE
      00000AC8H   EDATA    BYTE      ?fifo_write_buffer?BYTE
      00000CF9H   EDATA    BYTE      ?iap_read_bytes?BYTE
      00000D03H   EDATA    BYTE      ?iap_write_bytes?BYTE
      00000F6DH   EDATA    BYTE      ?iic_init?BYTE
      000006BFH   EDATA    BYTE      ?ips114_showfloat?BYTE
      0000068FH   EDATA    BYTE      ?ips114_showfloat_simspi?BYTE
      00000A61H   EDATA    BYTE      ?ips200_draw_line?BYTE
      00000A18H   EDATA    BYTE      ?ips200_show_chinese?BYTE
      00000927H   EDATA    BYTE      ?ips200_show_float?BYTE
      0000094AH   EDATA    BYTE      ?ips200_show_wave?BYTE
      0000065FH   EDATA    BYTE      ?lcd_showfloat?BYTE
      0000062FH   EDATA    BYTE      ?lcd_showfloat_simspi?BYTE
      000006EFH   EDATA    BYTE      ?oled_printf_float?BYTE
      0000071FH   EDATA    BYTE      ?oled_printf_float_spi?BYTE
*DEL*:00000028H   EDATA    ---       ?printf?BYTE
      00000AA0H   EDATA    BYTE      ?pwm_freq?BYTE
      00000A8CH   EDATA    BYTE      ?pwm_init?BYTE
      00000989H   EDATA    BYTE      ?seekfree_assistant_camera_boundary_config?BYTE
      00000B52H   EDATA    BYTE      ?seekfree_assistant_camera_data_send?BYTE
      00000D85H   EDATA    BYTE      ?seekfree_assistant_camera_information_config?BYTE
      00000BC3H   EDATA    BYTE      ?spi_init?BYTE
      00000902H   EDATA    ---       ?sprintf?BYTE
      00000B6FH   EDATA    BYTE      ?uart_init?BYTE
      00000D0DH   EDATA    BYTE      ?uart_putbuff?BYTE
      00000487H   EDATA    BYTE      ?zf_sprintf?BYTE
*SFR* 000000E0H   DATA     BYTE      ACC
      00000D95H   EDATA    WORD      ad_result
*SFR* 000000BCH   DATA     BYTE      ADC_CONTR
      00FF640DH   CODE     ---       adc_init
      00FF6E44H   CODE     ---       adc_once
*SFR* 000000BDH   DATA     BYTE      ADC_RES
*SFR* 000000BEH   DATA     BYTE      ADC_RESL
      00000F25H   EDATA    ---       adc_value
*SFR* 000000DEH   DATA     BYTE      ADCCFG
      00FF32FDH   CODE     ---       ascii_font_6x8
      00FF212DH   CODE     ---       ascii_font_8x16
L251 LINKER/LOCATER V4.66.93.0                                                        11/05/2024  20:15:43  PAGE 20


*DEL*:00000000H   CODE     ---       ATAN?_
*SFR* 000000EFH   DATA     BYTE      AUXINTIF
*SFR* 0000008EH   DATA     BYTE      AUXR
*SFR* 00000097H   DATA     BYTE      AUXR2
      00FF7A34H   CODE     ---       battery_init
      00000D8FH   EDATA    WORD      battery_percentage
      00000D97H   EDATA    WORD      battery_voltage
*DEL*:00000000H   CODE     ---       ble6a20_callback
*DEL*:00000000H   CODE     ---       ble6a20_init
*DEL*:00000000H   CODE     ---       ble6a20_read_buff
*DEL*:00000000H   CODE     ---       ble6a20_send_buff
*DEL*:00000000H   CODE     ---       ble6a20_send_byte
*DEL*:00000000H   CODE     ---       bluetooth_ch9141_init
*DEL*:00000000H   CODE     ---       bluetooth_ch9141_read_buff
*DEL*:00000000H   CODE     ---       bluetooth_ch9141_send_buff
*DEL*:00000000H   CODE     ---       bluetooth_ch9141_uart_callback
*DEL*:00000000H   CODE     ---       bluetooth_ch9141send_byte
      00FF67E4H   CODE     ---       board_init
      0000101FH   EDATA    ---       busy
*SFR* 000000F1H   DATA     BYTE      CANICR
      00FF66EEH   CODE     ---       ccd_collect
      00000009H   EDATA    ---       ccd_data_ch1
      00000109H   EDATA    ---       ccd_data_ch2
*DEL*:00000000H   CODE     ---       ccd_init
*DEL*:00000000H   CODE     ---       ccd_send_data
      00FF79C5H   CODE     ---       clock_init
*SFR* 000000E6H   DATA     BYTE      CMPCR1
*SFR* 000000E7H   DATA     BYTE      CMPCR2
*DEL*:00000000H   CODE     ---       COS?_
*DEL*:00000000H   CODE     ---       CRC_CHECK
*DEL*:00000000H   CODE     ---       ctimer_count_clean
*DEL*:00000000H   CODE     ---       ctimer_count_init
*DEL*:00000000H   CODE     ---       ctimer_count_read
*DEL*:00000000H   CODE     ---       data_conversion
      00FF7744H   CODE     ---       delay_init
      00FF7507H   CODE     ---       delay_ms
*DEL*:00000000H   CODE     ---       delay_us
*DEL*:00000000H   CODE     ---       DisableGlobalIRQ
*DEL*:00000000H   CODE     ---       disalbe_icache
      000010C7H   EDATA    WORD      dl1a_distance_mm
      000010C9H   EDATA    BYTE      dl1a_finsh_flag
*DEL*:00000000H   CODE     ---       dl1a_get_distance
*DEL*:00000000H   CODE     ---       dl1a_init
      00FF00A6H   CODE     ---       dl1b_default_configuration
      00001079H   EDATA    WORD      dl1b_distance_mm
      0000107BH   EDATA    BYTE      dl1b_finsh_flag
*DEL*:00000000H   CODE     ---       dl1b_get_distance
*DEL*:00000000H   CODE     ---       dl1b_iic_transfer_8bit_array
*DEL*:00000000H   CODE     ---       dl1b_init
      0000107CH   EDATA    BYTE      dl1b_init_flag
*SFR* 000000EDH   DATA     BYTE      DMAIR
*SFR* 00000083H   DATA     BYTE      DPH
*SFR* 00000082H   DATA     BYTE      DPL
      00FF65E3H   CODE     ---       drv8701_control
      00FF7461H   CODE     ---       drv8701_init
      00FF7A40H   CODE     ---       drv8701_stop
*SFR* 000000A8H.7 DATA     BIT       EA
*DEL*:00000000H   CODE     ---       eeprom_trig
      00FF0006H   CODE     ---       EnableGlobalIRQ
*DEL*:00000000H   CODE     ---       enalbe_icache
*DEL*:00000000H   CODE     ---       encoder_init
*DEL*:00000000H   CODE     ---       encoder_read1
*DEL*:00000000H   CODE     ---       encoder_read2
*SFR* 000000A8H.4 DATA     BIT       ES
*SFR* 000000A8H.1 DATA     BIT       ET0
L251 LINKER/LOCATER V4.66.93.0                                                        11/05/2024  20:15:43  PAGE 21


*SFR* 000000A8H.3 DATA     BIT       ET1
*SFR* 000000A8H.0 DATA     BIT       EX0
*SFR* 000000A8H.2 DATA     BIT       EX1
*DEL*:00000000H   CODE     ---       exit_init
*SFR* 000000D0H.5 DATA     BIT       F0
*DEL*:00000000H   CODE     ---       FABS?_
*DEL*:00000000H   CODE     ---       FCLEX
*DEL*:00000000H   CODE     ---       fifo_clear
*DEL*:00000000H   CODE     ---       fifo_init
*DEL*:00000000H   CODE     ---       fifo_read_buffer
*DEL*:00000000H   CODE     ---       fifo_read_element
*DEL*:00000000H   CODE     ---       fifo_read_tail_buffer
*DEL*:00000000H   CODE     ---       fifo_used
      00FF5150H   CODE     ---       fifo_write_buffer
*DEL*:00000000H   CODE     ---       fifo_write_element
*DEL*:00000000H   CODE     ---       FINIT
*DEL*:00000000H   CODE     ---       FPCRR
*DEL*:00000000H   CODE     ---       FPCRW
*DEL*:00000000H   CODE     ---       FPSRR
*DEL*:00000000H   CODE     ---       FPSRW
*DEL*:00000000H   CODE     ---       func_double_to_str
*DEL*:00000000H   CODE     ---       func_float_to_str
*DEL*:00000000H   CODE     ---       func_get_greatest_common_divisor
*DEL*:00000000H   CODE     ---       func_hex_to_str
*DEL*:00000000H   CODE     ---       func_int_to_str
*DEL*:00000000H   CODE     ---       func_soft_delay
*DEL*:00000000H   CODE     ---       func_str_to_double
*DEL*:00000000H   CODE     ---       func_str_to_float
*DEL*:00000000H   CODE     ---       func_str_to_hex
*DEL*:00000000H   CODE     ---       func_str_to_int
*DEL*:00000000H   CODE     ---       func_str_to_uint
*DEL*:00000000H   CODE     ---       func_uint_to_str
*DEL*:00000000H   CODE     ---       FXAM
      00FF6C81H   CODE     ---       get_battery_percentage
      00FF6C1DH   CODE     ---       get_battery_voltage
      00FF374DH   CODE     ---       gpio_mode
*DEL*:00000000H   CODE     ---       gpio_pull_set
*SFR* 000000F6H   DATA     BYTE      IAP_ADDRE
*SFR* 000000C3H   DATA     BYTE      IAP_ADDRH
*SFR* 000000C4H   DATA     BYTE      IAP_ADDRL
*SFR* 000000C5H   DATA     BYTE      IAP_CMD
*SFR* 000000C7H   DATA     BYTE      IAP_CONTR
*SFR* 000000C2H   DATA     BYTE      IAP_DATA
*DEL*:00000000H   CODE     ---       iap_erase_page
*DEL*:00000000H   CODE     ---       iap_get_cmd_state
*DEL*:00000000H   CODE     ---       iap_idle
*DEL*:00000000H   CODE     ---       iap_init
*DEL*:00000000H   CODE     ---       iap_read_bytes
*DEL*:00000000H   CODE     ---       iap_set_tps
*SFR* 000000F5H   DATA     BYTE      IAP_TPS
*SFR* 000000C6H   DATA     BYTE      IAP_TRIG
*DEL*:00000000H   CODE     ---       iap_write_bytes
      00FF7A23H   CODE     ---       ICacheOn
*SFR* 000000F7H   DATA     BYTE      ICHECR
*DEL*:00000000H   CODE     ---       icm20602_acc_transition
      00000C62H   EDATA    INT       icm20602_acc_x
      00000C64H   EDATA    INT       icm20602_acc_y
      00000C66H   EDATA    INT       icm20602_acc_z
*DEL*:00000000H   CODE     ---       icm20602_get_acc
*DEL*:00000000H   CODE     ---       icm20602_get_gyro
*DEL*:00000000H   CODE     ---       icm20602_gyro_transition
      00000C68H   EDATA    INT       icm20602_gyro_x
      00000C6AH   EDATA    INT       icm20602_gyro_y
      00000C6CH   EDATA    INT       icm20602_gyro_z
*DEL*:00000000H   CODE     ---       icm20602_init
L251 LINKER/LOCATER V4.66.93.0                                                        11/05/2024  20:15:43  PAGE 22


*SFR* 000000A8H   DATA     BYTE      IE
*SFR* 000000AFH   DATA     BYTE      IE2
*DEL*:00000000H   CODE     ---       iic_change_pin
      00FF753CH   CODE     ---       iic_delay_us
*DEL*:00000000H   CODE     ---       iic_init
*DEL*:00000000H   CODE     ---       iic_read_reg
*DEL*:00000000H   CODE     ---       iic_read_reg_bytes
*DEL*:00000000H   CODE     ---       iic_write_reg
*DEL*:00000000H   CODE     ---       imu660ra_acc_transition
      00000C6EH   EDATA    INT       imu660ra_acc_x
      00000C70H   EDATA    INT       imu660ra_acc_y
      00000C72H   EDATA    INT       imu660ra_acc_z
      00FF012DH   CODE     ---       imu660ra_config_file
*DEL*:00000000H   CODE     ---       imu660ra_get_acc
*DEL*:00000000H   CODE     ---       imu660ra_get_gyro
*DEL*:00000000H   CODE     ---       imu660ra_gyro_transition
      00000C74H   EDATA    INT       imu660ra_gyro_x
      00000C76H   EDATA    INT       imu660ra_gyro_y
      00000C78H   EDATA    INT       imu660ra_gyro_z
*DEL*:00000000H   CODE     ---       imu660ra_init
*DEL*:00000000H   CODE     ---       imu963ra_acc_transition
      00000ADAH   EDATA    INT       imu963ra_acc_x
      00000ADCH   EDATA    INT       imu963ra_acc_y
      00000ADEH   EDATA    INT       imu963ra_acc_z
*DEL*:00000000H   CODE     ---       imu963ra_get_acc
*DEL*:00000000H   CODE     ---       imu963ra_get_gyro
*DEL*:00000000H   CODE     ---       imu963ra_get_mag
*DEL*:00000000H   CODE     ---       imu963ra_gyro_transition
      00000AE6H   EDATA    INT       imu963ra_gyro_x
      00000AE8H   EDATA    INT       imu963ra_gyro_y
      00000AEAH   EDATA    INT       imu963ra_gyro_z
*DEL*:00000000H   CODE     ---       imu963ra_init
*DEL*:00000000H   CODE     ---       imu963ra_mag_transition
      00000AE0H   EDATA    INT       imu963ra_mag_x
      00000AE2H   EDATA    INT       imu963ra_mag_y
      00000AE4H   EDATA    INT       imu963ra_mag_z
      00FF005EH   CODE     ---       INT0_Isr
      00FF000AH   CODE     ---       INT1_Isr
      00FF0086H   CODE     ---       INT2_Isr
      00FF008EH   CODE     ---       INT3_Isr
      00FF0096H   CODE     ---       INT4_Isr
*SFR* 0000008FH   DATA     BYTE      INTCLKO
*SFR* 000000B8H   DATA     BYTE      IP
*SFR* 000000B5H   DATA     BYTE      IP2
*SFR* 000000B6H   DATA     BYTE      IP2H
*SFR* 000000DFH   DATA     BYTE      IP3
*SFR* 000000EEH   DATA     BYTE      IP3H
*SFR* 000000B7H   DATA     BYTE      IPH
*DEL*:00000000H   CODE     ---       ips114_clear
*DEL*:00000000H   CODE     ---       ips114_clear_simspi
*DEL*:00000000H   CODE     ---       ips114_drawpoint
*DEL*:00000000H   CODE     ---       ips114_drawpoint_simspi
*DEL*:00000000H   CODE     ---       ips114_init
*DEL*:00000000H   CODE     ---       ips114_init_simspi
*DEL*:00000000H   CODE     ---       ips114_set_region
*DEL*:00000000H   CODE     ---       ips114_set_region_simspi
*DEL*:00000000H   CODE     ---       ips114_showchar
*DEL*:00000000H   CODE     ---       ips114_showchar_simspi
*DEL*:00000000H   CODE     ---       ips114_showfloat
*DEL*:00000000H   CODE     ---       ips114_showfloat_simspi
*DEL*:00000000H   CODE     ---       ips114_showint16
*DEL*:00000000H   CODE     ---       ips114_showint16_simspi
*DEL*:00000000H   CODE     ---       ips114_showint32
*DEL*:00000000H   CODE     ---       ips114_showint32_simspi
*DEL*:00000000H   CODE     ---       ips114_showint8
L251 LINKER/LOCATER V4.66.93.0                                                        11/05/2024  20:15:43  PAGE 23


*DEL*:00000000H   CODE     ---       ips114_showint8_simspi
*DEL*:00000000H   CODE     ---       ips114_showstr
*DEL*:00000000H   CODE     ---       ips114_showstr_simspi
*DEL*:00000000H   CODE     ---       ips114_showuint16
*DEL*:00000000H   CODE     ---       ips114_showuint16_simspi
*DEL*:00000000H   CODE     ---       ips114_showuint8
*DEL*:00000000H   CODE     ---       ips114_showuint8_simspi
*DEL*:00000000H   CODE     ---       ips114_writeData
      00FF7656H   CODE     ---       ips114_writedata_16bit
*DEL*:00000000H   CODE     ---       ips114_writeData_simspi
      00FF6EEFH   CODE     ---       ips114_writeDatai_16bit_simspi
      00FF7947H   CODE     ---       ips114_writeIndex
      00FF7121H   CODE     ---       ips114_writeIndex_simspi
      00FF6940H   CODE     ---       ips200_clear
*DEL*:00000000H   CODE     ---       ips200_draw_line
*DEL*:00000000H   CODE     ---       ips200_draw_point
*DEL*:00000000H   CODE     ---       ips200_full
      00FF5C92H   CODE     ---       ips200_init_spi
      00FF795CH   CODE     ---       ips200_set_color
      00FF749AH   CODE     ---       ips200_set_dir
*DEL*:00000000H   CODE     ---       ips200_set_font
      00FF5AA1H   CODE     ---       ips200_show_char
*DEL*:00000000H   CODE     ---       ips200_show_chinese
*DEL*:00000000H   CODE     ---       ips200_show_float
*DEL*:00000000H   CODE     ---       ips200_show_int
      00FF64C2H   CODE     ---       ips200_show_string
*DEL*:00000000H   CODE     ---       ips200_show_uint
*DEL*:00000000H   CODE     ---       ips200_show_wave
      00FF780FH   CODE     ---       ips200_write_16bit_data_spi
      00FF7A4AH   CODE     ---       ips200_write_8bit_data_spi
*SFR* 0000009DH   DATA     BYTE      IRCBAND
*SFR* 0000009FH   DATA     BYTE      IRTRIM
*SFR* 00000088H.0 DATA     BIT       IT0
*SFR* 00000088H.2 DATA     BIT       IT1
*DEL*:00000000H   CODE     ---       lcd_clear
*DEL*:00000000H   CODE     ---       lcd_clear_simspi
*DEL*:00000000H   CODE     ---       lcd_drawpoint
*DEL*:00000000H   CODE     ---       lcd_drawpoint_simspi
*DEL*:00000000H   CODE     ---       lcd_init
*DEL*:00000000H   CODE     ---       lcd_init_simspi
      00FF6BB9H   CODE     ---       lcd_set_region
      00FF6B55H   CODE     ---       lcd_set_region_simspi
*DEL*:00000000H   CODE     ---       lcd_showchar
*DEL*:00000000H   CODE     ---       lcd_showchar_simspi
*DEL*:00000000H   CODE     ---       lcd_showfloat
*DEL*:00000000H   CODE     ---       lcd_showfloat_simspi
*DEL*:00000000H   CODE     ---       lcd_showint16
*DEL*:00000000H   CODE     ---       lcd_showint16_simspi
*DEL*:00000000H   CODE     ---       lcd_showint32
*DEL*:00000000H   CODE     ---       lcd_showint32_simspi
*DEL*:00000000H   CODE     ---       lcd_showint8
*DEL*:00000000H   CODE     ---       lcd_showint8_simspi
*DEL*:00000000H   CODE     ---       lcd_showstr
*DEL*:00000000H   CODE     ---       lcd_showstr_simspi
*DEL*:00000000H   CODE     ---       lcd_showuint16
*DEL*:00000000H   CODE     ---       lcd_showuint16_simspi
*DEL*:00000000H   CODE     ---       lcd_showuint8
*DEL*:00000000H   CODE     ---       lcd_showuint8_simspi
      00FF7932H   CODE     ---       lcd_writeData
      00FF7602H   CODE     ---       lcd_writedata_16bit
      00FF6E9AH   CODE     ---       lcd_writeData_16bit_simspi
      00FF70D5H   CODE     ---       lcd_writeData_simspi
      00FF791DH   CODE     ---       lcd_writeIndex
      00FF7089H   CODE     ---       lcd_writeIndex_simspi
*DEL*:00000000H   CODE     ---       Line_calculate_position
L251 LINKER/LOCATER V4.66.93.0                                                        11/05/2024  20:15:43  PAGE 24


*DEL*:00000000H   CODE     ---       Line_init
      00FF73E8H   CODE     ---       Line_read_raw
*SFR* 000000F9H   DATA     BYTE      LINICR
      00FF5FC1H   CODE     ---       main
      00FF771FH   CODE     ---       memcpy?_
*DEL*:00000000H   CODE     ---       memset?_
      00000CAAH   EDATA    INT       mpu6050_acc_x
      00000CACH   EDATA    INT       mpu6050_acc_y
      00000CAEH   EDATA    INT       mpu6050_acc_z
*DEL*:00000000H   CODE     ---       mpu6050_get_accdata
*DEL*:00000000H   CODE     ---       mpu6050_get_gyro
      00000CB0H   EDATA    INT       mpu6050_gyro_x
      00000CB2H   EDATA    INT       mpu6050_gyro_y
      00000CB4H   EDATA    INT       mpu6050_gyro_z
*DEL*:00000000H   CODE     ---       mpu6050_init
*DEL*:00000000H   CODE     ---       mpu6050_simiic_read_reg
*DEL*:00000000H   CODE     ---       mpu6050_simiic_read_regs
*DEL*:00000000H   CODE     ---       NVIC_SetPriority
      00FF3525H   CODE     ---       oled_6x8
      00FF271DH   CODE     ---       oled_8x16
*DEL*:00000000H   CODE     ---       oled_clrpixel
*DEL*:00000000H   CODE     ---       oled_clrpixel_spi
*DEL*:00000000H   CODE     ---       oled_dis_bmp
*DEL*:00000000H   CODE     ---       oled_dis_bmp_spi
*DEL*:00000000H   CODE     ---       oled_fill
*DEL*:00000000H   CODE     ---       oled_fill_spi
*DEL*:00000000H   CODE     ---       oled_hexascii
*DEL*:00000000H   CODE     ---       oled_hexascii_spi
*DEL*:00000000H   CODE     ---       oled_init
*DEL*:00000000H   CODE     ---       oled_init_spi
*DEL*:00000000H   CODE     ---       oled_int16
*DEL*:00000000H   CODE     ---       oled_int16_spi
*DEL*:00000000H   CODE     ---       oled_p6x8str
*DEL*:00000000H   CODE     ---       oled_p6x8str_spi
*DEL*:00000000H   CODE     ---       oled_p8x16str
*DEL*:00000000H   CODE     ---       oled_p8x16str_spi
*DEL*:00000000H   CODE     ---       oled_print_chinese
*DEL*:00000000H   CODE     ---       oled_print_chinese_spi
*DEL*:00000000H   CODE     ---       oled_printf_float
*DEL*:00000000H   CODE     ---       oled_printf_float_spi
*DEL*:00000000H   CODE     ---       oled_printf_int32
*DEL*:00000000H   CODE     ---       oled_printf_int32_spi
*DEL*:00000000H   CODE     ---       oled_putpixel
*DEL*:00000000H   CODE     ---       oled_putpixel_spi
      00FF7571H   CODE     ---       oled_set_pos
      00FF74D1H   CODE     ---       oled_set_pos_spi
*DEL*:00000000H   CODE     ---       oled_uint16
*DEL*:00000000H   CODE     ---       oled_uint16_spi
      00FF716DH   CODE     ---       oled_wrcmd
      00FF799BH   CODE     ---       oled_wrcmd_spi
      00FF71B9H   CODE     ---       oled_wrdat
      00FF79B0H   CODE     ---       oled_wrdat_spi
*SFR* 00000080H   DATA     BYTE      P0
*SFR* 00000080H.2 DATA     BIT       P02
*SFR* 00000080H.7 DATA     BIT       P07
*SFR* 00000094H   DATA     BYTE      P0M0
*SFR* 00000093H   DATA     BYTE      P0M1
*SFR* 00000090H   DATA     BYTE      P1
*SFR* 00000092H   DATA     BYTE      P1M0
*SFR* 00000091H   DATA     BYTE      P1M1
*SFR* 000000A0H   DATA     BYTE      P2
*SFR* 000000A0H.0 DATA     BIT       P20
*SFR* 000000A0H.1 DATA     BIT       P21
*SFR* 000000A0H.2 DATA     BIT       P22
*SFR* 000000A0H.3 DATA     BIT       P23
L251 LINKER/LOCATER V4.66.93.0                                                        11/05/2024  20:15:43  PAGE 25


*SFR* 000000A0H.5 DATA     BIT       P25
*SFR* 000000A0H.7 DATA     BIT       P27
*SFR* 00000096H   DATA     BYTE      P2M0
*SFR* 00000095H   DATA     BYTE      P2M1
*SFR* 000000B0H   DATA     BYTE      P3
*SFR* 000000B0H.5 DATA     BIT       P35
*SFR* 000000B0H.6 DATA     BIT       P36
*SFR* 000000B0H.7 DATA     BIT       P37
*SFR* 000000B2H   DATA     BYTE      P3M0
*SFR* 000000B1H   DATA     BYTE      P3M1
*SFR* 000000C0H   DATA     BYTE      P4
*SFR* 000000C0H.0 DATA     BIT       P40
*SFR* 000000C0H.1 DATA     BIT       P41
*SFR* 000000C0H.2 DATA     BIT       P42
*SFR* 000000C0H.3 DATA     BIT       P43
*SFR* 000000C0H.5 DATA     BIT       P45
*SFR* 000000B4H   DATA     BYTE      P4M0
*SFR* 000000B3H   DATA     BYTE      P4M1
*SFR* 000000C8H   DATA     BYTE      P5
*SFR* 000000C8H.2 DATA     BIT       P52
*SFR* 000000C8H.3 DATA     BIT       P53
*SFR* 000000CAH   DATA     BYTE      P5M0
*SFR* 000000C9H   DATA     BYTE      P5M1
*SFR* 000000E8H   DATA     BYTE      P6
*SFR* 000000CCH   DATA     BYTE      P6M0
*SFR* 000000CBH   DATA     BYTE      P6M1
*SFR* 000000F8H   DATA     BYTE      P7
*SFR* 000000E2H   DATA     BYTE      P7M0
*SFR* 000000E1H   DATA     BYTE      P7M1
*SFR* 000000A2H   DATA     BYTE      P_SW1
*SFR* 000000BAH   DATA     BYTE      P_SW2
*SFR* 000000BBH   DATA     BYTE      P_SW3
*SFR* 00000087H   DATA     BYTE      PCON
*DEL*:00000000H   CODE     ---       pit_timer_ms
      00FF405AH   CODE     NEAR LAB  printf
*SFR* 000000D0H   DATA     BYTE      PSW
      00FF79FFH   CODE     ---       putchar
      00FF7D5BH   HCONST   ---       PWM_ARR_ADDR
      00FF7D63H   HCONST   ---       PWM_CCER_ADDR
      00FF7D73H   HCONST   ---       PWM_CCMR_ADDR
      00FF7D3BH   HCONST   ---       PWM_CCR_ADDR
      00FF6110H   CODE     ---       pwm_duty
*DEL*:00000000H   CODE     ---       pwm_freq
      00FF4D76H   CODE     ---       pwm_init
      00FF54E2H   CODE     ---       pwm_set_gpio
*DEL*:00000000H   CODE     ---       recv_ack
*DEL*:00000000H   CODE     ---       recv_data
*SFR* 000000FFH   DATA     BYTE      RSTCFG
*SFR* 0000009BH   DATA     BYTE      S2BUF
*SFR* 0000009AH   DATA     BYTE      S2CON
*SFR* 000000ADH   DATA     BYTE      S3BUF
*SFR* 000000ACH   DATA     BYTE      S3CON
*SFR* 000000FEH   DATA     BYTE      S4BUF
*SFR* 000000FDH   DATA     BYTE      S4CON
*SFR* 00000099H   DATA     BYTE      SBUF
*SFR* 00000098H   DATA     BYTE      SCON
*DEL*:00000000H   CODE     ---       seekfree_assistant_camera_boundary_config
*DEL*:00000000H   CODE     ---       seekfree_assistant_camera_data_send
*DEL*:00000000H   CODE     ---       seekfree_assistant_camera_dot_send
*DEL*:00000000H   CODE     ---       seekfree_assistant_camera_information_config
*DEL*:00000000H   CODE     ---       seekfree_assistant_camera_send
*DEL*:00000000H   CODE     ---       seekfree_assistant_data_analysis
*DEL*:00000000H   CODE     ---       seekfree_assistant_init
      00000211H   EDATA    ---       seekfree_assistant_oscilloscope_data
*DEL*:00000000H   CODE     ---       seekfree_assistant_oscilloscope_send
L251 LINKER/LOCATER V4.66.93.0                                                        11/05/2024  20:15:43  PAGE 26


      00000254H   EDATA    ---       seekfree_assistant_parameter
      0000024CH   EDATA    ---       seekfree_assistant_parameter_update_flag
      000010A9H   EDATA    ---       seekfree_assistant_receive
      000010ABH   EDATA    ---       seekfree_assistant_transfer
*DEL*:00000000H   CODE     ---       send_ack
*DEL*:00000000H   CODE     ---       send_data
*DEL*:00000000H   CODE     ---       send_nak
      00FF78D9H   CODE     ---       servo_init
      00000CF1H   EDATA    FLOAT     servo_Kd
      00000CF5H   EDATA    FLOAT     servo_Kp
      00000CEEH   EDATA    CHAR      servo_position
*DEL*:00000000H   CODE     ---       servo_set_position
      00FF474AH   CODE     ---       set_clk
*DEL*:00000000H   CODE     ---       showimage
*DEL*:00000000H   CODE     ---       SIN?_
*SFR* 000000CEH   DATA     BYTE      SPCTL
*SFR* 000000CFH   DATA     BYTE      SPDAT
*DEL*:00000000H   CODE     ---       spi_change_mode
*DEL*:00000000H   CODE     ---       spi_change_pin
      00FF633FH   CODE     ---       spi_init
      00FF7A11H   CODE     ---       spi_mosi
      00FF4086H   CODE     NEAR LAB  sprintf
*SFR* 000000CDH   DATA     BYTE      SPSTAT
*DEL*:00000000H   CODE     ---       SQRT?_
*DEL*:00000000H   CODE     ---       start
*DEL*:00000000H   CODE     ---       stop
*DEL*:00000000H   CODE     ---       strlen?_
      0000103DH   EDATA    LONG      sys_clk
*SFR* 000000D6H   DATA     BYTE      T2H
*SFR* 000000D7H   DATA     BYTE      T2L
*SFR* 000000D4H   DATA     BYTE      T3H
*SFR* 000000D5H   DATA     BYTE      T3L
*SFR* 000000D2H   DATA     BYTE      T4H
*SFR* 000000D3H   DATA     BYTE      T4L
*SFR* 000000DDH   DATA     BYTE      T4T3M
*SFR* 000000AEH   DATA     BYTE      TA
*DEL*:00000000H   CODE     ---       TAN?_
*SFR* 00000088H   DATA     BYTE      TCON
      00000D91H   EDATA    DWORD     temp
      00FF2D0DH   CODE     ---       tft_ascii
*SFR* 0000008CH   DATA     BYTE      TH0
*SFR* 0000008DH   DATA     BYTE      TH1
*SFR* 0000008AH   DATA     BYTE      TL0
*SFR* 0000008BH   DATA     BYTE      TL1
      00FF0012H   CODE     ---       TM0_Isr
      00FF001AH   CODE     ---       TM1_Isr
      00FF009EH   CODE     ---       TM2_Isr
      00FF7A66H   CODE     ---       TM3_Isr
      00FF75A6H   CODE     ---       TM4_Isr
*SFR* 00000089H   DATA     BYTE      TMOD
*SFR* 00000088H.4 DATA     BIT       TR0
*SFR* 00000088H.6 DATA     BIT       TR1
      00000008H   EDATA    BYTE      tsl1401_finish_flag
      00FF7367H   CODE     ---       UART1_Isr
      00FF7039H   CODE     ---       UART2_Isr
      00FF78A5H   CODE     ---       UART3_Isr
      00FF78BFH   CODE     ---       UART4_Isr
      00FF57EEH   CODE     ---       uart_init
*DEL*:00000000H   CODE     ---       uart_putbuff
      00FF685BH   CODE     ---       uart_putchar
*DEL*:00000000H   CODE     ---       uart_putstr
      00FF7A52H   CODE     ---       update_battery_status
*SFR* 000000F4H   DATA     BYTE      USBCON
      00000D7BH   EDATA    ---       virtual_scope_data
*SFR* 000000A6H   DATA     BYTE      VRTRIM
L251 LINKER/LOCATER V4.66.93.0                                                        11/05/2024  20:15:43  PAGE 27


      00FF6DEDH   CODE     ---       wait
*SFR* 000000C1H   DATA     BYTE      WDT_CONTR
      00001047H   EDATA    ---       wireless_module_uart_handler
      00001045H   EDATA    INT       wireless_type
*DEL*:00000000H   CODE     ---       wireless_uart_callback
*DEL*:00000000H   CODE     ---       wireless_uart_init
*DEL*:00000000H   CODE     ---       wireless_uart_read_buff
*DEL*:00000000H   CODE     ---       wireless_uart_send_buff
*DEL*:00000000H   CODE     ---       wireless_uart_send_byte
*SFR* 000000E9H   DATA     BYTE      WTST
      0000104DH   EDATA    WORD      zf_delay_ms
      0000104FH   EDATA    WORD      zf_delay_us
*DEL*:00000000H   CODE     ---       zf_sprintf



SYMBOL TABLE OF MODULE:  .\Out_File\SEEKFREE (board)

      VALUE       REP       CLASS    TYPE      SYMBOL NAME
      ====================================================
      ---         MODULE    ---      ---       board
      00FF0006H   PUBLIC    CODE     ---       EnableGlobalIRQ
      00FF67E4H   PUBLIC    CODE     ---       board_init
      00FF79C5H   PUBLIC    CODE     ---       clock_init
      00FF7A23H   PUBLIC    CODE     ---       ICacheOn
      00FF474AH   PUBLIC    CODE     ---       set_clk
      00FF79FFH   PUBLIC    CODE     ---       putchar
      0000103DH   PUBLIC    EDATA    LONG      sys_clk
      00000094H   SFRSYM    DATA     BYTE      P0M0
      000000D0H   SFRSYM    DATA     BYTE      PSW
      0000009DH   SFRSYM    DATA     BYTE      IRCBAND
      00000097H   SFRSYM    DATA     BYTE      AUXR2
      000000EFH   SFRSYM    DATA     BYTE      AUXINTIF
      000000FDH   SFRSYM    DATA     BYTE      S4CON
      000000ACH   SFRSYM    DATA     BYTE      S3CON
      0000009AH   SFRSYM    DATA     BYTE      S2CON
      000000A6H   SFRSYM    DATA     BYTE      VRTRIM
      000000B7H   SFRSYM    DATA     BYTE      IPH
      000000CDH   SFRSYM    DATA     BYTE      SPSTAT
      000000DDH   SFRSYM    DATA     BYTE      T4T3M
      0000009FH   SFRSYM    DATA     BYTE      IRTRIM
      000000C1H   SFRSYM    DATA     BYTE      WDT_CONTR
      000000E9H   SFRSYM    DATA     BYTE      WTST
      000000DFH   SFRSYM    DATA     BYTE      IP3
      000000F4H   SFRSYM    DATA     BYTE      USBCON
      000000B5H   SFRSYM    DATA     BYTE      IP2
      000000FFH   SFRSYM    DATA     BYTE      RSTCFG
      000000C7H   SFRSYM    DATA     BYTE      IAP_CONTR
      000000F9H   SFRSYM    DATA     BYTE      LINICR
      0000008EH   SFRSYM    DATA     BYTE      AUXR
      000000AFH   SFRSYM    DATA     BYTE      IE2
      00000088H   SFRSYM    DATA     BYTE      TCON
      00000089H   SFRSYM    DATA     BYTE      TMOD
      00000098H   SFRSYM    DATA     BYTE      SCON
      000000F1H   SFRSYM    DATA     BYTE      CANICR
      00000087H   SFRSYM    DATA     BYTE      PCON
      000000BCH   SFRSYM    DATA     BYTE      ADC_CONTR
      000000F7H   SFRSYM    DATA     BYTE      ICHECR
      000000E7H   SFRSYM    DATA     BYTE      CMPCR2
      000000E6H   SFRSYM    DATA     BYTE      CMPCR1
      000000DEH   SFRSYM    DATA     BYTE      ADCCFG
      000000B8H   SFRSYM    DATA     BYTE      IP
      0000008FH   SFRSYM    DATA     BYTE      INTCLKO
      000000AEH   SFRSYM    DATA     BYTE      TA
      000000EEH   SFRSYM    DATA     BYTE      IP3H
L251 LINKER/LOCATER V4.66.93.0                                                        11/05/2024  20:15:43  PAGE 28


      000000B6H   SFRSYM    DATA     BYTE      IP2H
      000000A8H   SFRSYM    DATA     BYTE      IE
      000000BBH   SFRSYM    DATA     BYTE      P_SW3
      000000BAH   SFRSYM    DATA     BYTE      P_SW2
      000000A2H   SFRSYM    DATA     BYTE      P_SW1
      000000CEH   SFRSYM    DATA     BYTE      SPCTL
      000000F8H   SFRSYM    DATA     BYTE      P7
      000000A8H.7 SFRSYM    DATA     BIT       EA
      000000E8H   SFRSYM    DATA     BYTE      P6
      000000C8H   SFRSYM    DATA     BYTE      P5
      000000C0H   SFRSYM    DATA     BYTE      P4
      000000C9H   SFRSYM    DATA     BYTE      P5M1
      000000B0H   SFRSYM    DATA     BYTE      P3
      000000B3H   SFRSYM    DATA     BYTE      P4M1
      000000CAH   SFRSYM    DATA     BYTE      P5M0
      000000A0H   SFRSYM    DATA     BYTE      P2
      000000B1H   SFRSYM    DATA     BYTE      P3M1
      000000B4H   SFRSYM    DATA     BYTE      P4M0
      00000090H   SFRSYM    DATA     BYTE      P1
      00000095H   SFRSYM    DATA     BYTE      P2M1
      000000B2H   SFRSYM    DATA     BYTE      P3M0
      00000080H   SFRSYM    DATA     BYTE      P0
      00000091H   SFRSYM    DATA     BYTE      P1M1
      00000096H   SFRSYM    DATA     BYTE      P2M0
      00000092H   SFRSYM    DATA     BYTE      P1M0
      00000093H   SFRSYM    DATA     BYTE      P0M1

      00FF474AH   BLOCK     CODE     ---       LVL=0
      00000E8DH   SYMBOL    EDATA    DWORD     clock
      00FF474EH   BLOCK     CODE     NEAR LAB  LVL=1
      00000E91H   SYMBOL    EDATA    DWORD     temp_sys_clk
      ---         BLOCKEND  ---      ---       LVL=1
      00FF474AH   LINE      CODE     ---       #35
      00FF474EH   LINE      CODE     ---       #36
      00FF474EH   LINE      CODE     ---       #37
      00FF4754H   LINE      CODE     ---       #40
      00FF4835H   LINE      CODE     ---       #42
      00FF4835H   LINE      CODE     ---       #44
      00FF4842H   LINE      CODE     ---       #45
      00FF484FH   LINE      CODE     ---       #46
      00FF485CH   LINE      CODE     ---       #47
      00FF4860H   LINE      CODE     ---       #48
      00FF4863H   LINE      CODE     ---       #49
      00FF4864H   LINE      CODE     ---       #50
      00FF4865H   LINE      CODE     ---       #51
      00FF4866H   LINE      CODE     ---       #52
      00FF4867H   LINE      CODE     ---       #53
      00FF4874H   LINE      CODE     ---       #54
      00FF487CH   LINE      CODE     ---       #55
      00FF487FH   LINE      CODE     ---       #57
      00FF487FH   LINE      CODE     ---       #59
      00FF488CH   LINE      CODE     ---       #60
      00FF4899H   LINE      CODE     ---       #61
      00FF48A6H   LINE      CODE     ---       #62
      00FF48AAH   LINE      CODE     ---       #63
      00FF48ADH   LINE      CODE     ---       #64
      00FF48AEH   LINE      CODE     ---       #65
      00FF48AFH   LINE      CODE     ---       #66
      00FF48B0H   LINE      CODE     ---       #67
      00FF48B1H   LINE      CODE     ---       #68
      00FF48BEH   LINE      CODE     ---       #69
      00FF48C6H   LINE      CODE     ---       #70
      00FF48C9H   LINE      CODE     ---       #72
      00FF48C9H   LINE      CODE     ---       #74
      00FF48D6H   LINE      CODE     ---       #75
L251 LINKER/LOCATER V4.66.93.0                                                        11/05/2024  20:15:43  PAGE 29


      00FF48E3H   LINE      CODE     ---       #76
      00FF48F0H   LINE      CODE     ---       #77
      00FF48F4H   LINE      CODE     ---       #78
      00FF48F7H   LINE      CODE     ---       #79
      00FF48F8H   LINE      CODE     ---       #80
      00FF48F9H   LINE      CODE     ---       #81
      00FF48FAH   LINE      CODE     ---       #82
      00FF48FBH   LINE      CODE     ---       #83
      00FF4908H   LINE      CODE     ---       #84
      00FF4910H   LINE      CODE     ---       #85
      00FF4913H   LINE      CODE     ---       #87
      00FF4913H   LINE      CODE     ---       #89
      00FF4920H   LINE      CODE     ---       #90
      00FF492DH   LINE      CODE     ---       #91
      00FF493AH   LINE      CODE     ---       #92
      00FF493EH   LINE      CODE     ---       #93
      00FF493FH   LINE      CODE     ---       #94
      00FF4940H   LINE      CODE     ---       #95
      00FF4941H   LINE      CODE     ---       #96
      00FF4942H   LINE      CODE     ---       #97
      00FF4945H   LINE      CODE     ---       #98
      00FF4952H   LINE      CODE     ---       #99
      00FF495AH   LINE      CODE     ---       #100
      00FF495DH   LINE      CODE     ---       #102
      00FF495DH   LINE      CODE     ---       #104
      00FF496AH   LINE      CODE     ---       #105
      00FF4977H   LINE      CODE     ---       #106
      00FF4984H   LINE      CODE     ---       #107
      00FF4988H   LINE      CODE     ---       #108
      00FF498BH   LINE      CODE     ---       #109
      00FF498CH   LINE      CODE     ---       #110
      00FF498DH   LINE      CODE     ---       #111
      00FF498EH   LINE      CODE     ---       #112
      00FF498FH   LINE      CODE     ---       #113
      00FF499CH   LINE      CODE     ---       #114
      00FF49A4H   LINE      CODE     ---       #115
      00FF49A7H   LINE      CODE     ---       #117
      00FF49A7H   LINE      CODE     ---       #119
      00FF49B4H   LINE      CODE     ---       #120
      00FF49C1H   LINE      CODE     ---       #121
      00FF49CEH   LINE      CODE     ---       #122
      00FF49D2H   LINE      CODE     ---       #123
      00FF49D5H   LINE      CODE     ---       #124
      00FF49D6H   LINE      CODE     ---       #125
      00FF49D7H   LINE      CODE     ---       #126
      00FF49D8H   LINE      CODE     ---       #127
      00FF49D9H   LINE      CODE     ---       #128
      00FF49E6H   LINE      CODE     ---       #129
      00FF49EEH   LINE      CODE     ---       #130
      00FF49F1H   LINE      CODE     ---       #132
      00FF49F1H   LINE      CODE     ---       #134
      00FF49FEH   LINE      CODE     ---       #135
      00FF4A0BH   LINE      CODE     ---       #136
      00FF4A18H   LINE      CODE     ---       #137
      00FF4A1CH   LINE      CODE     ---       #138
      00FF4A1FH   LINE      CODE     ---       #139
      00FF4A20H   LINE      CODE     ---       #140
      00FF4A21H   LINE      CODE     ---       #141
      00FF4A22H   LINE      CODE     ---       #142
      00FF4A23H   LINE      CODE     ---       #143
      00FF4A30H   LINE      CODE     ---       #144
      00FF4A38H   LINE      CODE     ---       #145
      00FF4A3BH   LINE      CODE     ---       #147
      00FF4A3BH   LINE      CODE     ---       #149
      00FF4A48H   LINE      CODE     ---       #150
L251 LINKER/LOCATER V4.66.93.0                                                        11/05/2024  20:15:43  PAGE 30


      00FF4A55H   LINE      CODE     ---       #151
      00FF4A62H   LINE      CODE     ---       #152
      00FF4A66H   LINE      CODE     ---       #153
      00FF4A69H   LINE      CODE     ---       #154
      00FF4A6AH   LINE      CODE     ---       #155
      00FF4A6BH   LINE      CODE     ---       #156
      00FF4A6CH   LINE      CODE     ---       #157
      00FF4A6DH   LINE      CODE     ---       #158
      00FF4A7AH   LINE      CODE     ---       #159
      00FF4A82H   LINE      CODE     ---       #160
      00FF4A85H   LINE      CODE     ---       #162
      00FF4A85H   LINE      CODE     ---       #164
      00FF4A92H   LINE      CODE     ---       #165
      00FF4A9FH   LINE      CODE     ---       #166
      00FF4AACH   LINE      CODE     ---       #167
      00FF4AB0H   LINE      CODE     ---       #168
      00FF4AB3H   LINE      CODE     ---       #169
      00FF4AB4H   LINE      CODE     ---       #170
      00FF4AB5H   LINE      CODE     ---       #171
      00FF4AB6H   LINE      CODE     ---       #172
      00FF4AB7H   LINE      CODE     ---       #173
      00FF4AC4H   LINE      CODE     ---       #174
      00FF4ACCH   LINE      CODE     ---       #175
      00FF4ACFH   LINE      CODE     ---       #177
      00FF4ACFH   LINE      CODE     ---       #179
      00FF4ADCH   LINE      CODE     ---       #180
      00FF4AE9H   LINE      CODE     ---       #181
      00FF4AF6H   LINE      CODE     ---       #182
      00FF4AFAH   LINE      CODE     ---       #183
      00FF4AFDH   LINE      CODE     ---       #184
      00FF4AFEH   LINE      CODE     ---       #185
      00FF4AFFH   LINE      CODE     ---       #186
      00FF4B00H   LINE      CODE     ---       #187
      00FF4B01H   LINE      CODE     ---       #188
      00FF4B0EH   LINE      CODE     ---       #189
      00FF4B16H   LINE      CODE     ---       #190
      00FF4B19H   LINE      CODE     ---       #192
      00FF4B19H   LINE      CODE     ---       #194
      00FF4B26H   LINE      CODE     ---       #195
      00FF4B33H   LINE      CODE     ---       #196
      00FF4B40H   LINE      CODE     ---       #197
      00FF4B44H   LINE      CODE     ---       #198
      00FF4B48H   LINE      CODE     ---       #199
      00FF4B49H   LINE      CODE     ---       #200
      00FF4B4AH   LINE      CODE     ---       #201
      00FF4B4BH   LINE      CODE     ---       #202
      00FF4B4CH   LINE      CODE     ---       #203
      00FF4B59H   LINE      CODE     ---       #204
      00FF4B61H   LINE      CODE     ---       #205
      00FF4B64H   LINE      CODE     ---       #207
      00FF4B64H   LINE      CODE     ---       #209
      00FF4B71H   LINE      CODE     ---       #210
      00FF4B7EH   LINE      CODE     ---       #211
      00FF4B8BH   LINE      CODE     ---       #212
      00FF4B8FH   LINE      CODE     ---       #213
      00FF4B93H   LINE      CODE     ---       #214
      00FF4B94H   LINE      CODE     ---       #215
      00FF4B95H   LINE      CODE     ---       #216
      00FF4B96H   LINE      CODE     ---       #217
      00FF4B97H   LINE      CODE     ---       #218
      00FF4BA4H   LINE      CODE     ---       #219
      00FF4BACH   LINE      CODE     ---       #220
      00FF4BAFH   LINE      CODE     ---       #222
      00FF4BAFH   LINE      CODE     ---       #224
      00FF4BBCH   LINE      CODE     ---       #225
L251 LINKER/LOCATER V4.66.93.0                                                        11/05/2024  20:15:43  PAGE 31


      00FF4BC9H   LINE      CODE     ---       #226
      00FF4BD6H   LINE      CODE     ---       #227
      00FF4BDAH   LINE      CODE     ---       #228
      00FF4BDEH   LINE      CODE     ---       #229
      00FF4BDFH   LINE      CODE     ---       #230
      00FF4BE0H   LINE      CODE     ---       #231
      00FF4BE1H   LINE      CODE     ---       #232
      00FF4BE2H   LINE      CODE     ---       #233
      00FF4BEFH   LINE      CODE     ---       #234
      00FF4BF7H   LINE      CODE     ---       #235
      00FF4BFAH   LINE      CODE     ---       #237
      00FF4BFAH   LINE      CODE     ---       #239
      00FF4C07H   LINE      CODE     ---       #240
      00FF4C14H   LINE      CODE     ---       #241
      00FF4C21H   LINE      CODE     ---       #242
      00FF4C25H   LINE      CODE     ---       #243
      00FF4C29H   LINE      CODE     ---       #244
      00FF4C2AH   LINE      CODE     ---       #245
      00FF4C2BH   LINE      CODE     ---       #246
      00FF4C2CH   LINE      CODE     ---       #247
      00FF4C2DH   LINE      CODE     ---       #248
      00FF4C3AH   LINE      CODE     ---       #249
      00FF4C42H   LINE      CODE     ---       #250
      00FF4C45H   LINE      CODE     ---       #252
      00FF4C45H   LINE      CODE     ---       #254
      00FF4C52H   LINE      CODE     ---       #255
      00FF4C5FH   LINE      CODE     ---       #256
      00FF4C6CH   LINE      CODE     ---       #257
      00FF4C70H   LINE      CODE     ---       #258
      00FF4C74H   LINE      CODE     ---       #259
      00FF4C75H   LINE      CODE     ---       #260
      00FF4C76H   LINE      CODE     ---       #261
      00FF4C77H   LINE      CODE     ---       #262
      00FF4C78H   LINE      CODE     ---       #263
      00FF4C85H   LINE      CODE     ---       #264
      00FF4C8DH   LINE      CODE     ---       #265
      00FF4C90H   LINE      CODE     ---       #267
      00FF4C90H   LINE      CODE     ---       #269
      00FF4C9DH   LINE      CODE     ---       #270
      00FF4CAAH   LINE      CODE     ---       #271
      00FF4CB7H   LINE      CODE     ---       #272
      00FF4CBBH   LINE      CODE     ---       #273
      00FF4CBFH   LINE      CODE     ---       #274
      00FF4CC0H   LINE      CODE     ---       #275
      00FF4CC1H   LINE      CODE     ---       #276
      00FF4CC2H   LINE      CODE     ---       #277
      00FF4CC3H   LINE      CODE     ---       #278
      00FF4CD0H   LINE      CODE     ---       #279
      00FF4CD8H   LINE      CODE     ---       #280
      00FF4CDBH   LINE      CODE     ---       #282
      00FF4CDBH   LINE      CODE     ---       #284
      00FF4CE8H   LINE      CODE     ---       #285
      00FF4CF5H   LINE      CODE     ---       #286
      00FF4D02H   LINE      CODE     ---       #287
      00FF4D06H   LINE      CODE     ---       #288
      00FF4D0AH   LINE      CODE     ---       #289
      00FF4D0BH   LINE      CODE     ---       #290
      00FF4D0CH   LINE      CODE     ---       #291
      00FF4D0DH   LINE      CODE     ---       #292
      00FF4D0EH   LINE      CODE     ---       #293
      00FF4D1BH   LINE      CODE     ---       #294
      00FF4D23H   LINE      CODE     ---       #295
      00FF4D25H   LINE      CODE     ---       #307
      00FF4D25H   LINE      CODE     ---       #309
      00FF4D32H   LINE      CODE     ---       #310
L251 LINKER/LOCATER V4.66.93.0                                                        11/05/2024  20:15:43  PAGE 32


      00FF4D3FH   LINE      CODE     ---       #311
      00FF4D4CH   LINE      CODE     ---       #312
      00FF4D50H   LINE      CODE     ---       #313
      00FF4D54H   LINE      CODE     ---       #314
      00FF4D55H   LINE      CODE     ---       #315
      00FF4D56H   LINE      CODE     ---       #316
      00FF4D57H   LINE      CODE     ---       #317
      00FF4D58H   LINE      CODE     ---       #318
      00FF4D65H   LINE      CODE     ---       #319
      00FF4D71H   LINE      CODE     ---       #320
      00FF4D71H   LINE      CODE     ---       #321
      00FF4D71H   LINE      CODE     ---       #323
      00FF4D75H   LINE      CODE     ---       #324
      ---         BLOCKEND  ---      ---       LVL=0

      00FF79FFH   BLOCK     CODE     ---       LVL=0
      00001149H   SYMBOL    EDATA    CHAR      c
      00FF79FFH   LINE      CODE     ---       #333
      00FF7A03H   LINE      CODE     ---       #335
      00FF7A0CH   LINE      CODE     ---       #337
      00FF7A10H   LINE      CODE     ---       #338
      ---         BLOCKEND  ---      ---       LVL=0

      00FF0006H   BLOCK     CODE     ---       LVL=0
      00FF0006H   LINE      CODE     ---       #347
      00FF0006H   LINE      CODE     ---       #349
      00FF0009H   LINE      CODE     ---       #350
      ---         BLOCKEND  ---      ---       LVL=0

      00FF7A23H   BLOCK     CODE     ---       LVL=0
      00FF7A23H   LINE      CODE     ---       #385
      00FF7A23H   LINE      CODE     ---       #387
      00FF7A24H   LINE      CODE     ---       #388
      00FF7A25H   LINE      CODE     ---       #389
      00FF7A29H   LINE      CODE     ---       #391
      00FF7A2DH   LINE      CODE     ---       #393
      00FF7A31H   LINE      CODE     ---       #395
      00FF7A32H   LINE      CODE     ---       #396
      00FF7A33H   LINE      CODE     ---       #397
      ---         BLOCKEND  ---      ---       LVL=0

      00FF79C5H   BLOCK     CODE     ---       LVL=0
      00001041H   SYMBOL    EDATA    DWORD     clock
      00FF79C5H   LINE      CODE     ---       #399
      00FF79C9H   LINE      CODE     ---       #401
      00FF79CDH   LINE      CODE     ---       #409
      00FF79D8H   LINE      CODE     ---       #413
      ---         BLOCKEND  ---      ---       LVL=0

      00FF67E4H   BLOCK     CODE     ---       LVL=0
      00FF67E4H   LINE      CODE     ---       #416
      00FF67E4H   LINE      CODE     ---       #419
      00FF67E7H   LINE      CODE     ---       #422
      00FF67EAH   LINE      CODE     ---       #423
      00FF67EDH   LINE      CODE     ---       #424
      00FF67F0H   LINE      CODE     ---       #425
      00FF67F3H   LINE      CODE     ---       #426
      00FF67F6H   LINE      CODE     ---       #427
      00FF67F9H   LINE      CODE     ---       #428
      00FF67FCH   LINE      CODE     ---       #429
      00FF67FFH   LINE      CODE     ---       #430
      00FF6802H   LINE      CODE     ---       #431
      00FF6805H   LINE      CODE     ---       #432
      00FF6808H   LINE      CODE     ---       #433
      00FF680BH   LINE      CODE     ---       #452
L251 LINKER/LOCATER V4.66.93.0                                                        11/05/2024  20:15:43  PAGE 33


      00FF680EH   LINE      CODE     ---       #454
      00FF681EH   LINE      CODE     ---       #459
      00FF6821H   LINE      CODE     ---       #460
      00FF6821H   LINE      CODE     ---       #464
      00FF6824H   LINE      CODE     ---       #465
      00FF6827H   LINE      CODE     ---       #466
      00FF682AH   LINE      CODE     ---       #467
      00FF682DH   LINE      CODE     ---       #468
      00FF6830H   LINE      CODE     ---       #469
      00FF6833H   LINE      CODE     ---       #470
      00FF6836H   LINE      CODE     ---       #471
      00FF6839H   LINE      CODE     ---       #472
      00FF683CH   LINE      CODE     ---       #474
      00FF6857H   LINE      CODE     ---       #475
      00FF685AH   LINE      CODE     ---       #476
      ---         BLOCKEND  ---      ---       LVL=0

      ---         MODULE    ---      ---       common
      00001045H   PUBLIC    EDATA    INT       wireless_type
      00001047H   PUBLIC    EDATA    ---       wireless_module_uart_handler
      000000D0H   SFRSYM    DATA     BYTE      PSW
      0000009DH   SFRSYM    DATA     BYTE      IRCBAND
      00000097H   SFRSYM    DATA     BYTE      AUXR2
      000000EFH   SFRSYM    DATA     BYTE      AUXINTIF
      000000FDH   SFRSYM    DATA     BYTE      S4CON
      000000ACH   SFRSYM    DATA     BYTE      S3CON
      0000009AH   SFRSYM    DATA     BYTE      S2CON
      000000B7H   SFRSYM    DATA     BYTE      IPH
      000000CDH   SFRSYM    DATA     BYTE      SPSTAT
      000000DDH   SFRSYM    DATA     BYTE      T4T3M
      000000C1H   SFRSYM    DATA     BYTE      WDT_CONTR
      000000DFH   SFRSYM    DATA     BYTE      IP3
      000000F4H   SFRSYM    DATA     BYTE      USBCON
      000000B5H   SFRSYM    DATA     BYTE      IP2
      000000FFH   SFRSYM    DATA     BYTE      RSTCFG
      000000C7H   SFRSYM    DATA     BYTE      IAP_CONTR
      000000F9H   SFRSYM    DATA     BYTE      LINICR
      0000008EH   SFRSYM    DATA     BYTE      AUXR
      000000AFH   SFRSYM    DATA     BYTE      IE2
      00000088H   SFRSYM    DATA     BYTE      TCON
      00000089H   SFRSYM    DATA     BYTE      TMOD
      00000098H   SFRSYM    DATA     BYTE      SCON
      000000F1H   SFRSYM    DATA     BYTE      CANICR
      00000087H   SFRSYM    DATA     BYTE      PCON
      000000BCH   SFRSYM    DATA     BYTE      ADC_CONTR
      000000E7H   SFRSYM    DATA     BYTE      CMPCR2
      000000E6H   SFRSYM    DATA     BYTE      CMPCR1
      000000DEH   SFRSYM    DATA     BYTE      ADCCFG
      000000B8H   SFRSYM    DATA     BYTE      IP
      0000008FH   SFRSYM    DATA     BYTE      INTCLKO
      000000EEH   SFRSYM    DATA     BYTE      IP3H
      000000B6H   SFRSYM    DATA     BYTE      IP2H
      000000A8H   SFRSYM    DATA     BYTE      IE
      000000BBH   SFRSYM    DATA     BYTE      P_SW3
      000000BAH   SFRSYM    DATA     BYTE      P_SW2
      000000A2H   SFRSYM    DATA     BYTE      P_SW1
      000000CEH   SFRSYM    DATA     BYTE      SPCTL
      000000F8H   SFRSYM    DATA     BYTE      P7
      000000E8H   SFRSYM    DATA     BYTE      P6
      000000C8H   SFRSYM    DATA     BYTE      P5
      000000C0H   SFRSYM    DATA     BYTE      P4
      000000B0H   SFRSYM    DATA     BYTE      P3
      000000A0H   SFRSYM    DATA     BYTE      P2
      00000090H   SFRSYM    DATA     BYTE      P1
      00000080H   SFRSYM    DATA     BYTE      P0
L251 LINKER/LOCATER V4.66.93.0                                                        11/05/2024  20:15:43  PAGE 34



      ---         MODULE    ---      ---       STC32F_FPMU
      00FF7A5AH   PUBLIC    CODE     ---       ?C?CASTF
      00FF7A60H   PUBLIC    CODE     ---       ?C?FCASTI
      00FF0056H   PUBLIC    CODE     ---       ?C?FCASTL
      00FF0046H   PUBLIC    CODE     ---       ?C?FPCMP3
      00FF001EH   PUBLIC    CODE     ---       ?C?FPDIV
      00FF0016H   PUBLIC    CODE     ---       ?C?FPMUL
      00FF000EH   PUBLIC    CODE     ---       ?C?FPSUB
      000000E0H   SFRSYM    DATA     BYTE      ACC
      000000EDH   SFRSYM    DATA     BYTE      DMAIR
      00000083H   SFRSYM    DATA     BYTE      DPH
      00000082H   SFRSYM    DATA     BYTE      DPL
      0000001CH   SYMBOL    NUMBER   ---       DMA_FPADD
      00000030H   SYMBOL    NUMBER   ---       DMA_FPATAN
      00000027H   SYMBOL    NUMBER   ---       DMA_FPCLD
      00000032H   SYMBOL    NUMBER   ---       DMA_FPCLEX
      00000021H   SYMBOL    NUMBER   ---       DMA_FPCMP
      0000002EH   SYMBOL    NUMBER   ---       DMA_FPCOS
      00000035H   SYMBOL    NUMBER   ---       DMA_FPCRR
      00000036H   SYMBOL    NUMBER   ---       DMA_FPCRW
      00000023H   SYMBOL    NUMBER   ---       DMA_FPCST
      0000001FH   SYMBOL    NUMBER   ---       DMA_FPDIV
      00000028H   SYMBOL    NUMBER   ---       DMA_FPILD
      00000031H   SYMBOL    NUMBER   ---       DMA_FPINIT
      00000024H   SYMBOL    NUMBER   ---       DMA_FPIST
      00000029H   SYMBOL    NUMBER   ---       DMA_FPLLD
      00000025H   SYMBOL    NUMBER   ---       DMA_FPLST
      0000001EH   SYMBOL    NUMBER   ---       DMA_FPMUL
      0000002DH   SYMBOL    NUMBER   ---       DMA_FPSIN
      00000020H   SYMBOL    NUMBER   ---       DMA_FPSQRT
      00000033H   SYMBOL    NUMBER   ---       DMA_FPSRR
      00000034H   SYMBOL    NUMBER   ---       DMA_FPSRW
      0000001DH   SYMBOL    NUMBER   ---       DMA_FPSUB
      0000002FH   SYMBOL    NUMBER   ---       DMA_FPTAN
      00000022H   SYMBOL    NUMBER   ---       DMA_FPXAM
      00000001H   SYMBOL    NUMBER   ---       FP_CONV_EN
      00000001H   SYMBOL    NUMBER   ---       FP_REGS_EN
      00000001H   SYMBOL    NUMBER   ---       FP_TRIG_EN

      00FF000EH   BLOCK     CODE     NEAR LAB  LVL=0
      00FF000EH   LINE      CODE     ---       #72
      00FF0011H   LINE      CODE     ---       #73
      ---         BLOCKEND  ---      ---       LVL=0

      00FF0016H   BLOCK     CODE     NEAR LAB  LVL=0
      00FF0016H   LINE      CODE     ---       #82
      00FF0019H   LINE      CODE     ---       #83
      ---         BLOCKEND  ---      ---       LVL=0

      00FF001EH   BLOCK     CODE     NEAR LAB  LVL=0
      00FF001EH   LINE      CODE     ---       #92
      00FF0021H   LINE      CODE     ---       #93
      ---         BLOCKEND  ---      ---       LVL=0

      00FF0046H   BLOCK     CODE     NEAR LAB  LVL=0
      00FF0046H   LINE      CODE     ---       #113
      00FF0049H   LINE      CODE     ---       #114
      00FF004BH   LINE      CODE     ---       #115
      00FF004DH   LINE      CODE     ---       #116
      00FF004FH   LINE      CODE     ---       #117
      00FF0051H   LINE      CODE     ---       #118
      ---         BLOCKEND  ---      ---       LVL=0

      00FF7A5AH   BLOCK     CODE     NEAR LAB  LVL=0
L251 LINKER/LOCATER V4.66.93.0                                                        11/05/2024  20:15:43  PAGE 35


      00FF7A5AH   LINE      CODE     ---       #213
      00FF7A5DH   LINE      CODE     ---       #214
      00FF7A5FH   LINE      CODE     ---       #215
      ---         BLOCKEND  ---      ---       LVL=0

      00FF7A60H   BLOCK     CODE     NEAR LAB  LVL=0
      00FF7A60H   LINE      CODE     ---       #235
      00FF7A62H   LINE      CODE     ---       #236
      00FF7A65H   LINE      CODE     ---       #237
      ---         BLOCKEND  ---      ---       LVL=0

      00FF0056H   BLOCK     CODE     NEAR LAB  LVL=0
      00FF0056H   LINE      CODE     ---       #246
      00FF0059H   LINE      CODE     ---       #247
      ---         BLOCKEND  ---      ---       LVL=0

      ---         MODULE    ---      ---       zf_adc
      00FF6E44H   PUBLIC    CODE     ---       adc_once
      00FF640DH   PUBLIC    CODE     ---       adc_init
      00000094H   SFRSYM    DATA     BYTE      P0M0
      000000D0H   SFRSYM    DATA     BYTE      PSW
      0000009DH   SFRSYM    DATA     BYTE      IRCBAND
      00000097H   SFRSYM    DATA     BYTE      AUXR2
      000000EFH   SFRSYM    DATA     BYTE      AUXINTIF
      000000FDH   SFRSYM    DATA     BYTE      S4CON
      000000ACH   SFRSYM    DATA     BYTE      S3CON
      0000009AH   SFRSYM    DATA     BYTE      S2CON
      000000B7H   SFRSYM    DATA     BYTE      IPH
      000000CDH   SFRSYM    DATA     BYTE      SPSTAT
      000000BEH   SFRSYM    DATA     BYTE      ADC_RESL
      000000DDH   SFRSYM    DATA     BYTE      T4T3M
      000000C1H   SFRSYM    DATA     BYTE      WDT_CONTR
      000000DFH   SFRSYM    DATA     BYTE      IP3
      000000F4H   SFRSYM    DATA     BYTE      USBCON
      000000B5H   SFRSYM    DATA     BYTE      IP2
      000000FFH   SFRSYM    DATA     BYTE      RSTCFG
      000000C7H   SFRSYM    DATA     BYTE      IAP_CONTR
      000000F9H   SFRSYM    DATA     BYTE      LINICR
      0000008EH   SFRSYM    DATA     BYTE      AUXR
      000000AFH   SFRSYM    DATA     BYTE      IE2
      00000088H   SFRSYM    DATA     BYTE      TCON
      00000089H   SFRSYM    DATA     BYTE      TMOD
      00000098H   SFRSYM    DATA     BYTE      SCON
      000000F1H   SFRSYM    DATA     BYTE      CANICR
      00000087H   SFRSYM    DATA     BYTE      PCON
      000000BCH   SFRSYM    DATA     BYTE      ADC_CONTR
      000000E7H   SFRSYM    DATA     BYTE      CMPCR2
      000000E6H   SFRSYM    DATA     BYTE      CMPCR1
      000000DEH   SFRSYM    DATA     BYTE      ADCCFG
      000000B8H   SFRSYM    DATA     BYTE      IP
      0000008FH   SFRSYM    DATA     BYTE      INTCLKO
      000000EEH   SFRSYM    DATA     BYTE      IP3H
      000000B6H   SFRSYM    DATA     BYTE      IP2H
      000000BDH   SFRSYM    DATA     BYTE      ADC_RES
      000000A8H   SFRSYM    DATA     BYTE      IE
      000000BBH   SFRSYM    DATA     BYTE      P_SW3
      000000BAH   SFRSYM    DATA     BYTE      P_SW2
      000000A2H   SFRSYM    DATA     BYTE      P_SW1
      000000CEH   SFRSYM    DATA     BYTE      SPCTL
      000000F8H   SFRSYM    DATA     BYTE      P7
      000000E8H   SFRSYM    DATA     BYTE      P6
      000000C8H   SFRSYM    DATA     BYTE      P5
      000000C0H   SFRSYM    DATA     BYTE      P4
      000000B0H   SFRSYM    DATA     BYTE      P3
      000000A0H   SFRSYM    DATA     BYTE      P2
L251 LINKER/LOCATER V4.66.93.0                                                        11/05/2024  20:15:43  PAGE 36


      00000090H   SFRSYM    DATA     BYTE      P1
      00000080H   SFRSYM    DATA     BYTE      P0
      00000091H   SFRSYM    DATA     BYTE      P1M1
      00000092H   SFRSYM    DATA     BYTE      P1M0
      00000093H   SFRSYM    DATA     BYTE      P0M1

      00FF640DH   BLOCK     CODE     ---       LVL=0
      00001049H   SYMBOL    EDATA    INT       adcn
      0000104BH   SYMBOL    EDATA    INT       speed
      00FF640DH   LINE      CODE     ---       #32
      00FF6415H   LINE      CODE     ---       #34
      00FF6418H   LINE      CODE     ---       #36
      00FF641BH   LINE      CODE     ---       #37
      00FF6423H   LINE      CODE     ---       #39
      00FF6435H   LINE      CODE     ---       #42
      00FF6450H   LINE      CODE     ---       #43
      00FF6469H   LINE      CODE     ---       #44
      00FF646BH   LINE      CODE     ---       #45
      00FF647BH   LINE      CODE     ---       #48
      00FF6496H   LINE      CODE     ---       #49
      00FF64AFH   LINE      CODE     ---       #50
      00FF64AFH   LINE      CODE     ---       #52
      00FF64BEH   LINE      CODE     ---       #54
      00FF64C1H   LINE      CODE     ---       #55
      ---         BLOCKEND  ---      ---       LVL=0

      00FF6E44H   BLOCK     CODE     ---       LVL=0
      00000F65H   SYMBOL    EDATA    INT       adcn
      00000F67H   SYMBOL    EDATA    INT       resolution
      00FF6E4CH   BLOCK     CODE     NEAR LAB  LVL=1
      00000F69H   SYMBOL    EDATA    WORD      adc_value
      ---         BLOCKEND  ---      ---       LVL=1
      00FF6E44H   LINE      CODE     ---       #66
      00FF6E4CH   LINE      CODE     ---       #67
      00FF6E4CH   LINE      CODE     ---       #70
      00FF6E4FH   LINE      CODE     ---       #71
      00FF6E57H   LINE      CODE     ---       #73
      00FF6E5AH   LINE      CODE     ---       #74
      00FF6E5FH   LINE      CODE     ---       #75
      00FF6E62H   LINE      CODE     ---       #77
      00FF6E6AH   LINE      CODE     ---       #78
      00FF6E72H   LINE      CODE     ---       #79
      00FF6E80H   LINE      CODE     ---       #81
      00FF6E83H   LINE      CODE     ---       #82
      00FF6E86H   LINE      CODE     ---       #84
      00FF6E99H   LINE      CODE     ---       #87
      00FF6E99H   LINE      CODE     ---       #88
      ---         BLOCKEND  ---      ---       LVL=0

      ---         MODULE    ---      ---       zf_delay
      00FF7744H   PUBLIC    CODE     ---       delay_init
      00FF7507H   PUBLIC    CODE     ---       delay_ms
      0000104DH   PUBLIC    EDATA    WORD      zf_delay_ms
      0000104FH   PUBLIC    EDATA    WORD      zf_delay_us
      000000D0H   SFRSYM    DATA     BYTE      PSW
      0000009DH   SFRSYM    DATA     BYTE      IRCBAND
      00000097H   SFRSYM    DATA     BYTE      AUXR2
      000000EFH   SFRSYM    DATA     BYTE      AUXINTIF
      000000FDH   SFRSYM    DATA     BYTE      S4CON
      000000ACH   SFRSYM    DATA     BYTE      S3CON
      0000009AH   SFRSYM    DATA     BYTE      S2CON
      000000B7H   SFRSYM    DATA     BYTE      IPH
      000000CDH   SFRSYM    DATA     BYTE      SPSTAT
      000000DDH   SFRSYM    DATA     BYTE      T4T3M
      000000C1H   SFRSYM    DATA     BYTE      WDT_CONTR
L251 LINKER/LOCATER V4.66.93.0                                                        11/05/2024  20:15:43  PAGE 37


      000000DFH   SFRSYM    DATA     BYTE      IP3
      000000F4H   SFRSYM    DATA     BYTE      USBCON
      000000B5H   SFRSYM    DATA     BYTE      IP2
      000000FFH   SFRSYM    DATA     BYTE      RSTCFG
      000000C7H   SFRSYM    DATA     BYTE      IAP_CONTR
      000000F9H   SFRSYM    DATA     BYTE      LINICR
      0000008EH   SFRSYM    DATA     BYTE      AUXR
      000000AFH   SFRSYM    DATA     BYTE      IE2
      00000088H   SFRSYM    DATA     BYTE      TCON
      00000089H   SFRSYM    DATA     BYTE      TMOD
      00000098H   SFRSYM    DATA     BYTE      SCON
      000000F1H   SFRSYM    DATA     BYTE      CANICR
      00000087H   SFRSYM    DATA     BYTE      PCON
      000000BCH   SFRSYM    DATA     BYTE      ADC_CONTR
      000000E7H   SFRSYM    DATA     BYTE      CMPCR2
      000000E6H   SFRSYM    DATA     BYTE      CMPCR1
      000000DEH   SFRSYM    DATA     BYTE      ADCCFG
      000000B8H   SFRSYM    DATA     BYTE      IP
      0000008FH   SFRSYM    DATA     BYTE      INTCLKO
      000000EEH   SFRSYM    DATA     BYTE      IP3H
      000000B6H   SFRSYM    DATA     BYTE      IP2H
      000000A8H   SFRSYM    DATA     BYTE      IE
      000000BBH   SFRSYM    DATA     BYTE      P_SW3
      000000BAH   SFRSYM    DATA     BYTE      P_SW2
      000000A2H   SFRSYM    DATA     BYTE      P_SW1
      000000CEH   SFRSYM    DATA     BYTE      SPCTL
      000000F8H   SFRSYM    DATA     BYTE      P7
      000000E8H   SFRSYM    DATA     BYTE      P6
      000000C8H   SFRSYM    DATA     BYTE      P5
      000000C0H   SFRSYM    DATA     BYTE      P4
      000000B0H   SFRSYM    DATA     BYTE      P3
      000000A0H   SFRSYM    DATA     BYTE      P2
      00000090H   SFRSYM    DATA     BYTE      P1
      00000080H   SFRSYM    DATA     BYTE      P0

      00FF7744H   BLOCK     CODE     ---       LVL=0
      00FF7744H   LINE      CODE     ---       #34
      00FF7744H   LINE      CODE     ---       #36
      00FF7753H   LINE      CODE     ---       #37
      00FF7766H   LINE      CODE     ---       #38
      ---         BLOCKEND  ---      ---       LVL=0

      00FF7507H   BLOCK     CODE     ---       LVL=0
      00001051H   SYMBOL    EDATA    WORD      ms
      00FF750BH   BLOCK     CODE     NEAR LAB  LVL=1
      00001053H   SYMBOL    EDATA    WORD      i
      ---         BLOCKEND  ---      ---       LVL=1
      00FF7507H   LINE      CODE     ---       #46
      00FF750BH   LINE      CODE     ---       #47
      00FF750BH   LINE      CODE     ---       #49
      00FF750BH   LINE      CODE     ---       #50
      00FF7513H   LINE      CODE     ---       #51
      00FF7527H   LINE      CODE     ---       #52
      00FF753BH   LINE      CODE     ---       #53
      ---         BLOCKEND  ---      ---       LVL=0
      00000F6BH   SYMBOL    EDATA    DWORD     us
      00000F6FH   SYMBOL    EDATA    WORD      i

      ---         MODULE    ---      ---       zf_eeprom
      00000CF9H   PUBLIC    EDATA    BYTE      ?iap_read_bytes?BYTE
      00000D03H   PUBLIC    EDATA    BYTE      ?iap_write_bytes?BYTE
      000000D0H   SFRSYM    DATA     BYTE      PSW
      0000009DH   SFRSYM    DATA     BYTE      IRCBAND
      000000D0H.5 SFRSYM    DATA     BIT       F0
      00000097H   SFRSYM    DATA     BYTE      AUXR2
L251 LINKER/LOCATER V4.66.93.0                                                        11/05/2024  20:15:43  PAGE 38


      000000C6H   SFRSYM    DATA     BYTE      IAP_TRIG
      000000EFH   SFRSYM    DATA     BYTE      AUXINTIF
      000000FDH   SFRSYM    DATA     BYTE      S4CON
      000000ACH   SFRSYM    DATA     BYTE      S3CON
      0000009AH   SFRSYM    DATA     BYTE      S2CON
      000000B7H   SFRSYM    DATA     BYTE      IPH
      000000CDH   SFRSYM    DATA     BYTE      SPSTAT
      000000DDH   SFRSYM    DATA     BYTE      T4T3M
      000000C1H   SFRSYM    DATA     BYTE      WDT_CONTR
      000000C2H   SFRSYM    DATA     BYTE      IAP_DATA
      000000DFH   SFRSYM    DATA     BYTE      IP3
      000000F4H   SFRSYM    DATA     BYTE      USBCON
      000000B5H   SFRSYM    DATA     BYTE      IP2
      000000FFH   SFRSYM    DATA     BYTE      RSTCFG
      000000C7H   SFRSYM    DATA     BYTE      IAP_CONTR
      000000F9H   SFRSYM    DATA     BYTE      LINICR
      0000008EH   SFRSYM    DATA     BYTE      AUXR
      000000AFH   SFRSYM    DATA     BYTE      IE2
      00000088H   SFRSYM    DATA     BYTE      TCON
      00000089H   SFRSYM    DATA     BYTE      TMOD
      00000098H   SFRSYM    DATA     BYTE      SCON
      000000F5H   SFRSYM    DATA     BYTE      IAP_TPS
      000000F1H   SFRSYM    DATA     BYTE      CANICR
      00000087H   SFRSYM    DATA     BYTE      PCON
      000000BCH   SFRSYM    DATA     BYTE      ADC_CONTR
      000000E7H   SFRSYM    DATA     BYTE      CMPCR2
      000000E6H   SFRSYM    DATA     BYTE      CMPCR1
      000000C4H   SFRSYM    DATA     BYTE      IAP_ADDRL
      000000C3H   SFRSYM    DATA     BYTE      IAP_ADDRH
      000000F6H   SFRSYM    DATA     BYTE      IAP_ADDRE
      000000DEH   SFRSYM    DATA     BYTE      ADCCFG
      000000B8H   SFRSYM    DATA     BYTE      IP
      0000008FH   SFRSYM    DATA     BYTE      INTCLKO
      000000EEH   SFRSYM    DATA     BYTE      IP3H
      000000B6H   SFRSYM    DATA     BYTE      IP2H
      000000C5H   SFRSYM    DATA     BYTE      IAP_CMD
      000000A8H   SFRSYM    DATA     BYTE      IE
      000000BBH   SFRSYM    DATA     BYTE      P_SW3
      000000BAH   SFRSYM    DATA     BYTE      P_SW2
      000000A2H   SFRSYM    DATA     BYTE      P_SW1
      000000CEH   SFRSYM    DATA     BYTE      SPCTL
      000000F8H   SFRSYM    DATA     BYTE      P7
      000000A8H.7 SFRSYM    DATA     BIT       EA
      000000E8H   SFRSYM    DATA     BYTE      P6
      000000C8H   SFRSYM    DATA     BYTE      P5
      000000C0H   SFRSYM    DATA     BYTE      P4
      000000B0H   SFRSYM    DATA     BYTE      P3
      000000A0H   SFRSYM    DATA     BYTE      P2
      00000090H   SFRSYM    DATA     BYTE      P1
      00000080H   SFRSYM    DATA     BYTE      P0
      0000114AH   SYMBOL    EDATA    BYTE      write_time
      00000CF9H   SYMBOL    EDATA    DWORD     addr
      00000CFDH   SYMBOL    EDATA    ---       buf
      00000D01H   SYMBOL    EDATA    WORD      len
      00000D03H   SYMBOL    EDATA    DWORD     addr
      00000D07H   SYMBOL    EDATA    ---       buf
      00000D0BH   SYMBOL    EDATA    WORD      len
      00001055H   SYMBOL    EDATA    DWORD     addr

      ---         MODULE    ---      ---       zf_exti
      000000D0H   SFRSYM    DATA     BYTE      PSW
      0000009DH   SFRSYM    DATA     BYTE      IRCBAND
      00000097H   SFRSYM    DATA     BYTE      AUXR2
      000000EFH   SFRSYM    DATA     BYTE      AUXINTIF
      000000FDH   SFRSYM    DATA     BYTE      S4CON
L251 LINKER/LOCATER V4.66.93.0                                                        11/05/2024  20:15:43  PAGE 39


      000000ACH   SFRSYM    DATA     BYTE      S3CON
      0000009AH   SFRSYM    DATA     BYTE      S2CON
      000000B7H   SFRSYM    DATA     BYTE      IPH
      000000CDH   SFRSYM    DATA     BYTE      SPSTAT
      000000DDH   SFRSYM    DATA     BYTE      T4T3M
      000000C1H   SFRSYM    DATA     BYTE      WDT_CONTR
      00000088H.2 SFRSYM    DATA     BIT       IT1
      000000A8H.2 SFRSYM    DATA     BIT       EX1
      00000088H.0 SFRSYM    DATA     BIT       IT0
      000000A8H.0 SFRSYM    DATA     BIT       EX0
      000000DFH   SFRSYM    DATA     BYTE      IP3
      000000F4H   SFRSYM    DATA     BYTE      USBCON
      000000B5H   SFRSYM    DATA     BYTE      IP2
      000000FFH   SFRSYM    DATA     BYTE      RSTCFG
      000000C7H   SFRSYM    DATA     BYTE      IAP_CONTR
      000000F9H   SFRSYM    DATA     BYTE      LINICR
      0000008EH   SFRSYM    DATA     BYTE      AUXR
      000000AFH   SFRSYM    DATA     BYTE      IE2
      00000088H   SFRSYM    DATA     BYTE      TCON
      00000089H   SFRSYM    DATA     BYTE      TMOD
      00000098H   SFRSYM    DATA     BYTE      SCON
      000000F1H   SFRSYM    DATA     BYTE      CANICR
      00000087H   SFRSYM    DATA     BYTE      PCON
      000000BCH   SFRSYM    DATA     BYTE      ADC_CONTR
      000000E7H   SFRSYM    DATA     BYTE      CMPCR2
      000000E6H   SFRSYM    DATA     BYTE      CMPCR1
      000000DEH   SFRSYM    DATA     BYTE      ADCCFG
      000000B8H   SFRSYM    DATA     BYTE      IP
      0000008FH   SFRSYM    DATA     BYTE      INTCLKO
      000000EEH   SFRSYM    DATA     BYTE      IP3H
      000000B6H   SFRSYM    DATA     BYTE      IP2H
      000000A8H   SFRSYM    DATA     BYTE      IE
      000000BBH   SFRSYM    DATA     BYTE      P_SW3
      000000BAH   SFRSYM    DATA     BYTE      P_SW2
      000000A2H   SFRSYM    DATA     BYTE      P_SW1
      000000CEH   SFRSYM    DATA     BYTE      SPCTL
      000000F8H   SFRSYM    DATA     BYTE      P7
      000000E8H   SFRSYM    DATA     BYTE      P6
      000000C8H   SFRSYM    DATA     BYTE      P5
      000000C0H   SFRSYM    DATA     BYTE      P4
      000000B0H   SFRSYM    DATA     BYTE      P3
      000000A0H   SFRSYM    DATA     BYTE      P2
      00000090H   SFRSYM    DATA     BYTE      P1
      00000080H   SFRSYM    DATA     BYTE      P0
      00001059H   SYMBOL    EDATA    INT       int_n
      0000105BH   SYMBOL    EDATA    INT       mode

      ---         MODULE    ---      ---       zf_gpio
      00FF374DH   PUBLIC    CODE     ---       gpio_mode
      00000094H   SFRSYM    DATA     BYTE      P0M0
      000000D0H   SFRSYM    DATA     BYTE      PSW
      0000009DH   SFRSYM    DATA     BYTE      IRCBAND
      00000097H   SFRSYM    DATA     BYTE      AUXR2
      000000EFH   SFRSYM    DATA     BYTE      AUXINTIF
      000000FDH   SFRSYM    DATA     BYTE      S4CON
      000000ACH   SFRSYM    DATA     BYTE      S3CON
      0000009AH   SFRSYM    DATA     BYTE      S2CON
      000000B7H   SFRSYM    DATA     BYTE      IPH
      000000CDH   SFRSYM    DATA     BYTE      SPSTAT
      000000DDH   SFRSYM    DATA     BYTE      T4T3M
      000000C1H   SFRSYM    DATA     BYTE      WDT_CONTR
      000000DFH   SFRSYM    DATA     BYTE      IP3
      000000F4H   SFRSYM    DATA     BYTE      USBCON
      000000B5H   SFRSYM    DATA     BYTE      IP2
      000000FFH   SFRSYM    DATA     BYTE      RSTCFG
L251 LINKER/LOCATER V4.66.93.0                                                        11/05/2024  20:15:43  PAGE 40


      000000C7H   SFRSYM    DATA     BYTE      IAP_CONTR
      000000F9H   SFRSYM    DATA     BYTE      LINICR
      0000008EH   SFRSYM    DATA     BYTE      AUXR
      000000AFH   SFRSYM    DATA     BYTE      IE2
      00000088H   SFRSYM    DATA     BYTE      TCON
      00000089H   SFRSYM    DATA     BYTE      TMOD
      00000098H   SFRSYM    DATA     BYTE      SCON
      000000F1H   SFRSYM    DATA     BYTE      CANICR
      00000087H   SFRSYM    DATA     BYTE      PCON
      000000BCH   SFRSYM    DATA     BYTE      ADC_CONTR
      000000E7H   SFRSYM    DATA     BYTE      CMPCR2
      000000E6H   SFRSYM    DATA     BYTE      CMPCR1
      000000DEH   SFRSYM    DATA     BYTE      ADCCFG
      000000B8H   SFRSYM    DATA     BYTE      IP
      0000008FH   SFRSYM    DATA     BYTE      INTCLKO
      000000EEH   SFRSYM    DATA     BYTE      IP3H
      000000B6H   SFRSYM    DATA     BYTE      IP2H
      000000A8H   SFRSYM    DATA     BYTE      IE
      000000BBH   SFRSYM    DATA     BYTE      P_SW3
      000000BAH   SFRSYM    DATA     BYTE      P_SW2
      000000A2H   SFRSYM    DATA     BYTE      P_SW1
      000000CEH   SFRSYM    DATA     BYTE      SPCTL
      000000F8H   SFRSYM    DATA     BYTE      P7
      000000E1H   SFRSYM    DATA     BYTE      P7M1
      000000E8H   SFRSYM    DATA     BYTE      P6
      000000C8H   SFRSYM    DATA     BYTE      P5
      000000CBH   SFRSYM    DATA     BYTE      P6M1
      000000E2H   SFRSYM    DATA     BYTE      P7M0
      000000C0H   SFRSYM    DATA     BYTE      P4
      000000C9H   SFRSYM    DATA     BYTE      P5M1
      000000CCH   SFRSYM    DATA     BYTE      P6M0
      000000B0H   SFRSYM    DATA     BYTE      P3
      000000B3H   SFRSYM    DATA     BYTE      P4M1
      000000CAH   SFRSYM    DATA     BYTE      P5M0
      000000A0H   SFRSYM    DATA     BYTE      P2
      000000B1H   SFRSYM    DATA     BYTE      P3M1
      000000B4H   SFRSYM    DATA     BYTE      P4M0
      00000090H   SFRSYM    DATA     BYTE      P1
      00000095H   SFRSYM    DATA     BYTE      P2M1
      000000B2H   SFRSYM    DATA     BYTE      P3M0
      00000080H   SFRSYM    DATA     BYTE      P0
      00000091H   SFRSYM    DATA     BYTE      P1M1
      00000096H   SFRSYM    DATA     BYTE      P2M0
      00000092H   SFRSYM    DATA     BYTE      P1M0
      00000093H   SFRSYM    DATA     BYTE      P0M1
      0000105DH   SYMBOL    EDATA    INT       pin
      0000105FH   SYMBOL    EDATA    INT       pull

      00FF374DH   BLOCK     CODE     ---       LVL=0
      00001061H   SYMBOL    EDATA    INT       pin
      00001063H   SYMBOL    EDATA    INT       mode
      00FF374DH   LINE      CODE     ---       #54
      00FF3755H   LINE      CODE     ---       #56
      00FF3762H   LINE      CODE     ---       #58
      00FF3772H   LINE      CODE     ---       #60
      00FF378DH   LINE      CODE     ---       #61
      00FF37A8H   LINE      CODE     ---       #62
      00FF37A8H   LINE      CODE     ---       #63
      00FF37BAH   LINE      CODE     ---       #65
      00FF37D5H   LINE      CODE     ---       #66
      00FF37F0H   LINE      CODE     ---       #67
      00FF37F0H   LINE      CODE     ---       #68
      00FF3802H   LINE      CODE     ---       #70
      00FF381DH   LINE      CODE     ---       #71
      00FF3838H   LINE      CODE     ---       #72
L251 LINKER/LOCATER V4.66.93.0                                                        11/05/2024  20:15:43  PAGE 41


      00FF3838H   LINE      CODE     ---       #74
      00FF384AH   LINE      CODE     ---       #76
      00FF3865H   LINE      CODE     ---       #77
      00FF3880H   LINE      CODE     ---       #78
      00FF3880H   LINE      CODE     ---       #79
      00FF3892H   LINE      CODE     ---       #81
      00FF38ADH   LINE      CODE     ---       #82
      00FF38C8H   LINE      CODE     ---       #83
      00FF38C8H   LINE      CODE     ---       #84
      00FF38DAH   LINE      CODE     ---       #86
      00FF38F5H   LINE      CODE     ---       #87
      00FF3910H   LINE      CODE     ---       #88
      00FF3910H   LINE      CODE     ---       #89
      00FF3922H   LINE      CODE     ---       #91
      00FF393DH   LINE      CODE     ---       #92
      00FF3958H   LINE      CODE     ---       #93
      00FF3958H   LINE      CODE     ---       #94
      00FF396DH   LINE      CODE     ---       #96
      00FF3988H   LINE      CODE     ---       #97
      00FF39A3H   LINE      CODE     ---       #98
      00FF39A6H   LINE      CODE     ---       #100
      00FF39B5H   LINE      CODE     ---       #102
      00FF39C5H   LINE      CODE     ---       #104
      00FF39E0H   LINE      CODE     ---       #105
      00FF39F9H   LINE      CODE     ---       #106
      00FF39F9H   LINE      CODE     ---       #107
      00FF3A0BH   LINE      CODE     ---       #109
      00FF3A26H   LINE      CODE     ---       #110
      00FF3A3FH   LINE      CODE     ---       #111
      00FF3A3FH   LINE      CODE     ---       #112
      00FF3A51H   LINE      CODE     ---       #114
      00FF3A6CH   LINE      CODE     ---       #115
      00FF3A85H   LINE      CODE     ---       #116
      00FF3A85H   LINE      CODE     ---       #118
      00FF3A97H   LINE      CODE     ---       #120
      00FF3AB2H   LINE      CODE     ---       #121
      00FF3ACBH   LINE      CODE     ---       #122
      00FF3ACBH   LINE      CODE     ---       #123
      00FF3ADDH   LINE      CODE     ---       #125
      00FF3AF8H   LINE      CODE     ---       #126
      00FF3B11H   LINE      CODE     ---       #127
      00FF3B11H   LINE      CODE     ---       #128
      00FF3B23H   LINE      CODE     ---       #130
      00FF3B3EH   LINE      CODE     ---       #131
      00FF3B57H   LINE      CODE     ---       #132
      00FF3B57H   LINE      CODE     ---       #133
      00FF3B69H   LINE      CODE     ---       #135
      00FF3B84H   LINE      CODE     ---       #136
      00FF3B9DH   LINE      CODE     ---       #137
      00FF3B9DH   LINE      CODE     ---       #138
      00FF3BB2H   LINE      CODE     ---       #140
      00FF3BCDH   LINE      CODE     ---       #141
      00FF3BE6H   LINE      CODE     ---       #142
      00FF3BE9H   LINE      CODE     ---       #145
      00FF3BF8H   LINE      CODE     ---       #147
      00FF3C08H   LINE      CODE     ---       #149
      00FF3C21H   LINE      CODE     ---       #150
      00FF3C3CH   LINE      CODE     ---       #151
      00FF3C3CH   LINE      CODE     ---       #152
      00FF3C4EH   LINE      CODE     ---       #154
      00FF3C67H   LINE      CODE     ---       #155
      00FF3C82H   LINE      CODE     ---       #156
      00FF3C82H   LINE      CODE     ---       #157
      00FF3C94H   LINE      CODE     ---       #159
      00FF3CADH   LINE      CODE     ---       #160
L251 LINKER/LOCATER V4.66.93.0                                                        11/05/2024  20:15:43  PAGE 42


      00FF3CC8H   LINE      CODE     ---       #161
      00FF3CC8H   LINE      CODE     ---       #163
      00FF3CDAH   LINE      CODE     ---       #165
      00FF3CF3H   LINE      CODE     ---       #166
      00FF3D0EH   LINE      CODE     ---       #167
      00FF3D0EH   LINE      CODE     ---       #168
      00FF3D20H   LINE      CODE     ---       #170
      00FF3D39H   LINE      CODE     ---       #171
      00FF3D54H   LINE      CODE     ---       #172
      00FF3D54H   LINE      CODE     ---       #173
      00FF3D66H   LINE      CODE     ---       #175
      00FF3D7FH   LINE      CODE     ---       #176
      00FF3D9AH   LINE      CODE     ---       #177
      00FF3D9AH   LINE      CODE     ---       #178
      00FF3DACH   LINE      CODE     ---       #180
      00FF3DC5H   LINE      CODE     ---       #181
      00FF3DE0H   LINE      CODE     ---       #182
      00FF3DE0H   LINE      CODE     ---       #183
      00FF3DF5H   LINE      CODE     ---       #185
      00FF3E0EH   LINE      CODE     ---       #186
      00FF3E29H   LINE      CODE     ---       #187
      00FF3E2CH   LINE      CODE     ---       #189
      00FF3E3BH   LINE      CODE     ---       #191
      00FF3E4BH   LINE      CODE     ---       #193
      00FF3E64H   LINE      CODE     ---       #194
      00FF3E7DH   LINE      CODE     ---       #195
      00FF3E7DH   LINE      CODE     ---       #196
      00FF3E8FH   LINE      CODE     ---       #198
      00FF3EA8H   LINE      CODE     ---       #199
      00FF3EC1H   LINE      CODE     ---       #200
      00FF3EC1H   LINE      CODE     ---       #201
      00FF3ED3H   LINE      CODE     ---       #203
      00FF3EECH   LINE      CODE     ---       #204
      00FF3F05H   LINE      CODE     ---       #205
      00FF3F05H   LINE      CODE     ---       #207
      00FF3F17H   LINE      CODE     ---       #209
      00FF3F30H   LINE      CODE     ---       #210
      00FF3F49H   LINE      CODE     ---       #211
      00FF3F49H   LINE      CODE     ---       #212
      00FF3F5BH   LINE      CODE     ---       #214
      00FF3F74H   LINE      CODE     ---       #215
      00FF3F8DH   LINE      CODE     ---       #216
      00FF3F8DH   LINE      CODE     ---       #217
      00FF3F9FH   LINE      CODE     ---       #219
      00FF3FB8H   LINE      CODE     ---       #220
      00FF3FD1H   LINE      CODE     ---       #221
      00FF3FD1H   LINE      CODE     ---       #222
      00FF3FE3H   LINE      CODE     ---       #224
      00FF3FFCH   LINE      CODE     ---       #225
      00FF4015H   LINE      CODE     ---       #226
      00FF4015H   LINE      CODE     ---       #227
      00FF4027H   LINE      CODE     ---       #229
      00FF4040H   LINE      CODE     ---       #230
      00FF4059H   LINE      CODE     ---       #231
      00FF4059H   LINE      CODE     ---       #233
      ---         BLOCKEND  ---      ---       LVL=0

      ---         MODULE    ---      ---       zf_iic
      00FF6DEDH   PUBLIC    CODE     ---       wait
      00FF753CH   PUBLIC    CODE     ---       iic_delay_us
      00000F6DH   PUBLIC    EDATA    BYTE      ?iic_init?BYTE
      000000D0H   SFRSYM    DATA     BYTE      PSW
      0000009DH   SFRSYM    DATA     BYTE      IRCBAND
      00000097H   SFRSYM    DATA     BYTE      AUXR2
      000000EFH   SFRSYM    DATA     BYTE      AUXINTIF
L251 LINKER/LOCATER V4.66.93.0                                                        11/05/2024  20:15:43  PAGE 43


      000000FDH   SFRSYM    DATA     BYTE      S4CON
      000000ACH   SFRSYM    DATA     BYTE      S3CON
      0000009AH   SFRSYM    DATA     BYTE      S2CON
      000000B7H   SFRSYM    DATA     BYTE      IPH
      000000CDH   SFRSYM    DATA     BYTE      SPSTAT
      000000DDH   SFRSYM    DATA     BYTE      T4T3M
      000000C1H   SFRSYM    DATA     BYTE      WDT_CONTR
      000000DFH   SFRSYM    DATA     BYTE      IP3
      000000F4H   SFRSYM    DATA     BYTE      USBCON
      000000B5H   SFRSYM    DATA     BYTE      IP2
      000000FFH   SFRSYM    DATA     BYTE      RSTCFG
      000000C7H   SFRSYM    DATA     BYTE      IAP_CONTR
      000000F9H   SFRSYM    DATA     BYTE      LINICR
      0000008EH   SFRSYM    DATA     BYTE      AUXR
      000000AFH   SFRSYM    DATA     BYTE      IE2
      00000088H   SFRSYM    DATA     BYTE      TCON
      00000089H   SFRSYM    DATA     BYTE      TMOD
      00000098H   SFRSYM    DATA     BYTE      SCON
      000000F1H   SFRSYM    DATA     BYTE      CANICR
      00000087H   SFRSYM    DATA     BYTE      PCON
      000000BCH   SFRSYM    DATA     BYTE      ADC_CONTR
      000000E7H   SFRSYM    DATA     BYTE      CMPCR2
      000000E6H   SFRSYM    DATA     BYTE      CMPCR1
      000000DEH   SFRSYM    DATA     BYTE      ADCCFG
      000000B8H   SFRSYM    DATA     BYTE      IP
      0000008FH   SFRSYM    DATA     BYTE      INTCLKO
      000000EEH   SFRSYM    DATA     BYTE      IP3H
      000000B6H   SFRSYM    DATA     BYTE      IP2H
      000000A8H   SFRSYM    DATA     BYTE      IE
      000000BBH   SFRSYM    DATA     BYTE      P_SW3
      000000BAH   SFRSYM    DATA     BYTE      P_SW2
      000000A2H   SFRSYM    DATA     BYTE      P_SW1
      000000CEH   SFRSYM    DATA     BYTE      SPCTL
      000000F8H   SFRSYM    DATA     BYTE      P7
      000000E8H   SFRSYM    DATA     BYTE      P6
      000000C8H   SFRSYM    DATA     BYTE      P5
      000000C0H   SFRSYM    DATA     BYTE      P4
      000000B0H   SFRSYM    DATA     BYTE      P3
      000000A0H   SFRSYM    DATA     BYTE      P2
      00000090H   SFRSYM    DATA     BYTE      P1
      00000080H   SFRSYM    DATA     BYTE      P0

      00FF753CH   BLOCK     CODE     ---       LVL=0
      000010B5H   SYMBOL    EDATA    WORD      x
      00FF7540H   BLOCK     CODE     NEAR LAB  LVL=1
      000010B7H   SYMBOL    EDATA    BYTE      i
      ---         BLOCKEND  ---      ---       LVL=1
      00FF753CH   LINE      CODE     ---       #30
      00FF7540H   LINE      CODE     ---       #31
      00FF7540H   LINE      CODE     ---       #33
      00FF7542H   LINE      CODE     ---       #35
      00FF7548H   LINE      CODE     ---       #36
      00FF755AH   LINE      CODE     ---       #37
      00FF7570H   LINE      CODE     ---       #38
      ---         BLOCKEND  ---      ---       LVL=0

      00FF6DEDH   BLOCK     CODE     ---       LVL=0
      000010B8H   SYMBOL    EDATA    WORD      count
      000010BAH   SYMBOL    EDATA    BYTE      ret
      00FF6DEDH   LINE      CODE     ---       #47
      00FF6DEDH   LINE      CODE     ---       #48
      00FF6DEDH   LINE      CODE     ---       #49
      00FF6DF3H   LINE      CODE     ---       #50
      00FF6DF8H   LINE      CODE     ---       #51
      00FF6DFAH   LINE      CODE     ---       #53
L251 LINKER/LOCATER V4.66.93.0                                                        11/05/2024  20:15:43  PAGE 44


      00FF6E01H   LINE      CODE     ---       #54
      00FF6E17H   LINE      CODE     ---       #56
      00FF6E1DH   LINE      CODE     ---       #57
      00FF6E1FH   LINE      CODE     ---       #58
      00FF6E2DH   LINE      CODE     ---       #60
      00FF6E3FH   LINE      CODE     ---       #61
      00FF6E43H   LINE      CODE     ---       #62
      ---         BLOCKEND  ---      ---       LVL=0
      0000114BH   SYMBOL    EDATA    BYTE      ret
      000010F7H   SYMBOL    EDATA    CHAR      dat
      000010F8H   SYMBOL    EDATA    BYTE      ret
      0000114CH   SYMBOL    EDATA    BYTE      ret
      0000114DH   SYMBOL    EDATA    BYTE      ret
      0000114EH   SYMBOL    EDATA    BYTE      ret
      00000F71H   SYMBOL    EDATA    INT       iic_n
      00000F73H   SYMBOL    EDATA    DWORD     wait_time
      000010BBH   SYMBOL    EDATA    BYTE      dev_add
      000010BCH   SYMBOL    EDATA    BYTE      reg
      000010BDH   SYMBOL    EDATA    BYTE      dat
      00000F77H   SYMBOL    EDATA    BYTE      dev_add
      00000F78H   SYMBOL    EDATA    BYTE      reg
      00000F79H   SYMBOL    EDATA    ---       dat
      00000F2DH   SYMBOL    EDATA    BYTE      dev_add
      00000F2EH   SYMBOL    EDATA    BYTE      reg
      00000F2FH   SYMBOL    EDATA    ---       dat
      00000F33H   SYMBOL    EDATA    BYTE      num
      000010F9H   SYMBOL    EDATA    INT       iic_n

      ---         MODULE    ---      ---       zf_nvic
      000000D0H   SFRSYM    DATA     BYTE      PSW
      0000009DH   SFRSYM    DATA     BYTE      IRCBAND
      00000097H   SFRSYM    DATA     BYTE      AUXR2
      000000EFH   SFRSYM    DATA     BYTE      AUXINTIF
      000000FDH   SFRSYM    DATA     BYTE      S4CON
      000000ACH   SFRSYM    DATA     BYTE      S3CON
      0000009AH   SFRSYM    DATA     BYTE      S2CON
      000000B7H   SFRSYM    DATA     BYTE      IPH
      000000CDH   SFRSYM    DATA     BYTE      SPSTAT
      000000DDH   SFRSYM    DATA     BYTE      T4T3M
      000000C1H   SFRSYM    DATA     BYTE      WDT_CONTR
      000000DFH   SFRSYM    DATA     BYTE      IP3
      000000F4H   SFRSYM    DATA     BYTE      USBCON
      000000B5H   SFRSYM    DATA     BYTE      IP2
      000000FFH   SFRSYM    DATA     BYTE      RSTCFG
      000000C7H   SFRSYM    DATA     BYTE      IAP_CONTR
      000000F9H   SFRSYM    DATA     BYTE      LINICR
      0000008EH   SFRSYM    DATA     BYTE      AUXR
      000000AFH   SFRSYM    DATA     BYTE      IE2
      00000088H   SFRSYM    DATA     BYTE      TCON
      00000089H   SFRSYM    DATA     BYTE      TMOD
      00000098H   SFRSYM    DATA     BYTE      SCON
      000000F1H   SFRSYM    DATA     BYTE      CANICR
      00000087H   SFRSYM    DATA     BYTE      PCON
      000000BCH   SFRSYM    DATA     BYTE      ADC_CONTR
      000000E7H   SFRSYM    DATA     BYTE      CMPCR2
      000000E6H   SFRSYM    DATA     BYTE      CMPCR1
      000000DEH   SFRSYM    DATA     BYTE      ADCCFG
      000000B8H   SFRSYM    DATA     BYTE      IP
      0000008FH   SFRSYM    DATA     BYTE      INTCLKO
      000000EEH   SFRSYM    DATA     BYTE      IP3H
      000000B6H   SFRSYM    DATA     BYTE      IP2H
      000000A8H   SFRSYM    DATA     BYTE      IE
      000000BBH   SFRSYM    DATA     BYTE      P_SW3
      000000BAH   SFRSYM    DATA     BYTE      P_SW2
      000000A2H   SFRSYM    DATA     BYTE      P_SW1
L251 LINKER/LOCATER V4.66.93.0                                                        11/05/2024  20:15:43  PAGE 45


      000000CEH   SFRSYM    DATA     BYTE      SPCTL
      000000F8H   SFRSYM    DATA     BYTE      P7
      000000E8H   SFRSYM    DATA     BYTE      P6
      000000C8H   SFRSYM    DATA     BYTE      P5
      000000C0H   SFRSYM    DATA     BYTE      P4
      000000B0H   SFRSYM    DATA     BYTE      P3
      000000A0H   SFRSYM    DATA     BYTE      P2
      00000090H   SFRSYM    DATA     BYTE      P1
      00000080H   SFRSYM    DATA     BYTE      P0
      000010BEH   SYMBOL    EDATA    INT       irqn
      000010C0H   SYMBOL    EDATA    BYTE      priority

      ---         MODULE    ---      ---       zf_pwm
      00FF6110H   PUBLIC    CODE     ---       pwm_duty
      00FF54E2H   PUBLIC    CODE     ---       pwm_set_gpio
      00FF4D76H   PUBLIC    CODE     ---       pwm_init
      00FF7D3BH   PUBLIC    HCONST   ---       PWM_CCR_ADDR
      00FF7D5BH   PUBLIC    HCONST   ---       PWM_ARR_ADDR
      00FF7D63H   PUBLIC    HCONST   ---       PWM_CCER_ADDR
      00FF7D73H   PUBLIC    HCONST   ---       PWM_CCMR_ADDR
      00000A8CH   PUBLIC    EDATA    BYTE      ?pwm_init?BYTE
      00000AA0H   PUBLIC    EDATA    BYTE      ?pwm_freq?BYTE
      000000D0H   SFRSYM    DATA     BYTE      PSW
      0000009DH   SFRSYM    DATA     BYTE      IRCBAND
      00000097H   SFRSYM    DATA     BYTE      AUXR2
      000000EFH   SFRSYM    DATA     BYTE      AUXINTIF
      000000FDH   SFRSYM    DATA     BYTE      S4CON
      000000ACH   SFRSYM    DATA     BYTE      S3CON
      0000009AH   SFRSYM    DATA     BYTE      S2CON
      000000B7H   SFRSYM    DATA     BYTE      IPH
      000000CDH   SFRSYM    DATA     BYTE      SPSTAT
      000000DDH   SFRSYM    DATA     BYTE      T4T3M
      000000C1H   SFRSYM    DATA     BYTE      WDT_CONTR
      000000DFH   SFRSYM    DATA     BYTE      IP3
      000000F4H   SFRSYM    DATA     BYTE      USBCON
      000000B5H   SFRSYM    DATA     BYTE      IP2
      000000FFH   SFRSYM    DATA     BYTE      RSTCFG
      000000C7H   SFRSYM    DATA     BYTE      IAP_CONTR
      000000F9H   SFRSYM    DATA     BYTE      LINICR
      0000008EH   SFRSYM    DATA     BYTE      AUXR
      000000AFH   SFRSYM    DATA     BYTE      IE2
      00000088H   SFRSYM    DATA     BYTE      TCON
      00000089H   SFRSYM    DATA     BYTE      TMOD
      00000098H   SFRSYM    DATA     BYTE      SCON
      000000F1H   SFRSYM    DATA     BYTE      CANICR
      00000087H   SFRSYM    DATA     BYTE      PCON
      000000BCH   SFRSYM    DATA     BYTE      ADC_CONTR
      000000E7H   SFRSYM    DATA     BYTE      CMPCR2
      000000E6H   SFRSYM    DATA     BYTE      CMPCR1
      000000DEH   SFRSYM    DATA     BYTE      ADCCFG
      000000B8H   SFRSYM    DATA     BYTE      IP
      0000008FH   SFRSYM    DATA     BYTE      INTCLKO
      000000EEH   SFRSYM    DATA     BYTE      IP3H
      000000B6H   SFRSYM    DATA     BYTE      IP2H
      000000A8H   SFRSYM    DATA     BYTE      IE
      000000BBH   SFRSYM    DATA     BYTE      P_SW3
      000000BAH   SFRSYM    DATA     BYTE      P_SW2
      000000A2H   SFRSYM    DATA     BYTE      P_SW1
      000000CEH   SFRSYM    DATA     BYTE      SPCTL
      000000F8H   SFRSYM    DATA     BYTE      P7
      000000E8H   SFRSYM    DATA     BYTE      P6
      000000C8H   SFRSYM    DATA     BYTE      P5
      000000C0H   SFRSYM    DATA     BYTE      P4
      000000B0H   SFRSYM    DATA     BYTE      P3
      000000A0H   SFRSYM    DATA     BYTE      P2
L251 LINKER/LOCATER V4.66.93.0                                                        11/05/2024  20:15:43  PAGE 46


      00000090H   SFRSYM    DATA     BYTE      P1
      00000080H   SFRSYM    DATA     BYTE      P0

      00FF54E2H   BLOCK     CODE     ---       LVL=0
      000010FBH   SYMBOL    EDATA    INT       pwmch
      00FF54E2H   LINE      CODE     ---       #49
      00FF54E6H   LINE      CODE     ---       #51
      00FF5658H   LINE      CODE     ---       #53
      00FF5658H   LINE      CODE     ---       #55
      00FF5663H   LINE      CODE     ---       #56
      00FF5666H   LINE      CODE     ---       #58
      00FF5666H   LINE      CODE     ---       #60
      00FF5671H   LINE      CODE     ---       #61
      00FF5674H   LINE      CODE     ---       #63
      00FF5674H   LINE      CODE     ---       #65
      00FF567FH   LINE      CODE     ---       #66
      00FF5682H   LINE      CODE     ---       #68
      00FF5682H   LINE      CODE     ---       #70
      00FF568DH   LINE      CODE     ---       #71
      00FF5690H   LINE      CODE     ---       #84
      00FF5690H   LINE      CODE     ---       #86
      00FF569BH   LINE      CODE     ---       #87
      00FF569EH   LINE      CODE     ---       #89
      00FF569EH   LINE      CODE     ---       #91
      00FF56A9H   LINE      CODE     ---       #92
      00FF56ACH   LINE      CODE     ---       #94
      00FF56ACH   LINE      CODE     ---       #96
      00FF56B7H   LINE      CODE     ---       #97
      00FF56BAH   LINE      CODE     ---       #99
      00FF56BAH   LINE      CODE     ---       #101
      00FF56C5H   LINE      CODE     ---       #102
      00FF56C8H   LINE      CODE     ---       #115
      00FF56C8H   LINE      CODE     ---       #117
      00FF56D3H   LINE      CODE     ---       #118
      00FF56D6H   LINE      CODE     ---       #120
      00FF56D6H   LINE      CODE     ---       #122
      00FF56E1H   LINE      CODE     ---       #123
      00FF56E4H   LINE      CODE     ---       #125
      00FF56E4H   LINE      CODE     ---       #127
      00FF56EFH   LINE      CODE     ---       #128
      00FF56F2H   LINE      CODE     ---       #130
      00FF56F2H   LINE      CODE     ---       #132
      00FF56FDH   LINE      CODE     ---       #133
      00FF5700H   LINE      CODE     ---       #147
      00FF5700H   LINE      CODE     ---       #149
      00FF570BH   LINE      CODE     ---       #150
      00FF570EH   LINE      CODE     ---       #152
      00FF570EH   LINE      CODE     ---       #154
      00FF5719H   LINE      CODE     ---       #155
      00FF571CH   LINE      CODE     ---       #157
      00FF571CH   LINE      CODE     ---       #159
      00FF5727H   LINE      CODE     ---       #160
      00FF572AH   LINE      CODE     ---       #162
      00FF572AH   LINE      CODE     ---       #164
      00FF5735H   LINE      CODE     ---       #165
      00FF5738H   LINE      CODE     ---       #177
      00FF5738H   LINE      CODE     ---       #179
      00FF5743H   LINE      CODE     ---       #180
      00FF5746H   LINE      CODE     ---       #182
      00FF5746H   LINE      CODE     ---       #184
      00FF5751H   LINE      CODE     ---       #185
      00FF5754H   LINE      CODE     ---       #189
      00FF5754H   LINE      CODE     ---       #191
      00FF575FH   LINE      CODE     ---       #192
      00FF5762H   LINE      CODE     ---       #194
L251 LINKER/LOCATER V4.66.93.0                                                        11/05/2024  20:15:43  PAGE 47


      00FF5762H   LINE      CODE     ---       #196
      00FF576DH   LINE      CODE     ---       #197
      00FF576FH   LINE      CODE     ---       #199
      00FF576FH   LINE      CODE     ---       #201
      00FF5778H   LINE      CODE     ---       #202
      00FF577AH   LINE      CODE     ---       #210
      00FF577AH   LINE      CODE     ---       #212
      00FF5785H   LINE      CODE     ---       #213
      00FF5787H   LINE      CODE     ---       #215
      00FF5787H   LINE      CODE     ---       #217
      00FF5792H   LINE      CODE     ---       #218
      00FF5794H   LINE      CODE     ---       #220
      00FF5794H   LINE      CODE     ---       #222
      00FF579FH   LINE      CODE     ---       #223
      00FF57A1H   LINE      CODE     ---       #232
      00FF57A1H   LINE      CODE     ---       #234
      00FF57ACH   LINE      CODE     ---       #235
      00FF57AEH   LINE      CODE     ---       #237
      00FF57AEH   LINE      CODE     ---       #239
      00FF57B9H   LINE      CODE     ---       #240
      00FF57BBH   LINE      CODE     ---       #242
      00FF57BBH   LINE      CODE     ---       #244
      00FF57C6H   LINE      CODE     ---       #245
      00FF57C8H   LINE      CODE     ---       #254
      00FF57C8H   LINE      CODE     ---       #256
      00FF57D3H   LINE      CODE     ---       #257
      00FF57D5H   LINE      CODE     ---       #259
      00FF57D5H   LINE      CODE     ---       #261
      00FF57E0H   LINE      CODE     ---       #262
      00FF57E2H   LINE      CODE     ---       #264
      00FF57E2H   LINE      CODE     ---       #266
      00FF57EDH   LINE      CODE     ---       #267
      00FF57EDH   LINE      CODE     ---       #275
      00FF57EDH   LINE      CODE     ---       #277
      ---         BLOCKEND  ---      ---       LVL=0

      00FF4D76H   BLOCK     CODE     ---       LVL=0
      00000A8CH   SYMBOL    EDATA    INT       pwmch
      00000A8EH   SYMBOL    EDATA    DWORD     freq
      00000A92H   SYMBOL    EDATA    DWORD     duty
      00FF4D7EH   BLOCK     CODE     NEAR LAB  LVL=1
      00000A96H   SYMBOL    EDATA    DWORD     match_temp
      00000A9AH   SYMBOL    EDATA    DWORD     period_temp
      00000A9EH   SYMBOL    EDATA    WORD      freq_div
      ---         BLOCKEND  ---      ---       LVL=1
      00FF4D76H   LINE      CODE     ---       #290
      00FF4D7EH   LINE      CODE     ---       #291
      00FF4D7EH   LINE      CODE     ---       #295
      00FF4D84H   LINE      CODE     ---       #298
      00FF4D87H   LINE      CODE     ---       #301
      00FF4D8EH   LINE      CODE     ---       #305
      00FF4DA1H   LINE      CODE     ---       #306
      00FF4DB0H   LINE      CODE     ---       #307
      00FF4DCBH   LINE      CODE     ---       #309
      00FF4DD5H   LINE      CODE     ---       #311
      00FF4DFCH   LINE      CODE     ---       #312
      00FF4DFEH   LINE      CODE     ---       #315
      00FF4E0CH   LINE      CODE     ---       #316
      00FF4E0CH   LINE      CODE     ---       #319
      00FF4E1BH   LINE      CODE     ---       #322
      00FF4E4CH   LINE      CODE     ---       #323
      00FF4E83H   LINE      CODE     ---       #326
      00FF4ED5H   LINE      CODE     ---       #329
      00FF4EE8H   LINE      CODE     ---       #330
      00FF4EF7H   LINE      CODE     ---       #332
L251 LINKER/LOCATER V4.66.93.0                                                        11/05/2024  20:15:43  PAGE 48


      00FF4F04H   LINE      CODE     ---       #333
      00FF4F11H   LINE      CODE     ---       #334
      00FF4F14H   LINE      CODE     ---       #337
      00FF4F52H   LINE      CODE     ---       #338
      00FF4F85H   LINE      CODE     ---       #341
      00FF4FE5H   LINE      CODE     ---       #345
      00FF4FF8H   LINE      CODE     ---       #346
      00FF5007H   LINE      CODE     ---       #348
      00FF5014H   LINE      CODE     ---       #349
      00FF5021H   LINE      CODE     ---       #350
      00FF5021H   LINE      CODE     ---       #353
      00FF5053H   LINE      CODE     ---       #354
      00FF508BH   LINE      CODE     ---       #357
      00FF50B9H   LINE      CODE     ---       #358
      00FF50EDH   LINE      CODE     ---       #361
      00FF511EH   LINE      CODE     ---       #362
      00FF514FH   LINE      CODE     ---       #367
      ---         BLOCKEND  ---      ---       LVL=0

      00FF6110H   BLOCK     CODE     ---       LVL=0
      00000B61H   SYMBOL    EDATA    INT       pwmch
      00000B63H   SYMBOL    EDATA    DWORD     duty
      00FF6118H   BLOCK     CODE     NEAR LAB  LVL=1
      00000B67H   SYMBOL    EDATA    DWORD     match_temp
      00000B6BH   SYMBOL    EDATA    DWORD     arr
      ---         BLOCKEND  ---      ---       LVL=1
      00FF6110H   LINE      CODE     ---       #377
      00FF6118H   LINE      CODE     ---       #378
      00FF6118H   LINE      CODE     ---       #380
      00FF6184H   LINE      CODE     ---       #384
      00FF618EH   LINE      CODE     ---       #386
      00FF61B5H   LINE      CODE     ---       #387
      00FF61B7H   LINE      CODE     ---       #390
      00FF61C5H   LINE      CODE     ---       #391
      00FF61C5H   LINE      CODE     ---       #396
      00FF61F3H   LINE      CODE     ---       #397
      00FF6227H   LINE      CODE     ---       #401
      ---         BLOCKEND  ---      ---       LVL=0
      00000AA0H   SYMBOL    EDATA    INT       pwmch
      00000AA2H   SYMBOL    EDATA    DWORD     freq
      00000AA6H   SYMBOL    EDATA    DWORD     duty
      00000AAAH   SYMBOL    EDATA    DWORD     match_temp
      00000AAEH   SYMBOL    EDATA    DWORD     period_temp
      00000AB2H   SYMBOL    EDATA    WORD      freq_div

      ---         MODULE    ---      ---       zf_spi
      00FF633FH   PUBLIC    CODE     ---       spi_init
      00FF7A11H   PUBLIC    CODE     ---       spi_mosi
      00000BC3H   PUBLIC    EDATA    BYTE      ?spi_init?BYTE
      000000CFH   SFRSYM    DATA     BYTE      SPDAT
      000000D0H   SFRSYM    DATA     BYTE      PSW
      0000009DH   SFRSYM    DATA     BYTE      IRCBAND
      00000097H   SFRSYM    DATA     BYTE      AUXR2
      000000EFH   SFRSYM    DATA     BYTE      AUXINTIF
      000000FDH   SFRSYM    DATA     BYTE      S4CON
      000000ACH   SFRSYM    DATA     BYTE      S3CON
      0000009AH   SFRSYM    DATA     BYTE      S2CON
      000000B7H   SFRSYM    DATA     BYTE      IPH
      000000CDH   SFRSYM    DATA     BYTE      SPSTAT
      000000DDH   SFRSYM    DATA     BYTE      T4T3M
      000000C1H   SFRSYM    DATA     BYTE      WDT_CONTR
      000000DFH   SFRSYM    DATA     BYTE      IP3
      000000F4H   SFRSYM    DATA     BYTE      USBCON
      000000B5H   SFRSYM    DATA     BYTE      IP2
      000000FFH   SFRSYM    DATA     BYTE      RSTCFG
L251 LINKER/LOCATER V4.66.93.0                                                        11/05/2024  20:15:43  PAGE 49


      000000C7H   SFRSYM    DATA     BYTE      IAP_CONTR
      000000F9H   SFRSYM    DATA     BYTE      LINICR
      0000008EH   SFRSYM    DATA     BYTE      AUXR
      000000AFH   SFRSYM    DATA     BYTE      IE2
      00000088H   SFRSYM    DATA     BYTE      TCON
      00000089H   SFRSYM    DATA     BYTE      TMOD
      00000098H   SFRSYM    DATA     BYTE      SCON
      000000F1H   SFRSYM    DATA     BYTE      CANICR
      00000087H   SFRSYM    DATA     BYTE      PCON
      000000BCH   SFRSYM    DATA     BYTE      ADC_CONTR
      000000E7H   SFRSYM    DATA     BYTE      CMPCR2
      000000E6H   SFRSYM    DATA     BYTE      CMPCR1
      000000DEH   SFRSYM    DATA     BYTE      ADCCFG
      000000B8H   SFRSYM    DATA     BYTE      IP
      0000008FH   SFRSYM    DATA     BYTE      INTCLKO
      000000EEH   SFRSYM    DATA     BYTE      IP3H
      000000B6H   SFRSYM    DATA     BYTE      IP2H
      000000A8H   SFRSYM    DATA     BYTE      IE
      000000BBH   SFRSYM    DATA     BYTE      P_SW3
      000000BAH   SFRSYM    DATA     BYTE      P_SW2
      000000A2H   SFRSYM    DATA     BYTE      P_SW1
      000000CEH   SFRSYM    DATA     BYTE      SPCTL
      000000F8H   SFRSYM    DATA     BYTE      P7
      000000E8H   SFRSYM    DATA     BYTE      P6
      000000C8H   SFRSYM    DATA     BYTE      P5
      000000C0H   SFRSYM    DATA     BYTE      P4
      000000B0H   SFRSYM    DATA     BYTE      P3
      000000A0H   SFRSYM    DATA     BYTE      P2
      00000090H   SFRSYM    DATA     BYTE      P1
      00000080H   SFRSYM    DATA     BYTE      P0

      00FF633FH   BLOCK     CODE     ---       LVL=0
      00000BC3H   SYMBOL    EDATA    INT       spi_n
      00000BC5H   SYMBOL    EDATA    INT       sck_pin
      00000BC7H   SYMBOL    EDATA    INT       mosi_pin
      00000BC9H   SYMBOL    EDATA    INT       miso_pin
      00000BCBH   SYMBOL    EDATA    BYTE      mode
      00000BCCH   SYMBOL    EDATA    INT       mstr
      00000BCEH   SYMBOL    EDATA    INT       baud
      00FF633FH   LINE      CODE     ---       #39
      00FF6353H   LINE      CODE     ---       #48
      00FF635FH   LINE      CODE     ---       #50
      00FF636EH   LINE      CODE     ---       #51
      00FF636EH   LINE      CODE     ---       #53
      00FF637AH   LINE      CODE     ---       #55
      00FF6389H   LINE      CODE     ---       #56
      00FF6389H   LINE      CODE     ---       #58
      00FF6395H   LINE      CODE     ---       #60
      00FF63A4H   LINE      CODE     ---       #61
      00FF63A4H   LINE      CODE     ---       #64
      00FF63A7H   LINE      CODE     ---       #65
      00FF63BDH   LINE      CODE     ---       #67
      00FF63BDH   LINE      CODE     ---       #68
      00FF63C1H   LINE      CODE     ---       #69
      00FF63C3H   LINE      CODE     ---       #70
      00FF63C3H   LINE      CODE     ---       #71
      00FF63C6H   LINE      CODE     ---       #72
      00FF63C8H   LINE      CODE     ---       #73
      00FF63C8H   LINE      CODE     ---       #74
      00FF63CBH   LINE      CODE     ---       #75
      00FF63CDH   LINE      CODE     ---       #76
      00FF63CDH   LINE      CODE     ---       #77
      00FF63D0H   LINE      CODE     ---       #78
      00FF63D0H   LINE      CODE     ---       #79
      00FF63D0H   LINE      CODE     ---       #81
L251 LINKER/LOCATER V4.66.93.0                                                        11/05/2024  20:15:43  PAGE 50


      00FF63D3H   LINE      CODE     ---       #82
      00FF63E2H   LINE      CODE     ---       #84
      00FF63E2H   LINE      CODE     ---       #86
      00FF63E4H   LINE      CODE     ---       #87
      00FF63E4H   LINE      CODE     ---       #88
      00FF63E7H   LINE      CODE     ---       #89
      00FF63E9H   LINE      CODE     ---       #90
      00FF63E9H   LINE      CODE     ---       #91
      00FF63ECH   LINE      CODE     ---       #92
      00FF63EEH   LINE      CODE     ---       #93
      00FF63EEH   LINE      CODE     ---       #94
      00FF63F1H   LINE      CODE     ---       #95
      00FF63F1H   LINE      CODE     ---       #96
      00FF63F1H   LINE      CODE     ---       #99
      00FF63F9H   LINE      CODE     ---       #101
      00FF6403H   LINE      CODE     ---       #103
      00FF6406H   LINE      CODE     ---       #104
      00FF6409H   LINE      CODE     ---       #105
      00FF6409H   LINE      CODE     ---       #109
      00FF6409H   LINE      CODE     ---       #110
      00FF640CH   LINE      CODE     ---       #111
      ---         BLOCKEND  ---      ---       LVL=0

      00FF7A11H   BLOCK     CODE     ---       LVL=0
      0000114FH   SYMBOL    EDATA    BYTE      dat
      00FF7A11H   LINE      CODE     ---       #121
      00FF7A15H   LINE      CODE     ---       #123
      00FF7A17H   LINE      CODE     ---       #124
      00FF7A1CH   LINE      CODE     ---       #125
      00FF7A20H   LINE      CODE     ---       #126
      00FF7A22H   LINE      CODE     ---       #127
      ---         BLOCKEND  ---      ---       LVL=0
      000010FDH   SYMBOL    EDATA    INT       spi_n
      00001150H   SYMBOL    EDATA    BYTE      mode

      ---         MODULE    ---      ---       zf_tim
      000000D0H   SFRSYM    DATA     BYTE      PSW
      0000009DH   SFRSYM    DATA     BYTE      IRCBAND
      00000097H   SFRSYM    DATA     BYTE      AUXR2
      000000EFH   SFRSYM    DATA     BYTE      AUXINTIF
      000000FDH   SFRSYM    DATA     BYTE      S4CON
      000000ACH   SFRSYM    DATA     BYTE      S3CON
      0000009AH   SFRSYM    DATA     BYTE      S2CON
      000000B7H   SFRSYM    DATA     BYTE      IPH
      000000CDH   SFRSYM    DATA     BYTE      SPSTAT
      000000DDH   SFRSYM    DATA     BYTE      T4T3M
      000000C1H   SFRSYM    DATA     BYTE      WDT_CONTR
      00000088H.6 SFRSYM    DATA     BIT       TR1
      00000088H.4 SFRSYM    DATA     BIT       TR0
      000000D3H   SFRSYM    DATA     BYTE      T4L
      000000D5H   SFRSYM    DATA     BYTE      T3L
      000000D7H   SFRSYM    DATA     BYTE      T2L
      0000008BH   SFRSYM    DATA     BYTE      TL1
      0000008AH   SFRSYM    DATA     BYTE      TL0
      000000D2H   SFRSYM    DATA     BYTE      T4H
      000000D4H   SFRSYM    DATA     BYTE      T3H
      000000D6H   SFRSYM    DATA     BYTE      T2H
      0000008DH   SFRSYM    DATA     BYTE      TH1
      0000008CH   SFRSYM    DATA     BYTE      TH0
      000000DFH   SFRSYM    DATA     BYTE      IP3
      000000F4H   SFRSYM    DATA     BYTE      USBCON
      000000B5H   SFRSYM    DATA     BYTE      IP2
      000000FFH   SFRSYM    DATA     BYTE      RSTCFG
      000000A8H.3 SFRSYM    DATA     BIT       ET1
      000000A8H.1 SFRSYM    DATA     BIT       ET0
L251 LINKER/LOCATER V4.66.93.0                                                        11/05/2024  20:15:43  PAGE 51


      000000C7H   SFRSYM    DATA     BYTE      IAP_CONTR
      000000F9H   SFRSYM    DATA     BYTE      LINICR
      0000008EH   SFRSYM    DATA     BYTE      AUXR
      000000AFH   SFRSYM    DATA     BYTE      IE2
      00000088H   SFRSYM    DATA     BYTE      TCON
      00000089H   SFRSYM    DATA     BYTE      TMOD
      00000098H   SFRSYM    DATA     BYTE      SCON
      000000F1H   SFRSYM    DATA     BYTE      CANICR
      00000087H   SFRSYM    DATA     BYTE      PCON
      000000BCH   SFRSYM    DATA     BYTE      ADC_CONTR
      000000E7H   SFRSYM    DATA     BYTE      CMPCR2
      000000E6H   SFRSYM    DATA     BYTE      CMPCR1
      000000DEH   SFRSYM    DATA     BYTE      ADCCFG
      000000B8H   SFRSYM    DATA     BYTE      IP
      0000008FH   SFRSYM    DATA     BYTE      INTCLKO
      000000EEH   SFRSYM    DATA     BYTE      IP3H
      000000B6H   SFRSYM    DATA     BYTE      IP2H
      000000A8H   SFRSYM    DATA     BYTE      IE
      000000BBH   SFRSYM    DATA     BYTE      P_SW3
      000000BAH   SFRSYM    DATA     BYTE      P_SW2
      000000A2H   SFRSYM    DATA     BYTE      P_SW1
      000000CEH   SFRSYM    DATA     BYTE      SPCTL
      000000F8H   SFRSYM    DATA     BYTE      P7
      000000E8H   SFRSYM    DATA     BYTE      P6
      000000C8H   SFRSYM    DATA     BYTE      P5
      000000C0H   SFRSYM    DATA     BYTE      P4
      000000B0H   SFRSYM    DATA     BYTE      P3
      000000A0H   SFRSYM    DATA     BYTE      P2
      00000090H   SFRSYM    DATA     BYTE      P1
      00000080H   SFRSYM    DATA     BYTE      P0
      000010FFH   SYMBOL    EDATA    INT       tim_n
      00001065H   SYMBOL    EDATA    INT       tim_n
      00001067H   SYMBOL    EDATA    WORD      dat
      00001101H   SYMBOL    EDATA    INT       tim_n
      00000F7DH   SYMBOL    EDATA    INT       tim_n
      00000F7FH   SYMBOL    EDATA    WORD      time_ms
      00000F81H   SYMBOL    EDATA    WORD      temp

      ---         MODULE    ---      ---       zf_uart
      00FF685BH   PUBLIC    CODE     ---       uart_putchar
      00FF57EEH   PUBLIC    CODE     ---       uart_init
      0000101FH   PUBLIC    EDATA    ---       busy
      00000B6FH   PUBLIC    EDATA    BYTE      ?uart_init?BYTE
      00000D0DH   PUBLIC    EDATA    BYTE      ?uart_putbuff?BYTE
      000000D0H   SFRSYM    DATA     BYTE      PSW
      0000009DH   SFRSYM    DATA     BYTE      IRCBAND
      00000097H   SFRSYM    DATA     BYTE      AUXR2
      000000EFH   SFRSYM    DATA     BYTE      AUXINTIF
      000000FDH   SFRSYM    DATA     BYTE      S4CON
      000000ACH   SFRSYM    DATA     BYTE      S3CON
      0000009AH   SFRSYM    DATA     BYTE      S2CON
      000000FEH   SFRSYM    DATA     BYTE      S4BUF
      000000ADH   SFRSYM    DATA     BYTE      S3BUF
      0000009BH   SFRSYM    DATA     BYTE      S2BUF
      000000B7H   SFRSYM    DATA     BYTE      IPH
      000000CDH   SFRSYM    DATA     BYTE      SPSTAT
      000000DDH   SFRSYM    DATA     BYTE      T4T3M
      000000C1H   SFRSYM    DATA     BYTE      WDT_CONTR
      00000088H.6 SFRSYM    DATA     BIT       TR1
      000000D3H   SFRSYM    DATA     BYTE      T4L
      000000D5H   SFRSYM    DATA     BYTE      T3L
      000000D7H   SFRSYM    DATA     BYTE      T2L
      0000008BH   SFRSYM    DATA     BYTE      TL1
      000000D2H   SFRSYM    DATA     BYTE      T4H
      000000D4H   SFRSYM    DATA     BYTE      T3H
L251 LINKER/LOCATER V4.66.93.0                                                        11/05/2024  20:15:43  PAGE 52


      000000D6H   SFRSYM    DATA     BYTE      T2H
      0000008DH   SFRSYM    DATA     BYTE      TH1
      000000DFH   SFRSYM    DATA     BYTE      IP3
      000000F4H   SFRSYM    DATA     BYTE      USBCON
      000000B5H   SFRSYM    DATA     BYTE      IP2
      000000FFH   SFRSYM    DATA     BYTE      RSTCFG
      000000C7H   SFRSYM    DATA     BYTE      IAP_CONTR
      000000F9H   SFRSYM    DATA     BYTE      LINICR
      0000008EH   SFRSYM    DATA     BYTE      AUXR
      000000AFH   SFRSYM    DATA     BYTE      IE2
      00000088H   SFRSYM    DATA     BYTE      TCON
      00000089H   SFRSYM    DATA     BYTE      TMOD
      00000098H   SFRSYM    DATA     BYTE      SCON
      000000F1H   SFRSYM    DATA     BYTE      CANICR
      00000087H   SFRSYM    DATA     BYTE      PCON
      00000099H   SFRSYM    DATA     BYTE      SBUF
      000000BCH   SFRSYM    DATA     BYTE      ADC_CONTR
      000000E7H   SFRSYM    DATA     BYTE      CMPCR2
      000000E6H   SFRSYM    DATA     BYTE      CMPCR1
      000000DEH   SFRSYM    DATA     BYTE      ADCCFG
      000000B8H   SFRSYM    DATA     BYTE      IP
      000000A8H.4 SFRSYM    DATA     BIT       ES
      0000008FH   SFRSYM    DATA     BYTE      INTCLKO
      000000EEH   SFRSYM    DATA     BYTE      IP3H
      000000B6H   SFRSYM    DATA     BYTE      IP2H
      000000A8H   SFRSYM    DATA     BYTE      IE
      000000BBH   SFRSYM    DATA     BYTE      P_SW3
      000000BAH   SFRSYM    DATA     BYTE      P_SW2
      000000A2H   SFRSYM    DATA     BYTE      P_SW1
      000000CEH   SFRSYM    DATA     BYTE      SPCTL
      000000F8H   SFRSYM    DATA     BYTE      P7
      000000E8H   SFRSYM    DATA     BYTE      P6
      000000C8H   SFRSYM    DATA     BYTE      P5
      000000C0H   SFRSYM    DATA     BYTE      P4
      000000C9H   SFRSYM    DATA     BYTE      P5M1
      000000B0H   SFRSYM    DATA     BYTE      P3
      000000CAH   SFRSYM    DATA     BYTE      P5M0
      000000A0H   SFRSYM    DATA     BYTE      P2
      00000090H   SFRSYM    DATA     BYTE      P1
      00000080H   SFRSYM    DATA     BYTE      P0

      00FF57EEH   BLOCK     CODE     ---       LVL=0
      00000B6FH   SYMBOL    EDATA    INT       uart_n
      00000B71H   SYMBOL    EDATA    INT       uart_rx_pin
      00000B73H   SYMBOL    EDATA    INT       uart_tx_pin
      00000B75H   SYMBOL    EDATA    DWORD     baud
      00000B79H   SYMBOL    EDATA    INT       tim_n
      00FF57FEH   BLOCK     CODE     NEAR LAB  LVL=1
      00000B7BH   SYMBOL    EDATA    WORD      brt
      ---         BLOCKEND  ---      ---       LVL=1
      00FF57EEH   LINE      CODE     ---       #45
      00FF57FEH   LINE      CODE     ---       #46
      00FF57FEH   LINE      CODE     ---       #49
      00FF5825H   LINE      CODE     ---       #52
      00FF5847H   LINE      CODE     ---       #54
      00FF5847H   LINE      CODE     ---       #56
      00FF5853H   LINE      CODE     ---       #58
      00FF5856H   LINE      CODE     ---       #59
      00FF585AH   LINE      CODE     ---       #60
      00FF5860H   LINE      CODE     ---       #61
      00FF586AH   LINE      CODE     ---       #62
      00FF586DH   LINE      CODE     ---       #63
      00FF5870H   LINE      CODE     ---       #64
      00FF5875H   LINE      CODE     ---       #65
      00FF5877H   LINE      CODE     ---       #66
L251 LINKER/LOCATER V4.66.93.0                                                        11/05/2024  20:15:43  PAGE 53


      00FF5883H   LINE      CODE     ---       #68
      00FF5886H   LINE      CODE     ---       #69
      00FF588CH   LINE      CODE     ---       #70
      00FF5896H   LINE      CODE     ---       #71
      00FF5899H   LINE      CODE     ---       #72
      00FF5899H   LINE      CODE     ---       #73
      00FF589CH   LINE      CODE     ---       #74
      00FF58B2H   LINE      CODE     ---       #76
      00FF58B6H   LINE      CODE     ---       #77
      00FF58B8H   LINE      CODE     ---       #78
      00FF58D0H   LINE      CODE     ---       #80
      00FF58D3H   LINE      CODE     ---       #81
      00FF58D5H   LINE      CODE     ---       #82
      00FF58EDH   LINE      CODE     ---       #84
      00FF58F0H   LINE      CODE     ---       #85
      00FF58F2H   LINE      CODE     ---       #86
      00FF590AH   LINE      CODE     ---       #88
      00FF590DH   LINE      CODE     ---       #89
      00FF590DH   LINE      CODE     ---       #90
      00FF5912H   LINE      CODE     ---       #91
      00FF5915H   LINE      CODE     ---       #92
      00FF5918H   LINE      CODE     ---       #95
      00FF5918H   LINE      CODE     ---       #97
      00FF5924H   LINE      CODE     ---       #99
      00FF5927H   LINE      CODE     ---       #100
      00FF592DH   LINE      CODE     ---       #101
      00FF5937H   LINE      CODE     ---       #102
      00FF593AH   LINE      CODE     ---       #103
      00FF593AH   LINE      CODE     ---       #105
      00FF593DH   LINE      CODE     ---       #106
      00FF5955H   LINE      CODE     ---       #108
      00FF5959H   LINE      CODE     ---       #109
      00FF595BH   LINE      CODE     ---       #110
      00FF5973H   LINE      CODE     ---       #112
      00FF5976H   LINE      CODE     ---       #113
      00FF5976H   LINE      CODE     ---       #115
      00FF5979H   LINE      CODE     ---       #116
      00FF597EH   LINE      CODE     ---       #117
      00FF5981H   LINE      CODE     ---       #120
      00FF5981H   LINE      CODE     ---       #122
      00FF598DH   LINE      CODE     ---       #124
      00FF5990H   LINE      CODE     ---       #125
      00FF5996H   LINE      CODE     ---       #126
      00FF59A0H   LINE      CODE     ---       #127
      00FF59A3H   LINE      CODE     ---       #128
      00FF59A5H   LINE      CODE     ---       #129
      00FF59B1H   LINE      CODE     ---       #131
      00FF59B4H   LINE      CODE     ---       #132
      00FF59BAH   LINE      CODE     ---       #133
      00FF59C4H   LINE      CODE     ---       #134
      00FF59C7H   LINE      CODE     ---       #135
      00FF59C7H   LINE      CODE     ---       #137
      00FF59CAH   LINE      CODE     ---       #138
      00FF59E2H   LINE      CODE     ---       #140
      00FF59E6H   LINE      CODE     ---       #141
      00FF59E8H   LINE      CODE     ---       #142
      00FF5A00H   LINE      CODE     ---       #144
      00FF5A03H   LINE      CODE     ---       #145
      00FF5A03H   LINE      CODE     ---       #147
      00FF5A06H   LINE      CODE     ---       #148
      00FF5A0BH   LINE      CODE     ---       #149
      00FF5A0EH   LINE      CODE     ---       #152
      00FF5A0EH   LINE      CODE     ---       #154
      00FF5A1AH   LINE      CODE     ---       #156
      00FF5A1DH   LINE      CODE     ---       #157
L251 LINKER/LOCATER V4.66.93.0                                                        11/05/2024  20:15:43  PAGE 54


      00FF5A23H   LINE      CODE     ---       #158
      00FF5A2DH   LINE      CODE     ---       #159
      00FF5A31H   LINE      CODE     ---       #160
      00FF5A33H   LINE      CODE     ---       #161
      00FF5A3FH   LINE      CODE     ---       #163
      00FF5A42H   LINE      CODE     ---       #164
      00FF5A48H   LINE      CODE     ---       #165
      00FF5A52H   LINE      CODE     ---       #166
      00FF5A55H   LINE      CODE     ---       #167
      00FF5A55H   LINE      CODE     ---       #169
      00FF5A58H   LINE      CODE     ---       #170
      00FF5A70H   LINE      CODE     ---       #172
      00FF5A74H   LINE      CODE     ---       #173
      00FF5A76H   LINE      CODE     ---       #174
      00FF5A8EH   LINE      CODE     ---       #176
      00FF5A91H   LINE      CODE     ---       #177
      00FF5A95H   LINE      CODE     ---       #178
      00FF5A98H   LINE      CODE     ---       #179
      00FF5A98H   LINE      CODE     ---       #180
      00FF5A9BH   LINE      CODE     ---       #181
      00FF5AA0H   LINE      CODE     ---       #182
      00FF5AA0H   LINE      CODE     ---       #185
      00FF5AA0H   LINE      CODE     ---       #187
      ---         BLOCKEND  ---      ---       LVL=0

      00FF685BH   BLOCK     CODE     ---       LVL=0
      000010C1H   SYMBOL    EDATA    INT       uart_n
      000010C3H   SYMBOL    EDATA    BYTE      dat
      00FF685BH   LINE      CODE     ---       #196
      00FF6863H   LINE      CODE     ---       #198
      00FF6875H   LINE      CODE     ---       #200
      00FF6875H   LINE      CODE     ---       #201
      00FF687EH   LINE      CODE     ---       #202
      00FF6884H   LINE      CODE     ---       #203
      00FF688AH   LINE      CODE     ---       #204
      00FF688CH   LINE      CODE     ---       #205
      00FF688CH   LINE      CODE     ---       #206
      00FF6895H   LINE      CODE     ---       #207
      00FF689BH   LINE      CODE     ---       #208
      00FF68A1H   LINE      CODE     ---       #209
      00FF68A3H   LINE      CODE     ---       #210
      00FF68A3H   LINE      CODE     ---       #211
      00FF68ACH   LINE      CODE     ---       #212
      00FF68B2H   LINE      CODE     ---       #213
      00FF68B8H   LINE      CODE     ---       #214
      00FF68BAH   LINE      CODE     ---       #215
      00FF68BAH   LINE      CODE     ---       #216
      00FF68C3H   LINE      CODE     ---       #217
      00FF68C9H   LINE      CODE     ---       #218
      00FF68CFH   LINE      CODE     ---       #219
      00FF68CFH   LINE      CODE     ---       #220
      00FF68CFH   LINE      CODE     ---       #221
      ---         BLOCKEND  ---      ---       LVL=0
      00000D0DH   SYMBOL    EDATA    INT       uart_n
      00000D0FH   SYMBOL    EDATA    ---       p
      00000D13H   SYMBOL    EDATA    DWORD     len
      00000F83H   SYMBOL    EDATA    INT       uart_n
      00000F85H   SYMBOL    EDATA    ---       str

      ---         MODULE    ---      ---       zf_fifo
      00FF5150H   PUBLIC    CODE     ---       fifo_write_buffer
      00000AC8H   PUBLIC    EDATA    BYTE      ?fifo_write_buffer?BYTE
      00000BEAH   PUBLIC    EDATA    BYTE      ?fifo_read_element?BYTE
      00000A31H   PUBLIC    EDATA    BYTE      ?fifo_read_buffer?BYTE
      00000A49H   PUBLIC    EDATA    BYTE      ?fifo_read_tail_buffer?BYTE
L251 LINKER/LOCATER V4.66.93.0                                                        11/05/2024  20:15:43  PAGE 55


      00000B32H   PUBLIC    EDATA    BYTE      ?fifo_init?BYTE
      000000D0H   SFRSYM    DATA     BYTE      PSW
      0000009DH   SFRSYM    DATA     BYTE      IRCBAND
      00000097H   SFRSYM    DATA     BYTE      AUXR2
      000000EFH   SFRSYM    DATA     BYTE      AUXINTIF
      000000FDH   SFRSYM    DATA     BYTE      S4CON
      000000ACH   SFRSYM    DATA     BYTE      S3CON
      0000009AH   SFRSYM    DATA     BYTE      S2CON
      000000B7H   SFRSYM    DATA     BYTE      IPH
      000000CDH   SFRSYM    DATA     BYTE      SPSTAT
      000000DDH   SFRSYM    DATA     BYTE      T4T3M
      000000C1H   SFRSYM    DATA     BYTE      WDT_CONTR
      000000DFH   SFRSYM    DATA     BYTE      IP3
      000000F4H   SFRSYM    DATA     BYTE      USBCON
      000000B5H   SFRSYM    DATA     BYTE      IP2
      000000FFH   SFRSYM    DATA     BYTE      RSTCFG
      000000C7H   SFRSYM    DATA     BYTE      IAP_CONTR
      000000F9H   SFRSYM    DATA     BYTE      LINICR
      0000008EH   SFRSYM    DATA     BYTE      AUXR
      000000AFH   SFRSYM    DATA     BYTE      IE2
      00000088H   SFRSYM    DATA     BYTE      TCON
      00000089H   SFRSYM    DATA     BYTE      TMOD
      00000098H   SFRSYM    DATA     BYTE      SCON
      000000F1H   SFRSYM    DATA     BYTE      CANICR
      00000087H   SFRSYM    DATA     BYTE      PCON
      000000BCH   SFRSYM    DATA     BYTE      ADC_CONTR
      000000E7H   SFRSYM    DATA     BYTE      CMPCR2
      000000E6H   SFRSYM    DATA     BYTE      CMPCR1
      000000DEH   SFRSYM    DATA     BYTE      ADCCFG
      000000B8H   SFRSYM    DATA     BYTE      IP
      0000008FH   SFRSYM    DATA     BYTE      INTCLKO
      000000EEH   SFRSYM    DATA     BYTE      IP3H
      000000B6H   SFRSYM    DATA     BYTE      IP2H
      000000A8H   SFRSYM    DATA     BYTE      IE
      000000BBH   SFRSYM    DATA     BYTE      P_SW3
      000000BAH   SFRSYM    DATA     BYTE      P_SW2
      000000A2H   SFRSYM    DATA     BYTE      P_SW1
      000000CEH   SFRSYM    DATA     BYTE      SPCTL
      000000F8H   SFRSYM    DATA     BYTE      P7
      000000E8H   SFRSYM    DATA     BYTE      P6
      000000C8H   SFRSYM    DATA     BYTE      P5
      000000C0H   SFRSYM    DATA     BYTE      P4
      000000B0H   SFRSYM    DATA     BYTE      P3
      000000A0H   SFRSYM    DATA     BYTE      P2
      00000090H   SFRSYM    DATA     BYTE      P1
      00000080H   SFRSYM    DATA     BYTE      P0
      00FF68D0H   SYMBOL    CODE     ---       fifo_head_offset

      00FF68D0H   BLOCK     CODE     ---       LVL=0
      00000E95H   SYMBOL    EDATA    ---       fifo
      00000E99H   SYMBOL    EDATA    DWORD     offset
      00FF68D0H   LINE      CODE     ---       #42
      00FF68D8H   LINE      CODE     ---       #44
      00FF68F4H   LINE      CODE     ---       #46
      00FF68F6H   LINE      CODE     ---       #48
      00FF691DH   LINE      CODE     ---       #49
      00FF693FH   LINE      CODE     ---       #50
      ---         BLOCKEND  ---      ---       LVL=0
      00000E9DH   SYMBOL    EDATA    ---       fifo
      00000EA1H   SYMBOL    EDATA    DWORD     offset
      00000F89H   SYMBOL    EDATA    ---       fifo
      00000F8DH   SYMBOL    EDATA    INT       return_state
      00001069H   SYMBOL    EDATA    ---       fifo
      00000D17H   SYMBOL    EDATA    ---       fifo
      00000D1BH   SYMBOL    EDATA    DWORD     dat
L251 LINKER/LOCATER V4.66.93.0                                                        11/05/2024  20:15:43  PAGE 56


      00000D1FH   SYMBOL    EDATA    INT       return_state

      00FF5150H   BLOCK     CODE     ---       LVL=0
      00000AC8H   SYMBOL    EDATA    ---       fifo
      00000ACCH   SYMBOL    EDATA    ---       dat
      00000AD0H   SYMBOL    EDATA    DWORD     length
      00FF5158H   BLOCK     CODE     NEAR LAB  LVL=1
      00000AD4H   SYMBOL    EDATA    INT       return_state
      00000AD6H   SYMBOL    EDATA    DWORD     temp_length
      ---         BLOCKEND  ---      ---       LVL=1
      00FF5150H   LINE      CODE     ---       #168
      00FF5158H   LINE      CODE     ---       #169
      00FF5158H   LINE      CODE     ---       #171
      00FF515EH   LINE      CODE     ---       #172
      00FF5164H   LINE      CODE     ---       #174
      00FF5164H   LINE      CODE     ---       #176
      00FF516CH   LINE      CODE     ---       #178
      00FF5174H   LINE      CODE     ---       #179
      00FF5177H   LINE      CODE     ---       #180
      00FF5177H   LINE      CODE     ---       #181
      00FF518CH   LINE      CODE     ---       #183
      00FF5194H   LINE      CODE     ---       #184
      00FF5197H   LINE      CODE     ---       #185
      00FF5197H   LINE      CODE     ---       #186
      00FF51A5H   LINE      CODE     ---       #188
      00FF51BFH   LINE      CODE     ---       #190
      00FF51E3H   LINE      CODE     ---       #192
      00FF51F2H   LINE      CODE     ---       #194
      00FF5210H   LINE      CODE     ---       #196
      00FF5210H   LINE      CODE     ---       #198
      00FF523FH   LINE      CODE     ---       #201
      00FF524AH   LINE      CODE     ---       #202
      00FF5287H   LINE      CODE     ---       #206
      00FF5298H   LINE      CODE     ---       #207
      00FF529BH   LINE      CODE     ---       #208
      00FF529BH   LINE      CODE     ---       #210
      00FF52CEH   LINE      CODE     ---       #213
      00FF52D9H   LINE      CODE     ---       #214
      00FF531CH   LINE      CODE     ---       #218
      00FF532DH   LINE      CODE     ---       #219
      00FF5330H   LINE      CODE     ---       #220
      00FF5330H   LINE      CODE     ---       #222
      00FF5367H   LINE      CODE     ---       #225
      00FF5372H   LINE      CODE     ---       #226
      00FF53BBH   LINE      CODE     ---       #230
      00FF53CCH   LINE      CODE     ---       #231
      00FF53CCH   LINE      CODE     ---       #232
      00FF53CCH   LINE      CODE     ---       #233
      00FF53CFH   LINE      CODE     ---       #236
      00FF53EAH   LINE      CODE     ---       #238
      00FF53EAH   LINE      CODE     ---       #240
      00FF5419H   LINE      CODE     ---       #243
      00FF5424H   LINE      CODE     ---       #244
      00FF5427H   LINE      CODE     ---       #245
      00FF5427H   LINE      CODE     ---       #247
      00FF545AH   LINE      CODE     ---       #250
      00FF5465H   LINE      CODE     ---       #251
      00FF5467H   LINE      CODE     ---       #252
      00FF5467H   LINE      CODE     ---       #254
      00FF549EH   LINE      CODE     ---       #257
      00FF54A9H   LINE      CODE     ---       #258
      00FF54A9H   LINE      CODE     ---       #259
      00FF54A9H   LINE      CODE     ---       #260
      00FF54A9H   LINE      CODE     ---       #262
      00FF54C5H   LINE      CODE     ---       #263
L251 LINKER/LOCATER V4.66.93.0                                                        11/05/2024  20:15:43  PAGE 57


      00FF54C7H   LINE      CODE     ---       #266
      00FF54CFH   LINE      CODE     ---       #267
      00FF54CFH   LINE      CODE     ---       #268
      00FF54DDH   LINE      CODE     ---       #269
      00FF54DDH   LINE      CODE     ---       #271
      00FF54E1H   LINE      CODE     ---       #272
      ---         BLOCKEND  ---      ---       LVL=0
      00000BEAH   SYMBOL    EDATA    ---       fifo
      00000BEEH   SYMBOL    EDATA    ---       dat
      00000BF2H   SYMBOL    EDATA    INT       flag
      00000BF4H   SYMBOL    EDATA    INT       return_state
      00000A31H   SYMBOL    EDATA    ---       fifo
      00000A35H   SYMBOL    EDATA    ---       dat
      00000A39H   SYMBOL    EDATA    ---       length
      00000A3DH   SYMBOL    EDATA    INT       flag
      00000A3FH   SYMBOL    EDATA    INT       return_state
      00000A41H   SYMBOL    EDATA    DWORD     temp_length
      00000A45H   SYMBOL    EDATA    DWORD     fifo_data_length
      00000A49H   SYMBOL    EDATA    ---       fifo
      00000A4DH   SYMBOL    EDATA    ---       dat
      00000A51H   SYMBOL    EDATA    ---       length
      00000A55H   SYMBOL    EDATA    INT       flag
      00000A57H   SYMBOL    EDATA    INT       return_state
      00000A59H   SYMBOL    EDATA    DWORD     temp_length
      00000A5DH   SYMBOL    EDATA    DWORD     fifo_data_length
      00000B32H   SYMBOL    EDATA    ---       fifo
      00000B36H   SYMBOL    EDATA    INT       type
      00000B38H   SYMBOL    EDATA    ---       buffer_addr
      00000B3CH   SYMBOL    EDATA    DWORD     len
      00000B40H   SYMBOL    EDATA    INT       return_state

      ---         MODULE    ---      ---       globals
      000000D0H   SFRSYM    DATA     BYTE      PSW
      0000009DH   SFRSYM    DATA     BYTE      IRCBAND
      00000097H   SFRSYM    DATA     BYTE      AUXR2
      000000EFH   SFRSYM    DATA     BYTE      AUXINTIF
      000000FDH   SFRSYM    DATA     BYTE      S4CON
      000000ACH   SFRSYM    DATA     BYTE      S3CON
      0000009AH   SFRSYM    DATA     BYTE      S2CON
      000000B7H   SFRSYM    DATA     BYTE      IPH
      000000CDH   SFRSYM    DATA     BYTE      SPSTAT
      000000DDH   SFRSYM    DATA     BYTE      T4T3M
      000000C1H   SFRSYM    DATA     BYTE      WDT_CONTR
      000000DFH   SFRSYM    DATA     BYTE      IP3
      000000F4H   SFRSYM    DATA     BYTE      USBCON
      000000B5H   SFRSYM    DATA     BYTE      IP2
      000000FFH   SFRSYM    DATA     BYTE      RSTCFG
      000000C7H   SFRSYM    DATA     BYTE      IAP_CONTR
      000000F9H   SFRSYM    DATA     BYTE      LINICR
      0000008EH   SFRSYM    DATA     BYTE      AUXR
      000000AFH   SFRSYM    DATA     BYTE      IE2
      00000088H   SFRSYM    DATA     BYTE      TCON
      00000089H   SFRSYM    DATA     BYTE      TMOD
      00000098H   SFRSYM    DATA     BYTE      SCON
      000000F1H   SFRSYM    DATA     BYTE      CANICR
      00000087H   SFRSYM    DATA     BYTE      PCON
      000000BCH   SFRSYM    DATA     BYTE      ADC_CONTR
      000000E7H   SFRSYM    DATA     BYTE      CMPCR2
      000000E6H   SFRSYM    DATA     BYTE      CMPCR1
      000000DEH   SFRSYM    DATA     BYTE      ADCCFG
      000000B8H   SFRSYM    DATA     BYTE      IP
      0000008FH   SFRSYM    DATA     BYTE      INTCLKO
      000000EEH   SFRSYM    DATA     BYTE      IP3H
      000000B6H   SFRSYM    DATA     BYTE      IP2H
      000000A8H   SFRSYM    DATA     BYTE      IE
L251 LINKER/LOCATER V4.66.93.0                                                        11/05/2024  20:15:43  PAGE 58


      000000BBH   SFRSYM    DATA     BYTE      P_SW3
      000000BAH   SFRSYM    DATA     BYTE      P_SW2
      000000A2H   SFRSYM    DATA     BYTE      P_SW1
      000000CEH   SFRSYM    DATA     BYTE      SPCTL
      000000F8H   SFRSYM    DATA     BYTE      P7
      000000E8H   SFRSYM    DATA     BYTE      P6
      000000C8H   SFRSYM    DATA     BYTE      P5
      000000C0H   SFRSYM    DATA     BYTE      P4
      000000B0H   SFRSYM    DATA     BYTE      P3
      000000A0H   SFRSYM    DATA     BYTE      P2
      00000090H   SFRSYM    DATA     BYTE      P1
      00000080H   SFRSYM    DATA     BYTE      P0

      ---         MODULE    ---      ---       SEEKFREE_18TFT
      00FF7089H   PUBLIC    CODE     ---       lcd_writeIndex_simspi
      00FF70D5H   PUBLIC    CODE     ---       lcd_writeData_simspi
      00FF791DH   PUBLIC    CODE     ---       lcd_writeIndex
      00FF7932H   PUBLIC    CODE     ---       lcd_writeData
      00FF6E9AH   PUBLIC    CODE     ---       lcd_writeData_16bit_simspi
      00FF6B55H   PUBLIC    CODE     ---       lcd_set_region_simspi
      00FF6BB9H   PUBLIC    CODE     ---       lcd_set_region
      00FF7602H   PUBLIC    CODE     ---       lcd_writedata_16bit
      0000062FH   PUBLIC    EDATA    BYTE      ?lcd_showfloat_simspi?BYTE
      0000065FH   PUBLIC    EDATA    BYTE      ?lcd_showfloat?BYTE
      000000D0H   SFRSYM    DATA     BYTE      PSW
      0000009DH   SFRSYM    DATA     BYTE      IRCBAND
      00000097H   SFRSYM    DATA     BYTE      AUXR2
      000000EFH   SFRSYM    DATA     BYTE      AUXINTIF
      000000FDH   SFRSYM    DATA     BYTE      S4CON
      000000ACH   SFRSYM    DATA     BYTE      S3CON
      0000009AH   SFRSYM    DATA     BYTE      S2CON
      000000B7H   SFRSYM    DATA     BYTE      IPH
      000000CDH   SFRSYM    DATA     BYTE      SPSTAT
      000000DDH   SFRSYM    DATA     BYTE      T4T3M
      000000C1H   SFRSYM    DATA     BYTE      WDT_CONTR
      000000DFH   SFRSYM    DATA     BYTE      IP3
      000000F4H   SFRSYM    DATA     BYTE      USBCON
      000000B5H   SFRSYM    DATA     BYTE      IP2
      000000FFH   SFRSYM    DATA     BYTE      RSTCFG
      000000C7H   SFRSYM    DATA     BYTE      IAP_CONTR
      000000F9H   SFRSYM    DATA     BYTE      LINICR
      0000008EH   SFRSYM    DATA     BYTE      AUXR
      000000AFH   SFRSYM    DATA     BYTE      IE2
      000000A0H.5 SFRSYM    DATA     BIT       P25
      00000088H   SFRSYM    DATA     BYTE      TCON
      00000089H   SFRSYM    DATA     BYTE      TMOD
      000000A0H.3 SFRSYM    DATA     BIT       P23
      00000098H   SFRSYM    DATA     BYTE      SCON
      000000A0H.2 SFRSYM    DATA     BIT       P22
      000000A0H.1 SFRSYM    DATA     BIT       P21
      000000A0H.0 SFRSYM    DATA     BIT       P20
      000000F1H   SFRSYM    DATA     BYTE      CANICR
      00000087H   SFRSYM    DATA     BYTE      PCON
      000000BCH   SFRSYM    DATA     BYTE      ADC_CONTR
      000000E7H   SFRSYM    DATA     BYTE      CMPCR2
      000000E6H   SFRSYM    DATA     BYTE      CMPCR1
      000000DEH   SFRSYM    DATA     BYTE      ADCCFG
      000000B8H   SFRSYM    DATA     BYTE      IP
      0000008FH   SFRSYM    DATA     BYTE      INTCLKO
      000000EEH   SFRSYM    DATA     BYTE      IP3H
      000000B6H   SFRSYM    DATA     BYTE      IP2H
      000000A8H   SFRSYM    DATA     BYTE      IE
      000000BBH   SFRSYM    DATA     BYTE      P_SW3
      000000BAH   SFRSYM    DATA     BYTE      P_SW2
      000000A2H   SFRSYM    DATA     BYTE      P_SW1
L251 LINKER/LOCATER V4.66.93.0                                                        11/05/2024  20:15:43  PAGE 59


      000000CEH   SFRSYM    DATA     BYTE      SPCTL
      000000F8H   SFRSYM    DATA     BYTE      P7
      000000E8H   SFRSYM    DATA     BYTE      P6
      000000C8H   SFRSYM    DATA     BYTE      P5
      000000C0H   SFRSYM    DATA     BYTE      P4
      000000B0H   SFRSYM    DATA     BYTE      P3
      000000A0H   SFRSYM    DATA     BYTE      P2
      00000090H   SFRSYM    DATA     BYTE      P1
      00000080H   SFRSYM    DATA     BYTE      P0

      00FF7089H   BLOCK     CODE     ---       LVL=0
      00001103H   SYMBOL    EDATA    BYTE      dat
      00FF708DH   BLOCK     CODE     NEAR LAB  LVL=1
      00001104H   SYMBOL    EDATA    BYTE      i
      ---         BLOCKEND  ---      ---       LVL=1
      00FF7089H   LINE      CODE     ---       #60
      00FF708DH   LINE      CODE     ---       #61
      00FF708DH   LINE      CODE     ---       #62
      00FF7093H   LINE      CODE     ---       #64
      00FF7096H   LINE      CODE     ---       #65
      00FF7099H   LINE      CODE     ---       #66
      00FF709CH   LINE      CODE     ---       #68
      00FF709EH   LINE      CODE     ---       #70
      00FF70AAH   LINE      CODE     ---       #71
      00FF70ADH   LINE      CODE     ---       #72
      00FF70B0H   LINE      CODE     ---       #74
      00FF70B3H   LINE      CODE     ---       #75
      00FF70BDH   LINE      CODE     ---       #76
      00FF70D1H   LINE      CODE     ---       #77
      00FF70D4H   LINE      CODE     ---       #78
      ---         BLOCKEND  ---      ---       LVL=0

      00FF70D5H   BLOCK     CODE     ---       LVL=0
      00001105H   SYMBOL    EDATA    BYTE      dat
      00FF70D9H   BLOCK     CODE     NEAR LAB  LVL=1
      00001106H   SYMBOL    EDATA    BYTE      i
      ---         BLOCKEND  ---      ---       LVL=1
      00FF70D5H   LINE      CODE     ---       #87
      00FF70D9H   LINE      CODE     ---       #88
      00FF70D9H   LINE      CODE     ---       #89
      00FF70DFH   LINE      CODE     ---       #91
      00FF70E2H   LINE      CODE     ---       #92
      00FF70E5H   LINE      CODE     ---       #93
      00FF70E8H   LINE      CODE     ---       #94
      00FF70EAH   LINE      CODE     ---       #96
      00FF70F6H   LINE      CODE     ---       #97
      00FF70F9H   LINE      CODE     ---       #98
      00FF70FCH   LINE      CODE     ---       #100
      00FF70FFH   LINE      CODE     ---       #101
      00FF7109H   LINE      CODE     ---       #102
      00FF711DH   LINE      CODE     ---       #103
      00FF7120H   LINE      CODE     ---       #104
      ---         BLOCKEND  ---      ---       LVL=0

      00FF6E9AH   BLOCK     CODE     ---       LVL=0
      000010C4H   SYMBOL    EDATA    WORD      dat
      00FF6E9EH   BLOCK     CODE     NEAR LAB  LVL=1
      000010C6H   SYMBOL    EDATA    BYTE      i
      ---         BLOCKEND  ---      ---       LVL=1
      00FF6E9AH   LINE      CODE     ---       #113
      00FF6E9EH   LINE      CODE     ---       #114
      00FF6E9EH   LINE      CODE     ---       #115
      00FF6EA4H   LINE      CODE     ---       #117
      00FF6EA7H   LINE      CODE     ---       #118
      00FF6EAAH   LINE      CODE     ---       #119
L251 LINKER/LOCATER V4.66.93.0                                                        11/05/2024  20:15:43  PAGE 60


      00FF6EADH   LINE      CODE     ---       #121
      00FF6EAFH   LINE      CODE     ---       #123
      00FF6EC4H   LINE      CODE     ---       #124
      00FF6EC7H   LINE      CODE     ---       #125
      00FF6ECAH   LINE      CODE     ---       #127
      00FF6ECDH   LINE      CODE     ---       #128
      00FF6ED7H   LINE      CODE     ---       #129
      00FF6EEBH   LINE      CODE     ---       #131
      00FF6EEEH   LINE      CODE     ---       #133
      ---         BLOCKEND  ---      ---       LVL=0

      00FF6B55H   BLOCK     CODE     ---       LVL=0
      00000EA5H   SYMBOL    EDATA    WORD      x_start
      00000EA7H   SYMBOL    EDATA    WORD      y_start
      00000EA9H   SYMBOL    EDATA    WORD      x_end
      00000EABH   SYMBOL    EDATA    WORD      y_end
      00FF6B55H   LINE      CODE     ---       #145
      00FF6B65H   LINE      CODE     ---       #163
      00FF6B6AH   LINE      CODE     ---       #164
      00FF6B6EH   LINE      CODE     ---       #165
      00FF6B7BH   LINE      CODE     ---       #166
      00FF6B7FH   LINE      CODE     ---       #167
      00FF6B8CH   LINE      CODE     ---       #169
      00FF6B91H   LINE      CODE     ---       #170
      00FF6B95H   LINE      CODE     ---       #171
      00FF6BA2H   LINE      CODE     ---       #172
      00FF6BA6H   LINE      CODE     ---       #173
      00FF6BB3H   LINE      CODE     ---       #177
      00FF6BB8H   LINE      CODE     ---       #178
      ---         BLOCKEND  ---      ---       LVL=0
      0000106DH   SYMBOL    EDATA    INT       color
      0000106FH   SYMBOL    EDATA    BYTE      i
      00001070H   SYMBOL    EDATA    BYTE      j
      00000F8FH   SYMBOL    EDATA    WORD      x
      00000F91H   SYMBOL    EDATA    WORD      y
      00000F93H   SYMBOL    EDATA    WORD      color
      00000EADH   SYMBOL    EDATA    WORD      x
      00000EAFH   SYMBOL    EDATA    WORD      y
      00000EB1H   SYMBOL    EDATA    CHAR      dat
      00000EB2H   SYMBOL    EDATA    BYTE      i
      00000EB3H   SYMBOL    EDATA    BYTE      j
      00000EB4H   SYMBOL    EDATA    BYTE      temp
      00000D21H   SYMBOL    EDATA    WORD      x
      00000D23H   SYMBOL    EDATA    WORD      y
      00000D25H   SYMBOL    EDATA    ---       dat
      00000D29H   SYMBOL    EDATA    WORD      j
      00000DA3H   SYMBOL    EDATA    WORD      x
      00000DA5H   SYMBOL    EDATA    WORD      y
      00000DA7H   SYMBOL    EDATA    CHAR      dat
      00000DA8H   SYMBOL    EDATA    ---       a
      00000DABH   SYMBOL    EDATA    BYTE      i
      00000DACH   SYMBOL    EDATA    WORD      x
      00000DAEH   SYMBOL    EDATA    WORD      y
      00000DB0H   SYMBOL    EDATA    BYTE      dat
      00000DB1H   SYMBOL    EDATA    ---       a
      00000DB4H   SYMBOL    EDATA    BYTE      i
      00000BF6H   SYMBOL    EDATA    WORD      x
      00000BF8H   SYMBOL    EDATA    WORD      y
      00000BFAH   SYMBOL    EDATA    INT       dat
      00000BFCH   SYMBOL    EDATA    ---       a
      00000C01H   SYMBOL    EDATA    BYTE      i
      00000C02H   SYMBOL    EDATA    WORD      x
      00000C04H   SYMBOL    EDATA    WORD      y
      00000C06H   SYMBOL    EDATA    WORD      dat
      00000C08H   SYMBOL    EDATA    ---       a
L251 LINKER/LOCATER V4.66.93.0                                                        11/05/2024  20:15:43  PAGE 61


      00000C0DH   SYMBOL    EDATA    BYTE      i
      0000077EH   SYMBOL    EDATA    WORD      x
      00000780H   SYMBOL    EDATA    WORD      y
      00000782H   SYMBOL    EDATA    LONG      dat
      00000786H   SYMBOL    EDATA    BYTE      num
      00000787H   SYMBOL    EDATA    ---       buff
      000007A9H   SYMBOL    EDATA    BYTE      length
      0000062FH   SYMBOL    EDATA    WORD      x
      00000631H   SYMBOL    EDATA    WORD      y
      00000633H   SYMBOL    EDATA    FLOAT     dat
      00000637H   SYMBOL    EDATA    BYTE      num
      00000638H   SYMBOL    EDATA    BYTE      pointnum
      00000639H   SYMBOL    EDATA    BYTE      length
      0000063AH   SYMBOL    EDATA    ---       buff
      0000065CH   SYMBOL    EDATA    CHAR      start
      0000065DH   SYMBOL    EDATA    CHAR      end
      0000065EH   SYMBOL    EDATA    CHAR      point

      00FF791DH   BLOCK     CODE     ---       LVL=0
      00001151H   SYMBOL    EDATA    BYTE      dat
      00FF791DH   LINE      CODE     ---       #607
      00FF7921H   LINE      CODE     ---       #610
      00FF7924H   LINE      CODE     ---       #611
      00FF7927H   LINE      CODE     ---       #612
      00FF792EH   LINE      CODE     ---       #613
      00FF7931H   LINE      CODE     ---       #614
      ---         BLOCKEND  ---      ---       LVL=0

      00FF7932H   BLOCK     CODE     ---       LVL=0
      00001152H   SYMBOL    EDATA    BYTE      dat
      00FF7932H   LINE      CODE     ---       #623
      00FF7936H   LINE      CODE     ---       #625
      00FF7939H   LINE      CODE     ---       #626
      00FF793CH   LINE      CODE     ---       #627
      00FF7943H   LINE      CODE     ---       #628
      00FF7946H   LINE      CODE     ---       #629
      ---         BLOCKEND  ---      ---       LVL=0

      00FF7602H   BLOCK     CODE     ---       LVL=0
      00001071H   SYMBOL    EDATA    WORD      dat
      00FF7606H   BLOCK     CODE     NEAR LAB  LVL=1
      00001073H   SYMBOL    EDATA    ---       dat1
      ---         BLOCKEND  ---      ---       LVL=1
      00FF7602H   LINE      CODE     ---       #638
      00FF7606H   LINE      CODE     ---       #639
      00FF7606H   LINE      CODE     ---       #642
      00FF760CH   LINE      CODE     ---       #643
      00FF7614H   LINE      CODE     ---       #645
      00FF7617H   LINE      CODE     ---       #646
      00FF761AH   LINE      CODE     ---       #647
      00FF7621H   LINE      CODE     ---       #648
      00FF7628H   LINE      CODE     ---       #649
      00FF762BH   LINE      CODE     ---       #651
      ---         BLOCKEND  ---      ---       LVL=0

      00FF6BB9H   BLOCK     CODE     ---       LVL=0
      00000EB5H   SYMBOL    EDATA    WORD      x_start
      00000EB7H   SYMBOL    EDATA    WORD      y_start
      00000EB9H   SYMBOL    EDATA    WORD      x_end
      00000EBBH   SYMBOL    EDATA    WORD      y_end
      00FF6BB9H   LINE      CODE     ---       #663
      00FF6BC9H   LINE      CODE     ---       #681
      00FF6BCEH   LINE      CODE     ---       #682
      00FF6BD2H   LINE      CODE     ---       #683
      00FF6BDFH   LINE      CODE     ---       #684
L251 LINKER/LOCATER V4.66.93.0                                                        11/05/2024  20:15:43  PAGE 62


      00FF6BE3H   LINE      CODE     ---       #685
      00FF6BF0H   LINE      CODE     ---       #687
      00FF6BF5H   LINE      CODE     ---       #688
      00FF6BF9H   LINE      CODE     ---       #689
      00FF6C06H   LINE      CODE     ---       #690
      00FF6C0AH   LINE      CODE     ---       #691
      00FF6C17H   LINE      CODE     ---       #695
      00FF6C1CH   LINE      CODE     ---       #696
      ---         BLOCKEND  ---      ---       LVL=0
      00001075H   SYMBOL    EDATA    INT       color
      00001077H   SYMBOL    EDATA    BYTE      i
      00001078H   SYMBOL    EDATA    BYTE      j
      00000F95H   SYMBOL    EDATA    WORD      x
      00000F97H   SYMBOL    EDATA    WORD      y
      00000F99H   SYMBOL    EDATA    WORD      color
      00000EBDH   SYMBOL    EDATA    WORD      x
      00000EBFH   SYMBOL    EDATA    WORD      y
      00000EC1H   SYMBOL    EDATA    CHAR      dat
      00000EC2H   SYMBOL    EDATA    BYTE      i
      00000EC3H   SYMBOL    EDATA    BYTE      j
      00000EC4H   SYMBOL    EDATA    BYTE      temp
      00000D2BH   SYMBOL    EDATA    WORD      x
      00000D2DH   SYMBOL    EDATA    WORD      y
      00000D2FH   SYMBOL    EDATA    ---       dat
      00000D33H   SYMBOL    EDATA    WORD      j
      00000DB5H   SYMBOL    EDATA    WORD      x
      00000DB7H   SYMBOL    EDATA    WORD      y
      00000DB9H   SYMBOL    EDATA    CHAR      dat
      00000DBAH   SYMBOL    EDATA    ---       a
      00000DBDH   SYMBOL    EDATA    BYTE      i
      00000DBEH   SYMBOL    EDATA    WORD      x
      00000DC0H   SYMBOL    EDATA    WORD      y
      00000DC2H   SYMBOL    EDATA    BYTE      dat
      00000DC3H   SYMBOL    EDATA    ---       a
      00000DC6H   SYMBOL    EDATA    BYTE      i
      00000C0EH   SYMBOL    EDATA    WORD      x
      00000C10H   SYMBOL    EDATA    WORD      y
      00000C12H   SYMBOL    EDATA    INT       dat
      00000C14H   SYMBOL    EDATA    ---       a
      00000C19H   SYMBOL    EDATA    BYTE      i
      00000C1AH   SYMBOL    EDATA    WORD      x
      00000C1CH   SYMBOL    EDATA    WORD      y
      00000C1EH   SYMBOL    EDATA    WORD      dat
      00000C20H   SYMBOL    EDATA    ---       a
      00000C25H   SYMBOL    EDATA    BYTE      i
      000007AAH   SYMBOL    EDATA    WORD      x
      000007ACH   SYMBOL    EDATA    WORD      y
      000007AEH   SYMBOL    EDATA    LONG      dat
      000007B2H   SYMBOL    EDATA    BYTE      num
      000007B3H   SYMBOL    EDATA    ---       buff
      000007D5H   SYMBOL    EDATA    BYTE      length
      0000065FH   SYMBOL    EDATA    WORD      x
      00000661H   SYMBOL    EDATA    WORD      y
      00000663H   SYMBOL    EDATA    FLOAT     dat
      00000667H   SYMBOL    EDATA    BYTE      num
      00000668H   SYMBOL    EDATA    BYTE      pointnum
      00000669H   SYMBOL    EDATA    BYTE      length
      0000066AH   SYMBOL    EDATA    ---       buff
      0000068CH   SYMBOL    EDATA    CHAR      start
      0000068DH   SYMBOL    EDATA    CHAR      end
      0000068EH   SYMBOL    EDATA    CHAR      point
      00000C26H   SYMBOL    EDATA    ---       p
      00000C2AH   SYMBOL    EDATA    INT       i
      00000C2CH   SYMBOL    EDATA    INT       j
      00000C2EH   SYMBOL    EDATA    INT       k
L251 LINKER/LOCATER V4.66.93.0                                                        11/05/2024  20:15:43  PAGE 63


      00000C30H   SYMBOL    EDATA    BYTE      picH
      00000C31H   SYMBOL    EDATA    BYTE      picL

      ---         MODULE    ---      ---       SEEKFREE_BLUETOOTH_CH9141
      000000D0H   SFRSYM    DATA     BYTE      PSW
      0000009DH   SFRSYM    DATA     BYTE      IRCBAND
      00000097H   SFRSYM    DATA     BYTE      AUXR2
      000000EFH   SFRSYM    DATA     BYTE      AUXINTIF
      000000FDH   SFRSYM    DATA     BYTE      S4CON
      000000ACH   SFRSYM    DATA     BYTE      S3CON
      0000009AH   SFRSYM    DATA     BYTE      S2CON
      000000B7H   SFRSYM    DATA     BYTE      IPH
      000000CDH   SFRSYM    DATA     BYTE      SPSTAT
      000000DDH   SFRSYM    DATA     BYTE      T4T3M
      000000C1H   SFRSYM    DATA     BYTE      WDT_CONTR
      000000DFH   SFRSYM    DATA     BYTE      IP3
      000000F4H   SFRSYM    DATA     BYTE      USBCON
      000000B5H   SFRSYM    DATA     BYTE      IP2
      000000FFH   SFRSYM    DATA     BYTE      RSTCFG
      000000C7H   SFRSYM    DATA     BYTE      IAP_CONTR
      000000F9H   SFRSYM    DATA     BYTE      LINICR
      0000008EH   SFRSYM    DATA     BYTE      AUXR
      000000AFH   SFRSYM    DATA     BYTE      IE2
      00000080H.7 SFRSYM    DATA     BIT       P07
      00000088H   SFRSYM    DATA     BYTE      TCON
      00000089H   SFRSYM    DATA     BYTE      TMOD
      00000098H   SFRSYM    DATA     BYTE      SCON
      000000F1H   SFRSYM    DATA     BYTE      CANICR
      00000087H   SFRSYM    DATA     BYTE      PCON
      000000BCH   SFRSYM    DATA     BYTE      ADC_CONTR
      000000E7H   SFRSYM    DATA     BYTE      CMPCR2
      000000E6H   SFRSYM    DATA     BYTE      CMPCR1
      000000DEH   SFRSYM    DATA     BYTE      ADCCFG
      000000B8H   SFRSYM    DATA     BYTE      IP
      0000008FH   SFRSYM    DATA     BYTE      INTCLKO
      000000EEH   SFRSYM    DATA     BYTE      IP3H
      000000B6H   SFRSYM    DATA     BYTE      IP2H
      000000A8H   SFRSYM    DATA     BYTE      IE
      000000BBH   SFRSYM    DATA     BYTE      P_SW3
      000000BAH   SFRSYM    DATA     BYTE      P_SW2
      000000A2H   SFRSYM    DATA     BYTE      P_SW1
      000000CEH   SFRSYM    DATA     BYTE      SPCTL
      000000F8H   SFRSYM    DATA     BYTE      P7
      000000E8H   SFRSYM    DATA     BYTE      P6
      000000C8H   SFRSYM    DATA     BYTE      P5
      000000C0H   SFRSYM    DATA     BYTE      P4
      000000B0H   SFRSYM    DATA     BYTE      P3
      000000A0H   SFRSYM    DATA     BYTE      P2
      00000090H   SFRSYM    DATA     BYTE      P1
      00000080H   SFRSYM    DATA     BYTE      P0
      000004BEH   SYMBOL    EDATA    ---       bluetooth_ch9141_buffer
      000004FEH   SYMBOL    EDATA    BYTE      bluetooth_ch9141_data
      000004FFH   SYMBOL    EDATA    ---       bluetooth_ch9141_fifo
      00001153H   SYMBOL    EDATA    BYTE      dat
      00000D35H   SYMBOL    EDATA    ---       buff
      00000D39H   SYMBOL    EDATA    DWORD     len
      00000D3DH   SYMBOL    EDATA    WORD      time_count
      00001154H   SYMBOL    EDATA    BYTE      dat
      00000C32H   SYMBOL    EDATA    ---       buff
      00000C36H   SYMBOL    EDATA    DWORD     len
      00000C3AH   SYMBOL    EDATA    DWORD     data_len

      ---         MODULE    ---      ---       SEEKFREE_BLE6A20
      000000D0H   SFRSYM    DATA     BYTE      PSW
      0000009DH   SFRSYM    DATA     BYTE      IRCBAND
L251 LINKER/LOCATER V4.66.93.0                                                        11/05/2024  20:15:43  PAGE 64


      00000097H   SFRSYM    DATA     BYTE      AUXR2
      000000EFH   SFRSYM    DATA     BYTE      AUXINTIF
      000000FDH   SFRSYM    DATA     BYTE      S4CON
      000000ACH   SFRSYM    DATA     BYTE      S3CON
      0000009AH   SFRSYM    DATA     BYTE      S2CON
      000000B7H   SFRSYM    DATA     BYTE      IPH
      000000CDH   SFRSYM    DATA     BYTE      SPSTAT
      000000DDH   SFRSYM    DATA     BYTE      T4T3M
      000000C1H   SFRSYM    DATA     BYTE      WDT_CONTR
      000000DFH   SFRSYM    DATA     BYTE      IP3
      000000F4H   SFRSYM    DATA     BYTE      USBCON
      000000B5H   SFRSYM    DATA     BYTE      IP2
      000000FFH   SFRSYM    DATA     BYTE      RSTCFG
      000000C7H   SFRSYM    DATA     BYTE      IAP_CONTR
      000000F9H   SFRSYM    DATA     BYTE      LINICR
      0000008EH   SFRSYM    DATA     BYTE      AUXR
      000000AFH   SFRSYM    DATA     BYTE      IE2
      000000C0H.5 SFRSYM    DATA     BIT       P45
      00000088H   SFRSYM    DATA     BYTE      TCON
      00000089H   SFRSYM    DATA     BYTE      TMOD
      00000098H   SFRSYM    DATA     BYTE      SCON
      000000F1H   SFRSYM    DATA     BYTE      CANICR
      00000087H   SFRSYM    DATA     BYTE      PCON
      000000BCH   SFRSYM    DATA     BYTE      ADC_CONTR
      000000E7H   SFRSYM    DATA     BYTE      CMPCR2
      000000E6H   SFRSYM    DATA     BYTE      CMPCR1
      000000DEH   SFRSYM    DATA     BYTE      ADCCFG
      000000B8H   SFRSYM    DATA     BYTE      IP
      0000008FH   SFRSYM    DATA     BYTE      INTCLKO
      000000EEH   SFRSYM    DATA     BYTE      IP3H
      000000B6H   SFRSYM    DATA     BYTE      IP2H
      000000A8H   SFRSYM    DATA     BYTE      IE
      000000BBH   SFRSYM    DATA     BYTE      P_SW3
      000000BAH   SFRSYM    DATA     BYTE      P_SW2
      000000A2H   SFRSYM    DATA     BYTE      P_SW1
      000000CEH   SFRSYM    DATA     BYTE      SPCTL
      000000F8H   SFRSYM    DATA     BYTE      P7
      000000E8H   SFRSYM    DATA     BYTE      P6
      000000C8H   SFRSYM    DATA     BYTE      P5
      000000C0H   SFRSYM    DATA     BYTE      P4
      000000B0H   SFRSYM    DATA     BYTE      P3
      000000A0H   SFRSYM    DATA     BYTE      P2
      00000090H   SFRSYM    DATA     BYTE      P1
      00000080H   SFRSYM    DATA     BYTE      P0
      0000056EH   SYMBOL    EDATA    ---       ble6a20_buffer
      000005AEH   SYMBOL    EDATA    ---       ble6a20_fifo
      00001155H   SYMBOL    EDATA    BYTE      dat
      00001156H   SYMBOL    EDATA    BYTE      dat
      00000EC5H   SYMBOL    EDATA    ---       buff
      00000EC9H   SYMBOL    EDATA    DWORD     len
      00000C3EH   SYMBOL    EDATA    ---       buff
      00000C42H   SYMBOL    EDATA    DWORD     len
      00000C46H   SYMBOL    EDATA    DWORD     data_len

      ---         MODULE    ---      ---       SEEKFREE_DL1A
      000010C7H   PUBLIC    EDATA    WORD      dl1a_distance_mm
      000010C9H   PUBLIC    EDATA    BYTE      dl1a_finsh_flag
      000000D0H   SFRSYM    DATA     BYTE      PSW
      0000009DH   SFRSYM    DATA     BYTE      IRCBAND
      00000097H   SFRSYM    DATA     BYTE      AUXR2
      000000EFH   SFRSYM    DATA     BYTE      AUXINTIF
      000000FDH   SFRSYM    DATA     BYTE      S4CON
      000000ACH   SFRSYM    DATA     BYTE      S3CON
      0000009AH   SFRSYM    DATA     BYTE      S2CON
      000000B7H   SFRSYM    DATA     BYTE      IPH
L251 LINKER/LOCATER V4.66.93.0                                                        11/05/2024  20:15:43  PAGE 65


      000000CDH   SFRSYM    DATA     BYTE      SPSTAT
      000000DDH   SFRSYM    DATA     BYTE      T4T3M
      000000C1H   SFRSYM    DATA     BYTE      WDT_CONTR
      000000DFH   SFRSYM    DATA     BYTE      IP3
      000000F4H   SFRSYM    DATA     BYTE      USBCON
      000000B5H   SFRSYM    DATA     BYTE      IP2
      000000FFH   SFRSYM    DATA     BYTE      RSTCFG
      000000C7H   SFRSYM    DATA     BYTE      IAP_CONTR
      000000F9H   SFRSYM    DATA     BYTE      LINICR
      0000008EH   SFRSYM    DATA     BYTE      AUXR
      000000AFH   SFRSYM    DATA     BYTE      IE2
      000000B0H.7 SFRSYM    DATA     BIT       P37
      000000B0H.6 SFRSYM    DATA     BIT       P36
      000000C8H.2 SFRSYM    DATA     BIT       P52
      00000088H   SFRSYM    DATA     BYTE      TCON
      00000089H   SFRSYM    DATA     BYTE      TMOD
      00000098H   SFRSYM    DATA     BYTE      SCON
      000000F1H   SFRSYM    DATA     BYTE      CANICR
      00000087H   SFRSYM    DATA     BYTE      PCON
      000000BCH   SFRSYM    DATA     BYTE      ADC_CONTR
      000000E7H   SFRSYM    DATA     BYTE      CMPCR2
      000000E6H   SFRSYM    DATA     BYTE      CMPCR1
      000000DEH   SFRSYM    DATA     BYTE      ADCCFG
      000000B8H   SFRSYM    DATA     BYTE      IP
      0000008FH   SFRSYM    DATA     BYTE      INTCLKO
      000000EEH   SFRSYM    DATA     BYTE      IP3H
      000000B6H   SFRSYM    DATA     BYTE      IP2H
      000000A8H   SFRSYM    DATA     BYTE      IE
      000000BBH   SFRSYM    DATA     BYTE      P_SW3
      000000BAH   SFRSYM    DATA     BYTE      P_SW2
      000000A2H   SFRSYM    DATA     BYTE      P_SW1
      000000CEH   SFRSYM    DATA     BYTE      SPCTL
      000000F8H   SFRSYM    DATA     BYTE      P7
      000000E8H   SFRSYM    DATA     BYTE      P6
      000000C8H   SFRSYM    DATA     BYTE      P5
      000000C0H   SFRSYM    DATA     BYTE      P4
      000000B0H   SFRSYM    DATA     BYTE      P3
      000000A0H   SFRSYM    DATA     BYTE      P2
      00000090H   SFRSYM    DATA     BYTE      P1
      00000080H   SFRSYM    DATA     BYTE      P0
      00FF7680H   SYMBOL    CODE     ---       dl1a_simiic_sendack
      00FF6F97H   SYMBOL    CODE     ---       dl1a_timeout_microseconds_to_mclks
      00FF6F44H   SYMBOL    CODE     ---       dl1a_timeout_mclks_to_microseconds
      00FF6A19H   SYMBOL    CODE     ---       dl1a_read_ch
      00FF762CH   SYMBOL    CODE     ---       dl1a_decode_timeout
      00FF7250H   SYMBOL    CODE     ---       dl1a_send_ch
      00FF666FH   SYMBOL    CODE     ---       dl1a_encode_timeout
      00FF6555H   SYMBOL    CODE     ---       dl1a_get_sequence_step_enables
      00FF77ACH   SYMBOL    CODE     ---       dl1a_sccb_waitack
      00FF7830H   SYMBOL    CODE     ---       dl1a_simiic_delay
      00FF5E58H   SYMBOL    CODE     ---       dl1a_get_sequence_step_timeouts
      00FF79D9H   SYMBOL    CODE     ---       dl1a_simiic_start
      00FF6AEDH   SYMBOL    CODE     ---       dl1a_simiic_read_regs
      00FF7325H   SYMBOL    CODE     ---       dl1a_simiic_write_dats
      00FF78F1H   SYMBOL    CODE     ---       dl1a_simiic_stop
      00FF676AH   SYMBOL    CODE     ---       dl1a_get_vcsel_pulse_period

      00FF7830H   BLOCK     CODE     ---       LVL=0
      00001107H   SYMBOL    EDATA    WORD      j
      00FF7830H   LINE      CODE     ---       #59
      00FF7830H   LINE      CODE     ---       #60
      00FF7830H   LINE      CODE     ---       #61
      00FF7838H   LINE      CODE     ---       #62
      00FF784EH   LINE      CODE     ---       #63
      ---         BLOCKEND  ---      ---       LVL=0
L251 LINKER/LOCATER V4.66.93.0                                                        11/05/2024  20:15:43  PAGE 66



      00FF79D9H   BLOCK     CODE     ---       LVL=0
      00FF79D9H   LINE      CODE     ---       #66
      00FF79D9H   LINE      CODE     ---       #68
      00FF79DCH   LINE      CODE     ---       #69
      00FF79DFH   LINE      CODE     ---       #70
      00FF79E2H   LINE      CODE     ---       #71
      00FF79E5H   LINE      CODE     ---       #72
      00FF79E8H   LINE      CODE     ---       #73
      00FF79EBH   LINE      CODE     ---       #74
      ---         BLOCKEND  ---      ---       LVL=0

      00FF78F1H   BLOCK     CODE     ---       LVL=0
      00FF78F1H   LINE      CODE     ---       #77
      00FF78F1H   LINE      CODE     ---       #79
      00FF78F4H   LINE      CODE     ---       #80
      00FF78F7H   LINE      CODE     ---       #81
      00FF78FAH   LINE      CODE     ---       #82
      00FF78FDH   LINE      CODE     ---       #83
      00FF7900H   LINE      CODE     ---       #84
      00FF7903H   LINE      CODE     ---       #85
      00FF7906H   LINE      CODE     ---       #86
      ---         BLOCKEND  ---      ---       LVL=0

      00FF7680H   BLOCK     CODE     ---       LVL=0
      00001157H   SYMBOL    EDATA    BYTE      ack_dat
      00FF7680H   LINE      CODE     ---       #90
      00FF7684H   LINE      CODE     ---       #92
      00FF7687H   LINE      CODE     ---       #93
      00FF768AH   LINE      CODE     ---       #94
      00FF7698H   LINE      CODE     ---       #95
      00FF769BH   LINE      CODE     ---       #97
      00FF769EH   LINE      CODE     ---       #98
      00FF76A1H   LINE      CODE     ---       #99
      00FF76A4H   LINE      CODE     ---       #100
      00FF76A7H   LINE      CODE     ---       #101
      ---         BLOCKEND  ---      ---       LVL=0

      00FF77ACH   BLOCK     CODE     ---       LVL=0
      00FF77ACH   LINE      CODE     ---       #104
      00FF77ACH   LINE      CODE     ---       #106
      00FF77AFH   LINE      CODE     ---       #108
      00FF77B2H   LINE      CODE     ---       #110
      00FF77B5H   LINE      CODE     ---       #111
      00FF77B8H   LINE      CODE     ---       #113
      00FF77BBH   LINE      CODE     ---       #116
      00FF77BEH   LINE      CODE     ---       #117
      00FF77C2H   LINE      CODE     ---       #118
      00FF77C2H   LINE      CODE     ---       #120
      00FF77C5H   LINE      CODE     ---       #121
      00FF77C8H   LINE      CODE     ---       #122
      00FF77CCH   LINE      CODE     ---       #123
      ---         BLOCKEND  ---      ---       LVL=0

      00FF7250H   BLOCK     CODE     ---       LVL=0
      00001109H   SYMBOL    EDATA    BYTE      c
      00FF7254H   BLOCK     CODE     NEAR LAB  LVL=1
      0000110AH   SYMBOL    EDATA    BYTE      i
      ---         BLOCKEND  ---      ---       LVL=1
      00FF7250H   LINE      CODE     ---       #129
      00FF7254H   LINE      CODE     ---       #130
      00FF7254H   LINE      CODE     ---       #131
      00FF725AH   LINE      CODE     ---       #132
      00FF725CH   LINE      CODE     ---       #134
      00FF7268H   LINE      CODE     ---       #135
L251 LINKER/LOCATER V4.66.93.0                                                        11/05/2024  20:15:43  PAGE 67


      00FF726BH   LINE      CODE     ---       #136
      00FF7275H   LINE      CODE     ---       #137
      00FF7278H   LINE      CODE     ---       #138
      00FF727BH   LINE      CODE     ---       #139
      00FF727EH   LINE      CODE     ---       #140
      00FF7281H   LINE      CODE     ---       #141
      00FF7295H   LINE      CODE     ---       #142
      00FF7298H   LINE      CODE     ---       #143
      ---         BLOCKEND  ---      ---       LVL=0

      00FF6A19H   BLOCK     CODE     ---       LVL=0
      000010CAH   SYMBOL    EDATA    BYTE      ack_x
      00FF6A1DH   BLOCK     CODE     NEAR LAB  LVL=1
      000010CBH   SYMBOL    EDATA    BYTE      i
      000010CCH   SYMBOL    EDATA    BYTE      c
      ---         BLOCKEND  ---      ---       LVL=1
      00FF6A19H   LINE      CODE     ---       #149
      00FF6A1DH   LINE      CODE     ---       #150
      00FF6A1DH   LINE      CODE     ---       #153
      00FF6A22H   LINE      CODE     ---       #154
      00FF6A25H   LINE      CODE     ---       #155
      00FF6A28H   LINE      CODE     ---       #156
      00FF6A2BH   LINE      CODE     ---       #158
      00FF6A32H   LINE      CODE     ---       #160
      00FF6A35H   LINE      CODE     ---       #161
      00FF6A38H   LINE      CODE     ---       #162
      00FF6A3BH   LINE      CODE     ---       #163
      00FF6A3EH   LINE      CODE     ---       #164
      00FF6A41H   LINE      CODE     ---       #165
      00FF6A4BH   LINE      CODE     ---       #166
      00FF6A4EH   LINE      CODE     ---       #168
      00FF6A5AH   LINE      CODE     ---       #169
      00FF6A71H   LINE      CODE     ---       #172
      00FF6A74H   LINE      CODE     ---       #173
      00FF6A77H   LINE      CODE     ---       #174
      00FF6A7EH   LINE      CODE     ---       #176
      00FF6A82H   LINE      CODE     ---       #177
      ---         BLOCKEND  ---      ---       LVL=0

      00FF7325H   BLOCK     CODE     ---       LVL=0
      00000DC7H   SYMBOL    EDATA    BYTE      dev_add
      00000DC8H   SYMBOL    EDATA    ---       dat
      00000DCCH   SYMBOL    EDATA    DWORD     len
      00FF7325H   LINE      CODE     ---       #189
      00FF7331H   LINE      CODE     ---       #191
      00FF7334H   LINE      CODE     ---       #192
      00FF733DH   LINE      CODE     ---       #193
      00FF733FH   LINE      CODE     ---       #195
      00FF734FH   LINE      CODE     ---       #196
      00FF7363H   LINE      CODE     ---       #199
      00FF7366H   LINE      CODE     ---       #200
      ---         BLOCKEND  ---      ---       LVL=0
      000010CDH   SYMBOL    EDATA    BYTE      dev_add
      000010CEH   SYMBOL    EDATA    BYTE      reg
      000010CFH   SYMBOL    EDATA    BYTE      dat
      000010D0H   SYMBOL    EDATA    BYTE      dev_add
      000010D1H   SYMBOL    EDATA    BYTE      reg
      000010D2H   SYMBOL    EDATA    BYTE      dat

      00FF6AEDH   BLOCK     CODE     ---       LVL=0
      00000D3FH   SYMBOL    EDATA    BYTE      dev_add
      00000D40H   SYMBOL    EDATA    BYTE      reg
      00000D41H   SYMBOL    EDATA    ---       dat_add
      00000D45H   SYMBOL    EDATA    DWORD     num
      00FF6AEDH   LINE      CODE     ---       #257
L251 LINKER/LOCATER V4.66.93.0                                                        11/05/2024  20:15:43  PAGE 68


      00FF6AF9H   LINE      CODE     ---       #259
      00FF6AFCH   LINE      CODE     ---       #260
      00FF6B05H   LINE      CODE     ---       #261
      00FF6B0CH   LINE      CODE     ---       #264
      00FF6B0FH   LINE      CODE     ---       #265
      00FF6B1CH   LINE      CODE     ---       #266
      00FF6B1EH   LINE      CODE     ---       #268
      00FF6B2AH   LINE      CODE     ---       #269
      00FF6B34H   LINE      CODE     ---       #270
      00FF6B46H   LINE      CODE     ---       #271
      00FF6B51H   LINE      CODE     ---       #272
      00FF6B54H   LINE      CODE     ---       #273
      ---         BLOCKEND  ---      ---       LVL=0
      00000D49H   SYMBOL    EDATA    BYTE      dev_add
      00000D4AH   SYMBOL    EDATA    BYTE      reg
      00000D4BH   SYMBOL    EDATA    ---       dat_add
      00000D4FH   SYMBOL    EDATA    DWORD     num
      00000C4AH   SYMBOL    EDATA    ---       index
      00000C4EH   SYMBOL    EDATA    ---       type_is_aperture
      00000C52H   SYMBOL    EDATA    BYTE      tmp
      00000C53H   SYMBOL    EDATA    BYTE      return_state
      00000C54H   SYMBOL    EDATA    WORD      loop_count

      00FF6F44H   BLOCK     CODE     ---       LVL=0
      00000F34H   SYMBOL    EDATA    WORD      timeout_period_mclks
      00000F36H   SYMBOL    EDATA    BYTE      vcsel_period_pclks
      00FF6F4CH   BLOCK     CODE     NEAR LAB  LVL=1
      00000F37H   SYMBOL    EDATA    DWORD     macro_period_ns
      ---         BLOCKEND  ---      ---       LVL=1
      00FF6F44H   LINE      CODE     ---       #401
      00FF6F4CH   LINE      CODE     ---       #402
      00FF6F4CH   LINE      CODE     ---       #403
      00FF6F73H   LINE      CODE     ---       #405
      00FF6F96H   LINE      CODE     ---       #406
      ---         BLOCKEND  ---      ---       LVL=0

      00FF6F97H   BLOCK     CODE     ---       LVL=0
      00000DD0H   SYMBOL    EDATA    DWORD     timeout_period_us
      00000DD4H   SYMBOL    EDATA    BYTE      vcsel_period_pclks
      00FF6F9FH   BLOCK     CODE     NEAR LAB  LVL=1
      00000DD5H   SYMBOL    EDATA    DWORD     macro_period_ns
      ---         BLOCKEND  ---      ---       LVL=1
      00FF6F97H   LINE      CODE     ---       #416
      00FF6F9FH   LINE      CODE     ---       #417
      00FF6F9FH   LINE      CODE     ---       #418
      00FF6FC6H   LINE      CODE     ---       #420
      00FF6FE7H   LINE      CODE     ---       #421
      ---         BLOCKEND  ---      ---       LVL=0

      00FF762CH   BLOCK     CODE     ---       LVL=0
      0000110BH   SYMBOL    EDATA    WORD      reg_val
      00FF762CH   LINE      CODE     ---       #430
      00FF7630H   LINE      CODE     ---       #433
      00FF7655H   LINE      CODE     ---       #435
      ---         BLOCKEND  ---      ---       LVL=0

      00FF666FH   BLOCK     CODE     ---       LVL=0
      00000D53H   SYMBOL    EDATA    WORD      timeout_mclks
      00FF6673H   BLOCK     CODE     NEAR LAB  LVL=1
      00000D55H   SYMBOL    EDATA    DWORD     ls_byte
      00000D59H   SYMBOL    EDATA    WORD      ms_byte
      00000D5BH   SYMBOL    EDATA    WORD      return_data
      ---         BLOCKEND  ---      ---       LVL=1
      00FF666FH   LINE      CODE     ---       #444
      00FF6673H   LINE      CODE     ---       #445
L251 LINKER/LOCATER V4.66.93.0                                                        11/05/2024  20:15:43  PAGE 69


      00FF6673H   LINE      CODE     ---       #446
      00FF6679H   LINE      CODE     ---       #447
      00FF667FH   LINE      CODE     ---       #448
      00FF6685H   LINE      CODE     ---       #450
      00FF668FH   LINE      CODE     ---       #453
      00FF669FH   LINE      CODE     ---       #454
      00FF66A1H   LINE      CODE     ---       #456
      00FF66B2H   LINE      CODE     ---       #457
      00FF66C0H   LINE      CODE     ---       #458
      00FF66D1H   LINE      CODE     ---       #459
      00FF66E9H   LINE      CODE     ---       #460
      00FF66E9H   LINE      CODE     ---       #461
      00FF66EDH   LINE      CODE     ---       #462
      ---         BLOCKEND  ---      ---       LVL=0

      00FF6555H   BLOCK     CODE     ---       LVL=0
      00001024H   SYMBOL    EDATA    ---       enables
      00FF6559H   BLOCK     CODE     NEAR LAB  LVL=1
      00001028H   SYMBOL    EDATA    BYTE      sequence_config
      ---         BLOCKEND  ---      ---       LVL=1
      00FF6555H   LINE      CODE     ---       #471
      00FF6559H   LINE      CODE     ---       #472
      00FF6559H   LINE      CODE     ---       #473
      00FF655EH   LINE      CODE     ---       #474
      00FF6572H   LINE      CODE     ---       #476
      00FF6586H   LINE      CODE     ---       #477
      00FF659DH   LINE      CODE     ---       #478
      00FF65B3H   LINE      CODE     ---       #479
      00FF65CCH   LINE      CODE     ---       #480
      00FF65E2H   LINE      CODE     ---       #481
      ---         BLOCKEND  ---      ---       LVL=0

      00FF676AH   BLOCK     CODE     ---       LVL=0
      000010D3H   SYMBOL    EDATA    INT       type
      00FF676EH   BLOCK     CODE     NEAR LAB  LVL=1
      000010D5H   SYMBOL    EDATA    BYTE      data_buffer
      ---         BLOCKEND  ---      ---       LVL=1
      00FF676AH   LINE      CODE     ---       #490
      00FF676EH   LINE      CODE     ---       #491
      00FF676EH   LINE      CODE     ---       #492
      00FF6773H   LINE      CODE     ---       #493
      00FF677DH   LINE      CODE     ---       #495
      00FF6791H   LINE      CODE     ---       #496
      00FF67A3H   LINE      CODE     ---       #497
      00FF67A5H   LINE      CODE     ---       #498
      00FF67B1H   LINE      CODE     ---       #500
      00FF67C5H   LINE      CODE     ---       #501
      00FF67D7H   LINE      CODE     ---       #502
      00FF67D9H   LINE      CODE     ---       #505
      00FF67DFH   LINE      CODE     ---       #506
      00FF67DFH   LINE      CODE     ---       #507
      00FF67E3H   LINE      CODE     ---       #508
      ---         BLOCKEND  ---      ---       LVL=0

      00FF5E58H   BLOCK     CODE     ---       LVL=0
      00000C56H   SYMBOL    EDATA    ---       enables
      00000C5AH   SYMBOL    EDATA    ---       timeouts
      00FF5E60H   BLOCK     CODE     NEAR LAB  LVL=1
      00000C5EH   SYMBOL    EDATA    ---       reg_buffer
      00000C60H   SYMBOL    EDATA    WORD      reg16_buffer
      ---         BLOCKEND  ---      ---       LVL=1
      00FF5E58H   LINE      CODE     ---       #518
      00FF5E60H   LINE      CODE     ---       #519
      00FF5E60H   LINE      CODE     ---       #521
      00FF5E66H   LINE      CODE     ---       #523
L251 LINKER/LOCATER V4.66.93.0                                                        11/05/2024  20:15:43  PAGE 70


      00FF5E74H   LINE      CODE     ---       #525
      00FF5E88H   LINE      CODE     ---       #526
      00FF5E9DH   LINE      CODE     ---       #527
      00FF5EC1H   LINE      CODE     ---       #529
      00FF5ED5H   LINE      CODE     ---       #530
      00FF5EEBH   LINE      CODE     ---       #531
      00FF5EFBH   LINE      CODE     ---       #532
      00FF5F21H   LINE      CODE     ---       #534
      00FF5F33H   LINE      CODE     ---       #536
      00FF5F47H   LINE      CODE     ---       #537
      00FF5F5DH   LINE      CODE     ---       #538
      00FF5F6DH   LINE      CODE     ---       #540
      00FF5F7DH   LINE      CODE     ---       #542
      00FF5F98H   LINE      CODE     ---       #543
      00FF5F98H   LINE      CODE     ---       #545
      00FF5FC0H   LINE      CODE     ---       #546
      ---         BLOCKEND  ---      ---       LVL=0
      00001029H   SYMBOL    EDATA    BYTE      vhv_init_byte
      0000102AH   SYMBOL    EDATA    BYTE      return_state
      0000102BH   SYMBOL    EDATA    BYTE      data_buffer
      0000102CH   SYMBOL    EDATA    WORD      loop_count
      0000074FH   SYMBOL    EDATA    DWORD     budget_us
      00000753H   SYMBOL    EDATA    BYTE      return_state
      00000754H   SYMBOL    EDATA    ---       data_buffer
      00000757H   SYMBOL    EDATA    WORD      dat
      00000759H   SYMBOL    EDATA    DWORD     used_budget_us
      0000075DH   SYMBOL    EDATA    DWORD     final_range_timeout_us
      00000761H   SYMBOL    EDATA    WORD      final_range_timeout_mclks
      00000763H   SYMBOL    EDATA    ---       enables
      00000768H   SYMBOL    EDATA    ---       timeouts
      0000096AH   SYMBOL    EDATA    ---       enables
      0000096FH   SYMBOL    EDATA    ---       timeouts
      00000985H   SYMBOL    EDATA    DWORD     budget_us
      00000DD9H   SYMBOL    EDATA    FLOAT     limit_mcps
      00000DDDH   SYMBOL    EDATA    ---       data_buffer
      00000DE0H   SYMBOL    EDATA    WORD      limit_mcps_16bit
      000010D6H   SYMBOL    EDATA    ---       reg_databuffer
      00000A77H   SYMBOL    EDATA    DWORD     measurement_timing_budget_us
      00000A7BH   SYMBOL    EDATA    BYTE      stop_variable
      00000A7CH   SYMBOL    EDATA    BYTE      return_state
      00000A7DH   SYMBOL    EDATA    BYTE      reg_data_buffer
      00000A7EH   SYMBOL    EDATA    ---       ref_spad_map
      00000A84H   SYMBOL    EDATA    ---       data_buffer
      00000A8BH   SYMBOL    EDATA    BYTE      i

      ---         MODULE    ---      ---       SEEKFREE_DL1B
      00001079H   PUBLIC    EDATA    WORD      dl1b_distance_mm
      0000107BH   PUBLIC    EDATA    BYTE      dl1b_finsh_flag
      0000107CH   PUBLIC    EDATA    BYTE      dl1b_init_flag
      00000B42H   PUBLIC    EDATA    BYTE      ?dl1b_iic_transfer_8bit_array?BYTE
      000000D0H   SFRSYM    DATA     BYTE      PSW
      0000009DH   SFRSYM    DATA     BYTE      IRCBAND
      00000097H   SFRSYM    DATA     BYTE      AUXR2
      000000EFH   SFRSYM    DATA     BYTE      AUXINTIF
      000000FDH   SFRSYM    DATA     BYTE      S4CON
      000000ACH   SFRSYM    DATA     BYTE      S3CON
      0000009AH   SFRSYM    DATA     BYTE      S2CON
      000000B7H   SFRSYM    DATA     BYTE      IPH
      000000CDH   SFRSYM    DATA     BYTE      SPSTAT
      000000DDH   SFRSYM    DATA     BYTE      T4T3M
      000000C1H   SFRSYM    DATA     BYTE      WDT_CONTR
      000000DFH   SFRSYM    DATA     BYTE      IP3
      000000F4H   SFRSYM    DATA     BYTE      USBCON
      000000B5H   SFRSYM    DATA     BYTE      IP2
      000000FFH   SFRSYM    DATA     BYTE      RSTCFG
L251 LINKER/LOCATER V4.66.93.0                                                        11/05/2024  20:15:43  PAGE 71


      000000C7H   SFRSYM    DATA     BYTE      IAP_CONTR
      000000F9H   SFRSYM    DATA     BYTE      LINICR
      0000008EH   SFRSYM    DATA     BYTE      AUXR
      000000AFH   SFRSYM    DATA     BYTE      IE2
      000000B0H.7 SFRSYM    DATA     BIT       P37
      000000B0H.6 SFRSYM    DATA     BIT       P36
      000000C8H.2 SFRSYM    DATA     BIT       P52
      00000088H   SFRSYM    DATA     BYTE      TCON
      00000089H   SFRSYM    DATA     BYTE      TMOD
      00000098H   SFRSYM    DATA     BYTE      SCON
      000000F1H   SFRSYM    DATA     BYTE      CANICR
      00000087H   SFRSYM    DATA     BYTE      PCON
      000000BCH   SFRSYM    DATA     BYTE      ADC_CONTR
      000000E7H   SFRSYM    DATA     BYTE      CMPCR2
      000000E6H   SFRSYM    DATA     BYTE      CMPCR1
      000000DEH   SFRSYM    DATA     BYTE      ADCCFG
      000000B8H   SFRSYM    DATA     BYTE      IP
      0000008FH   SFRSYM    DATA     BYTE      INTCLKO
      000000EEH   SFRSYM    DATA     BYTE      IP3H
      000000B6H   SFRSYM    DATA     BYTE      IP2H
      000000A8H   SFRSYM    DATA     BYTE      IE
      000000BBH   SFRSYM    DATA     BYTE      P_SW3
      000000BAH   SFRSYM    DATA     BYTE      P_SW2
      000000A2H   SFRSYM    DATA     BYTE      P_SW1
      000000CEH   SFRSYM    DATA     BYTE      SPCTL
      000000F8H   SFRSYM    DATA     BYTE      P7
      000000E8H   SFRSYM    DATA     BYTE      P6
      000000C8H   SFRSYM    DATA     BYTE      P5
      000000C0H   SFRSYM    DATA     BYTE      P4
      000000B0H   SFRSYM    DATA     BYTE      P3
      000000A0H   SFRSYM    DATA     BYTE      P2
      00000090H   SFRSYM    DATA     BYTE      P1
      00000080H   SFRSYM    DATA     BYTE      P0
      00FF76A8H   SYMBOL    CODE     ---       dl1b_simiic_sendack
      00FF6A83H   SYMBOL    CODE     ---       dl1b_read_ch
      00FF7299H   SYMBOL    CODE     ---       dl1b_send_ch
      00FF77CDH   SYMBOL    CODE     ---       dl1b_sccb_waitack
      00FF0026H   SYMBOL    CODE     ---       dl1b_simiic_delay

      00FF0026H   BLOCK     CODE     ---       LVL=0
      0000110DH   SYMBOL    EDATA    WORD      j
      00FF0026H   LINE      CODE     ---       #58
      00FF0026H   LINE      CODE     ---       #59
      00FF0026H   LINE      CODE     ---       #60
      00FF002CH   LINE      CODE     ---       #61
      00FF0042H   LINE      CODE     ---       #62
      ---         BLOCKEND  ---      ---       LVL=0

      00FF76A8H   BLOCK     CODE     ---       LVL=0
      00001158H   SYMBOL    EDATA    BYTE      ack_dat
      00FF76A8H   LINE      CODE     ---       #89
      00FF76ACH   LINE      CODE     ---       #91
      00FF76AFH   LINE      CODE     ---       #92
      00FF76B2H   LINE      CODE     ---       #93
      00FF76C0H   LINE      CODE     ---       #94
      00FF76C3H   LINE      CODE     ---       #96
      00FF76C6H   LINE      CODE     ---       #97
      00FF76C9H   LINE      CODE     ---       #98
      00FF76CCH   LINE      CODE     ---       #99
      00FF76CFH   LINE      CODE     ---       #100
      ---         BLOCKEND  ---      ---       LVL=0

      00FF77CDH   BLOCK     CODE     ---       LVL=0
      00FF77CDH   LINE      CODE     ---       #103
      00FF77CDH   LINE      CODE     ---       #105
L251 LINKER/LOCATER V4.66.93.0                                                        11/05/2024  20:15:43  PAGE 72


      00FF77D0H   LINE      CODE     ---       #107
      00FF77D3H   LINE      CODE     ---       #109
      00FF77D6H   LINE      CODE     ---       #110
      00FF77D9H   LINE      CODE     ---       #112
      00FF77DCH   LINE      CODE     ---       #115
      00FF77DFH   LINE      CODE     ---       #116
      00FF77E3H   LINE      CODE     ---       #117
      00FF77E3H   LINE      CODE     ---       #119
      00FF77E6H   LINE      CODE     ---       #120
      00FF77E9H   LINE      CODE     ---       #121
      00FF77EDH   LINE      CODE     ---       #122
      ---         BLOCKEND  ---      ---       LVL=0

      00FF7299H   BLOCK     CODE     ---       LVL=0
      0000110FH   SYMBOL    EDATA    BYTE      c
      00FF729DH   BLOCK     CODE     NEAR LAB  LVL=1
      00001110H   SYMBOL    EDATA    BYTE      i
      ---         BLOCKEND  ---      ---       LVL=1
      00FF7299H   LINE      CODE     ---       #128
      00FF729DH   LINE      CODE     ---       #129
      00FF729DH   LINE      CODE     ---       #130
      00FF72A3H   LINE      CODE     ---       #131
      00FF72A5H   LINE      CODE     ---       #133
      00FF72B1H   LINE      CODE     ---       #134
      00FF72B4H   LINE      CODE     ---       #135
      00FF72BEH   LINE      CODE     ---       #136
      00FF72C1H   LINE      CODE     ---       #137
      00FF72C4H   LINE      CODE     ---       #138
      00FF72C7H   LINE      CODE     ---       #139
      00FF72CAH   LINE      CODE     ---       #140
      00FF72DEH   LINE      CODE     ---       #141
      00FF72E1H   LINE      CODE     ---       #142
      ---         BLOCKEND  ---      ---       LVL=0

      00FF6A83H   BLOCK     CODE     ---       LVL=0
      000010D9H   SYMBOL    EDATA    BYTE      ack_x
      00FF6A87H   BLOCK     CODE     NEAR LAB  LVL=1
      000010DAH   SYMBOL    EDATA    BYTE      i
      000010DBH   SYMBOL    EDATA    BYTE      c
      ---         BLOCKEND  ---      ---       LVL=1
      00FF6A83H   LINE      CODE     ---       #148
      00FF6A87H   LINE      CODE     ---       #149
      00FF6A87H   LINE      CODE     ---       #152
      00FF6A8CH   LINE      CODE     ---       #153
      00FF6A8FH   LINE      CODE     ---       #154
      00FF6A92H   LINE      CODE     ---       #155
      00FF6A95H   LINE      CODE     ---       #157
      00FF6A9CH   LINE      CODE     ---       #159
      00FF6A9FH   LINE      CODE     ---       #160
      00FF6AA2H   LINE      CODE     ---       #161
      00FF6AA5H   LINE      CODE     ---       #162
      00FF6AA8H   LINE      CODE     ---       #163
      00FF6AABH   LINE      CODE     ---       #164
      00FF6AB5H   LINE      CODE     ---       #165
      00FF6AB8H   LINE      CODE     ---       #167
      00FF6AC4H   LINE      CODE     ---       #168
      00FF6ADBH   LINE      CODE     ---       #171
      00FF6ADEH   LINE      CODE     ---       #172
      00FF6AE1H   LINE      CODE     ---       #173
      00FF6AE8H   LINE      CODE     ---       #175
      00FF6AECH   LINE      CODE     ---       #176
      ---         BLOCKEND  ---      ---       LVL=0
      00000B42H   SYMBOL    EDATA    ---       write_data
      00000B46H   SYMBOL    EDATA    DWORD     write_len
      00000B4AH   SYMBOL    EDATA    ---       read_data
L251 LINKER/LOCATER V4.66.93.0                                                        11/05/2024  20:15:43  PAGE 73


      00000B4EH   SYMBOL    EDATA    DWORD     read_len
      0000102EH   SYMBOL    EDATA    ---       data_buffer
      00001031H   SYMBOL    EDATA    INT       dl1b_distance_temp
      000003D3H   SYMBOL    EDATA    BYTE      return_state
      000003D4H   SYMBOL    EDATA    ---       data_buffer
      0000045DH   SYMBOL    EDATA    WORD      time_out_count

      ---         MODULE    ---      ---       SEEKFREE_FONT
      00FF212DH   PUBLIC    CODE     ---       ascii_font_8x16
      00FF271DH   PUBLIC    CODE     ---       oled_8x16
      00FF2D0DH   PUBLIC    CODE     ---       tft_ascii
      00FF32FDH   PUBLIC    CODE     ---       ascii_font_6x8
      00FF3525H   PUBLIC    CODE     ---       oled_6x8
      000000D0H   SFRSYM    DATA     BYTE      PSW
      0000009DH   SFRSYM    DATA     BYTE      IRCBAND
      00000097H   SFRSYM    DATA     BYTE      AUXR2
      000000EFH   SFRSYM    DATA     BYTE      AUXINTIF
      000000FDH   SFRSYM    DATA     BYTE      S4CON
      000000ACH   SFRSYM    DATA     BYTE      S3CON
      0000009AH   SFRSYM    DATA     BYTE      S2CON
      000000B7H   SFRSYM    DATA     BYTE      IPH
      000000CDH   SFRSYM    DATA     BYTE      SPSTAT
      000000DDH   SFRSYM    DATA     BYTE      T4T3M
      000000C1H   SFRSYM    DATA     BYTE      WDT_CONTR
      000000DFH   SFRSYM    DATA     BYTE      IP3
      000000F4H   SFRSYM    DATA     BYTE      USBCON
      000000B5H   SFRSYM    DATA     BYTE      IP2
      000000FFH   SFRSYM    DATA     BYTE      RSTCFG
      000000C7H   SFRSYM    DATA     BYTE      IAP_CONTR
      000000F9H   SFRSYM    DATA     BYTE      LINICR
      0000008EH   SFRSYM    DATA     BYTE      AUXR
      000000AFH   SFRSYM    DATA     BYTE      IE2
      00000088H   SFRSYM    DATA     BYTE      TCON
      00000089H   SFRSYM    DATA     BYTE      TMOD
      00000098H   SFRSYM    DATA     BYTE      SCON
      000000F1H   SFRSYM    DATA     BYTE      CANICR
      00000087H   SFRSYM    DATA     BYTE      PCON
      000000BCH   SFRSYM    DATA     BYTE      ADC_CONTR
      000000E7H   SFRSYM    DATA     BYTE      CMPCR2
      000000E6H   SFRSYM    DATA     BYTE      CMPCR1
      000000DEH   SFRSYM    DATA     BYTE      ADCCFG
      000000B8H   SFRSYM    DATA     BYTE      IP
      0000008FH   SFRSYM    DATA     BYTE      INTCLKO
      000000EEH   SFRSYM    DATA     BYTE      IP3H
      000000B6H   SFRSYM    DATA     BYTE      IP2H
      000000A8H   SFRSYM    DATA     BYTE      IE
      000000BBH   SFRSYM    DATA     BYTE      P_SW3
      000000BAH   SFRSYM    DATA     BYTE      P_SW2
      000000A2H   SFRSYM    DATA     BYTE      P_SW1
      000000CEH   SFRSYM    DATA     BYTE      SPCTL
      000000F8H   SFRSYM    DATA     BYTE      P7
      000000E8H   SFRSYM    DATA     BYTE      P6
      000000C8H   SFRSYM    DATA     BYTE      P5
      000000C0H   SFRSYM    DATA     BYTE      P4
      000000B0H   SFRSYM    DATA     BYTE      P3
      000000A0H   SFRSYM    DATA     BYTE      P2
      00000090H   SFRSYM    DATA     BYTE      P1
      00000080H   SFRSYM    DATA     BYTE      P0

      ---         MODULE    ---      ---       SEEKFREE_FUNCTION
      00000487H   PUBLIC    EDATA    BYTE      ?zf_sprintf?BYTE
      000000D0H   SFRSYM    DATA     BYTE      PSW
      0000009DH   SFRSYM    DATA     BYTE      IRCBAND
      00000097H   SFRSYM    DATA     BYTE      AUXR2
      000000EFH   SFRSYM    DATA     BYTE      AUXINTIF
L251 LINKER/LOCATER V4.66.93.0                                                        11/05/2024  20:15:43  PAGE 74


      000000FDH   SFRSYM    DATA     BYTE      S4CON
      000000ACH   SFRSYM    DATA     BYTE      S3CON
      0000009AH   SFRSYM    DATA     BYTE      S2CON
      000000B7H   SFRSYM    DATA     BYTE      IPH
      000000CDH   SFRSYM    DATA     BYTE      SPSTAT
      000000DDH   SFRSYM    DATA     BYTE      T4T3M
      000000C1H   SFRSYM    DATA     BYTE      WDT_CONTR
      000000DFH   SFRSYM    DATA     BYTE      IP3
      000000F4H   SFRSYM    DATA     BYTE      USBCON
      000000B5H   SFRSYM    DATA     BYTE      IP2
      000000FFH   SFRSYM    DATA     BYTE      RSTCFG
      000000C7H   SFRSYM    DATA     BYTE      IAP_CONTR
      000000F9H   SFRSYM    DATA     BYTE      LINICR
      0000008EH   SFRSYM    DATA     BYTE      AUXR
      000000AFH   SFRSYM    DATA     BYTE      IE2
      00000088H   SFRSYM    DATA     BYTE      TCON
      00000089H   SFRSYM    DATA     BYTE      TMOD
      00000098H   SFRSYM    DATA     BYTE      SCON
      000000F1H   SFRSYM    DATA     BYTE      CANICR
      00000087H   SFRSYM    DATA     BYTE      PCON
      000000BCH   SFRSYM    DATA     BYTE      ADC_CONTR
      000000E7H   SFRSYM    DATA     BYTE      CMPCR2
      000000E6H   SFRSYM    DATA     BYTE      CMPCR1
      000000DEH   SFRSYM    DATA     BYTE      ADCCFG
      000000B8H   SFRSYM    DATA     BYTE      IP
      0000008FH   SFRSYM    DATA     BYTE      INTCLKO
      000000EEH   SFRSYM    DATA     BYTE      IP3H
      000000B6H   SFRSYM    DATA     BYTE      IP2H
      000000A8H   SFRSYM    DATA     BYTE      IE
      000000BBH   SFRSYM    DATA     BYTE      P_SW3
      000000BAH   SFRSYM    DATA     BYTE      P_SW2
      000000A2H   SFRSYM    DATA     BYTE      P_SW1
      000000CEH   SFRSYM    DATA     BYTE      SPCTL
      000000F8H   SFRSYM    DATA     BYTE      P7
      000000E8H   SFRSYM    DATA     BYTE      P6
      000000C8H   SFRSYM    DATA     BYTE      P5
      000000C0H   SFRSYM    DATA     BYTE      P4
      000000B0H   SFRSYM    DATA     BYTE      P3
      000000A0H   SFRSYM    DATA     BYTE      P2
      00000090H   SFRSYM    DATA     BYTE      P1
      00000080H   SFRSYM    DATA     BYTE      P0
      00FF6228H   SYMBOL    CODE     ---       number_conversion_ascii
      00FF7E70H   SYMBOL    HCONST   ---       ?tpl?0001
      00000ECDH   SYMBOL    EDATA    DWORD     num1
      00000ED1H   SYMBOL    EDATA    DWORD     num2
      0000107DH   SYMBOL    EDATA    LONG      t
      00000DE2H   SYMBOL    EDATA    ---       str
      00000DE6H   SYMBOL    EDATA    BYTE      sign
      00000DE7H   SYMBOL    EDATA    LONG      temp
      000009A8H   SYMBOL    EDATA    ---       str
      000009ACH   SYMBOL    EDATA    LONG      number
      000009B0H   SYMBOL    EDATA    ---       data_temp
      000009C0H   SYMBOL    EDATA    BYTE      dat_bit
      000009C1H   SYMBOL    EDATA    LONG      number_temp
      00000ED5H   SYMBOL    EDATA    ---       str
      00000ED9H   SYMBOL    EDATA    DWORD     temp
      000009FFH   SYMBOL    EDATA    ---       str
      00000A03H   SYMBOL    EDATA    DWORD     number
      00000A07H   SYMBOL    EDATA    ---       data_temp
      00000A17H   SYMBOL    EDATA    BYTE      dat_bit
      00000B10H   SYMBOL    EDATA    ---       str
      00000B14H   SYMBOL    EDATA    BYTE      sign
      00000B15H   SYMBOL    EDATA    FLOAT     temp
      00000B19H   SYMBOL    EDATA    FLOAT     temp_point
      00000B1DH   SYMBOL    EDATA    FLOAT     point_bit
L251 LINKER/LOCATER V4.66.93.0                                                        11/05/2024  20:15:43  PAGE 75


      00000886H   SYMBOL    EDATA    ---       str
      0000088AH   SYMBOL    EDATA    FLOAT     number
      0000088EH   SYMBOL    EDATA    BYTE      point_bit
      0000088FH   SYMBOL    EDATA    INT       data_int
      00000891H   SYMBOL    EDATA    INT       data_float
      00000893H   SYMBOL    EDATA    ---       data_temp
      000008A3H   SYMBOL    EDATA    ---       data_temp_point
      000008AFH   SYMBOL    EDATA    BYTE      dat_bit
      00000B21H   SYMBOL    EDATA    ---       str
      00000B25H   SYMBOL    EDATA    BYTE      sign
      00000B26H   SYMBOL    EDATA    FLOAT     temp
      00000B2AH   SYMBOL    EDATA    FLOAT     temp_point
      00000B2EH   SYMBOL    EDATA    FLOAT     point_bit
      000005C5H   SYMBOL    EDATA    ---       str
      000005C9H   SYMBOL    EDATA    FLOAT     number
      000005CDH   SYMBOL    EDATA    BYTE      point_bit
      000005CEH   SYMBOL    EDATA    INT       data_int
      000005D0H   SYMBOL    EDATA    INT       data_float
      000005D2H   SYMBOL    EDATA    ---       data_temp
      000005EAH   SYMBOL    EDATA    ---       data_temp_point
      000005FCH   SYMBOL    EDATA    BYTE      dat_bit
      00000B7DH   SYMBOL    EDATA    ---       str
      00000B81H   SYMBOL    EDATA    DWORD     str_len
      00000B85H   SYMBOL    EDATA    DWORD     result_data
      00000B89H   SYMBOL    EDATA    BYTE      temp
      00000B8AH   SYMBOL    EDATA    BYTE      flag
      00000902H   SYMBOL    EDATA    ---       str
      00000906H   SYMBOL    EDATA    DWORD     number
      0000090AH   SYMBOL    EDATA    ---       hex_index
      0000091AH   SYMBOL    EDATA    ---       data_temp
      00000926H   SYMBOL    EDATA    BYTE      dat_bit

      00FF6228H   BLOCK     CODE     ---       LVL=0
      00000AB4H   SYMBOL    EDATA    DWORD     dat
      00000AB8H   SYMBOL    EDATA    ---       p
      00000ABCH   SYMBOL    EDATA    BYTE      neg_type
      00000ABDH   SYMBOL    EDATA    BYTE      radix
      00FF6234H   BLOCK     CODE     NEAR LAB  LVL=1
      00000ABEH   SYMBOL    EDATA    LONG      neg_dat
      00000AC2H   SYMBOL    EDATA    DWORD     pos_dat
      00000AC6H   SYMBOL    EDATA    BYTE      temp_data
      00000AC7H   SYMBOL    EDATA    BYTE      valid_num
      ---         BLOCKEND  ---      ---       LVL=1
      00FF6228H   LINE      CODE     ---       #639
      00FF6234H   LINE      CODE     ---       #640
      00FF6234H   LINE      CODE     ---       #643
      00FF6239H   LINE      CODE     ---       #644
      00FF623EH   LINE      CODE     ---       #646
      00FF6247H   LINE      CODE     ---       #648
      00FF624FH   LINE      CODE     ---       #649
      00FF6255H   LINE      CODE     ---       #651
      00FF6267H   LINE      CODE     ---       #652
      00FF6267H   LINE      CODE     ---       #653
      00FF6267H   LINE      CODE     ---       #655
      00FF6283H   LINE      CODE     ---       #656
      00FF6296H   LINE      CODE     ---       #657
      00FF62A3H   LINE      CODE     ---       #659
      00FF62ABH   LINE      CODE     ---       #661
      00FF62ABH   LINE      CODE     ---       #662
      00FF62ABH   LINE      CODE     ---       #663
      00FF62B5H   LINE      CODE     ---       #664
      00FF62B7H   LINE      CODE     ---       #665
      00FF62BAH   LINE      CODE     ---       #668
      00FF62C2H   LINE      CODE     ---       #669
      00FF62C2H   LINE      CODE     ---       #671
L251 LINKER/LOCATER V4.66.93.0                                                        11/05/2024  20:15:43  PAGE 76


      00FF62D7H   LINE      CODE     ---       #672
      00FF62E1H   LINE      CODE     ---       #674
      00FF62EDH   LINE      CODE     ---       #675
      00FF62EFH   LINE      CODE     ---       #678
      00FF62FBH   LINE      CODE     ---       #679
      00FF62FBH   LINE      CODE     ---       #681
      00FF6306H   LINE      CODE     ---       #683
      00FF6319H   LINE      CODE     ---       #684
      00FF6326H   LINE      CODE     ---       #686
      00FF632EH   LINE      CODE     ---       #688
      00FF632EH   LINE      CODE     ---       #689
      00FF632EH   LINE      CODE     ---       #690
      00FF6338H   LINE      CODE     ---       #691
      00FF633AH   LINE      CODE     ---       #692
      00FF633AH   LINE      CODE     ---       #693
      00FF633EH   LINE      CODE     ---       #694
      ---         BLOCKEND  ---      ---       LVL=0
      00000BD0H   SYMBOL    EDATA    ---       d_buff
      00000BD4H   SYMBOL    EDATA    DWORD     len
      00000BD8H   SYMBOL    EDATA    DWORD     i
      00000BDCH   SYMBOL    EDATA    CHAR      temp_data
      00000487H   SYMBOL    EDATA    ---       buff
      0000048BH   SYMBOL    EDATA    ---       format
      0000048FH   SYMBOL    EDATA    DWORD     buff_len
      00000493H   SYMBOL    EDATA    ---       arg
      00000497H   SYMBOL    EDATA    CHAR      ret
      00000498H   SYMBOL    EDATA    CHAR      ch
      00000498H   SYMBOL    EDATA    ---       vstr
      000004B9H   SYMBOL    EDATA    LONG      ival
      000004BDH   SYMBOL    EDATA    BYTE      vlen
      00000498H   SYMBOL    EDATA    ---       vstr
      000004B9H   SYMBOL    EDATA    FLOAT     ival
      000004BDH   SYMBOL    EDATA    BYTE      vlen
      00000498H   SYMBOL    EDATA    ---       vstr
      000004B9H   SYMBOL    EDATA    DWORD     ival
      000004BDH   SYMBOL    EDATA    BYTE      vlen
      00000498H   SYMBOL    EDATA    ---       vstr
      000004B9H   SYMBOL    EDATA    DWORD     ival
      000004BDH   SYMBOL    EDATA    BYTE      vlen
      00000498H   SYMBOL    EDATA    ---       vstr
      000004B9H   SYMBOL    EDATA    DWORD     ival
      000004BDH   SYMBOL    EDATA    BYTE      vlen
      00000498H   SYMBOL    EDATA    ---       pc
      00000498H   SYMBOL    EDATA    ---       vstr
      000004B9H   SYMBOL    EDATA    DWORD     ival

      ---         MODULE    ---      ---       SEEKFREE_ICM20602
      00000C62H   PUBLIC    EDATA    INT       icm20602_acc_x
      00000C64H   PUBLIC    EDATA    INT       icm20602_acc_y
      00000C66H   PUBLIC    EDATA    INT       icm20602_acc_z
      00000C68H   PUBLIC    EDATA    INT       icm20602_gyro_x
      00000C6AH   PUBLIC    EDATA    INT       icm20602_gyro_y
      00000C6CH   PUBLIC    EDATA    INT       icm20602_gyro_z
      000000D0H   SFRSYM    DATA     BYTE      PSW
      0000009DH   SFRSYM    DATA     BYTE      IRCBAND
      00000097H   SFRSYM    DATA     BYTE      AUXR2
      000000EFH   SFRSYM    DATA     BYTE      AUXINTIF
      000000FDH   SFRSYM    DATA     BYTE      S4CON
      000000ACH   SFRSYM    DATA     BYTE      S3CON
      0000009AH   SFRSYM    DATA     BYTE      S2CON
      000000B7H   SFRSYM    DATA     BYTE      IPH
      000000CDH   SFRSYM    DATA     BYTE      SPSTAT
      000000DDH   SFRSYM    DATA     BYTE      T4T3M
      000000C1H   SFRSYM    DATA     BYTE      WDT_CONTR
      000000DFH   SFRSYM    DATA     BYTE      IP3
L251 LINKER/LOCATER V4.66.93.0                                                        11/05/2024  20:15:43  PAGE 77


      000000F4H   SFRSYM    DATA     BYTE      USBCON
      000000B5H   SFRSYM    DATA     BYTE      IP2
      000000FFH   SFRSYM    DATA     BYTE      RSTCFG
      000000C7H   SFRSYM    DATA     BYTE      IAP_CONTR
      000000F9H   SFRSYM    DATA     BYTE      LINICR
      0000008EH   SFRSYM    DATA     BYTE      AUXR
      000000AFH   SFRSYM    DATA     BYTE      IE2
      000000C0H.3 SFRSYM    DATA     BIT       P43
      000000C0H.2 SFRSYM    DATA     BIT       P42
      00000088H   SFRSYM    DATA     BYTE      TCON
      00000089H   SFRSYM    DATA     BYTE      TMOD
      000000C0H.1 SFRSYM    DATA     BIT       P41
      00000098H   SFRSYM    DATA     BYTE      SCON
      000000C0H.0 SFRSYM    DATA     BIT       P40
      000000F1H   SFRSYM    DATA     BYTE      CANICR
      00000087H   SFRSYM    DATA     BYTE      PCON
      000000BCH   SFRSYM    DATA     BYTE      ADC_CONTR
      000000E7H   SFRSYM    DATA     BYTE      CMPCR2
      000000E6H   SFRSYM    DATA     BYTE      CMPCR1
      000000DEH   SFRSYM    DATA     BYTE      ADCCFG
      000000B8H   SFRSYM    DATA     BYTE      IP
      0000008FH   SFRSYM    DATA     BYTE      INTCLKO
      000000EEH   SFRSYM    DATA     BYTE      IP3H
      000000B6H   SFRSYM    DATA     BYTE      IP2H
      000000A8H   SFRSYM    DATA     BYTE      IE
      000000BBH   SFRSYM    DATA     BYTE      P_SW3
      000000BAH   SFRSYM    DATA     BYTE      P_SW2
      000000A2H   SFRSYM    DATA     BYTE      P_SW1
      000000CEH   SFRSYM    DATA     BYTE      SPCTL
      000000F8H   SFRSYM    DATA     BYTE      P7
      000000E8H   SFRSYM    DATA     BYTE      P6
      000000C8H   SFRSYM    DATA     BYTE      P5
      000000C0H   SFRSYM    DATA     BYTE      P4
      000000B0H   SFRSYM    DATA     BYTE      P3
      000000A0H   SFRSYM    DATA     BYTE      P2
      00000090H   SFRSYM    DATA     BYTE      P1
      00000080H   SFRSYM    DATA     BYTE      P0
      00FF784FH   SYMBOL    CODE     ---       icm20602_read_register
      00FF6CE2H   SYMBOL    CODE     ---       icm20602_simspi_wr_byte
      00FF6FE8H   SYMBOL    CODE     ---       icm20602_simspi_r_reg_bytes
      00FF76F8H   SYMBOL    CODE     ---       icm20602_simspi_r_reg_byte

      00FF6CE2H   BLOCK     CODE     ---       LVL=0
      00001111H   SYMBOL    EDATA    BYTE      byte
      00FF6CE6H   BLOCK     CODE     NEAR LAB  LVL=1
      00001112H   SYMBOL    EDATA    BYTE      i
      ---         BLOCKEND  ---      ---       LVL=1
      00FF6CE2H   LINE      CODE     ---       #278
      00FF6CE6H   LINE      CODE     ---       #279
      00FF6CE6H   LINE      CODE     ---       #282
      00FF6CEDH   LINE      CODE     ---       #284
      00FF6CFBH   LINE      CODE     ---       #285
      00FF6D05H   LINE      CODE     ---       #286
      00FF6D08H   LINE      CODE     ---       #287
      00FF6D0BH   LINE      CODE     ---       #289
      00FF6D0EH   LINE      CODE     ---       #290
      00FF6D11H   LINE      CODE     ---       #291
      00FF6D1FH   LINE      CODE     ---       #292
      00FF6D36H   LINE      CODE     ---       #293
      00FF6D3AH   LINE      CODE     ---       #294
      ---         BLOCKEND  ---      ---       LVL=0
      00001113H   SYMBOL    EDATA    BYTE      cmd
      00001114H   SYMBOL    EDATA    BYTE      val

      00FF76F8H   BLOCK     CODE     ---       LVL=0
L251 LINKER/LOCATER V4.66.93.0                                                        11/05/2024  20:15:43  PAGE 78


      00001033H   SYMBOL    EDATA    BYTE      cmd
      00001034H   SYMBOL    EDATA    ---       val
      00FF76F8H   LINE      CODE     ---       #340
      00FF7700H   LINE      CODE     ---       #343
      00FF770CH   LINE      CODE     ---       #344
      00FF7713H   LINE      CODE     ---       #345
      00FF771EH   LINE      CODE     ---       #347
      ---         BLOCKEND  ---      ---       LVL=0

      00FF6FE8H   BLOCK     CODE     ---       LVL=0
      00000BDDH   SYMBOL    EDATA    BYTE      cmd
      00000BDEH   SYMBOL    EDATA    ---       val
      00000BE2H   SYMBOL    EDATA    DWORD     num
      00FF6FF4H   BLOCK     CODE     NEAR LAB  LVL=1
      00000BE6H   SYMBOL    EDATA    DWORD     i
      ---         BLOCKEND  ---      ---       LVL=1
      00FF6FE8H   LINE      CODE     ---       #357
      00FF6FF4H   LINE      CODE     ---       #358
      00FF6FF4H   LINE      CODE     ---       #359
      00FF6FFAH   LINE      CODE     ---       #360
      00FF7006H   LINE      CODE     ---       #361
      00FF700DH   LINE      CODE     ---       #363
      00FF700FH   LINE      CODE     ---       #365
      00FF7024H   LINE      CODE     ---       #366
      00FF7038H   LINE      CODE     ---       #367
      ---         BLOCKEND  ---      ---       LVL=0
      00001115H   SYMBOL    EDATA    BYTE      reg
      00001116H   SYMBOL    EDATA    BYTE      dat

      00FF784FH   BLOCK     CODE     ---       LVL=0
      00001117H   SYMBOL    EDATA    BYTE      reg
      00FF7853H   BLOCK     CODE     NEAR LAB  LVL=1
      00001118H   SYMBOL    EDATA    BYTE      dat
      ---         BLOCKEND  ---      ---       LVL=1
      00FF784FH   LINE      CODE     ---       #407
      00FF7853H   LINE      CODE     ---       #408
      00FF7853H   LINE      CODE     ---       #410
      00FF7856H   LINE      CODE     ---       #411
      00FF7865H   LINE      CODE     ---       #412
      00FF7868H   LINE      CODE     ---       #413
      00FF786CH   LINE      CODE     ---       #414
      ---         BLOCKEND  ---      ---       LVL=0
      00000DEBH   SYMBOL    EDATA    BYTE      reg
      00000DECH   SYMBOL    EDATA    ---       dat
      00000DF0H   SYMBOL    EDATA    DWORD     len
      00001081H   SYMBOL    EDATA    BYTE      dat
      00001082H   SYMBOL    EDATA    BYTE      return_state
      00001083H   SYMBOL    EDATA    WORD      timeout_count
      00000F9BH   SYMBOL    EDATA    ---       dat
      00000FA1H   SYMBOL    EDATA    ---       dat
      00000FA7H   SYMBOL    EDATA    INT       acc_value
      00000FA9H   SYMBOL    EDATA    FLOAT     acc_data
      00000FADH   SYMBOL    EDATA    INT       gyro_value
      00000FAFH   SYMBOL    EDATA    FLOAT     gyro_data
      00001085H   SYMBOL    EDATA    BYTE      val
      00001086H   SYMBOL    EDATA    BYTE      return_state
      00001087H   SYMBOL    EDATA    WORD      timeout_count

      ---         MODULE    ---      ---       SEEKFREE_IMU660RA
      00000C6EH   PUBLIC    EDATA    INT       imu660ra_acc_x
      00000C70H   PUBLIC    EDATA    INT       imu660ra_acc_y
      00000C72H   PUBLIC    EDATA    INT       imu660ra_acc_z
      00000C74H   PUBLIC    EDATA    INT       imu660ra_gyro_x
      00000C76H   PUBLIC    EDATA    INT       imu660ra_gyro_y
      00000C78H   PUBLIC    EDATA    INT       imu660ra_gyro_z
L251 LINKER/LOCATER V4.66.93.0                                                        11/05/2024  20:15:43  PAGE 79


      000000D0H   SFRSYM    DATA     BYTE      PSW
      0000009DH   SFRSYM    DATA     BYTE      IRCBAND
      00000097H   SFRSYM    DATA     BYTE      AUXR2
      000000EFH   SFRSYM    DATA     BYTE      AUXINTIF
      000000FDH   SFRSYM    DATA     BYTE      S4CON
      000000ACH   SFRSYM    DATA     BYTE      S3CON
      0000009AH   SFRSYM    DATA     BYTE      S2CON
      000000B7H   SFRSYM    DATA     BYTE      IPH
      000000CDH   SFRSYM    DATA     BYTE      SPSTAT
      000000DDH   SFRSYM    DATA     BYTE      T4T3M
      000000C1H   SFRSYM    DATA     BYTE      WDT_CONTR
      000000DFH   SFRSYM    DATA     BYTE      IP3
      000000F4H   SFRSYM    DATA     BYTE      USBCON
      000000B5H   SFRSYM    DATA     BYTE      IP2
      000000FFH   SFRSYM    DATA     BYTE      RSTCFG
      000000C7H   SFRSYM    DATA     BYTE      IAP_CONTR
      000000F9H   SFRSYM    DATA     BYTE      LINICR
      0000008EH   SFRSYM    DATA     BYTE      AUXR
      000000AFH   SFRSYM    DATA     BYTE      IE2
      000000C0H.3 SFRSYM    DATA     BIT       P43
      000000C0H.2 SFRSYM    DATA     BIT       P42
      00000088H   SFRSYM    DATA     BYTE      TCON
      00000089H   SFRSYM    DATA     BYTE      TMOD
      000000C0H.1 SFRSYM    DATA     BIT       P41
      00000098H   SFRSYM    DATA     BYTE      SCON
      000000C0H.0 SFRSYM    DATA     BIT       P40
      000000F1H   SFRSYM    DATA     BYTE      CANICR
      00000087H   SFRSYM    DATA     BYTE      PCON
      000000BCH   SFRSYM    DATA     BYTE      ADC_CONTR
      000000E7H   SFRSYM    DATA     BYTE      CMPCR2
      000000E6H   SFRSYM    DATA     BYTE      CMPCR1
      000000DEH   SFRSYM    DATA     BYTE      ADCCFG
      000000B8H   SFRSYM    DATA     BYTE      IP
      0000008FH   SFRSYM    DATA     BYTE      INTCLKO
      000000EEH   SFRSYM    DATA     BYTE      IP3H
      000000B6H   SFRSYM    DATA     BYTE      IP2H
      000000A8H   SFRSYM    DATA     BYTE      IE
      000000BBH   SFRSYM    DATA     BYTE      P_SW3
      000000BAH   SFRSYM    DATA     BYTE      P_SW2
      000000A2H   SFRSYM    DATA     BYTE      P_SW1
      000000CEH   SFRSYM    DATA     BYTE      SPCTL
      000000F8H   SFRSYM    DATA     BYTE      P7
      000000E8H   SFRSYM    DATA     BYTE      P6
      000000C8H   SFRSYM    DATA     BYTE      P5
      000000C0H   SFRSYM    DATA     BYTE      P4
      000000B0H   SFRSYM    DATA     BYTE      P3
      000000A0H   SFRSYM    DATA     BYTE      P2
      00000090H   SFRSYM    DATA     BYTE      P1
      00000080H   SFRSYM    DATA     BYTE      P0
      00FF778AH   SYMBOL    CODE     ---       imu660ra_read_register
      00FF6D3BH   SYMBOL    CODE     ---       imu660ra_simspi_wr_byte
      00FF7205H   SYMBOL    CODE     ---       imu660ra_simspi_r_reg_bytes

      00FF6D3BH   BLOCK     CODE     ---       LVL=0
      00001119H   SYMBOL    EDATA    BYTE      byte
      00FF6D3FH   BLOCK     CODE     NEAR LAB  LVL=1
      0000111AH   SYMBOL    EDATA    BYTE      i
      ---         BLOCKEND  ---      ---       LVL=1
      00FF6D3BH   LINE      CODE     ---       #310
      00FF6D3FH   LINE      CODE     ---       #311
      00FF6D3FH   LINE      CODE     ---       #314
      00FF6D46H   LINE      CODE     ---       #316
      00FF6D54H   LINE      CODE     ---       #317
      00FF6D5EH   LINE      CODE     ---       #318
      00FF6D61H   LINE      CODE     ---       #319
L251 LINKER/LOCATER V4.66.93.0                                                        11/05/2024  20:15:43  PAGE 80


      00FF6D64H   LINE      CODE     ---       #320
      00FF6D67H   LINE      CODE     ---       #321
      00FF6D6AH   LINE      CODE     ---       #323
      00FF6D78H   LINE      CODE     ---       #324
      00FF6D8FH   LINE      CODE     ---       #325
      00FF6D93H   LINE      CODE     ---       #326
      ---         BLOCKEND  ---      ---       LVL=0
      0000111BH   SYMBOL    EDATA    BYTE      cmd
      0000111CH   SYMBOL    EDATA    BYTE      val
      00000DF4H   SYMBOL    EDATA    BYTE      cmd
      00000DF5H   SYMBOL    EDATA    ---       dat_addr
      00000DF9H   SYMBOL    EDATA    DWORD     len

      00FF7205H   BLOCK     CODE     ---       LVL=0
      00000DFDH   SYMBOL    EDATA    BYTE      cmd
      00000DFEH   SYMBOL    EDATA    ---       val
      00000E02H   SYMBOL    EDATA    DWORD     num
      00FF7205H   LINE      CODE     ---       #383
      00FF7211H   LINE      CODE     ---       #385
      00FF721DH   LINE      CODE     ---       #386
      00FF7224H   LINE      CODE     ---       #388
      00FF7226H   LINE      CODE     ---       #390
      00FF723BH   LINE      CODE     ---       #391
      00FF724FH   LINE      CODE     ---       #392
      ---         BLOCKEND  ---      ---       LVL=0
      0000111DH   SYMBOL    EDATA    BYTE      reg
      0000111EH   SYMBOL    EDATA    BYTE      dat
      00000E06H   SYMBOL    EDATA    BYTE      reg
      00000E07H   SYMBOL    EDATA    ---       dat
      00000E0BH   SYMBOL    EDATA    DWORD     len

      00FF778AH   BLOCK     CODE     ---       LVL=0
      000010DCH   SYMBOL    EDATA    BYTE      reg
      00FF778EH   BLOCK     CODE     NEAR LAB  LVL=1
      000010DDH   SYMBOL    EDATA    ---       dat
      ---         BLOCKEND  ---      ---       LVL=1
      00FF778AH   LINE      CODE     ---       #433
      00FF778EH   LINE      CODE     ---       #434
      00FF778EH   LINE      CODE     ---       #436
      00FF7791H   LINE      CODE     ---       #437
      00FF77A4H   LINE      CODE     ---       #438
      00FF77A7H   LINE      CODE     ---       #439
      00FF77ABH   LINE      CODE     ---       #440
      ---         BLOCKEND  ---      ---       LVL=0
      00000E0FH   SYMBOL    EDATA    BYTE      reg
      00000E10H   SYMBOL    EDATA    ---       dat
      00000E14H   SYMBOL    EDATA    DWORD     len
      00001089H   SYMBOL    EDATA    BYTE      dat
      0000108AH   SYMBOL    EDATA    BYTE      return_state
      0000108BH   SYMBOL    EDATA    WORD      timeout_count
      00000F3BH   SYMBOL    EDATA    ---       dat
      00000F42H   SYMBOL    EDATA    ---       dat
      00000FB3H   SYMBOL    EDATA    INT       acc_value
      00000FB5H   SYMBOL    EDATA    FLOAT     acc_dat
      00000FB9H   SYMBOL    EDATA    INT       gyro_value
      00000FBBH   SYMBOL    EDATA    FLOAT     gyro_dat
      00001159H   SYMBOL    EDATA    BYTE      return_state

      ---         MODULE    ---      ---       SEEKFREE_IMU963RA
      00000ADAH   PUBLIC    EDATA    INT       imu963ra_acc_x
      00000ADCH   PUBLIC    EDATA    INT       imu963ra_acc_y
      00000ADEH   PUBLIC    EDATA    INT       imu963ra_acc_z
      00000AE0H   PUBLIC    EDATA    INT       imu963ra_mag_x
      00000AE2H   PUBLIC    EDATA    INT       imu963ra_mag_y
      00000AE4H   PUBLIC    EDATA    INT       imu963ra_mag_z
L251 LINKER/LOCATER V4.66.93.0                                                        11/05/2024  20:15:43  PAGE 81


      00000AE6H   PUBLIC    EDATA    INT       imu963ra_gyro_x
      00000AE8H   PUBLIC    EDATA    INT       imu963ra_gyro_y
      00000AEAH   PUBLIC    EDATA    INT       imu963ra_gyro_z
      000000D0H   SFRSYM    DATA     BYTE      PSW
      0000009DH   SFRSYM    DATA     BYTE      IRCBAND
      00000097H   SFRSYM    DATA     BYTE      AUXR2
      000000EFH   SFRSYM    DATA     BYTE      AUXINTIF
      000000FDH   SFRSYM    DATA     BYTE      S4CON
      000000ACH   SFRSYM    DATA     BYTE      S3CON
      0000009AH   SFRSYM    DATA     BYTE      S2CON
      000000B7H   SFRSYM    DATA     BYTE      IPH
      000000CDH   SFRSYM    DATA     BYTE      SPSTAT
      000000DDH   SFRSYM    DATA     BYTE      T4T3M
      000000C1H   SFRSYM    DATA     BYTE      WDT_CONTR
      000000DFH   SFRSYM    DATA     BYTE      IP3
      000000F4H   SFRSYM    DATA     BYTE      USBCON
      000000B5H   SFRSYM    DATA     BYTE      IP2
      000000FFH   SFRSYM    DATA     BYTE      RSTCFG
      000000C7H   SFRSYM    DATA     BYTE      IAP_CONTR
      000000F9H   SFRSYM    DATA     BYTE      LINICR
      0000008EH   SFRSYM    DATA     BYTE      AUXR
      000000AFH   SFRSYM    DATA     BYTE      IE2
      000000C0H.3 SFRSYM    DATA     BIT       P43
      000000C0H.2 SFRSYM    DATA     BIT       P42
      00000088H   SFRSYM    DATA     BYTE      TCON
      00000089H   SFRSYM    DATA     BYTE      TMOD
      000000C0H.1 SFRSYM    DATA     BIT       P41
      00000098H   SFRSYM    DATA     BYTE      SCON
      000000C0H.0 SFRSYM    DATA     BIT       P40
      000000F1H   SFRSYM    DATA     BYTE      CANICR
      00000087H   SFRSYM    DATA     BYTE      PCON
      000000BCH   SFRSYM    DATA     BYTE      ADC_CONTR
      000000E7H   SFRSYM    DATA     BYTE      CMPCR2
      000000E6H   SFRSYM    DATA     BYTE      CMPCR1
      000000DEH   SFRSYM    DATA     BYTE      ADCCFG
      000000B8H   SFRSYM    DATA     BYTE      IP
      0000008FH   SFRSYM    DATA     BYTE      INTCLKO
      000000EEH   SFRSYM    DATA     BYTE      IP3H
      000000B6H   SFRSYM    DATA     BYTE      IP2H
      000000A8H   SFRSYM    DATA     BYTE      IE
      000000BBH   SFRSYM    DATA     BYTE      P_SW3
      000000BAH   SFRSYM    DATA     BYTE      P_SW2
      000000A2H   SFRSYM    DATA     BYTE      P_SW1
      000000CEH   SFRSYM    DATA     BYTE      SPCTL
      000000F8H   SFRSYM    DATA     BYTE      P7
      000000E8H   SFRSYM    DATA     BYTE      P6
      000000C8H   SFRSYM    DATA     BYTE      P5
      000000C0H   SFRSYM    DATA     BYTE      P4
      000000B0H   SFRSYM    DATA     BYTE      P3
      000000A0H   SFRSYM    DATA     BYTE      P2
      00000090H   SFRSYM    DATA     BYTE      P1
      00000080H   SFRSYM    DATA     BYTE      P0
      00FF6D94H   SYMBOL    CODE     ---       imu963ra_simspi_wr_byte
      00FF69ADH   SYMBOL    CODE     ---       imu963ra_read_mag_register
      00FF7767H   SYMBOL    CODE     ---       imu963ra_read_acc_gyro_register
      00FF75D5H   SYMBOL    CODE     ---       imu963ra_simspi_r_reg_byte
      00FF788BH   SYMBOL    CODE     ---       imu963ra_write_acc_gyro_register
      00FF77EEH   SYMBOL    CODE     ---       imu963ra_simspi_w_reg_byte

      00FF6D94H   BLOCK     CODE     ---       LVL=0
      0000111FH   SYMBOL    EDATA    BYTE      byte
      00FF6D98H   BLOCK     CODE     NEAR LAB  LVL=1
      00001120H   SYMBOL    EDATA    BYTE      i
      ---         BLOCKEND  ---      ---       LVL=1
      00FF6D94H   LINE      CODE     ---       #344
L251 LINKER/LOCATER V4.66.93.0                                                        11/05/2024  20:15:43  PAGE 82


      00FF6D98H   LINE      CODE     ---       #345
      00FF6D98H   LINE      CODE     ---       #348
      00FF6D9FH   LINE      CODE     ---       #350
      00FF6DADH   LINE      CODE     ---       #351
      00FF6DB7H   LINE      CODE     ---       #352
      00FF6DBAH   LINE      CODE     ---       #353
      00FF6DBDH   LINE      CODE     ---       #355
      00FF6DC0H   LINE      CODE     ---       #356
      00FF6DC3H   LINE      CODE     ---       #357
      00FF6DD1H   LINE      CODE     ---       #358
      00FF6DE8H   LINE      CODE     ---       #359
      00FF6DECH   LINE      CODE     ---       #360
      ---         BLOCKEND  ---      ---       LVL=0

      00FF77EEH   BLOCK     CODE     ---       LVL=0
      00001121H   SYMBOL    EDATA    BYTE      cmd
      00001122H   SYMBOL    EDATA    BYTE      val
      00FF77EEH   LINE      CODE     ---       #368
      00FF77F6H   LINE      CODE     ---       #370
      00FF77F9H   LINE      CODE     ---       #371
      00FF77FDH   LINE      CODE     ---       #372
      00FF7804H   LINE      CODE     ---       #373
      00FF780BH   LINE      CODE     ---       #374
      00FF780EH   LINE      CODE     ---       #375
      ---         BLOCKEND  ---      ---       LVL=0

      00FF75D5H   BLOCK     CODE     ---       LVL=0
      00001038H   SYMBOL    EDATA    BYTE      cmd
      00001039H   SYMBOL    EDATA    ---       val
      00FF75D5H   LINE      CODE     ---       #406
      00FF75DDH   LINE      CODE     ---       #408
      00FF75E0H   LINE      CODE     ---       #409
      00FF75ECH   LINE      CODE     ---       #410
      00FF75F3H   LINE      CODE     ---       #411
      00FF75FEH   LINE      CODE     ---       #412
      00FF7601H   LINE      CODE     ---       #413
      ---         BLOCKEND  ---      ---       LVL=0
      00000E18H   SYMBOL    EDATA    BYTE      cmd
      00000E19H   SYMBOL    EDATA    ---       val
      00000E1DH   SYMBOL    EDATA    DWORD     num

      00FF788BH   BLOCK     CODE     ---       LVL=0
      00001123H   SYMBOL    EDATA    BYTE      reg
      00001124H   SYMBOL    EDATA    BYTE      dat
      00FF788BH   LINE      CODE     ---       #445
      00FF7893H   LINE      CODE     ---       #447
      00FF7896H   LINE      CODE     ---       #448
      00FF78A1H   LINE      CODE     ---       #450
      00FF78A4H   LINE      CODE     ---       #451
      ---         BLOCKEND  ---      ---       LVL=0

      00FF7767H   BLOCK     CODE     ---       LVL=0
      00001125H   SYMBOL    EDATA    BYTE      reg
      00FF776BH   BLOCK     CODE     NEAR LAB  LVL=1
      00001126H   SYMBOL    EDATA    BYTE      dat
      ---         BLOCKEND  ---      ---       LVL=1
      00FF7767H   LINE      CODE     ---       #460
      00FF776BH   LINE      CODE     ---       #461
      00FF776BH   LINE      CODE     ---       #462
      00FF7770H   LINE      CODE     ---       #463
      00FF7773H   LINE      CODE     ---       #464
      00FF7782H   LINE      CODE     ---       #465
      00FF7785H   LINE      CODE     ---       #466
      00FF7789H   LINE      CODE     ---       #467
      ---         BLOCKEND  ---      ---       LVL=0
L251 LINKER/LOCATER V4.66.93.0                                                        11/05/2024  20:15:43  PAGE 83


      00000E21H   SYMBOL    EDATA    BYTE      reg
      00000E22H   SYMBOL    EDATA    ---       dat
      00000E26H   SYMBOL    EDATA    DWORD     len
      00000FBFH   SYMBOL    EDATA    BYTE      addr
      00000FC0H   SYMBOL    EDATA    BYTE      reg
      00000FC1H   SYMBOL    EDATA    BYTE      dat
      00000FC2H   SYMBOL    EDATA    BYTE      return_state
      00000FC3H   SYMBOL    EDATA    WORD      timeout_count

      00FF69ADH   BLOCK     CODE     ---       LVL=0
      0000108DH   SYMBOL    EDATA    BYTE      addr
      0000108EH   SYMBOL    EDATA    BYTE      reg
      00FF69B5H   BLOCK     CODE     NEAR LAB  LVL=1
      0000108FH   SYMBOL    EDATA    WORD      timeout_count
      ---         BLOCKEND  ---      ---       LVL=1
      00FF69ADH   LINE      CODE     ---       #529
      00FF69B5H   LINE      CODE     ---       #530
      00FF69B5H   LINE      CODE     ---       #531
      00FF69BBH   LINE      CODE     ---       #533
      00FF69C5H   LINE      CODE     ---       #534
      00FF69D3H   LINE      CODE     ---       #535
      00FF69DCH   LINE      CODE     ---       #536
      00FF69E4H   LINE      CODE     ---       #537
      00FF69ECH   LINE      CODE     ---       #540
      00FF69EEH   LINE      CODE     ---       #542
      00FF6A04H   LINE      CODE     ---       #544
      00FF6A04H   LINE      CODE     ---       #545
      00FF6A04H   LINE      CODE     ---       #546
      00FF6A0BH   LINE      CODE     ---       #547
      00FF6A13H   LINE      CODE     ---       #549
      00FF6A18H   LINE      CODE     ---       #550
      ---         BLOCKEND  ---      ---       LVL=0
      00001127H   SYMBOL    EDATA    BYTE      addr
      00001128H   SYMBOL    EDATA    BYTE      reg
      00001091H   SYMBOL    EDATA    BYTE      return_state
      00001092H   SYMBOL    EDATA    BYTE      dat
      00001093H   SYMBOL    EDATA    WORD      timeout_count
      00001095H   SYMBOL    EDATA    BYTE      return_state
      00001096H   SYMBOL    EDATA    BYTE      dat
      00001097H   SYMBOL    EDATA    WORD      timeout_count
      00000FC5H   SYMBOL    EDATA    ---       dat
      00000FCBH   SYMBOL    EDATA    ---       dat
      00000F49H   SYMBOL    EDATA    BYTE      temp_status
      00000F4AH   SYMBOL    EDATA    ---       dat
      00000FD1H   SYMBOL    EDATA    INT       acc_value
      00000FD3H   SYMBOL    EDATA    FLOAT     acc_dat
      00000FD7H   SYMBOL    EDATA    INT       gyro_value
      00000FD9H   SYMBOL    EDATA    FLOAT     gyro_dat
      00000FDDH   SYMBOL    EDATA    INT       mag_value
      00000FDFH   SYMBOL    EDATA    FLOAT     mag_dat
      0000115AH   SYMBOL    EDATA    BYTE      return_state

      ---         MODULE    ---      ---       SEEKFREE_IPS114_SPI
      00FF7656H   PUBLIC    CODE     ---       ips114_writedata_16bit
      00FF6EEFH   PUBLIC    CODE     ---       ips114_writeDatai_16bit_simspi
      00FF7121H   PUBLIC    CODE     ---       ips114_writeIndex_simspi
      00FF7947H   PUBLIC    CODE     ---       ips114_writeIndex
      0000068FH   PUBLIC    EDATA    BYTE      ?ips114_showfloat_simspi?BYTE
      000006BFH   PUBLIC    EDATA    BYTE      ?ips114_showfloat?BYTE
      000000D0H   SFRSYM    DATA     BYTE      PSW
      0000009DH   SFRSYM    DATA     BYTE      IRCBAND
      00000097H   SFRSYM    DATA     BYTE      AUXR2
      000000EFH   SFRSYM    DATA     BYTE      AUXINTIF
      000000FDH   SFRSYM    DATA     BYTE      S4CON
      000000ACH   SFRSYM    DATA     BYTE      S3CON
L251 LINKER/LOCATER V4.66.93.0                                                        11/05/2024  20:15:43  PAGE 84


      0000009AH   SFRSYM    DATA     BYTE      S2CON
      000000B7H   SFRSYM    DATA     BYTE      IPH
      000000CDH   SFRSYM    DATA     BYTE      SPSTAT
      000000DDH   SFRSYM    DATA     BYTE      T4T3M
      000000C1H   SFRSYM    DATA     BYTE      WDT_CONTR
      000000DFH   SFRSYM    DATA     BYTE      IP3
      000000F4H   SFRSYM    DATA     BYTE      USBCON
      000000B5H   SFRSYM    DATA     BYTE      IP2
      000000FFH   SFRSYM    DATA     BYTE      RSTCFG
      000000C7H   SFRSYM    DATA     BYTE      IAP_CONTR
      000000F9H   SFRSYM    DATA     BYTE      LINICR
      0000008EH   SFRSYM    DATA     BYTE      AUXR
      000000AFH   SFRSYM    DATA     BYTE      IE2
      000000A0H.7 SFRSYM    DATA     BIT       P27
      000000A0H.5 SFRSYM    DATA     BIT       P25
      00000088H   SFRSYM    DATA     BYTE      TCON
      00000089H   SFRSYM    DATA     BYTE      TMOD
      000000A0H.3 SFRSYM    DATA     BIT       P23
      00000098H   SFRSYM    DATA     BYTE      SCON
      000000A0H.2 SFRSYM    DATA     BIT       P22
      000000A0H.1 SFRSYM    DATA     BIT       P21
      000000A0H.0 SFRSYM    DATA     BIT       P20
      000000F1H   SFRSYM    DATA     BYTE      CANICR
      00000087H   SFRSYM    DATA     BYTE      PCON
      000000BCH   SFRSYM    DATA     BYTE      ADC_CONTR
      000000E7H   SFRSYM    DATA     BYTE      CMPCR2
      000000E6H   SFRSYM    DATA     BYTE      CMPCR1
      000000DEH   SFRSYM    DATA     BYTE      ADCCFG
      000000B8H   SFRSYM    DATA     BYTE      IP
      0000008FH   SFRSYM    DATA     BYTE      INTCLKO
      000000EEH   SFRSYM    DATA     BYTE      IP3H
      000000B6H   SFRSYM    DATA     BYTE      IP2H
      000000A8H   SFRSYM    DATA     BYTE      IE
      000000BBH   SFRSYM    DATA     BYTE      P_SW3
      000000BAH   SFRSYM    DATA     BYTE      P_SW2
      000000A2H   SFRSYM    DATA     BYTE      P_SW1
      000000CEH   SFRSYM    DATA     BYTE      SPCTL
      000000F8H   SFRSYM    DATA     BYTE      P7
      000000E8H   SFRSYM    DATA     BYTE      P6
      000000C8H   SFRSYM    DATA     BYTE      P5
      000000C0H   SFRSYM    DATA     BYTE      P4
      000000B0H   SFRSYM    DATA     BYTE      P3
      000000A0H   SFRSYM    DATA     BYTE      P2
      00000090H   SFRSYM    DATA     BYTE      P1
      00000080H   SFRSYM    DATA     BYTE      P0

      00FF7121H   BLOCK     CODE     ---       LVL=0
      00001129H   SYMBOL    EDATA    BYTE      dat
      00FF7125H   BLOCK     CODE     NEAR LAB  LVL=1
      0000112AH   SYMBOL    EDATA    BYTE      i
      ---         BLOCKEND  ---      ---       LVL=1
      00FF7121H   LINE      CODE     ---       #61
      00FF7125H   LINE      CODE     ---       #62
      00FF7125H   LINE      CODE     ---       #63
      00FF712BH   LINE      CODE     ---       #64
      00FF712EH   LINE      CODE     ---       #65
      00FF7131H   LINE      CODE     ---       #67
      00FF7134H   LINE      CODE     ---       #69
      00FF7136H   LINE      CODE     ---       #71
      00FF7142H   LINE      CODE     ---       #72
      00FF7145H   LINE      CODE     ---       #73
      00FF7148H   LINE      CODE     ---       #75
      00FF714BH   LINE      CODE     ---       #76
      00FF7155H   LINE      CODE     ---       #77
      00FF7169H   LINE      CODE     ---       #78
L251 LINKER/LOCATER V4.66.93.0                                                        11/05/2024  20:15:43  PAGE 85


      00FF716CH   LINE      CODE     ---       #79
      ---         BLOCKEND  ---      ---       LVL=0
      0000112BH   SYMBOL    EDATA    BYTE      dat
      0000112CH   SYMBOL    EDATA    BYTE      i

      00FF6EEFH   BLOCK     CODE     ---       LVL=0
      000010DFH   SYMBOL    EDATA    WORD      dat
      00FF6EF3H   BLOCK     CODE     NEAR LAB  LVL=1
      000010E1H   SYMBOL    EDATA    BYTE      i
      ---         BLOCKEND  ---      ---       LVL=1
      00FF6EEFH   LINE      CODE     ---       #115
      00FF6EF3H   LINE      CODE     ---       #116
      00FF6EF3H   LINE      CODE     ---       #117
      00FF6EF9H   LINE      CODE     ---       #118
      00FF6EFCH   LINE      CODE     ---       #119
      00FF6EFFH   LINE      CODE     ---       #120
      00FF6F02H   LINE      CODE     ---       #121
      00FF6F04H   LINE      CODE     ---       #123
      00FF6F19H   LINE      CODE     ---       #124
      00FF6F1CH   LINE      CODE     ---       #125
      00FF6F1FH   LINE      CODE     ---       #127
      00FF6F22H   LINE      CODE     ---       #128
      00FF6F2CH   LINE      CODE     ---       #129
      00FF6F40H   LINE      CODE     ---       #130
      00FF6F43H   LINE      CODE     ---       #131
      ---         BLOCKEND  ---      ---       LVL=0
      00000EDDH   SYMBOL    EDATA    WORD      x1
      00000EDFH   SYMBOL    EDATA    WORD      y1
      00000EE1H   SYMBOL    EDATA    WORD      x2
      00000EE3H   SYMBOL    EDATA    WORD      y2
      00000FE3H   SYMBOL    EDATA    WORD      color
      00000FE5H   SYMBOL    EDATA    WORD      i
      00000FE7H   SYMBOL    EDATA    WORD      j
      00000FE9H   SYMBOL    EDATA    WORD      x
      00000FEBH   SYMBOL    EDATA    WORD      y
      00000FEDH   SYMBOL    EDATA    WORD      color
      00000EE5H   SYMBOL    EDATA    WORD      x
      00000EE7H   SYMBOL    EDATA    WORD      y
      00000EE9H   SYMBOL    EDATA    CHAR      dat
      00000EEAH   SYMBOL    EDATA    BYTE      i
      00000EEBH   SYMBOL    EDATA    BYTE      j
      00000EECH   SYMBOL    EDATA    BYTE      temp
      00000D5DH   SYMBOL    EDATA    WORD      x
      00000D5FH   SYMBOL    EDATA    WORD      y
      00000D61H   SYMBOL    EDATA    ---       dat
      00000D65H   SYMBOL    EDATA    WORD      j
      00000E2AH   SYMBOL    EDATA    WORD      x
      00000E2CH   SYMBOL    EDATA    WORD      y
      00000E2EH   SYMBOL    EDATA    CHAR      dat
      00000E2FH   SYMBOL    EDATA    ---       a
      00000E32H   SYMBOL    EDATA    BYTE      i
      00000E33H   SYMBOL    EDATA    WORD      x
      00000E35H   SYMBOL    EDATA    WORD      y
      00000E37H   SYMBOL    EDATA    BYTE      dat
      00000E38H   SYMBOL    EDATA    ---       a
      00000E3BH   SYMBOL    EDATA    BYTE      i
      00000C7AH   SYMBOL    EDATA    WORD      x
      00000C7CH   SYMBOL    EDATA    WORD      y
      00000C7EH   SYMBOL    EDATA    INT       dat
      00000C80H   SYMBOL    EDATA    ---       a
      00000C85H   SYMBOL    EDATA    BYTE      i
      00000C86H   SYMBOL    EDATA    WORD      x
      00000C88H   SYMBOL    EDATA    WORD      y
      00000C8AH   SYMBOL    EDATA    WORD      dat
      00000C8CH   SYMBOL    EDATA    ---       a
L251 LINKER/LOCATER V4.66.93.0                                                        11/05/2024  20:15:43  PAGE 86


      00000C91H   SYMBOL    EDATA    BYTE      i
      000007D6H   SYMBOL    EDATA    WORD      x
      000007D8H   SYMBOL    EDATA    WORD      y
      000007DAH   SYMBOL    EDATA    LONG      dat
      000007DEH   SYMBOL    EDATA    BYTE      num
      000007DFH   SYMBOL    EDATA    ---       buff
      00000801H   SYMBOL    EDATA    BYTE      length
      0000068FH   SYMBOL    EDATA    WORD      x
      00000691H   SYMBOL    EDATA    WORD      y
      00000693H   SYMBOL    EDATA    FLOAT     dat
      00000697H   SYMBOL    EDATA    BYTE      num
      00000698H   SYMBOL    EDATA    BYTE      pointnum
      00000699H   SYMBOL    EDATA    BYTE      length
      0000069AH   SYMBOL    EDATA    ---       buff
      000006BCH   SYMBOL    EDATA    CHAR      start
      000006BDH   SYMBOL    EDATA    CHAR      end
      000006BEH   SYMBOL    EDATA    CHAR      point

      00FF7947H   BLOCK     CODE     ---       LVL=0
      0000115BH   SYMBOL    EDATA    BYTE      dat
      00FF7947H   LINE      CODE     ---       #594
      00FF794BH   LINE      CODE     ---       #596
      00FF794EH   LINE      CODE     ---       #597
      00FF7951H   LINE      CODE     ---       #599
      00FF7958H   LINE      CODE     ---       #600
      00FF795BH   LINE      CODE     ---       #601
      ---         BLOCKEND  ---      ---       LVL=0
      0000115CH   SYMBOL    EDATA    BYTE      dat

      00FF7656H   BLOCK     CODE     ---       LVL=0
      00001099H   SYMBOL    EDATA    WORD      dat
      00FF765AH   BLOCK     CODE     NEAR LAB  LVL=1
      0000109BH   SYMBOL    EDATA    ---       dat1
      ---         BLOCKEND  ---      ---       LVL=1
      00FF7656H   LINE      CODE     ---       #626
      00FF765AH   LINE      CODE     ---       #627
      00FF765AH   LINE      CODE     ---       #629
      00FF7660H   LINE      CODE     ---       #630
      00FF7668H   LINE      CODE     ---       #631
      00FF766BH   LINE      CODE     ---       #632
      00FF766EH   LINE      CODE     ---       #633
      00FF7675H   LINE      CODE     ---       #634
      00FF767CH   LINE      CODE     ---       #635
      00FF767FH   LINE      CODE     ---       #636
      ---         BLOCKEND  ---      ---       LVL=0
      00000EEDH   SYMBOL    EDATA    WORD      x1
      00000EEFH   SYMBOL    EDATA    WORD      y1
      00000EF1H   SYMBOL    EDATA    WORD      x2
      00000EF3H   SYMBOL    EDATA    WORD      y2
      00000FEFH   SYMBOL    EDATA    WORD      color
      00000FF1H   SYMBOL    EDATA    WORD      i
      00000FF3H   SYMBOL    EDATA    WORD      j
      00000FF5H   SYMBOL    EDATA    WORD      x
      00000FF7H   SYMBOL    EDATA    WORD      y
      00000FF9H   SYMBOL    EDATA    WORD      color
      00000EF5H   SYMBOL    EDATA    WORD      x
      00000EF7H   SYMBOL    EDATA    WORD      y
      00000EF9H   SYMBOL    EDATA    CHAR      dat
      00000EFAH   SYMBOL    EDATA    BYTE      i
      00000EFBH   SYMBOL    EDATA    BYTE      j
      00000EFCH   SYMBOL    EDATA    BYTE      temp
      00000D67H   SYMBOL    EDATA    WORD      x
      00000D69H   SYMBOL    EDATA    WORD      y
      00000D6BH   SYMBOL    EDATA    ---       dat
      00000D6FH   SYMBOL    EDATA    WORD      j
L251 LINKER/LOCATER V4.66.93.0                                                        11/05/2024  20:15:43  PAGE 87


      00000E3CH   SYMBOL    EDATA    WORD      x
      00000E3EH   SYMBOL    EDATA    WORD      y
      00000E40H   SYMBOL    EDATA    CHAR      dat
      00000E41H   SYMBOL    EDATA    ---       a
      00000E44H   SYMBOL    EDATA    BYTE      i
      00000E45H   SYMBOL    EDATA    WORD      x
      00000E47H   SYMBOL    EDATA    WORD      y
      00000E49H   SYMBOL    EDATA    BYTE      dat
      00000E4AH   SYMBOL    EDATA    ---       a
      00000E4DH   SYMBOL    EDATA    BYTE      i
      00000C92H   SYMBOL    EDATA    WORD      x
      00000C94H   SYMBOL    EDATA    WORD      y
      00000C96H   SYMBOL    EDATA    INT       dat
      00000C98H   SYMBOL    EDATA    ---       a
      00000C9DH   SYMBOL    EDATA    BYTE      i
      00000C9EH   SYMBOL    EDATA    WORD      x
      00000CA0H   SYMBOL    EDATA    WORD      y
      00000CA2H   SYMBOL    EDATA    WORD      dat
      00000CA4H   SYMBOL    EDATA    ---       a
      00000CA9H   SYMBOL    EDATA    BYTE      i
      00000802H   SYMBOL    EDATA    WORD      x
      00000804H   SYMBOL    EDATA    WORD      y
      00000806H   SYMBOL    EDATA    LONG      dat
      0000080AH   SYMBOL    EDATA    BYTE      num
      0000080BH   SYMBOL    EDATA    ---       buff
      0000082DH   SYMBOL    EDATA    BYTE      length
      000006BFH   SYMBOL    EDATA    WORD      x
      000006C1H   SYMBOL    EDATA    WORD      y
      000006C3H   SYMBOL    EDATA    FLOAT     dat
      000006C7H   SYMBOL    EDATA    BYTE      num
      000006C8H   SYMBOL    EDATA    BYTE      pointnum
      000006C9H   SYMBOL    EDATA    BYTE      length
      000006CAH   SYMBOL    EDATA    ---       buff
      000006ECH   SYMBOL    EDATA    CHAR      start
      000006EDH   SYMBOL    EDATA    CHAR      end
      000006EEH   SYMBOL    EDATA    CHAR      point

      ---         MODULE    ---      ---       SEEKFREE_IPS200_SPI
      00FF64C2H   PUBLIC    CODE     ---       ips200_show_string
      00FF5AA1H   PUBLIC    CODE     ---       ips200_show_char
      00FF795CH   PUBLIC    CODE     ---       ips200_set_color
      00FF780FH   PUBLIC    CODE     ---       ips200_write_16bit_data_spi
      00FF5C92H   PUBLIC    CODE     ---       ips200_init_spi
      00FF749AH   PUBLIC    CODE     ---       ips200_set_dir
      00FF6940H   PUBLIC    CODE     ---       ips200_clear
      00FF7A4AH   PUBLIC    CODE     ---       ips200_write_8bit_data_spi
      00000A61H   PUBLIC    EDATA    BYTE      ?ips200_draw_line?BYTE
      00000927H   PUBLIC    EDATA    BYTE      ?ips200_show_float?BYTE
      0000094AH   PUBLIC    EDATA    BYTE      ?ips200_show_wave?BYTE
      00000A18H   PUBLIC    EDATA    BYTE      ?ips200_show_chinese?BYTE
      000000D0H   SFRSYM    DATA     BYTE      PSW
      0000009DH   SFRSYM    DATA     BYTE      IRCBAND
      00000097H   SFRSYM    DATA     BYTE      AUXR2
      000000EFH   SFRSYM    DATA     BYTE      AUXINTIF
      000000FDH   SFRSYM    DATA     BYTE      S4CON
      000000ACH   SFRSYM    DATA     BYTE      S3CON
      0000009AH   SFRSYM    DATA     BYTE      S2CON
      000000B7H   SFRSYM    DATA     BYTE      IPH
      000000CDH   SFRSYM    DATA     BYTE      SPSTAT
      000000DDH   SFRSYM    DATA     BYTE      T4T3M
      000000C1H   SFRSYM    DATA     BYTE      WDT_CONTR
      000000DFH   SFRSYM    DATA     BYTE      IP3
      000000F4H   SFRSYM    DATA     BYTE      USBCON
      000000B5H   SFRSYM    DATA     BYTE      IP2
      000000FFH   SFRSYM    DATA     BYTE      RSTCFG
L251 LINKER/LOCATER V4.66.93.0                                                        11/05/2024  20:15:43  PAGE 88


      000000C7H   SFRSYM    DATA     BYTE      IAP_CONTR
      000000F9H   SFRSYM    DATA     BYTE      LINICR
      0000008EH   SFRSYM    DATA     BYTE      AUXR
      000000AFH   SFRSYM    DATA     BYTE      IE2
      000000A0H.7 SFRSYM    DATA     BIT       P27
      00000088H   SFRSYM    DATA     BYTE      TCON
      00000089H   SFRSYM    DATA     BYTE      TMOD
      00000098H   SFRSYM    DATA     BYTE      SCON
      000000A0H.2 SFRSYM    DATA     BIT       P22
      000000A0H.1 SFRSYM    DATA     BIT       P21
      000000A0H.0 SFRSYM    DATA     BIT       P20
      000000F1H   SFRSYM    DATA     BYTE      CANICR
      00000087H   SFRSYM    DATA     BYTE      PCON
      000000BCH   SFRSYM    DATA     BYTE      ADC_CONTR
      000000E7H   SFRSYM    DATA     BYTE      CMPCR2
      000000E6H   SFRSYM    DATA     BYTE      CMPCR1
      000000DEH   SFRSYM    DATA     BYTE      ADCCFG
      000000B8H   SFRSYM    DATA     BYTE      IP
      0000008FH   SFRSYM    DATA     BYTE      INTCLKO
      000000EEH   SFRSYM    DATA     BYTE      IP3H
      000000B6H   SFRSYM    DATA     BYTE      IP2H
      000000A8H   SFRSYM    DATA     BYTE      IE
      000000BBH   SFRSYM    DATA     BYTE      P_SW3
      000000BAH   SFRSYM    DATA     BYTE      P_SW2
      000000A2H   SFRSYM    DATA     BYTE      P_SW1
      000000CEH   SFRSYM    DATA     BYTE      SPCTL
      000000F8H   SFRSYM    DATA     BYTE      P7
      000000E8H   SFRSYM    DATA     BYTE      P6
      000000C8H   SFRSYM    DATA     BYTE      P5
      000000C0H   SFRSYM    DATA     BYTE      P4
      000000B0H   SFRSYM    DATA     BYTE      P3
      000000A0H   SFRSYM    DATA     BYTE      P2
      00000090H   SFRSYM    DATA     BYTE      P1
      00000080H   SFRSYM    DATA     BYTE      P0
      00FF786DH   SYMBOL    CODE     ---       ips200_write_command
      00FF7971H   SYMBOL    CODE     ---       ips200_write_8bit_data
      00FF7986H   SYMBOL    CODE     ---       ips200_write_16bit_data
      00FF7425H   SYMBOL    CODE     ---       ips200_set_region
      00000B8BH   SYMBOL    EDATA    WORD      ips200_pencolor
      00000B8DH   SYMBOL    EDATA    WORD      ips200_bgcolor
      00000B8FH   SYMBOL    EDATA    INT       ips200_display_font
      00000B91H   SYMBOL    EDATA    INT       ips200_display_dir
      00000B93H   SYMBOL    EDATA    WORD      ips200_x_max
      00000B95H   SYMBOL    EDATA    INT       ips200_display_type
      00000B97H   SYMBOL    EDATA    WORD      ips200_y_max

      00FF7A4AH   BLOCK     CODE     ---       LVL=0
      0000115DH   SYMBOL    EDATA    BYTE      dat
      00FF7A4AH   LINE      CODE     ---       #62
      00FF7A4EH   LINE      CODE     ---       #64
      00FF7A51H   LINE      CODE     ---       #66
      ---         BLOCKEND  ---      ---       LVL=0

      00FF780FH   BLOCK     CODE     ---       LVL=0
      0000109DH   SYMBOL    EDATA    WORD      dat
      00FF7813H   BLOCK     CODE     NEAR LAB  LVL=1
      0000109FH   SYMBOL    EDATA    ---       dat1
      ---         BLOCKEND  ---      ---       LVL=1
      00FF780FH   LINE      CODE     ---       #75
      00FF7813H   LINE      CODE     ---       #76
      00FF7813H   LINE      CODE     ---       #78
      00FF7819H   LINE      CODE     ---       #79
      00FF7821H   LINE      CODE     ---       #81
      00FF7828H   LINE      CODE     ---       #82
      00FF782FH   LINE      CODE     ---       #83
L251 LINKER/LOCATER V4.66.93.0                                                        11/05/2024  20:15:43  PAGE 89


      ---         BLOCKEND  ---      ---       LVL=0

      00FF786DH   BLOCK     CODE     ---       LVL=0
      0000115EH   SYMBOL    EDATA    BYTE      command
      00FF786DH   LINE      CODE     ---       #93
      00FF7871H   LINE      CODE     ---       #96
      00FF7874H   LINE      CODE     ---       #97
      00FF7877H   LINE      CODE     ---       #98
      00FF787AH   LINE      CODE     ---       #99
      00FF7881H   LINE      CODE     ---       #100
      00FF7884H   LINE      CODE     ---       #101
      00FF7887H   LINE      CODE     ---       #102
      00FF788AH   LINE      CODE     ---       #104
      ---         BLOCKEND  ---      ---       LVL=0

      00FF7971H   BLOCK     CODE     ---       LVL=0
      0000115FH   SYMBOL    EDATA    BYTE      dat
      00FF7971H   LINE      CODE     ---       #113
      00FF7975H   LINE      CODE     ---       #115
      00FF7978H   LINE      CODE     ---       #116
      00FF797BH   LINE      CODE     ---       #117
      00FF7982H   LINE      CODE     ---       #118
      00FF7985H   LINE      CODE     ---       #119
      ---         BLOCKEND  ---      ---       LVL=0

      00FF7986H   BLOCK     CODE     ---       LVL=0
      0000112DH   SYMBOL    EDATA    WORD      dat
      00FF7986H   LINE      CODE     ---       #128
      00FF798AH   LINE      CODE     ---       #130
      00FF798DH   LINE      CODE     ---       #131
      00FF7990H   LINE      CODE     ---       #132
      00FF7997H   LINE      CODE     ---       #133
      00FF799AH   LINE      CODE     ---       #134
      ---         BLOCKEND  ---      ---       LVL=0

      00FF7425H   BLOCK     CODE     ---       LVL=0
      00000EFDH   SYMBOL    EDATA    WORD      x1
      00000EFFH   SYMBOL    EDATA    WORD      y1
      00000F01H   SYMBOL    EDATA    WORD      x2
      00000F03H   SYMBOL    EDATA    WORD      y2
      00FF7425H   LINE      CODE     ---       #146
      00FF7435H   LINE      CODE     ---       #150
      00FF743AH   LINE      CODE     ---       #151
      00FF7441H   LINE      CODE     ---       #152
      00FF7448H   LINE      CODE     ---       #154
      00FF744DH   LINE      CODE     ---       #155
      00FF7454H   LINE      CODE     ---       #156
      00FF745BH   LINE      CODE     ---       #158
      00FF7460H   LINE      CODE     ---       #159
      ---         BLOCKEND  ---      ---       LVL=0

      00FF6940H   BLOCK     CODE     ---       LVL=0
      000010A1H   SYMBOL    EDATA    WORD      i
      000010A3H   SYMBOL    EDATA    WORD      j
      00FF6940H   LINE      CODE     ---       #169
      00FF6940H   LINE      CODE     ---       #170
      00FF6940H   LINE      CODE     ---       #172
      00FF6943H   LINE      CODE     ---       #174
      00FF695EH   LINE      CODE     ---       #175
      00FF6966H   LINE      CODE     ---       #177
      00FF696EH   LINE      CODE     ---       #179
      00FF6975H   LINE      CODE     ---       #180
      00FF698FH   LINE      CODE     ---       #181
      00FF69A9H   LINE      CODE     ---       #183
      00FF69ACH   LINE      CODE     ---       #185
L251 LINKER/LOCATER V4.66.93.0                                                        11/05/2024  20:15:43  PAGE 90


      ---         BLOCKEND  ---      ---       LVL=0
      00000FFBH   SYMBOL    EDATA    WORD      color
      00000FFDH   SYMBOL    EDATA    WORD      i
      00000FFFH   SYMBOL    EDATA    WORD      j

      00FF749AH   BLOCK     CODE     ---       LVL=0
      0000112FH   SYMBOL    EDATA    INT       dir
      00FF749AH   LINE      CODE     ---       #220
      00FF749EH   LINE      CODE     ---       #222
      00FF74A2H   LINE      CODE     ---       #223
      00FF74AEH   LINE      CODE     ---       #225
      00FF74B6H   LINE      CODE     ---       #226
      00FF74BEH   LINE      CODE     ---       #227
      00FF74C0H   LINE      CODE     ---       #230
      00FF74C8H   LINE      CODE     ---       #231
      00FF74D0H   LINE      CODE     ---       #232
      00FF74D0H   LINE      CODE     ---       #233
      ---         BLOCKEND  ---      ---       LVL=0
      00001131H   SYMBOL    EDATA    INT       font

      00FF795CH   BLOCK     CODE     ---       LVL=0
      000010A5H   SYMBOL    EDATA    WORD      pen
      000010A7H   SYMBOL    EDATA    WORD      bgcolor
      00FF795CH   LINE      CODE     ---       #255
      00FF7964H   LINE      CODE     ---       #257
      00FF7968H   LINE      CODE     ---       #258
      00FF7970H   LINE      CODE     ---       #259
      ---         BLOCKEND  ---      ---       LVL=0
      00001001H   SYMBOL    EDATA    WORD      x
      00001003H   SYMBOL    EDATA    WORD      y
      00001005H   SYMBOL    EDATA    WORD      color
      00000A61H   SYMBOL    EDATA    WORD      x_start
      00000A63H   SYMBOL    EDATA    WORD      y_start
      00000A65H   SYMBOL    EDATA    WORD      x_end
      00000A67H   SYMBOL    EDATA    WORD      y_end
      00000A69H   SYMBOL    EDATA    WORD      color
      00000A6BH   SYMBOL    EDATA    INT       x_dir
      00000A6DH   SYMBOL    EDATA    INT       y_dir
      00000A6FH   SYMBOL    EDATA    FLOAT     temp_rate
      00000A73H   SYMBOL    EDATA    FLOAT     temp_b

      00FF5AA1H   BLOCK     CODE     ---       LVL=0
      00000E4EH   SYMBOL    EDATA    WORD      x
      00000E50H   SYMBOL    EDATA    WORD      y
      00000E52H   SYMBOL    EDATA    CHAR      dat
      00FF5AADH   BLOCK     CODE     NEAR LAB  LVL=1
      00000E53H   SYMBOL    EDATA    BYTE      i
      00000E54H   SYMBOL    EDATA    BYTE      j
      00000E55H   SYMBOL    EDATA    BYTE      temp_top
      00000E56H   SYMBOL    EDATA    BYTE      temp_bottom
      ---         BLOCKEND  ---      ---       LVL=1
      00FF5AA1H   LINE      CODE     ---       #349
      00FF5AADH   LINE      CODE     ---       #350
      00FF5AADH   LINE      CODE     ---       #355
      00FF5AB0H   LINE      CODE     ---       #357
      00FF5AC2H   LINE      CODE     ---       #359
      00FF5AC2H   LINE      CODE     ---       #360
      00FF5ACAH   LINE      CODE     ---       #362
      00FF5AF3H   LINE      CODE     ---       #364
      00FF5B19H   LINE      CODE     ---       #365
      00FF5B20H   LINE      CODE     ---       #367
      00FF5B27H   LINE      CODE     ---       #369
      00FF5B2EH   LINE      CODE     ---       #370
      00FF5B30H   LINE      CODE     ---       #373
      00FF5B37H   LINE      CODE     ---       #374
L251 LINKER/LOCATER V4.66.93.0                                                        11/05/2024  20:15:43  PAGE 91


      00FF5B37H   LINE      CODE     ---       #375
      00FF5B41H   LINE      CODE     ---       #376
      00FF5B58H   LINE      CODE     ---       #377
      00FF5B72H   LINE      CODE     ---       #378
      00FF5B75H   LINE      CODE     ---       #379
      00FF5B75H   LINE      CODE     ---       #380
      00FF5B7DH   LINE      CODE     ---       #382
      00FF5BA6H   LINE      CODE     ---       #384
      00FF5BCEH   LINE      CODE     ---       #385
      00FF5BF6H   LINE      CODE     ---       #386
      00FF5BFDH   LINE      CODE     ---       #388
      00FF5C04H   LINE      CODE     ---       #390
      00FF5C0BH   LINE      CODE     ---       #391
      00FF5C0DH   LINE      CODE     ---       #394
      00FF5C14H   LINE      CODE     ---       #395
      00FF5C14H   LINE      CODE     ---       #396
      00FF5C1EH   LINE      CODE     ---       #397
      00FF5C35H   LINE      CODE     ---       #398
      00FF5C3CH   LINE      CODE     ---       #400
      00FF5C43H   LINE      CODE     ---       #402
      00FF5C4AH   LINE      CODE     ---       #403
      00FF5C4CH   LINE      CODE     ---       #406
      00FF5C53H   LINE      CODE     ---       #407
      00FF5C53H   LINE      CODE     ---       #408
      00FF5C5DH   LINE      CODE     ---       #409
      00FF5C74H   LINE      CODE     ---       #410
      00FF5C8EH   LINE      CODE     ---       #411
      00FF5C8EH   LINE      CODE     ---       #412
      00FF5C8EH   LINE      CODE     ---       #414
      00FF5C8EH   LINE      CODE     ---       #415
      00FF5C8EH   LINE      CODE     ---       #417
      00FF5C91H   LINE      CODE     ---       #419
      ---         BLOCKEND  ---      ---       LVL=0

      00FF64C2H   BLOCK     CODE     ---       LVL=0
      00000D71H   SYMBOL    EDATA    WORD      x
      00000D73H   SYMBOL    EDATA    WORD      y
      00000D75H   SYMBOL    EDATA    ---       dat
      00FF64CEH   BLOCK     CODE     NEAR LAB  LVL=1
      00000D79H   SYMBOL    EDATA    WORD      j
      ---         BLOCKEND  ---      ---       LVL=1
      00FF64C2H   LINE      CODE     ---       #430
      00FF64CEH   LINE      CODE     ---       #431
      00FF64CEH   LINE      CODE     ---       #433
      00FF64D4H   LINE      CODE     ---       #434
      00FF64D6H   LINE      CODE     ---       #436
      00FF64E2H   LINE      CODE     ---       #438
      00FF64E2H   LINE      CODE     ---       #439
      00FF6504H   LINE      CODE     ---       #440
      00FF6512H   LINE      CODE     ---       #441
      00FF6514H   LINE      CODE     ---       #442
      00FF6514H   LINE      CODE     ---       #443
      00FF6536H   LINE      CODE     ---       #444
      00FF6544H   LINE      CODE     ---       #445
      00FF6544H   LINE      CODE     ---       #446
      00FF6544H   LINE      CODE     ---       #448
      00FF6544H   LINE      CODE     ---       #449
      00FF6544H   LINE      CODE     ---       #450
      00FF6554H   LINE      CODE     ---       #451
      ---         BLOCKEND  ---      ---       LVL=0
      000009C5H   SYMBOL    EDATA    WORD      x
      000009C7H   SYMBOL    EDATA    WORD      y
      000009C9H   SYMBOL    EDATA    LONG      dat
      000009CDH   SYMBOL    EDATA    BYTE      num
      000009CEH   SYMBOL    EDATA    LONG      dat_temp
L251 LINKER/LOCATER V4.66.93.0                                                        11/05/2024  20:15:43  PAGE 92


      000009D2H   SYMBOL    EDATA    LONG      offset
      000009D6H   SYMBOL    EDATA    ---       data_buffer
      000009E2H   SYMBOL    EDATA    WORD      x
      000009E4H   SYMBOL    EDATA    WORD      y
      000009E6H   SYMBOL    EDATA    DWORD     dat
      000009EAH   SYMBOL    EDATA    BYTE      num
      000009EBH   SYMBOL    EDATA    DWORD     dat_temp
      000009EFH   SYMBOL    EDATA    LONG      offset
      000009F3H   SYMBOL    EDATA    ---       data_buffer
      00000927H   SYMBOL    EDATA    WORD      x
      00000929H   SYMBOL    EDATA    WORD      y
      0000092BH   SYMBOL    EDATA    FLOAT     dat
      0000092FH   SYMBOL    EDATA    BYTE      num
      00000930H   SYMBOL    EDATA    BYTE      pointnum
      00000931H   SYMBOL    EDATA    FLOAT     dat_temp
      00000935H   SYMBOL    EDATA    FLOAT     offset
      00000939H   SYMBOL    EDATA    ---       data_buffer
      0000094AH   SYMBOL    EDATA    WORD      x
      0000094CH   SYMBOL    EDATA    WORD      y
      0000094EH   SYMBOL    EDATA    ---       wave
      00000952H   SYMBOL    EDATA    WORD      width
      00000954H   SYMBOL    EDATA    WORD      value_max
      00000956H   SYMBOL    EDATA    WORD      dis_width
      00000958H   SYMBOL    EDATA    WORD      dis_value_max
      0000095AH   SYMBOL    EDATA    DWORD     i
      0000095EH   SYMBOL    EDATA    DWORD     j
      00000962H   SYMBOL    EDATA    DWORD     width_index
      00000966H   SYMBOL    EDATA    DWORD     value_max_index
      00000A18H   SYMBOL    EDATA    WORD      x
      00000A1AH   SYMBOL    EDATA    WORD      y
      00000A1CH   SYMBOL    EDATA    BYTE      size
      00000A1DH   SYMBOL    EDATA    ---       chinese_buffer
      00000A21H   SYMBOL    EDATA    BYTE      number
      00000A22H   SYMBOL    EDATA    WORD      color
      00000A24H   SYMBOL    EDATA    INT       i
      00000A26H   SYMBOL    EDATA    INT       j
      00000A28H   SYMBOL    EDATA    INT       k
      00000A2AH   SYMBOL    EDATA    BYTE      temp
      00000A2BH   SYMBOL    EDATA    BYTE      temp1
      00000A2CH   SYMBOL    EDATA    BYTE      temp2
      00000A2DH   SYMBOL    EDATA    ---       p_data

      00FF5C92H   BLOCK     CODE     ---       LVL=0
      00FF5C92H   LINE      CODE     ---       #660
      00FF5C92H   LINE      CODE     ---       #662
      00FF5C95H   LINE      CODE     ---       #663
      00FF5C98H   LINE      CODE     ---       #664
      00FF5C9BH   LINE      CODE     ---       #667
      00FF5CBDH   LINE      CODE     ---       #672
      00FF5CC4H   LINE      CODE     ---       #673
      00FF5CCFH   LINE      CODE     ---       #676
      00FF5CD2H   LINE      CODE     ---       #677
      00FF5CD5H   LINE      CODE     ---       #678
      00FF5CDCH   LINE      CODE     ---       #679
      00FF5CDFH   LINE      CODE     ---       #680
      00FF5CE6H   LINE      CODE     ---       #683
      00FF5CE9H   LINE      CODE     ---       #685
      00FF5CEEH   LINE      CODE     ---       #686
      00FF5CF5H   LINE      CODE     ---       #688
      00FF5CFAH   LINE      CODE     ---       #689
      00FF5D04H   LINE      CODE     ---       #691
      00FF5D08H   LINE      CODE     ---       #692
      00FF5D0AH   LINE      CODE     ---       #693
      00FF5D16H   LINE      CODE     ---       #695
      00FF5D1BH   LINE      CODE     ---       #696
L251 LINKER/LOCATER V4.66.93.0                                                        11/05/2024  20:15:43  PAGE 93


      00FF5D1DH   LINE      CODE     ---       #697
      00FF5D29H   LINE      CODE     ---       #699
      00FF5D2EH   LINE      CODE     ---       #700
      00FF5D30H   LINE      CODE     ---       #703
      00FF5D35H   LINE      CODE     ---       #704
      00FF5D35H   LINE      CODE     ---       #706
      00FF5D3AH   LINE      CODE     ---       #707
      00FF5D3FH   LINE      CODE     ---       #709
      00FF5D44H   LINE      CODE     ---       #710
      00FF5D49H   LINE      CODE     ---       #711
      00FF5D4EH   LINE      CODE     ---       #712
      00FF5D52H   LINE      CODE     ---       #713
      00FF5D57H   LINE      CODE     ---       #714
      00FF5D5CH   LINE      CODE     ---       #716
      00FF5D61H   LINE      CODE     ---       #717
      00FF5D66H   LINE      CODE     ---       #719
      00FF5D6BH   LINE      CODE     ---       #720
      00FF5D70H   LINE      CODE     ---       #722
      00FF5D75H   LINE      CODE     ---       #723
      00FF5D7AH   LINE      CODE     ---       #725
      00FF5D7FH   LINE      CODE     ---       #726
      00FF5D84H   LINE      CODE     ---       #728
      00FF5D89H   LINE      CODE     ---       #729
      00FF5D8EH   LINE      CODE     ---       #731
      00FF5D93H   LINE      CODE     ---       #732
      00FF5D98H   LINE      CODE     ---       #734
      00FF5D9DH   LINE      CODE     ---       #735
      00FF5DA2H   LINE      CODE     ---       #737
      00FF5DA7H   LINE      CODE     ---       #738
      00FF5DACH   LINE      CODE     ---       #739
      00FF5DB1H   LINE      CODE     ---       #741
      00FF5DB6H   LINE      CODE     ---       #742
      00FF5DBBH   LINE      CODE     ---       #743
      00FF5DC0H   LINE      CODE     ---       #744
      00FF5DC5H   LINE      CODE     ---       #745
      00FF5DCAH   LINE      CODE     ---       #746
      00FF5DCFH   LINE      CODE     ---       #747
      00FF5DD4H   LINE      CODE     ---       #748
      00FF5DD9H   LINE      CODE     ---       #749
      00FF5DDEH   LINE      CODE     ---       #750
      00FF5DE3H   LINE      CODE     ---       #751
      00FF5DE8H   LINE      CODE     ---       #752
      00FF5DEDH   LINE      CODE     ---       #753
      00FF5DF2H   LINE      CODE     ---       #754
      00FF5DF7H   LINE      CODE     ---       #755
      00FF5DFCH   LINE      CODE     ---       #757
      00FF5E01H   LINE      CODE     ---       #758
      00FF5E06H   LINE      CODE     ---       #759
      00FF5E0BH   LINE      CODE     ---       #760
      00FF5E10H   LINE      CODE     ---       #761
      00FF5E15H   LINE      CODE     ---       #762
      00FF5E1AH   LINE      CODE     ---       #763
      00FF5E1FH   LINE      CODE     ---       #764
      00FF5E24H   LINE      CODE     ---       #765
      00FF5E29H   LINE      CODE     ---       #766
      00FF5E2EH   LINE      CODE     ---       #767
      00FF5E33H   LINE      CODE     ---       #768
      00FF5E38H   LINE      CODE     ---       #769
      00FF5E3DH   LINE      CODE     ---       #770
      00FF5E42H   LINE      CODE     ---       #771
      00FF5E47H   LINE      CODE     ---       #773
      00FF5E4CH   LINE      CODE     ---       #775
      00FF5E51H   LINE      CODE     ---       #777
      00FF5E54H   LINE      CODE     ---       #780
      00FF5E57H   LINE      CODE     ---       #781
L251 LINKER/LOCATER V4.66.93.0                                                        11/05/2024  20:15:43  PAGE 94


      ---         BLOCKEND  ---      ---       LVL=0

      ---         MODULE    ---      ---       SEEKFREE_MPU6050
      00000CAAH   PUBLIC    EDATA    INT       mpu6050_acc_x
      00000CACH   PUBLIC    EDATA    INT       mpu6050_acc_y
      00000CAEH   PUBLIC    EDATA    INT       mpu6050_acc_z
      00000CB0H   PUBLIC    EDATA    INT       mpu6050_gyro_x
      00000CB2H   PUBLIC    EDATA    INT       mpu6050_gyro_y
      00000CB4H   PUBLIC    EDATA    INT       mpu6050_gyro_z
      000000D0H   SFRSYM    DATA     BYTE      PSW
      0000009DH   SFRSYM    DATA     BYTE      IRCBAND
      00000097H   SFRSYM    DATA     BYTE      AUXR2
      000000EFH   SFRSYM    DATA     BYTE      AUXINTIF
      000000FDH   SFRSYM    DATA     BYTE      S4CON
      000000ACH   SFRSYM    DATA     BYTE      S3CON
      0000009AH   SFRSYM    DATA     BYTE      S2CON
      000000B7H   SFRSYM    DATA     BYTE      IPH
      000000CDH   SFRSYM    DATA     BYTE      SPSTAT
      000000DDH   SFRSYM    DATA     BYTE      T4T3M
      000000C1H   SFRSYM    DATA     BYTE      WDT_CONTR
      000000DFH   SFRSYM    DATA     BYTE      IP3
      000000F4H   SFRSYM    DATA     BYTE      USBCON
      000000B5H   SFRSYM    DATA     BYTE      IP2
      000000FFH   SFRSYM    DATA     BYTE      RSTCFG
      000000C7H   SFRSYM    DATA     BYTE      IAP_CONTR
      000000F9H   SFRSYM    DATA     BYTE      LINICR
      0000008EH   SFRSYM    DATA     BYTE      AUXR
      000000AFH   SFRSYM    DATA     BYTE      IE2
      00000088H   SFRSYM    DATA     BYTE      TCON
      00000089H   SFRSYM    DATA     BYTE      TMOD
      000000C0H.1 SFRSYM    DATA     BIT       P41
      00000098H   SFRSYM    DATA     BYTE      SCON
      000000C0H.0 SFRSYM    DATA     BIT       P40
      000000F1H   SFRSYM    DATA     BYTE      CANICR
      00000087H   SFRSYM    DATA     BYTE      PCON
      000000BCH   SFRSYM    DATA     BYTE      ADC_CONTR
      000000E7H   SFRSYM    DATA     BYTE      CMPCR2
      000000E6H   SFRSYM    DATA     BYTE      CMPCR1
      000000DEH   SFRSYM    DATA     BYTE      ADCCFG
      000000B8H   SFRSYM    DATA     BYTE      IP
      0000008FH   SFRSYM    DATA     BYTE      INTCLKO
      000000EEH   SFRSYM    DATA     BYTE      IP3H
      000000B6H   SFRSYM    DATA     BYTE      IP2H
      000000A8H   SFRSYM    DATA     BYTE      IE
      000000BBH   SFRSYM    DATA     BYTE      P_SW3
      000000BAH   SFRSYM    DATA     BYTE      P_SW2
      000000A2H   SFRSYM    DATA     BYTE      P_SW1
      000000CEH   SFRSYM    DATA     BYTE      SPCTL
      000000F8H   SFRSYM    DATA     BYTE      P7
      000000E8H   SFRSYM    DATA     BYTE      P6
      000000C8H   SFRSYM    DATA     BYTE      P5
      000000C0H   SFRSYM    DATA     BYTE      P4
      000000B0H   SFRSYM    DATA     BYTE      P3
      000000A0H   SFRSYM    DATA     BYTE      P2
      00000090H   SFRSYM    DATA     BYTE      P1
      00000080H   SFRSYM    DATA     BYTE      P0
      00FF79ECH   SYMBOL    CODE     ---       mpu6050_simiic_start
      00FF7907H   SYMBOL    CODE     ---       mpu6050_simiic_stop
      00FF76D0H   SYMBOL    CODE     ---       mpu6050_simiic_sendack
      00FF0066H   SYMBOL    CODE     ---       mpu6050_simiic_delay

      00FF0066H   BLOCK     CODE     ---       LVL=0
      00001133H   SYMBOL    EDATA    WORD      j
      00FF0066H   LINE      CODE     ---       #52
      00FF0066H   LINE      CODE     ---       #53
L251 LINKER/LOCATER V4.66.93.0                                                        11/05/2024  20:15:43  PAGE 95


      00FF0066H   LINE      CODE     ---       #54
      00FF006CH   LINE      CODE     ---       #55
      00FF0082H   LINE      CODE     ---       #56
      ---         BLOCKEND  ---      ---       LVL=0

      00FF79ECH   BLOCK     CODE     ---       LVL=0
      00FF79ECH   LINE      CODE     ---       #59
      00FF79ECH   LINE      CODE     ---       #61
      00FF79EFH   LINE      CODE     ---       #62
      00FF79F2H   LINE      CODE     ---       #63
      00FF79F5H   LINE      CODE     ---       #64
      00FF79F8H   LINE      CODE     ---       #65
      00FF79FBH   LINE      CODE     ---       #66
      00FF79FEH   LINE      CODE     ---       #67
      ---         BLOCKEND  ---      ---       LVL=0

      00FF7907H   BLOCK     CODE     ---       LVL=0
      00FF7907H   LINE      CODE     ---       #70
      00FF7907H   LINE      CODE     ---       #72
      00FF790AH   LINE      CODE     ---       #73
      00FF790DH   LINE      CODE     ---       #74
      00FF7910H   LINE      CODE     ---       #75
      00FF7913H   LINE      CODE     ---       #76
      00FF7916H   LINE      CODE     ---       #77
      00FF7919H   LINE      CODE     ---       #78
      00FF791CH   LINE      CODE     ---       #79
      ---         BLOCKEND  ---      ---       LVL=0

      00FF76D0H   BLOCK     CODE     ---       LVL=0
      00001160H   SYMBOL    EDATA    BYTE      ack_dat
      00FF76D0H   LINE      CODE     ---       #83
      00FF76D4H   LINE      CODE     ---       #85
      00FF76D7H   LINE      CODE     ---       #86
      00FF76DAH   LINE      CODE     ---       #87
      00FF76E8H   LINE      CODE     ---       #88
      00FF76EBH   LINE      CODE     ---       #90
      00FF76EEH   LINE      CODE     ---       #91
      00FF76F1H   LINE      CODE     ---       #92
      00FF76F4H   LINE      CODE     ---       #93
      00FF76F7H   LINE      CODE     ---       #94
      ---         BLOCKEND  ---      ---       LVL=0
      00001135H   SYMBOL    EDATA    BYTE      c
      00001136H   SYMBOL    EDATA    BYTE      i
      000010E2H   SYMBOL    EDATA    BYTE      ack_x
      000010E3H   SYMBOL    EDATA    BYTE      i
      000010E4H   SYMBOL    EDATA    BYTE      c
      000010E5H   SYMBOL    EDATA    BYTE      dev_add
      000010E6H   SYMBOL    EDATA    BYTE      reg
      000010E7H   SYMBOL    EDATA    BYTE      dat
      000010E8H   SYMBOL    EDATA    BYTE      dev_add
      000010E9H   SYMBOL    EDATA    BYTE      reg
      000010EAH   SYMBOL    EDATA    BYTE      dat
      00000F50H   SYMBOL    EDATA    BYTE      dev_add
      00000F51H   SYMBOL    EDATA    BYTE      reg
      00000F52H   SYMBOL    EDATA    ---       dat_add
      00000F56H   SYMBOL    EDATA    BYTE      num
      00001007H   SYMBOL    EDATA    ---       dat
      0000100DH   SYMBOL    EDATA    ---       dat

      ---         MODULE    ---      ---       SEEKFREE_OLED
      00FF7571H   PUBLIC    CODE     ---       oled_set_pos
      00FF716DH   PUBLIC    CODE     ---       oled_wrcmd
      00FF71B9H   PUBLIC    CODE     ---       oled_wrdat
      00FF74D1H   PUBLIC    CODE     ---       oled_set_pos_spi
      00FF799BH   PUBLIC    CODE     ---       oled_wrcmd_spi
L251 LINKER/LOCATER V4.66.93.0                                                        11/05/2024  20:15:43  PAGE 96


      00FF79B0H   PUBLIC    CODE     ---       oled_wrdat_spi
      000006EFH   PUBLIC    EDATA    BYTE      ?oled_printf_float?BYTE
      0000071FH   PUBLIC    EDATA    BYTE      ?oled_printf_float_spi?BYTE
      000000D0H   SFRSYM    DATA     BYTE      PSW
      0000009DH   SFRSYM    DATA     BYTE      IRCBAND
      00000097H   SFRSYM    DATA     BYTE      AUXR2
      000000EFH   SFRSYM    DATA     BYTE      AUXINTIF
      000000FDH   SFRSYM    DATA     BYTE      S4CON
      000000ACH   SFRSYM    DATA     BYTE      S3CON
      0000009AH   SFRSYM    DATA     BYTE      S2CON
      000000B7H   SFRSYM    DATA     BYTE      IPH
      000000CDH   SFRSYM    DATA     BYTE      SPSTAT
      000000DDH   SFRSYM    DATA     BYTE      T4T3M
      000000C1H   SFRSYM    DATA     BYTE      WDT_CONTR
      000000DFH   SFRSYM    DATA     BYTE      IP3
      000000F4H   SFRSYM    DATA     BYTE      USBCON
      000000B5H   SFRSYM    DATA     BYTE      IP2
      000000FFH   SFRSYM    DATA     BYTE      RSTCFG
      000000C7H   SFRSYM    DATA     BYTE      IAP_CONTR
      000000F9H   SFRSYM    DATA     BYTE      LINICR
      0000008EH   SFRSYM    DATA     BYTE      AUXR
      000000AFH   SFRSYM    DATA     BYTE      IE2
      000000A0H.5 SFRSYM    DATA     BIT       P25
      00000088H   SFRSYM    DATA     BYTE      TCON
      00000089H   SFRSYM    DATA     BYTE      TMOD
      000000A0H.3 SFRSYM    DATA     BIT       P23
      00000098H   SFRSYM    DATA     BYTE      SCON
      000000A0H.2 SFRSYM    DATA     BIT       P22
      000000A0H.1 SFRSYM    DATA     BIT       P21
      000000A0H.0 SFRSYM    DATA     BIT       P20
      000000F1H   SFRSYM    DATA     BYTE      CANICR
      00000087H   SFRSYM    DATA     BYTE      PCON
      000000BCH   SFRSYM    DATA     BYTE      ADC_CONTR
      000000E7H   SFRSYM    DATA     BYTE      CMPCR2
      000000E6H   SFRSYM    DATA     BYTE      CMPCR1
      000000DEH   SFRSYM    DATA     BYTE      ADCCFG
      000000B8H   SFRSYM    DATA     BYTE      IP
      0000008FH   SFRSYM    DATA     BYTE      INTCLKO
      000000EEH   SFRSYM    DATA     BYTE      IP3H
      000000B6H   SFRSYM    DATA     BYTE      IP2H
      000000A8H   SFRSYM    DATA     BYTE      IE
      000000BBH   SFRSYM    DATA     BYTE      P_SW3
      000000BAH   SFRSYM    DATA     BYTE      P_SW2
      000000A2H   SFRSYM    DATA     BYTE      P_SW1
      000000CEH   SFRSYM    DATA     BYTE      SPCTL
      000000F8H   SFRSYM    DATA     BYTE      P7
      000000E8H   SFRSYM    DATA     BYTE      P6
      000000C8H   SFRSYM    DATA     BYTE      P5
      000000C0H   SFRSYM    DATA     BYTE      P4
      000000B0H   SFRSYM    DATA     BYTE      P3
      000000A0H   SFRSYM    DATA     BYTE      P2
      00000090H   SFRSYM    DATA     BYTE      P1
      00000080H   SFRSYM    DATA     BYTE      P0

      00FF71B9H   BLOCK     CODE     ---       LVL=0
      00001137H   SYMBOL    EDATA    BYTE      dat
      00FF71BDH   BLOCK     CODE     NEAR LAB  LVL=1
      00001138H   SYMBOL    EDATA    BYTE      i
      ---         BLOCKEND  ---      ---       LVL=1
      00FF71B9H   LINE      CODE     ---       #47
      00FF71BDH   LINE      CODE     ---       #48
      00FF71BDH   LINE      CODE     ---       #49
      00FF71C3H   LINE      CODE     ---       #51
      00FF71C6H   LINE      CODE     ---       #52
      00FF71C9H   LINE      CODE     ---       #53
L251 LINKER/LOCATER V4.66.93.0                                                        11/05/2024  20:15:43  PAGE 97


      00FF71CCH   LINE      CODE     ---       #54
      00FF71CEH   LINE      CODE     ---       #56
      00FF71DAH   LINE      CODE     ---       #57
      00FF71DDH   LINE      CODE     ---       #58
      00FF71E0H   LINE      CODE     ---       #60
      00FF71E3H   LINE      CODE     ---       #61
      00FF71EDH   LINE      CODE     ---       #62
      00FF7201H   LINE      CODE     ---       #63
      00FF7204H   LINE      CODE     ---       #64
      ---         BLOCKEND  ---      ---       LVL=0

      00FF716DH   BLOCK     CODE     ---       LVL=0
      00001139H   SYMBOL    EDATA    BYTE      cmd
      00FF7171H   BLOCK     CODE     NEAR LAB  LVL=1
      0000113AH   SYMBOL    EDATA    BYTE      i
      ---         BLOCKEND  ---      ---       LVL=1
      00FF716DH   LINE      CODE     ---       #98
      00FF7171H   LINE      CODE     ---       #99
      00FF7171H   LINE      CODE     ---       #100
      00FF7177H   LINE      CODE     ---       #102
      00FF717AH   LINE      CODE     ---       #103
      00FF717DH   LINE      CODE     ---       #104
      00FF7180H   LINE      CODE     ---       #106
      00FF7182H   LINE      CODE     ---       #108
      00FF718EH   LINE      CODE     ---       #109
      00FF7191H   LINE      CODE     ---       #110
      00FF7194H   LINE      CODE     ---       #112
      00FF7197H   LINE      CODE     ---       #113
      00FF71A1H   LINE      CODE     ---       #114
      00FF71B5H   LINE      CODE     ---       #115
      00FF71B8H   LINE      CODE     ---       #116
      ---         BLOCKEND  ---      ---       LVL=0
      00000F05H   SYMBOL    EDATA    WORD      hex
      00000F07H   SYMBOL    EDATA    ---       Print
      00000F0BH   SYMBOL    EDATA    BYTE      hexcheck
      00000F0CH   SYMBOL    EDATA    BYTE      TEMP

      00FF7571H   BLOCK     CODE     ---       LVL=0
      0000113BH   SYMBOL    EDATA    BYTE      x
      0000113CH   SYMBOL    EDATA    BYTE      y
      00FF7571H   LINE      CODE     ---       #205
      00FF7579H   LINE      CODE     ---       #207
      00FF7584H   LINE      CODE     ---       #208
      00FF759AH   LINE      CODE     ---       #209
      00FF75A5H   LINE      CODE     ---       #210
      ---         BLOCKEND  ---      ---       LVL=0
      000010EBH   SYMBOL    EDATA    BYTE      bmp_data
      000010ECH   SYMBOL    EDATA    BYTE      y
      000010EDH   SYMBOL    EDATA    BYTE      x
      000010EEH   SYMBOL    EDATA    BYTE      x
      000010EFH   SYMBOL    EDATA    BYTE      y
      000010F0H   SYMBOL    EDATA    BYTE      data1
      0000113DH   SYMBOL    EDATA    BYTE      x
      0000113EH   SYMBOL    EDATA    BYTE      y
      00000E57H   SYMBOL    EDATA    BYTE      x
      00000E58H   SYMBOL    EDATA    BYTE      y
      00000E59H   SYMBOL    EDATA    ---       ch
      00000E5DH   SYMBOL    EDATA    BYTE      c
      00000E5EH   SYMBOL    EDATA    BYTE      i
      00000E5FH   SYMBOL    EDATA    BYTE      j
      00000E60H   SYMBOL    EDATA    BYTE      x
      00000E61H   SYMBOL    EDATA    BYTE      y
      00000E62H   SYMBOL    EDATA    ---       ch
      00000E66H   SYMBOL    EDATA    BYTE      c
      00000E67H   SYMBOL    EDATA    BYTE      i
L251 LINKER/LOCATER V4.66.93.0                                                        11/05/2024  20:15:43  PAGE 98


      00000E68H   SYMBOL    EDATA    BYTE      j
      00000CC2H   SYMBOL    EDATA    BYTE      x
      00000CC3H   SYMBOL    EDATA    BYTE      y
      00000CC4H   SYMBOL    EDATA    WORD      num
      00000CC6H   SYMBOL    EDATA    ---       ch
      00000CCDH   SYMBOL    EDATA    BYTE      x
      00000CCEH   SYMBOL    EDATA    BYTE      y
      00000CCFH   SYMBOL    EDATA    INT       num
      00000CD1H   SYMBOL    EDATA    ---       ch
      0000082EH   SYMBOL    EDATA    WORD      x
      00000830H   SYMBOL    EDATA    WORD      y
      00000832H   SYMBOL    EDATA    LONG      dat
      00000836H   SYMBOL    EDATA    BYTE      num
      00000837H   SYMBOL    EDATA    ---       buff
      00000859H   SYMBOL    EDATA    BYTE      length
      000006EFH   SYMBOL    EDATA    WORD      x
      000006F1H   SYMBOL    EDATA    WORD      y
      000006F3H   SYMBOL    EDATA    FLOAT     dat
      000006F7H   SYMBOL    EDATA    BYTE      num
      000006F8H   SYMBOL    EDATA    BYTE      pointnum
      000006F9H   SYMBOL    EDATA    BYTE      length
      000006FAH   SYMBOL    EDATA    ---       buff
      0000071CH   SYMBOL    EDATA    CHAR      start
      0000071DH   SYMBOL    EDATA    CHAR      end
      0000071EH   SYMBOL    EDATA    CHAR      point
      00000AECH   SYMBOL    EDATA    WORD      high
      00000AEEH   SYMBOL    EDATA    WORD      width
      00000AF0H   SYMBOL    EDATA    ---       p
      00000AF4H   SYMBOL    EDATA    BYTE      value
      00000AF5H   SYMBOL    EDATA    WORD      i
      00000AF7H   SYMBOL    EDATA    WORD      j
      00000AF9H   SYMBOL    EDATA    WORD      temp
      00000AFBH   SYMBOL    EDATA    WORD      temp1
      00000AFDH   SYMBOL    EDATA    BYTE      dat
      00000B99H   SYMBOL    EDATA    BYTE      x
      00000B9AH   SYMBOL    EDATA    BYTE      y
      00000B9BH   SYMBOL    EDATA    BYTE      size
      00000B9CH   SYMBOL    EDATA    ---       p
      00000BA0H   SYMBOL    EDATA    BYTE      len
      00000BA1H   SYMBOL    EDATA    WORD      i
      00000BA3H   SYMBOL    EDATA    WORD      j
      00000BA5H   SYMBOL    EDATA    WORD      k

      00FF79B0H   BLOCK     CODE     ---       LVL=0
      00001161H   SYMBOL    EDATA    BYTE      dat
      00FF79B0H   LINE      CODE     ---       #534
      00FF79B4H   LINE      CODE     ---       #536
      00FF79B7H   LINE      CODE     ---       #537
      00FF79BAH   LINE      CODE     ---       #538
      00FF79C1H   LINE      CODE     ---       #539
      00FF79C4H   LINE      CODE     ---       #542
      ---         BLOCKEND  ---      ---       LVL=0

      00FF799BH   BLOCK     CODE     ---       LVL=0
      00001162H   SYMBOL    EDATA    BYTE      cmd
      00FF799BH   LINE      CODE     ---       #576
      00FF799FH   LINE      CODE     ---       #578
      00FF79A2H   LINE      CODE     ---       #579
      00FF79A5H   LINE      CODE     ---       #580
      00FF79ACH   LINE      CODE     ---       #581
      00FF79AFH   LINE      CODE     ---       #582
      ---         BLOCKEND  ---      ---       LVL=0
      00000F0DH   SYMBOL    EDATA    WORD      hex
      00000F0FH   SYMBOL    EDATA    ---       Print
      00000F13H   SYMBOL    EDATA    BYTE      hexcheck
L251 LINKER/LOCATER V4.66.93.0                                                        11/05/2024  20:15:43  PAGE 99


      00000F14H   SYMBOL    EDATA    BYTE      TEMP

      00FF74D1H   BLOCK     CODE     ---       LVL=0
      0000113FH   SYMBOL    EDATA    BYTE      x
      00001140H   SYMBOL    EDATA    BYTE      y
      00FF74D1H   LINE      CODE     ---       #672
      00FF74D9H   LINE      CODE     ---       #676
      00FF74E4H   LINE      CODE     ---       #677
      00FF74FBH   LINE      CODE     ---       #678
      00FF7506H   LINE      CODE     ---       #679
      ---         BLOCKEND  ---      ---       LVL=0
      000010F1H   SYMBOL    EDATA    BYTE      bmp_data
      000010F2H   SYMBOL    EDATA    BYTE      y
      000010F3H   SYMBOL    EDATA    BYTE      x
      000010F4H   SYMBOL    EDATA    BYTE      x
      000010F5H   SYMBOL    EDATA    BYTE      y
      000010F6H   SYMBOL    EDATA    BYTE      data1
      00001141H   SYMBOL    EDATA    BYTE      x
      00001142H   SYMBOL    EDATA    BYTE      y
      00000E69H   SYMBOL    EDATA    BYTE      x
      00000E6AH   SYMBOL    EDATA    BYTE      y
      00000E6BH   SYMBOL    EDATA    ---       ch
      00000E6FH   SYMBOL    EDATA    BYTE      c
      00000E70H   SYMBOL    EDATA    BYTE      i
      00000E71H   SYMBOL    EDATA    BYTE      j
      00000E72H   SYMBOL    EDATA    BYTE      x
      00000E73H   SYMBOL    EDATA    BYTE      y
      00000E74H   SYMBOL    EDATA    ---       ch
      00000E78H   SYMBOL    EDATA    BYTE      c
      00000E79H   SYMBOL    EDATA    BYTE      i
      00000E7AH   SYMBOL    EDATA    BYTE      j
      00000CD8H   SYMBOL    EDATA    BYTE      x
      00000CD9H   SYMBOL    EDATA    BYTE      y
      00000CDAH   SYMBOL    EDATA    WORD      num
      00000CDCH   SYMBOL    EDATA    ---       ch
      00000CE3H   SYMBOL    EDATA    BYTE      x
      00000CE4H   SYMBOL    EDATA    BYTE      y
      00000CE5H   SYMBOL    EDATA    INT       num
      00000CE7H   SYMBOL    EDATA    ---       ch
      0000085AH   SYMBOL    EDATA    WORD      x
      0000085CH   SYMBOL    EDATA    WORD      y
      0000085EH   SYMBOL    EDATA    LONG      dat
      00000862H   SYMBOL    EDATA    BYTE      num
      00000863H   SYMBOL    EDATA    ---       buff
      00000885H   SYMBOL    EDATA    BYTE      length
      0000071FH   SYMBOL    EDATA    WORD      x
      00000721H   SYMBOL    EDATA    WORD      y
      00000723H   SYMBOL    EDATA    FLOAT     dat
      00000727H   SYMBOL    EDATA    BYTE      num
      00000728H   SYMBOL    EDATA    BYTE      pointnum
      00000729H   SYMBOL    EDATA    BYTE      length
      0000072AH   SYMBOL    EDATA    ---       buff
      0000074CH   SYMBOL    EDATA    CHAR      start
      0000074DH   SYMBOL    EDATA    CHAR      end
      0000074EH   SYMBOL    EDATA    CHAR      point
      00000AFEH   SYMBOL    EDATA    WORD      high
      00000B00H   SYMBOL    EDATA    WORD      width
      00000B02H   SYMBOL    EDATA    ---       p
      00000B06H   SYMBOL    EDATA    BYTE      value
      00000B07H   SYMBOL    EDATA    WORD      i
      00000B09H   SYMBOL    EDATA    WORD      j
      00000B0BH   SYMBOL    EDATA    WORD      temp
      00000B0DH   SYMBOL    EDATA    WORD      temp1
      00000B0FH   SYMBOL    EDATA    BYTE      dat
      00000BA7H   SYMBOL    EDATA    BYTE      x
L251 LINKER/LOCATER V4.66.93.0                                                        11/05/2024  20:15:43  PAGE 100


      00000BA8H   SYMBOL    EDATA    BYTE      y
      00000BA9H   SYMBOL    EDATA    BYTE      size
      00000BAAH   SYMBOL    EDATA    ---       p
      00000BAEH   SYMBOL    EDATA    BYTE      len
      00000BAFH   SYMBOL    EDATA    WORD      i
      00000BB1H   SYMBOL    EDATA    WORD      j
      00000BB3H   SYMBOL    EDATA    WORD      k

      ---         MODULE    ---      ---       SEEKFREE_TSL1401
      00FF66EEH   PUBLIC    CODE     ---       ccd_collect
      00000008H   PUBLIC    EDATA    BYTE      tsl1401_finish_flag
      00000009H   PUBLIC    EDATA    ---       ccd_data_ch1
      00000109H   PUBLIC    EDATA    ---       ccd_data_ch2
      000000D0H   SFRSYM    DATA     BYTE      PSW
      0000009DH   SFRSYM    DATA     BYTE      IRCBAND
      00000097H   SFRSYM    DATA     BYTE      AUXR2
      000000EFH   SFRSYM    DATA     BYTE      AUXINTIF
      000000FDH   SFRSYM    DATA     BYTE      S4CON
      000000ACH   SFRSYM    DATA     BYTE      S3CON
      0000009AH   SFRSYM    DATA     BYTE      S2CON
      000000B7H   SFRSYM    DATA     BYTE      IPH
      000000CDH   SFRSYM    DATA     BYTE      SPSTAT
      000000DDH   SFRSYM    DATA     BYTE      T4T3M
      000000C1H   SFRSYM    DATA     BYTE      WDT_CONTR
      000000DFH   SFRSYM    DATA     BYTE      IP3
      000000F4H   SFRSYM    DATA     BYTE      USBCON
      000000B5H   SFRSYM    DATA     BYTE      IP2
      000000FFH   SFRSYM    DATA     BYTE      RSTCFG
      000000C7H   SFRSYM    DATA     BYTE      IAP_CONTR
      000000F9H   SFRSYM    DATA     BYTE      LINICR
      0000008EH   SFRSYM    DATA     BYTE      AUXR
      000000AFH   SFRSYM    DATA     BYTE      IE2
      00000080H.7 SFRSYM    DATA     BIT       P07
      00000088H   SFRSYM    DATA     BYTE      TCON
      00000089H   SFRSYM    DATA     BYTE      TMOD
      00000098H   SFRSYM    DATA     BYTE      SCON
      00000080H.2 SFRSYM    DATA     BIT       P02
      000000F1H   SFRSYM    DATA     BYTE      CANICR
      00000087H   SFRSYM    DATA     BYTE      PCON
      000000BCH   SFRSYM    DATA     BYTE      ADC_CONTR
      000000E7H   SFRSYM    DATA     BYTE      CMPCR2
      000000E6H   SFRSYM    DATA     BYTE      CMPCR1
      000000DEH   SFRSYM    DATA     BYTE      ADCCFG
      000000B8H   SFRSYM    DATA     BYTE      IP
      0000008FH   SFRSYM    DATA     BYTE      INTCLKO
      000000EEH   SFRSYM    DATA     BYTE      IP3H
      000000B6H   SFRSYM    DATA     BYTE      IP2H
      000000A8H   SFRSYM    DATA     BYTE      IE
      000000BBH   SFRSYM    DATA     BYTE      P_SW3
      000000BAH   SFRSYM    DATA     BYTE      P_SW2
      000000A2H   SFRSYM    DATA     BYTE      P_SW1
      000000CEH   SFRSYM    DATA     BYTE      SPCTL
      000000F8H   SFRSYM    DATA     BYTE      P7
      000000E8H   SFRSYM    DATA     BYTE      P6
      000000C8H   SFRSYM    DATA     BYTE      P5
      000000C0H   SFRSYM    DATA     BYTE      P4
      000000B0H   SFRSYM    DATA     BYTE      P3
      000000A0H   SFRSYM    DATA     BYTE      P2
      00000090H   SFRSYM    DATA     BYTE      P1
      00000080H   SFRSYM    DATA     BYTE      P0
      00000F57H   SYMBOL    EDATA    INT       uart_n
      00000F59H   SYMBOL    EDATA    ---       dat
      00000F5DH   SYMBOL    EDATA    BYTE      i

      00FF66EEH   BLOCK     CODE     ---       LVL=0
L251 LINKER/LOCATER V4.66.93.0                                                        11/05/2024  20:15:43  PAGE 101


      00001163H   SYMBOL    EDATA    BYTE      i
      00FF66EEH   LINE      CODE     ---       #86
      00FF66EEH   LINE      CODE     ---       #87
      00FF66EEH   LINE      CODE     ---       #88
      00FF66F3H   LINE      CODE     ---       #90
      00FF66F6H   LINE      CODE     ---       #91
      00FF66F9H   LINE      CODE     ---       #92
      00FF66FCH   LINE      CODE     ---       #93
      00FF66FFH   LINE      CODE     ---       #94
      00FF6702H   LINE      CODE     ---       #95
      00FF6705H   LINE      CODE     ---       #97
      00FF670CH   LINE      CODE     ---       #99
      00FF670FH   LINE      CODE     ---       #100
      00FF672CH   LINE      CODE     ---       #101
      00FF6749H   LINE      CODE     ---       #102
      00FF674CH   LINE      CODE     ---       #103
      00FF6763H   LINE      CODE     ---       #104
      00FF6769H   LINE      CODE     ---       #105
      ---         BLOCKEND  ---      ---       LVL=0

      ---         MODULE    ---      ---       SEEKFREE_VIRSCO
      00000D7BH   PUBLIC    EDATA    ---       virtual_scope_data
      00000BB5H   PUBLIC    EDATA    BYTE      ?data_conversion?BYTE
      000000D0H   SFRSYM    DATA     BYTE      PSW
      0000009DH   SFRSYM    DATA     BYTE      IRCBAND
      00000097H   SFRSYM    DATA     BYTE      AUXR2
      000000EFH   SFRSYM    DATA     BYTE      AUXINTIF
      000000FDH   SFRSYM    DATA     BYTE      S4CON
      000000ACH   SFRSYM    DATA     BYTE      S3CON
      0000009AH   SFRSYM    DATA     BYTE      S2CON
      000000B7H   SFRSYM    DATA     BYTE      IPH
      000000CDH   SFRSYM    DATA     BYTE      SPSTAT
      000000DDH   SFRSYM    DATA     BYTE      T4T3M
      000000C1H   SFRSYM    DATA     BYTE      WDT_CONTR
      000000DFH   SFRSYM    DATA     BYTE      IP3
      000000F4H   SFRSYM    DATA     BYTE      USBCON
      000000B5H   SFRSYM    DATA     BYTE      IP2
      000000FFH   SFRSYM    DATA     BYTE      RSTCFG
      000000C7H   SFRSYM    DATA     BYTE      IAP_CONTR
      000000F9H   SFRSYM    DATA     BYTE      LINICR
      0000008EH   SFRSYM    DATA     BYTE      AUXR
      000000AFH   SFRSYM    DATA     BYTE      IE2
      00000088H   SFRSYM    DATA     BYTE      TCON
      00000089H   SFRSYM    DATA     BYTE      TMOD
      00000098H   SFRSYM    DATA     BYTE      SCON
      000000F1H   SFRSYM    DATA     BYTE      CANICR
      00000087H   SFRSYM    DATA     BYTE      PCON
      000000BCH   SFRSYM    DATA     BYTE      ADC_CONTR
      000000E7H   SFRSYM    DATA     BYTE      CMPCR2
      000000E6H   SFRSYM    DATA     BYTE      CMPCR1
      000000DEH   SFRSYM    DATA     BYTE      ADCCFG
      000000B8H   SFRSYM    DATA     BYTE      IP
      0000008FH   SFRSYM    DATA     BYTE      INTCLKO
      000000EEH   SFRSYM    DATA     BYTE      IP3H
      000000B6H   SFRSYM    DATA     BYTE      IP2H
      000000A8H   SFRSYM    DATA     BYTE      IE
      000000BBH   SFRSYM    DATA     BYTE      P_SW3
      000000BAH   SFRSYM    DATA     BYTE      P_SW2
      000000A2H   SFRSYM    DATA     BYTE      P_SW1
      000000CEH   SFRSYM    DATA     BYTE      SPCTL
      000000F8H   SFRSYM    DATA     BYTE      P7
      000000E8H   SFRSYM    DATA     BYTE      P6
      000000C8H   SFRSYM    DATA     BYTE      P5
      000000C0H   SFRSYM    DATA     BYTE      P4
      000000B0H   SFRSYM    DATA     BYTE      P3
L251 LINKER/LOCATER V4.66.93.0                                                        11/05/2024  20:15:43  PAGE 102


      000000A0H   SFRSYM    DATA     BYTE      P2
      00000090H   SFRSYM    DATA     BYTE      P1
      00000080H   SFRSYM    DATA     BYTE      P0
      00000E7BH   SYMBOL    EDATA    ---       Buf
      00000E7FH   SYMBOL    EDATA    BYTE      CRC_CNT
      00000E80H   SYMBOL    EDATA    WORD      CRC_Temp
      00000E82H   SYMBOL    EDATA    BYTE      i
      00000E83H   SYMBOL    EDATA    BYTE      j
      00000BB5H   SYMBOL    EDATA    INT       data1
      00000BB7H   SYMBOL    EDATA    INT       data2
      00000BB9H   SYMBOL    EDATA    INT       data3
      00000BBBH   SYMBOL    EDATA    INT       data4
      00000BBDH   SYMBOL    EDATA    ---       dat
      00000BC1H   SYMBOL    EDATA    WORD      CRC16

      ---         MODULE    ---      ---       SEEKFREE_WIRELESS
      000000D0H   SFRSYM    DATA     BYTE      PSW
      0000009DH   SFRSYM    DATA     BYTE      IRCBAND
      00000097H   SFRSYM    DATA     BYTE      AUXR2
      000000EFH   SFRSYM    DATA     BYTE      AUXINTIF
      000000FDH   SFRSYM    DATA     BYTE      S4CON
      000000ACH   SFRSYM    DATA     BYTE      S3CON
      0000009AH   SFRSYM    DATA     BYTE      S2CON
      000000B7H   SFRSYM    DATA     BYTE      IPH
      000000CDH   SFRSYM    DATA     BYTE      SPSTAT
      000000DDH   SFRSYM    DATA     BYTE      T4T3M
      000000C1H   SFRSYM    DATA     BYTE      WDT_CONTR
      000000DFH   SFRSYM    DATA     BYTE      IP3
      000000F4H   SFRSYM    DATA     BYTE      USBCON
      000000B5H   SFRSYM    DATA     BYTE      IP2
      000000FFH   SFRSYM    DATA     BYTE      RSTCFG
      000000C7H   SFRSYM    DATA     BYTE      IAP_CONTR
      000000F9H   SFRSYM    DATA     BYTE      LINICR
      0000008EH   SFRSYM    DATA     BYTE      AUXR
      000000AFH   SFRSYM    DATA     BYTE      IE2
      00000080H.7 SFRSYM    DATA     BIT       P07
      00000088H   SFRSYM    DATA     BYTE      TCON
      00000089H   SFRSYM    DATA     BYTE      TMOD
      00000098H   SFRSYM    DATA     BYTE      SCON
      000000F1H   SFRSYM    DATA     BYTE      CANICR
      00000087H   SFRSYM    DATA     BYTE      PCON
      000000BCH   SFRSYM    DATA     BYTE      ADC_CONTR
      000000E7H   SFRSYM    DATA     BYTE      CMPCR2
      000000E6H   SFRSYM    DATA     BYTE      CMPCR1
      000000DEH   SFRSYM    DATA     BYTE      ADCCFG
      000000B8H   SFRSYM    DATA     BYTE      IP
      0000008FH   SFRSYM    DATA     BYTE      INTCLKO
      000000EEH   SFRSYM    DATA     BYTE      IP3H
      000000B6H   SFRSYM    DATA     BYTE      IP2H
      000000A8H   SFRSYM    DATA     BYTE      IE
      000000BBH   SFRSYM    DATA     BYTE      P_SW3
      000000BAH   SFRSYM    DATA     BYTE      P_SW2
      000000A2H   SFRSYM    DATA     BYTE      P_SW1
      000000CEH   SFRSYM    DATA     BYTE      SPCTL
      000000F8H   SFRSYM    DATA     BYTE      P7
      000000E8H   SFRSYM    DATA     BYTE      P6
      000000C8H   SFRSYM    DATA     BYTE      P5
      000000C0H   SFRSYM    DATA     BYTE      P4
      000000B0H   SFRSYM    DATA     BYTE      P3
      000000A0H   SFRSYM    DATA     BYTE      P2
      00000090H   SFRSYM    DATA     BYTE      P1
      00000080H   SFRSYM    DATA     BYTE      P0
      00000516H   SYMBOL    EDATA    BYTE      wireless_uart_data
      00000517H   SYMBOL    EDATA    ---       wireless_uart_fifo
      0000052EH   SYMBOL    EDATA    ---       wireless_uart_buffer
L251 LINKER/LOCATER V4.66.93.0                                                        11/05/2024  20:15:43  PAGE 103


      00001164H   SYMBOL    EDATA    BYTE      dat
      00001165H   SYMBOL    EDATA    BYTE      dat
      00000F15H   SYMBOL    EDATA    ---       buff
      00000F19H   SYMBOL    EDATA    DWORD     len
      00000CB6H   SYMBOL    EDATA    ---       buff
      00000CBAH   SYMBOL    EDATA    DWORD     len
      00000CBEH   SYMBOL    EDATA    DWORD     data_len

      ---         MODULE    ---      ---       isr
      00FF7367H   PUBLIC    CODE     ---       UART1_Isr
      00FF7039H   PUBLIC    CODE     ---       UART2_Isr
      00FF78A5H   PUBLIC    CODE     ---       UART3_Isr
      00FF78BFH   PUBLIC    CODE     ---       UART4_Isr
      00FF005EH   PUBLIC    CODE     ---       INT0_Isr
      00FF000AH   PUBLIC    CODE     ---       INT1_Isr
      00FF0086H   PUBLIC    CODE     ---       INT2_Isr
      00FF008EH   PUBLIC    CODE     ---       INT3_Isr
      00FF0096H   PUBLIC    CODE     ---       INT4_Isr
      00FF0012H   PUBLIC    CODE     ---       TM0_Isr
      00FF001AH   PUBLIC    CODE     ---       TM1_Isr
      00FF009EH   PUBLIC    CODE     ---       TM2_Isr
      00FF7A66H   PUBLIC    CODE     ---       TM3_Isr
      00FF75A6H   PUBLIC    CODE     ---       TM4_Isr
      000000D0H   SFRSYM    DATA     BYTE      PSW
      0000009DH   SFRSYM    DATA     BYTE      IRCBAND
      00000097H   SFRSYM    DATA     BYTE      AUXR2
      000000EFH   SFRSYM    DATA     BYTE      AUXINTIF
      000000FDH   SFRSYM    DATA     BYTE      S4CON
      000000ACH   SFRSYM    DATA     BYTE      S3CON
      0000009AH   SFRSYM    DATA     BYTE      S2CON
      0000009BH   SFRSYM    DATA     BYTE      S2BUF
      000000B7H   SFRSYM    DATA     BYTE      IPH
      000000CDH   SFRSYM    DATA     BYTE      SPSTAT
      000000DDH   SFRSYM    DATA     BYTE      T4T3M
      000000C1H   SFRSYM    DATA     BYTE      WDT_CONTR
      000000DFH   SFRSYM    DATA     BYTE      IP3
      000000F4H   SFRSYM    DATA     BYTE      USBCON
      000000B5H   SFRSYM    DATA     BYTE      IP2
      000000FFH   SFRSYM    DATA     BYTE      RSTCFG
      000000C7H   SFRSYM    DATA     BYTE      IAP_CONTR
      000000F9H   SFRSYM    DATA     BYTE      LINICR
      0000008EH   SFRSYM    DATA     BYTE      AUXR
      000000AFH   SFRSYM    DATA     BYTE      IE2
      000000C8H.2 SFRSYM    DATA     BIT       P52
      00000088H   SFRSYM    DATA     BYTE      TCON
      00000089H   SFRSYM    DATA     BYTE      TMOD
      00000098H   SFRSYM    DATA     BYTE      SCON
      000000F1H   SFRSYM    DATA     BYTE      CANICR
      00000087H   SFRSYM    DATA     BYTE      PCON
      00000099H   SFRSYM    DATA     BYTE      SBUF
      000000BCH   SFRSYM    DATA     BYTE      ADC_CONTR
      000000E7H   SFRSYM    DATA     BYTE      CMPCR2
      000000E6H   SFRSYM    DATA     BYTE      CMPCR1
      000000DEH   SFRSYM    DATA     BYTE      ADCCFG
      000000B8H   SFRSYM    DATA     BYTE      IP
      0000008FH   SFRSYM    DATA     BYTE      INTCLKO
      000000EEH   SFRSYM    DATA     BYTE      IP3H
      000000B6H   SFRSYM    DATA     BYTE      IP2H
      000000A8H   SFRSYM    DATA     BYTE      IE
      000000BBH   SFRSYM    DATA     BYTE      P_SW3
      000000BAH   SFRSYM    DATA     BYTE      P_SW2
      000000A2H   SFRSYM    DATA     BYTE      P_SW1
      000000CEH   SFRSYM    DATA     BYTE      SPCTL
      000000F8H   SFRSYM    DATA     BYTE      P7
      000000E8H   SFRSYM    DATA     BYTE      P6
L251 LINKER/LOCATER V4.66.93.0                                                        11/05/2024  20:15:43  PAGE 104


      000000C8H   SFRSYM    DATA     BYTE      P5
      000000C0H   SFRSYM    DATA     BYTE      P4
      000000B0H   SFRSYM    DATA     BYTE      P3
      000000A0H   SFRSYM    DATA     BYTE      P2
      00000090H   SFRSYM    DATA     BYTE      P1
      00000080H   SFRSYM    DATA     BYTE      P0

      00FF7367H   BLOCK     CODE     ---       LVL=0
      00FF7369H   BLOCK     CODE     NEAR LAB  LVL=1
      00001166H   SYMBOL    EDATA    BYTE      res
      00001167H   SYMBOL    EDATA    BYTE      dwon_count
      ---         BLOCKEND  ---      ---       LVL=1
      00FF7367H   LINE      CODE     ---       #22
      00FF7369H   LINE      CODE     ---       #23
      00FF7369H   LINE      CODE     ---       #26
      00FF736EH   LINE      CODE     ---       #28
      00FF7371H   LINE      CODE     ---       #29
      00FF7376H   LINE      CODE     ---       #30
      00FF7376H   LINE      CODE     ---       #31
      00FF737BH   LINE      CODE     ---       #33
      00FF737EH   LINE      CODE     ---       #34
      00FF7384H   LINE      CODE     ---       #36
      00FF7389H   LINE      CODE     ---       #38
      00FF739BH   LINE      CODE     ---       #39
      00FF739FH   LINE      CODE     ---       #40
      00FF73A1H   LINE      CODE     ---       #43
      00FF73A6H   LINE      CODE     ---       #44
      00FF73A6H   LINE      CODE     ---       #45
      ---         BLOCKEND  ---      ---       LVL=0

      00FF7039H   BLOCK     CODE     ---       LVL=0
      00FF7039H   LINE      CODE     ---       #49
      00FF704DH   LINE      CODE     ---       #51
      00FF7052H   LINE      CODE     ---       #53
      00FF7055H   LINE      CODE     ---       #54
      00FF705AH   LINE      CODE     ---       #55
      00FF705AH   LINE      CODE     ---       #56
      00FF705FH   LINE      CODE     ---       #58
      00FF7062H   LINE      CODE     ---       #60
      00FF706CH   LINE      CODE     ---       #64
      00FF7074H   LINE      CODE     ---       #65
      00FF7074H   LINE      CODE     ---       #67
      ---         BLOCKEND  ---      ---       LVL=0

      00FF78A5H   BLOCK     CODE     ---       LVL=0
      00FF78A5H   LINE      CODE     ---       #71
      00FF78A7H   LINE      CODE     ---       #73
      00FF78ACH   LINE      CODE     ---       #75
      00FF78AFH   LINE      CODE     ---       #76
      00FF78B4H   LINE      CODE     ---       #77
      00FF78B4H   LINE      CODE     ---       #78
      00FF78B9H   LINE      CODE     ---       #80
      00FF78BCH   LINE      CODE     ---       #83
      ---         BLOCKEND  ---      ---       LVL=0

      00FF78BFH   BLOCK     CODE     ---       LVL=0
      00FF78BFH   LINE      CODE     ---       #88
      00FF78C1H   LINE      CODE     ---       #90
      00FF78C6H   LINE      CODE     ---       #92
      00FF78C9H   LINE      CODE     ---       #93
      00FF78CEH   LINE      CODE     ---       #94
      00FF78CEH   LINE      CODE     ---       #95
      00FF78D3H   LINE      CODE     ---       #97
      00FF78D6H   LINE      CODE     ---       #101
      ---         BLOCKEND  ---      ---       LVL=0
L251 LINKER/LOCATER V4.66.93.0                                                        11/05/2024  20:15:43  PAGE 105



      00FF005EH   BLOCK     CODE     ---       LVL=0
      00FF005EH   LINE      CODE     ---       #105
      00FF005EH   LINE      CODE     ---       #107
      00FF0061H   LINE      CODE     ---       #108
      ---         BLOCKEND  ---      ---       LVL=0

      00FF000AH   BLOCK     CODE     ---       LVL=0
      00FF000AH   LINE      CODE     ---       #109
      00FF000AH   LINE      CODE     ---       #112
      ---         BLOCKEND  ---      ---       LVL=0

      00FF0086H   BLOCK     CODE     ---       LVL=0
      00FF0086H   LINE      CODE     ---       #113
      00FF0086H   LINE      CODE     ---       #115
      00FF0089H   LINE      CODE     ---       #116
      ---         BLOCKEND  ---      ---       LVL=0

      00FF008EH   BLOCK     CODE     ---       LVL=0
      00FF008EH   LINE      CODE     ---       #117
      00FF008EH   LINE      CODE     ---       #119
      00FF0091H   LINE      CODE     ---       #120
      ---         BLOCKEND  ---      ---       LVL=0

      00FF0096H   BLOCK     CODE     ---       LVL=0
      00FF0096H   LINE      CODE     ---       #122
      00FF0096H   LINE      CODE     ---       #124
      00FF0099H   LINE      CODE     ---       #125
      ---         BLOCKEND  ---      ---       LVL=0

      00FF0012H   BLOCK     CODE     ---       LVL=0
      00FF0012H   LINE      CODE     ---       #127
      00FF0012H   LINE      CODE     ---       #130
      ---         BLOCKEND  ---      ---       LVL=0

      00FF001AH   BLOCK     CODE     ---       LVL=0
      00FF001AH   LINE      CODE     ---       #131
      00FF001AH   LINE      CODE     ---       #134
      ---         BLOCKEND  ---      ---       LVL=0

      00FF009EH   BLOCK     CODE     ---       LVL=0
      00FF009EH   LINE      CODE     ---       #135
      00FF009EH   LINE      CODE     ---       #137
      00FF00A1H   LINE      CODE     ---       #139
      ---         BLOCKEND  ---      ---       LVL=0

      00FF7A66H   BLOCK     CODE     ---       LVL=0
      00FF7A66H   LINE      CODE     ---       #140
      00FF7A66H   LINE      CODE     ---       #142
      00FF7A69H   LINE      CODE     ---       #144
      ---         BLOCKEND  ---      ---       LVL=0

      00FF75A6H   BLOCK     CODE     ---       LVL=0
      00FF75A6H   LINE      CODE     ---       #146
      00FF75BAH   LINE      CODE     ---       #148
      00FF75BDH   LINE      CODE     ---       #149
      00FF75C0H   LINE      CODE     ---       #151
      ---         BLOCKEND  ---      ---       LVL=0

      ---         MODULE    ---      ---       main
      00FF5FC1H   PUBLIC    CODE     ---       main
      000000D0H   SFRSYM    DATA     BYTE      PSW
      0000009DH   SFRSYM    DATA     BYTE      IRCBAND
      00000097H   SFRSYM    DATA     BYTE      AUXR2
      000000EFH   SFRSYM    DATA     BYTE      AUXINTIF
L251 LINKER/LOCATER V4.66.93.0                                                        11/05/2024  20:15:43  PAGE 106


      000000FDH   SFRSYM    DATA     BYTE      S4CON
      000000ACH   SFRSYM    DATA     BYTE      S3CON
      0000009AH   SFRSYM    DATA     BYTE      S2CON
      000000B7H   SFRSYM    DATA     BYTE      IPH
      000000CDH   SFRSYM    DATA     BYTE      SPSTAT
      000000DDH   SFRSYM    DATA     BYTE      T4T3M
      000000C1H   SFRSYM    DATA     BYTE      WDT_CONTR
      000000DFH   SFRSYM    DATA     BYTE      IP3
      000000F4H   SFRSYM    DATA     BYTE      USBCON
      000000B5H   SFRSYM    DATA     BYTE      IP2
      000000FFH   SFRSYM    DATA     BYTE      RSTCFG
      000000C7H   SFRSYM    DATA     BYTE      IAP_CONTR
      000000F9H   SFRSYM    DATA     BYTE      LINICR
      0000008EH   SFRSYM    DATA     BYTE      AUXR
      000000AFH   SFRSYM    DATA     BYTE      IE2
      00000088H   SFRSYM    DATA     BYTE      TCON
      00000089H   SFRSYM    DATA     BYTE      TMOD
      00000098H   SFRSYM    DATA     BYTE      SCON
      000000F1H   SFRSYM    DATA     BYTE      CANICR
      00000087H   SFRSYM    DATA     BYTE      PCON
      000000BCH   SFRSYM    DATA     BYTE      ADC_CONTR
      000000E7H   SFRSYM    DATA     BYTE      CMPCR2
      000000E6H   SFRSYM    DATA     BYTE      CMPCR1
      000000DEH   SFRSYM    DATA     BYTE      ADCCFG
      000000B8H   SFRSYM    DATA     BYTE      IP
      0000008FH   SFRSYM    DATA     BYTE      INTCLKO
      000000EEH   SFRSYM    DATA     BYTE      IP3H
      000000B6H   SFRSYM    DATA     BYTE      IP2H
      000000A8H   SFRSYM    DATA     BYTE      IE
      000000BBH   SFRSYM    DATA     BYTE      P_SW3
      000000BAH   SFRSYM    DATA     BYTE      P_SW2
      000000A2H   SFRSYM    DATA     BYTE      P_SW1
      000000CEH   SFRSYM    DATA     BYTE      SPCTL
      000000F8H   SFRSYM    DATA     BYTE      P7
      000000E8H   SFRSYM    DATA     BYTE      P6
      000000C8H   SFRSYM    DATA     BYTE      P5
      000000C0H   SFRSYM    DATA     BYTE      P4
      000000B0H   SFRSYM    DATA     BYTE      P3
      000000A0H   SFRSYM    DATA     BYTE      P2
      00000090H   SFRSYM    DATA     BYTE      P1
      00000080H   SFRSYM    DATA     BYTE      P0

      00FF5FC1H   BLOCK     CODE     ---       LVL=0
      000005FDH   SYMBOL    EDATA    ---       string_buffer
      00FF5FC1H   LINE      CODE     ---       #26
      00FF5FC1H   LINE      CODE     ---       #27
      00FF5FC1H   LINE      CODE     ---       #29
      00FF5FCCH   LINE      CODE     ---       #30
      00FF5FCFH   LINE      CODE     ---       #33
      00FF5FD2H   LINE      CODE     ---       #34
      00FF5FE1H   LINE      CODE     ---       #35
      00FF5FE4H   LINE      CODE     ---       #36
      00FF5FFBH   LINE      CODE     ---       #37
      00FF6008H   LINE      CODE     ---       #38
      00FF600BH   LINE      CODE     ---       #39
      00FF6024H   LINE      CODE     ---       #40
      00FF6031H   LINE      CODE     ---       #41
      00FF6034H   LINE      CODE     ---       #42
      00FF6045H   LINE      CODE     ---       #45
      00FF6045H   LINE      CODE     ---       #48
      00FF6048H   LINE      CODE     ---       #49
      00FF6067H   LINE      CODE     ---       #50
      00FF6072H   LINE      CODE     ---       #52
      00FF6075H   LINE      CODE     ---       #53
      00FF608CH   LINE      CODE     ---       #54
L251 LINKER/LOCATER V4.66.93.0                                                        11/05/2024  20:15:43  PAGE 107


      00FF6099H   LINE      CODE     ---       #55
      00FF60B0H   LINE      CODE     ---       #56
      00FF60BDH   LINE      CODE     ---       #57
      00FF60D4H   LINE      CODE     ---       #58
      00FF60E1H   LINE      CODE     ---       #59
      00FF60F8H   LINE      CODE     ---       #60
      00FF6105H   LINE      CODE     ---       #62
      00FF610CH   LINE      CODE     ---       #63
      00FF610FH   LINE      CODE     ---       #64
      ---         BLOCKEND  ---      ---       LVL=0

      ---         MODULE    ---      ---       seekfree_assistant
      00000211H   PUBLIC    EDATA    ---       seekfree_assistant_oscilloscope_data
      0000024CH   PUBLIC    EDATA    ---       seekfree_assistant_parameter_update_flag
      00000254H   PUBLIC    EDATA    ---       seekfree_assistant_parameter
      00000B52H   PUBLIC    EDATA    BYTE      ?seekfree_assistant_camera_data_send?BYTE
      00000D85H   PUBLIC    EDATA    BYTE      ?seekfree_assistant_camera_information_config?BYTE
      00000989H   PUBLIC    EDATA    BYTE      ?seekfree_assistant_camera_boundary_config?BYTE
      000000D0H   SFRSYM    DATA     BYTE      PSW
      0000009DH   SFRSYM    DATA     BYTE      IRCBAND
      00000097H   SFRSYM    DATA     BYTE      AUXR2
      000000EFH   SFRSYM    DATA     BYTE      AUXINTIF
      000000FDH   SFRSYM    DATA     BYTE      S4CON
      000000ACH   SFRSYM    DATA     BYTE      S3CON
      0000009AH   SFRSYM    DATA     BYTE      S2CON
      000000B7H   SFRSYM    DATA     BYTE      IPH
      000000CDH   SFRSYM    DATA     BYTE      SPSTAT
      000000DDH   SFRSYM    DATA     BYTE      T4T3M
      000000C1H   SFRSYM    DATA     BYTE      WDT_CONTR
      000000DFH   SFRSYM    DATA     BYTE      IP3
      000000F4H   SFRSYM    DATA     BYTE      USBCON
      000000B5H   SFRSYM    DATA     BYTE      IP2
      000000FFH   SFRSYM    DATA     BYTE      RSTCFG
      000000C7H   SFRSYM    DATA     BYTE      IAP_CONTR
      000000F9H   SFRSYM    DATA     BYTE      LINICR
      0000008EH   SFRSYM    DATA     BYTE      AUXR
      000000AFH   SFRSYM    DATA     BYTE      IE2
      00000088H   SFRSYM    DATA     BYTE      TCON
      00000089H   SFRSYM    DATA     BYTE      TMOD
      00000098H   SFRSYM    DATA     BYTE      SCON
      000000F1H   SFRSYM    DATA     BYTE      CANICR
      00000087H   SFRSYM    DATA     BYTE      PCON
      000000BCH   SFRSYM    DATA     BYTE      ADC_CONTR
      000000E7H   SFRSYM    DATA     BYTE      CMPCR2
      000000E6H   SFRSYM    DATA     BYTE      CMPCR1
      000000DEH   SFRSYM    DATA     BYTE      ADCCFG
      000000B8H   SFRSYM    DATA     BYTE      IP
      0000008FH   SFRSYM    DATA     BYTE      INTCLKO
      000000EEH   SFRSYM    DATA     BYTE      IP3H
      000000B6H   SFRSYM    DATA     BYTE      IP2H
      000000A8H   SFRSYM    DATA     BYTE      IE
      000000BBH   SFRSYM    DATA     BYTE      P_SW3
      000000BAH   SFRSYM    DATA     BYTE      P_SW2
      000000A2H   SFRSYM    DATA     BYTE      P_SW1
      000000CEH   SFRSYM    DATA     BYTE      SPCTL
      000000F8H   SFRSYM    DATA     BYTE      P7
      000000E8H   SFRSYM    DATA     BYTE      P6
      000000C8H   SFRSYM    DATA     BYTE      P5
      000000C0H   SFRSYM    DATA     BYTE      P4
      000000B0H   SFRSYM    DATA     BYTE      P3
      000000A0H   SFRSYM    DATA     BYTE      P2
      00000090H   SFRSYM    DATA     BYTE      P1
      00000080H   SFRSYM    DATA     BYTE      P0
      00000209H   SYMBOL    EDATA    ---       seekfree_assistant_camera_dot_data
      00000235H   SYMBOL    EDATA    ---       seekfree_assistant_fifo
L251 LINKER/LOCATER V4.66.93.0                                                        11/05/2024  20:15:43  PAGE 108


      00000274H   SYMBOL    EDATA    ---       seekfree_assistant_camera_buffer
      000002BEH   SYMBOL    EDATA    ---       seekfree_assistant_camera_data
      000002C6H   SYMBOL    EDATA    ---       seekfree_assistant_buffer
      00000E84H   SYMBOL    EDATA    ---       buffer
      00000E88H   SYMBOL    EDATA    DWORD     length
      00000E8CH   SYMBOL    EDATA    BYTE      temp_sum
      00000B52H   SYMBOL    EDATA    INT       camera_type
      00000B54H   SYMBOL    EDATA    ---       image_addr
      00000B58H   SYMBOL    EDATA    BYTE      boundary_num
      00000B59H   SYMBOL    EDATA    WORD      width
      00000B5BH   SYMBOL    EDATA    WORD      height
      00000B5DH   SYMBOL    EDATA    DWORD     image_size
      00000D85H   SYMBOL    EDATA    INT       camera_type
      00000D87H   SYMBOL    EDATA    ---       image_addr
      00000D8BH   SYMBOL    EDATA    WORD      width
      00000D8DH   SYMBOL    EDATA    WORD      height
      000008B0H   SYMBOL    EDATA    ---       seekfree_assistant_oscilloscope
      000008B4H   SYMBOL    EDATA    BYTE      packet_size
      000008B5H   SYMBOL    EDATA    BYTE      i
      000008B6H   SYMBOL    EDATA    ---       temp_oscilloscope
      00000F5EH   SYMBOL    EDATA    ---       buffer
      00000F62H   SYMBOL    EDATA    BYTE      i
      00000F63H   SYMBOL    EDATA    WORD      dot_bytes
      00000989H   SYMBOL    EDATA    INT       boundary_type
      0000098BH   SYMBOL    EDATA    WORD      dot_num
      0000098DH   SYMBOL    EDATA    ---       dot_x1
      00000991H   SYMBOL    EDATA    ---       dot_x2
      00000995H   SYMBOL    EDATA    ---       dot_x3
      00000999H   SYMBOL    EDATA    ---       dot_y1
      0000099DH   SYMBOL    EDATA    ---       dot_y2
      000009A1H   SYMBOL    EDATA    ---       dot_y3
      000009A5H   SYMBOL    EDATA    BYTE      i
      000009A6H   SYMBOL    EDATA    BYTE      boundary_num
      000009A7H   SYMBOL    EDATA    BYTE      boundary_data_type
      00000346H   SYMBOL    EDATA    BYTE      temp_sum
      00000347H   SYMBOL    EDATA    DWORD     read_length
      0000034BH   SYMBOL    EDATA    ---       receive_packet
      0000034FH   SYMBOL    EDATA    ---       temp_buffer
      000003CFH   SYMBOL    EDATA    DWORD     i

      ---         MODULE    ---      ---       seekfree_assistant_inface
      000010A9H   PUBLIC    EDATA    ---       seekfree_assistant_receive
      000010ABH   PUBLIC    EDATA    ---       seekfree_assistant_transfer
      000000D0H   SFRSYM    DATA     BYTE      PSW
      0000009DH   SFRSYM    DATA     BYTE      IRCBAND
      00000097H   SFRSYM    DATA     BYTE      AUXR2
      000000EFH   SFRSYM    DATA     BYTE      AUXINTIF
      000000FDH   SFRSYM    DATA     BYTE      S4CON
      000000ACH   SFRSYM    DATA     BYTE      S3CON
      0000009AH   SFRSYM    DATA     BYTE      S2CON
      000000B7H   SFRSYM    DATA     BYTE      IPH
      000000CDH   SFRSYM    DATA     BYTE      SPSTAT
      000000DDH   SFRSYM    DATA     BYTE      T4T3M
      000000C1H   SFRSYM    DATA     BYTE      WDT_CONTR
      000000DFH   SFRSYM    DATA     BYTE      IP3
      000000F4H   SFRSYM    DATA     BYTE      USBCON
      000000B5H   SFRSYM    DATA     BYTE      IP2
      000000FFH   SFRSYM    DATA     BYTE      RSTCFG
      000000C7H   SFRSYM    DATA     BYTE      IAP_CONTR
      000000F9H   SFRSYM    DATA     BYTE      LINICR
      0000008EH   SFRSYM    DATA     BYTE      AUXR
      000000AFH   SFRSYM    DATA     BYTE      IE2
      00000088H   SFRSYM    DATA     BYTE      TCON
      00000089H   SFRSYM    DATA     BYTE      TMOD
      00000098H   SFRSYM    DATA     BYTE      SCON
L251 LINKER/LOCATER V4.66.93.0                                                        11/05/2024  20:15:43  PAGE 109


      000000F1H   SFRSYM    DATA     BYTE      CANICR
      00000087H   SFRSYM    DATA     BYTE      PCON
      000000BCH   SFRSYM    DATA     BYTE      ADC_CONTR
      000000E7H   SFRSYM    DATA     BYTE      CMPCR2
      000000E6H   SFRSYM    DATA     BYTE      CMPCR1
      000000DEH   SFRSYM    DATA     BYTE      ADCCFG
      000000B8H   SFRSYM    DATA     BYTE      IP
      0000008FH   SFRSYM    DATA     BYTE      INTCLKO
      000000EEH   SFRSYM    DATA     BYTE      IP3H
      000000B6H   SFRSYM    DATA     BYTE      IP2H
      000000A8H   SFRSYM    DATA     BYTE      IE
      000000BBH   SFRSYM    DATA     BYTE      P_SW3
      000000BAH   SFRSYM    DATA     BYTE      P_SW2
      000000A2H   SFRSYM    DATA     BYTE      P_SW1
      000000CEH   SFRSYM    DATA     BYTE      SPCTL
      000000F8H   SFRSYM    DATA     BYTE      P7
      000000E8H   SFRSYM    DATA     BYTE      P6
      000000C8H   SFRSYM    DATA     BYTE      P5
      000000C0H   SFRSYM    DATA     BYTE      P4
      000000B0H   SFRSYM    DATA     BYTE      P3
      000000A0H   SFRSYM    DATA     BYTE      P2
      00000090H   SFRSYM    DATA     BYTE      P1
      00000080H   SFRSYM    DATA     BYTE      P0

      ---         MODULE    ---      ---       drv8701_dual
      00FF65E3H   PUBLIC    CODE     ---       drv8701_control
      00FF7461H   PUBLIC    CODE     ---       drv8701_init
      00FF7A40H   PUBLIC    CODE     ---       drv8701_stop
      000000D0H   SFRSYM    DATA     BYTE      PSW
      0000009DH   SFRSYM    DATA     BYTE      IRCBAND
      00000097H   SFRSYM    DATA     BYTE      AUXR2
      000000EFH   SFRSYM    DATA     BYTE      AUXINTIF
      000000FDH   SFRSYM    DATA     BYTE      S4CON
      000000ACH   SFRSYM    DATA     BYTE      S3CON
      0000009AH   SFRSYM    DATA     BYTE      S2CON
      000000B7H   SFRSYM    DATA     BYTE      IPH
      000000CDH   SFRSYM    DATA     BYTE      SPSTAT
      000000DDH   SFRSYM    DATA     BYTE      T4T3M
      000000C1H   SFRSYM    DATA     BYTE      WDT_CONTR
      000000DFH   SFRSYM    DATA     BYTE      IP3
      000000F4H   SFRSYM    DATA     BYTE      USBCON
      000000B5H   SFRSYM    DATA     BYTE      IP2
      000000FFH   SFRSYM    DATA     BYTE      RSTCFG
      000000C7H   SFRSYM    DATA     BYTE      IAP_CONTR
      000000F9H   SFRSYM    DATA     BYTE      LINICR
      0000008EH   SFRSYM    DATA     BYTE      AUXR
      000000AFH   SFRSYM    DATA     BYTE      IE2
      00000088H   SFRSYM    DATA     BYTE      TCON
      00000089H   SFRSYM    DATA     BYTE      TMOD
      00000098H   SFRSYM    DATA     BYTE      SCON
      000000F1H   SFRSYM    DATA     BYTE      CANICR
      00000087H   SFRSYM    DATA     BYTE      PCON
      000000BCH   SFRSYM    DATA     BYTE      ADC_CONTR
      000000E7H   SFRSYM    DATA     BYTE      CMPCR2
      000000E6H   SFRSYM    DATA     BYTE      CMPCR1
      000000DEH   SFRSYM    DATA     BYTE      ADCCFG
      000000B8H   SFRSYM    DATA     BYTE      IP
      0000008FH   SFRSYM    DATA     BYTE      INTCLKO
      000000EEH   SFRSYM    DATA     BYTE      IP3H
      000000B6H   SFRSYM    DATA     BYTE      IP2H
      000000A8H   SFRSYM    DATA     BYTE      IE
      000000BBH   SFRSYM    DATA     BYTE      P_SW3
      000000BAH   SFRSYM    DATA     BYTE      P_SW2
      000000A2H   SFRSYM    DATA     BYTE      P_SW1
      000000CEH   SFRSYM    DATA     BYTE      SPCTL
L251 LINKER/LOCATER V4.66.93.0                                                        11/05/2024  20:15:43  PAGE 110


      000000F8H   SFRSYM    DATA     BYTE      P7
      000000E8H   SFRSYM    DATA     BYTE      P6
      000000C8H   SFRSYM    DATA     BYTE      P5
      000000C0H   SFRSYM    DATA     BYTE      P4
      000000B0H   SFRSYM    DATA     BYTE      P3
      000000A0H   SFRSYM    DATA     BYTE      P2
      00000090H   SFRSYM    DATA     BYTE      P1
      00000080H   SFRSYM    DATA     BYTE      P0
      00FF72E2H   SYMBOL    CODE     ---       set_motor

      00FF72E2H   BLOCK     CODE     ---       LVL=0
      000010ADH   SYMBOL    EDATA    BYTE      dir_pin
      000010AEH   SYMBOL    EDATA    BYTE      motor_pwm_channel
      000010AFH   SYMBOL    EDATA    INT       speed_mapped
      00FF72E2H   LINE      CODE     ---       #34
      00FF72EEH   LINE      CODE     ---       #37
      00FF72F8H   LINE      CODE     ---       #39
      00FF72FDH   LINE      CODE     ---       #40
      00FF72FFH   LINE      CODE     ---       #43
      00FF7305H   LINE      CODE     ---       #44
      00FF7313H   LINE      CODE     ---       #45
      00FF7313H   LINE      CODE     ---       #48
      00FF7324H   LINE      CODE     ---       #49
      ---         BLOCKEND  ---      ---       LVL=0

      00FF7461H   BLOCK     CODE     ---       LVL=0
      00FF7461H   LINE      CODE     ---       #54
      00FF7461H   LINE      CODE     ---       #57
      00FF7472H   LINE      CODE     ---       #58
      00FF7483H   LINE      CODE     ---       #61
      00FF748EH   LINE      CODE     ---       #62
      00FF7499H   LINE      CODE     ---       #63
      ---         BLOCKEND  ---      ---       LVL=0

      00FF65E3H   BLOCK     CODE     ---       LVL=0
      00001013H   SYMBOL    EDATA    INT       motor_select
      00001015H   SYMBOL    EDATA    INT       speed
      00FF65EBH   BLOCK     CODE     NEAR LAB  LVL=1
      00001017H   SYMBOL    EDATA    INT       mapped_speed
      ---         BLOCKEND  ---      ---       LVL=1
      00FF65E3H   LINE      CODE     ---       #70
      00FF65EBH   LINE      CODE     ---       #71
      00FF65EBH   LINE      CODE     ---       #74
      00FF65F7H   LINE      CODE     ---       #75
      00FF6601H   LINE      CODE     ---       #76
      00FF660DH   LINE      CODE     ---       #77
      00FF6615H   LINE      CODE     ---       #80
      00FF662AH   LINE      CODE     ---       #83
      00FF663AH   LINE      CODE     ---       #85
      00FF663AH   LINE      CODE     ---       #86
      00FF6646H   LINE      CODE     ---       #87
      00FF6648H   LINE      CODE     ---       #89
      00FF6648H   LINE      CODE     ---       #90
      00FF6654H   LINE      CODE     ---       #91
      00FF6656H   LINE      CODE     ---       #93
      00FF6656H   LINE      CODE     ---       #94
      00FF6662H   LINE      CODE     ---       #95
      00FF666EH   LINE      CODE     ---       #96
      00FF666EH   LINE      CODE     ---       #98
      00FF666EH   LINE      CODE     ---       #100
      00FF666EH   LINE      CODE     ---       #101
      00FF666EH   LINE      CODE     ---       #102
      ---         BLOCKEND  ---      ---       LVL=0

      00FF7A40H   BLOCK     CODE     ---       LVL=0
L251 LINKER/LOCATER V4.66.93.0                                                        11/05/2024  20:15:43  PAGE 111


      00001143H   SYMBOL    EDATA    INT       motor_select
      00FF7A40H   LINE      CODE     ---       #108
      00FF7A44H   LINE      CODE     ---       #110
      00FF7A49H   LINE      CODE     ---       #111
      ---         BLOCKEND  ---      ---       LVL=0

      ---         MODULE    ---      ---       servo
      00FF78D9H   PUBLIC    CODE     ---       servo_init
      00000CEEH   PUBLIC    EDATA    CHAR      servo_position
      00000CF1H   PUBLIC    EDATA    FLOAT     servo_Kd
      00000CF5H   PUBLIC    EDATA    FLOAT     servo_Kp
      000000D0H   SFRSYM    DATA     BYTE      PSW
      0000009DH   SFRSYM    DATA     BYTE      IRCBAND
      00000097H   SFRSYM    DATA     BYTE      AUXR2
      000000EFH   SFRSYM    DATA     BYTE      AUXINTIF
      000000FDH   SFRSYM    DATA     BYTE      S4CON
      000000ACH   SFRSYM    DATA     BYTE      S3CON
      0000009AH   SFRSYM    DATA     BYTE      S2CON
      000000B7H   SFRSYM    DATA     BYTE      IPH
      000000CDH   SFRSYM    DATA     BYTE      SPSTAT
      000000DDH   SFRSYM    DATA     BYTE      T4T3M
      000000C1H   SFRSYM    DATA     BYTE      WDT_CONTR
      000000DFH   SFRSYM    DATA     BYTE      IP3
      000000F4H   SFRSYM    DATA     BYTE      USBCON
      000000B5H   SFRSYM    DATA     BYTE      IP2
      000000FFH   SFRSYM    DATA     BYTE      RSTCFG
      000000C7H   SFRSYM    DATA     BYTE      IAP_CONTR
      000000F9H   SFRSYM    DATA     BYTE      LINICR
      0000008EH   SFRSYM    DATA     BYTE      AUXR
      000000AFH   SFRSYM    DATA     BYTE      IE2
      00000088H   SFRSYM    DATA     BYTE      TCON
      00000089H   SFRSYM    DATA     BYTE      TMOD
      00000098H   SFRSYM    DATA     BYTE      SCON
      000000F1H   SFRSYM    DATA     BYTE      CANICR
      00000087H   SFRSYM    DATA     BYTE      PCON
      000000BCH   SFRSYM    DATA     BYTE      ADC_CONTR
      000000E7H   SFRSYM    DATA     BYTE      CMPCR2
      000000E6H   SFRSYM    DATA     BYTE      CMPCR1
      000000DEH   SFRSYM    DATA     BYTE      ADCCFG
      000000B8H   SFRSYM    DATA     BYTE      IP
      0000008FH   SFRSYM    DATA     BYTE      INTCLKO
      000000EEH   SFRSYM    DATA     BYTE      IP3H
      000000B6H   SFRSYM    DATA     BYTE      IP2H
      000000A8H   SFRSYM    DATA     BYTE      IE
      000000BBH   SFRSYM    DATA     BYTE      P_SW3
      000000BAH   SFRSYM    DATA     BYTE      P_SW2
      000000A2H   SFRSYM    DATA     BYTE      P_SW1
      000000CEH   SFRSYM    DATA     BYTE      SPCTL
      000000F8H   SFRSYM    DATA     BYTE      P7
      000000E8H   SFRSYM    DATA     BYTE      P6
      000000C8H   SFRSYM    DATA     BYTE      P5
      000000C0H   SFRSYM    DATA     BYTE      P4
      000000B0H   SFRSYM    DATA     BYTE      P3
      000000A0H   SFRSYM    DATA     BYTE      P2
      00000090H   SFRSYM    DATA     BYTE      P1
      00000080H   SFRSYM    DATA     BYTE      P0
      00000CEFH   SYMBOL    EDATA    INT       previous_error

      00FF78D9H   BLOCK     CODE     ---       LVL=0
      000010B1H   SYMBOL    EDATA    DWORD     duty
      00FF78D9H   LINE      CODE     ---       #42
      00FF78D9H   LINE      CODE     ---       #43
      00FF78D9H   LINE      CODE     ---       #44
      00FF78E1H   LINE      CODE     ---       #45
      00FF78F0H   LINE      CODE     ---       #46
L251 LINKER/LOCATER V4.66.93.0                                                        11/05/2024  20:15:43  PAGE 112


      ---         BLOCKEND  ---      ---       LVL=0
      00001019H   SYMBOL    EDATA    INT       angle
      0000101BH   SYMBOL    EDATA    DWORD     pulseWide

      ---         MODULE    ---      ---       battery
      00FF7A34H   PUBLIC    CODE     ---       battery_init
      00FF6C81H   PUBLIC    CODE     ---       get_battery_percentage
      00FF7A52H   PUBLIC    CODE     ---       update_battery_status
      00FF6C1DH   PUBLIC    CODE     ---       get_battery_voltage
      00000D8FH   PUBLIC    EDATA    WORD      battery_percentage
      00000D91H   PUBLIC    EDATA    DWORD     temp
      00000D95H   PUBLIC    EDATA    WORD      ad_result
      00000D97H   PUBLIC    EDATA    WORD      battery_voltage
      000000D0H   SFRSYM    DATA     BYTE      PSW
      0000009DH   SFRSYM    DATA     BYTE      IRCBAND
      00000097H   SFRSYM    DATA     BYTE      AUXR2
      000000EFH   SFRSYM    DATA     BYTE      AUXINTIF
      000000FDH   SFRSYM    DATA     BYTE      S4CON
      000000ACH   SFRSYM    DATA     BYTE      S3CON
      0000009AH   SFRSYM    DATA     BYTE      S2CON
      000000B7H   SFRSYM    DATA     BYTE      IPH
      000000CDH   SFRSYM    DATA     BYTE      SPSTAT
      000000DDH   SFRSYM    DATA     BYTE      T4T3M
      000000C1H   SFRSYM    DATA     BYTE      WDT_CONTR
      000000DFH   SFRSYM    DATA     BYTE      IP3
      000000F4H   SFRSYM    DATA     BYTE      USBCON
      000000B5H   SFRSYM    DATA     BYTE      IP2
      000000FFH   SFRSYM    DATA     BYTE      RSTCFG
      000000C7H   SFRSYM    DATA     BYTE      IAP_CONTR
      000000F9H   SFRSYM    DATA     BYTE      LINICR
      0000008EH   SFRSYM    DATA     BYTE      AUXR
      000000AFH   SFRSYM    DATA     BYTE      IE2
      00000088H   SFRSYM    DATA     BYTE      TCON
      00000089H   SFRSYM    DATA     BYTE      TMOD
      00000098H   SFRSYM    DATA     BYTE      SCON
      000000F1H   SFRSYM    DATA     BYTE      CANICR
      00000087H   SFRSYM    DATA     BYTE      PCON
      000000BCH   SFRSYM    DATA     BYTE      ADC_CONTR
      000000E7H   SFRSYM    DATA     BYTE      CMPCR2
      000000E6H   SFRSYM    DATA     BYTE      CMPCR1
      000000DEH   SFRSYM    DATA     BYTE      ADCCFG
      000000B8H   SFRSYM    DATA     BYTE      IP
      0000008FH   SFRSYM    DATA     BYTE      INTCLKO
      000000EEH   SFRSYM    DATA     BYTE      IP3H
      000000B6H   SFRSYM    DATA     BYTE      IP2H
      000000A8H   SFRSYM    DATA     BYTE      IE
      000000BBH   SFRSYM    DATA     BYTE      P_SW3
      000000BAH   SFRSYM    DATA     BYTE      P_SW2
      000000A2H   SFRSYM    DATA     BYTE      P_SW1
      000000CEH   SFRSYM    DATA     BYTE      SPCTL
      000000F8H   SFRSYM    DATA     BYTE      P7
      000000E8H   SFRSYM    DATA     BYTE      P6
      000000C8H   SFRSYM    DATA     BYTE      P5
      000000C0H   SFRSYM    DATA     BYTE      P4
      000000B0H   SFRSYM    DATA     BYTE      P3
      000000A0H   SFRSYM    DATA     BYTE      P2
      00000090H   SFRSYM    DATA     BYTE      P1
      00000080H   SFRSYM    DATA     BYTE      P0

      00FF7A34H   BLOCK     CODE     ---       LVL=0
      00FF7A34H   LINE      CODE     ---       #35
      00FF7A34H   LINE      CODE     ---       #36
      00FF7A3FH   LINE      CODE     ---       #37
      ---         BLOCKEND  ---      ---       LVL=0

L251 LINKER/LOCATER V4.66.93.0                                                        11/05/2024  20:15:43  PAGE 113


      00FF6C1DH   BLOCK     CODE     ---       LVL=0
      00FF6C1DH   LINE      CODE     ---       #47
      00FF6C1DH   LINE      CODE     ---       #48
      00FF6C2AH   LINE      CODE     ---       #49
      00FF6C3FH   LINE      CODE     ---       #50
      00FF6C4BH   LINE      CODE     ---       #51
      00FF6C4DH   LINE      CODE     ---       #52
      00FF6C60H   LINE      CODE     ---       #53
      00FF6C67H   LINE      CODE     ---       #54
      00FF6C70H   LINE      CODE     ---       #56
      00FF6C7CH   LINE      CODE     ---       #58
      00FF6C80H   LINE      CODE     ---       #59
      ---         BLOCKEND  ---      ---       LVL=0

      00FF6C81H   BLOCK     CODE     ---       LVL=0
      00000F1DH   SYMBOL    EDATA    INT       max_voltage
      00000F1FH   SYMBOL    EDATA    INT       min_voltage
      00000F21H   SYMBOL    EDATA    INT       current_voltage
      00000F23H   SYMBOL    EDATA    INT       percentage
      00FF6C81H   LINE      CODE     ---       #61
      00FF6C81H   LINE      CODE     ---       #62
      00FF6C89H   LINE      CODE     ---       #63
      00FF6C91H   LINE      CODE     ---       #64
      00FF6C98H   LINE      CODE     ---       #65
      00FF6CB9H   LINE      CODE     ---       #66
      00FF6CC5H   LINE      CODE     ---       #67
      00FF6CCDH   LINE      CODE     ---       #68
      00FF6CCDH   LINE      CODE     ---       #69
      00FF6CD7H   LINE      CODE     ---       #70
      00FF6CDDH   LINE      CODE     ---       #71
      00FF6CDDH   LINE      CODE     ---       #72
      00FF6CE1H   LINE      CODE     ---       #73
      ---         BLOCKEND  ---      ---       LVL=0

      00FF7A52H   BLOCK     CODE     ---       LVL=0
      00FF7A52H   LINE      CODE     ---       #80
      00FF7A52H   LINE      CODE     ---       #81
      00FF7A59H   LINE      CODE     ---       #82
      ---         BLOCKEND  ---      ---       LVL=0

      ---         MODULE    ---      ---       encoder
      000000D0H   SFRSYM    DATA     BYTE      PSW
      0000009DH   SFRSYM    DATA     BYTE      IRCBAND
      00000097H   SFRSYM    DATA     BYTE      AUXR2
      000000EFH   SFRSYM    DATA     BYTE      AUXINTIF
      000000FDH   SFRSYM    DATA     BYTE      S4CON
      000000ACH   SFRSYM    DATA     BYTE      S3CON
      0000009AH   SFRSYM    DATA     BYTE      S2CON
      000000B7H   SFRSYM    DATA     BYTE      IPH
      000000CDH   SFRSYM    DATA     BYTE      SPSTAT
      000000DDH   SFRSYM    DATA     BYTE      T4T3M
      000000C1H   SFRSYM    DATA     BYTE      WDT_CONTR
      000000DFH   SFRSYM    DATA     BYTE      IP3
      000000F4H   SFRSYM    DATA     BYTE      USBCON
      000000B5H   SFRSYM    DATA     BYTE      IP2
      000000FFH   SFRSYM    DATA     BYTE      RSTCFG
      000000C7H   SFRSYM    DATA     BYTE      IAP_CONTR
      000000F9H   SFRSYM    DATA     BYTE      LINICR
      0000008EH   SFRSYM    DATA     BYTE      AUXR
      000000AFH   SFRSYM    DATA     BYTE      IE2
      000000B0H.5 SFRSYM    DATA     BIT       P35
      000000C8H.3 SFRSYM    DATA     BIT       P53
      00000088H   SFRSYM    DATA     BYTE      TCON
      00000089H   SFRSYM    DATA     BYTE      TMOD
      00000098H   SFRSYM    DATA     BYTE      SCON
L251 LINKER/LOCATER V4.66.93.0                                                        11/05/2024  20:15:43  PAGE 114


      000000F1H   SFRSYM    DATA     BYTE      CANICR
      00000087H   SFRSYM    DATA     BYTE      PCON
      000000BCH   SFRSYM    DATA     BYTE      ADC_CONTR
      000000E7H   SFRSYM    DATA     BYTE      CMPCR2
      000000E6H   SFRSYM    DATA     BYTE      CMPCR1
      000000DEH   SFRSYM    DATA     BYTE      ADCCFG
      000000B8H   SFRSYM    DATA     BYTE      IP
      0000008FH   SFRSYM    DATA     BYTE      INTCLKO
      000000EEH   SFRSYM    DATA     BYTE      IP3H
      000000B6H   SFRSYM    DATA     BYTE      IP2H
      000000A8H   SFRSYM    DATA     BYTE      IE
      000000BBH   SFRSYM    DATA     BYTE      P_SW3
      000000BAH   SFRSYM    DATA     BYTE      P_SW2
      000000A2H   SFRSYM    DATA     BYTE      P_SW1
      000000CEH   SFRSYM    DATA     BYTE      SPCTL
      000000F8H   SFRSYM    DATA     BYTE      P7
      000000E8H   SFRSYM    DATA     BYTE      P6
      000000C8H   SFRSYM    DATA     BYTE      P5
      000000C0H   SFRSYM    DATA     BYTE      P4
      000000B0H   SFRSYM    DATA     BYTE      P3
      000000A0H   SFRSYM    DATA     BYTE      P2
      00000090H   SFRSYM    DATA     BYTE      P1
      00000080H   SFRSYM    DATA     BYTE      P0
      00001145H   SYMBOL    EDATA    INT       dat
      00001147H   SYMBOL    EDATA    INT       dat

      ---         MODULE    ---      ---       line
      00FF73E8H   PUBLIC    CODE     ---       Line_read_raw
      00000F25H   PUBLIC    EDATA    ---       adc_value
      000000D0H   SFRSYM    DATA     BYTE      PSW
      0000009DH   SFRSYM    DATA     BYTE      IRCBAND
      00000097H   SFRSYM    DATA     BYTE      AUXR2
      000000EFH   SFRSYM    DATA     BYTE      AUXINTIF
      000000FDH   SFRSYM    DATA     BYTE      S4CON
      000000ACH   SFRSYM    DATA     BYTE      S3CON
      0000009AH   SFRSYM    DATA     BYTE      S2CON
      000000B7H   SFRSYM    DATA     BYTE      IPH
      000000CDH   SFRSYM    DATA     BYTE      SPSTAT
      000000DDH   SFRSYM    DATA     BYTE      T4T3M
      000000C1H   SFRSYM    DATA     BYTE      WDT_CONTR
      000000DFH   SFRSYM    DATA     BYTE      IP3
      000000F4H   SFRSYM    DATA     BYTE      USBCON
      000000B5H   SFRSYM    DATA     BYTE      IP2
      000000FFH   SFRSYM    DATA     BYTE      RSTCFG
      000000C7H   SFRSYM    DATA     BYTE      IAP_CONTR
      000000F9H   SFRSYM    DATA     BYTE      LINICR
      0000008EH   SFRSYM    DATA     BYTE      AUXR
      000000AFH   SFRSYM    DATA     BYTE      IE2
      00000088H   SFRSYM    DATA     BYTE      TCON
      00000089H   SFRSYM    DATA     BYTE      TMOD
      00000098H   SFRSYM    DATA     BYTE      SCON
      000000F1H   SFRSYM    DATA     BYTE      CANICR
      00000087H   SFRSYM    DATA     BYTE      PCON
      000000BCH   SFRSYM    DATA     BYTE      ADC_CONTR
      000000E7H   SFRSYM    DATA     BYTE      CMPCR2
      000000E6H   SFRSYM    DATA     BYTE      CMPCR1
      000000DEH   SFRSYM    DATA     BYTE      ADCCFG
      000000B8H   SFRSYM    DATA     BYTE      IP
      0000008FH   SFRSYM    DATA     BYTE      INTCLKO
      000000EEH   SFRSYM    DATA     BYTE      IP3H
      000000B6H   SFRSYM    DATA     BYTE      IP2H
      000000A8H   SFRSYM    DATA     BYTE      IE
      000000BBH   SFRSYM    DATA     BYTE      P_SW3
      000000BAH   SFRSYM    DATA     BYTE      P_SW2
      000000A2H   SFRSYM    DATA     BYTE      P_SW1
L251 LINKER/LOCATER V4.66.93.0                                                        11/05/2024  20:15:43  PAGE 115


      000000CEH   SFRSYM    DATA     BYTE      SPCTL
      000000F8H   SFRSYM    DATA     BYTE      P7
      000000E8H   SFRSYM    DATA     BYTE      P6
      000000C8H   SFRSYM    DATA     BYTE      P5
      000000C0H   SFRSYM    DATA     BYTE      P4
      000000B0H   SFRSYM    DATA     BYTE      P3
      000000A0H   SFRSYM    DATA     BYTE      P2
      00000090H   SFRSYM    DATA     BYTE      P1
      00000080H   SFRSYM    DATA     BYTE      P0

      00FF73E8H   BLOCK     CODE     ---       LVL=0
      00FF73E8H   LINE      CODE     ---       #13
      00FF73E8H   LINE      CODE     ---       #14
      00FF73F7H   LINE      CODE     ---       #15
      00FF7406H   LINE      CODE     ---       #16
      00FF7415H   LINE      CODE     ---       #17
      00FF7424H   LINE      CODE     ---       #18
      ---         BLOCKEND  ---      ---       LVL=0
      00000D99H   SYMBOL    EDATA    INT       adc1
      00000D9BH   SYMBOL    EDATA    INT       adc2
      00000D9DH   SYMBOL    EDATA    INT       adc3
      00000D9FH   SYMBOL    EDATA    INT       adc4
      00000DA1H   SYMBOL    EDATA    INT       position

      ---         MODULE    ---      ---       SEEKFREE_CONFIG
      00FF00A6H   PUBLIC    CODE     ---       dl1b_default_configuration
      00FF012DH   PUBLIC    CODE     ---       imu660ra_config_file

      ---         MODULE    ---      ---       PRINTF
      00FF405AH   PUBLIC    CODE     NEAR LAB  PRINTF

      ---         MODULE    ---      ---       SPRINTF
      00000902H   PUBLIC    EDATA    ---       ?SPRINTF?BYTE
      00FF4086H   PUBLIC    CODE     NEAR LAB  SPRINTF

      ---         MODULE    ---      ---       ?C?PRNFMT
      00FF40D3H   PUBLIC    CODE     ---       ?C?PRNFMT

      ---         MODULE    ---      ---       ?C?FPCONVERT
      00FF44F0H   PUBLIC    CODE     ---       ?C?FPCONVERT
      00FF45A8H   PUBLIC    CODE     ---       ?C?FPROUND

      ---         MODULE    ---      ---       ?C?FTNPWR
      00FF461BH   PUBLIC    CODE     ---       ?C?FTNPWR

      ---         MODULE    ---      ---       ?C_START
      00FF0000H   PUBLIC    CODE     ---       ?C?STARTUP
      00FF0000H   PUBLIC    CODE     ---       ?C_STARTUP

      ---         MODULE    ---      ---       ?C?INITEDATA
      00FF73BCH   PUBLIC    CODE     ---       ?C?INITEDATA

      ---         MODULE    ---      ---       ?C?SIDIV
      00FF4652H   PUBLIC    CODE     ---       ?C?SIDIV

      ---         MODULE    ---      ---       ?C?LMUL
      00FF4684H   PUBLIC    CODE     ---       ?C?LMUL

      ---         MODULE    ---      ---       ?C?LIMUL
      00FF4695H   PUBLIC    CODE     ---       ?C?LIMUL

      ---         MODULE    ---      ---       ?C?ULDIV
      00FF46A0H   PUBLIC    CODE     NEAR LAB  ?C?ULDIV
      00FF469EH   PUBLIC    CODE     NEAR LAB  ?C?ULIDIV

L251 LINKER/LOCATER V4.66.93.0                                                        11/05/2024  20:15:43  PAGE 116


      ---         MODULE    ---      ---       ?C?SLDIV
      00FF46F1H   PUBLIC    CODE     NEAR LAB  ?C?SLDIV

      ---         MODULE    ---      ---       ?C?BMOVENP
      00FF4727H   PUBLIC    CODE     ---       ?C?BMOVENP
      00FF4725H   PUBLIC    CODE     ---       ?C?BMOVENP8

      ---         MODULE    ---      ---       STRLEN

      ---         MODULE    ---      ---       memcpy
      00FF771FH   PUBLIC    CODE     ---       memcpy?_

      ---         MODULE    ---      ---       memset

      ---         MODULE    ---      ---       ?C?INITEDATA_END
      00FF7CB5H   PUBLIC    HCONST   WORD      ?C?INITEDATA_END

Program Size: data=8.0 edata+hdata=4704 xdata=0 const=1080 code=31330
L251 RUN COMPLETE.  0 WARNING(S),  0 ERROR(S)
